ARM GAS  C:\msys64\tmp\ccGV88Iu.s 			page 1


   1              		.syntax unified
   2              		.cpu cortex-m4
   3              		.eabi_attribute 27, 1
   4              		.eabi_attribute 28, 1
   5              		.fpu fpv4-sp-d16
   6              		.eabi_attribute 20, 1
   7              		.eabi_attribute 21, 1
   8              		.eabi_attribute 23, 3
   9              		.eabi_attribute 24, 1
  10              		.eabi_attribute 25, 1
  11              		.eabi_attribute 26, 1
  12              		.eabi_attribute 30, 4
  13              		.eabi_attribute 34, 1
  14              		.eabi_attribute 18, 4
  15              		.thumb
  16              		.syntax unified
  17              		.file	"_unit.c"
  18              		.text
  19              	.Ltext0:
  20              		.cfi_sections	.debug_frame
  21              		.align	1
  22              		.weak	_hook_process
  23              		.thumb
  24              		.thumb_func
  25              		.type	_hook_process, %function
  26              	_hook_process:
  27              	.LFB230:
  28              		.file 1 "../../tpl/_unit.c"
  29              		.loc 1 130 0
  30              		.cfi_startproc
  31              		@ args = 4, pretend = 0, frame = 0
  32              		@ frame_needed = 0, uses_anonymous_args = 0
  33              		@ link register save eliminated.
  34              	.LVL0:
  35 0000 7047     		bx	lr
  36              		.cfi_endproc
  37              	.LFE230:
  38              		.size	_hook_process, .-_hook_process
  39              		.align	1
  40              		.weak	_hook_resume
  41              		.thumb
  42              		.thumb_func
  43              		.type	_hook_resume, %function
  44              	_hook_resume:
  45              	.LFB232:
  46              		.loc 1 146 0
  47              		.cfi_startproc
  48              		@ args = 0, pretend = 0, frame = 0
  49              		@ frame_needed = 0, uses_anonymous_args = 0
  50              		@ link register save eliminated.
  51 0002 7047     		bx	lr
  52              		.cfi_endproc
  53              	.LFE232:
  54              		.size	_hook_resume, .-_hook_resume
  55              		.align	1
  56              		.weak	_hook_param
  57              		.thumb
ARM GAS  C:\msys64\tmp\ccGV88Iu.s 			page 2


  58              		.thumb_func
  59              		.type	_hook_param, %function
  60              	_hook_param:
  61              	.LFB233:
  62              		.loc 1 152 0
  63              		.cfi_startproc
  64              		@ args = 0, pretend = 0, frame = 0
  65              		@ frame_needed = 0, uses_anonymous_args = 0
  66              		@ link register save eliminated.
  67              	.LVL1:
  68 0004 7047     		bx	lr
  69              		.cfi_endproc
  70              	.LFE233:
  71              		.size	_hook_param, .-_hook_param
  72              		.align	1
  73              		.weak	_hook_suspend
  74              		.thumb
  75              		.thumb_func
  76              		.type	_hook_suspend, %function
  77              	_hook_suspend:
  78              	.LFB235:
  79              		.cfi_startproc
  80              		@ args = 0, pretend = 0, frame = 0
  81              		@ frame_needed = 0, uses_anonymous_args = 0
  82              		@ link register save eliminated.
  83 0006 7047     		bx	lr
  84              		.cfi_endproc
  85              	.LFE235:
  86              		.size	_hook_suspend, .-_hook_suspend
  87              		.align	1
  88              		.weak	_hook_init
  89              		.thumb
  90              		.thumb_func
  91              		.type	_hook_init, %function
  92              	_hook_init:
  93              	.LFB229:
  94              		.loc 1 121 0
  95              		.cfi_startproc
  96              		@ args = 0, pretend = 0, frame = 0
  97              		@ frame_needed = 0, uses_anonymous_args = 0
  98              		@ link register save eliminated.
  99              	.LVL2:
 100 0008 7047     		bx	lr
 101              		.cfi_endproc
 102              	.LFE229:
 103              		.size	_hook_init, .-_hook_init
 104              		.align	1
 105              		.global	_entry
 106              		.thumb
 107              		.thumb_func
 108              		.type	_entry, %function
 109              	_entry:
 110              	.LFB228:
 111              		.loc 1 99 0
 112              		.cfi_startproc
 113              		@ args = 0, pretend = 0, frame = 0
 114              		@ frame_needed = 0, uses_anonymous_args = 0
ARM GAS  C:\msys64\tmp\ccGV88Iu.s 			page 3


 115              	.LVL3:
 116 000a 104B     		ldr	r3, .L18
 117 000c 104A     		ldr	r2, .L18+4
 118              		.loc 1 99 0
 119 000e 2DE9F041 		push	{r4, r5, r6, r7, r8, lr}
 120              		.cfi_def_cfa_offset 24
 121              		.cfi_offset 4, -24
 122              		.cfi_offset 5, -20
 123              		.cfi_offset 6, -16
 124              		.cfi_offset 7, -12
 125              		.cfi_offset 8, -8
 126              		.cfi_offset 14, -4
 127              		.loc 1 99 0
 128 0012 8846     		mov	r8, r1
 129 0014 0746     		mov	r7, r0
 130              		.loc 1 105 0
 131 0016 0021     		movs	r1, #0
 132              	.LVL4:
 133              	.L7:
 134              		.loc 1 104 0
 135 0018 9342     		cmp	r3, r2
 136 001a 02D0     		beq	.L16
 137              	.LVL5:
 138              		.loc 1 105 0
 139 001c 03F8011F 		strb	r1, [r3, #1]!
 140              	.LVL6:
 141 0020 FAE7     		b	.L7
 142              	.L16:
 143              	.LVL7:
 144 0022 0C4B     		ldr	r3, .L18+8
 145              	.LVL8:
 146 0024 0C4C     		ldr	r4, .L18+12
 147 0026 E41A     		subs	r4, r4, r3
 148 0028 A410     		asrs	r4, r4, #2
 149              	.LBB2:
 150              		.loc 1 109 0
 151 002a 0025     		movs	r5, #0
 152 002c 1E46     		mov	r6, r3
 153              	.LVL9:
 154              	.L9:
 155              		.loc 1 109 0 is_stmt 0 discriminator 1
 156 002e A542     		cmp	r5, r4
 157 0030 05D0     		beq	.L17
 158              	.LBB3:
 159              		.loc 1 110 0 is_stmt 1
 160 0032 56F82530 		ldr	r3, [r6, r5, lsl #2]
 161              	.LVL10:
 162              		.loc 1 111 0
 163 0036 03B1     		cbz	r3, .L10
 164              		.loc 1 112 0
 165 0038 9847     		blx	r3
 166              	.LVL11:
 167              	.L10:
 168              	.LBE3:
 169              		.loc 1 109 0 discriminator 2
 170 003a 0135     		adds	r5, r5, #1
 171              	.LVL12:
ARM GAS  C:\msys64\tmp\ccGV88Iu.s 			page 4


 172 003c F7E7     		b	.L9
 173              	.L17:
 174              	.LBE2:
 175              		.loc 1 116 0
 176 003e 4146     		mov	r1, r8
 177 0040 3846     		mov	r0, r7
 178 0042 FFF7FEFF 		bl	_hook_init
 179              	.LVL13:
 180 0046 BDE8F081 		pop	{r4, r5, r6, r7, r8, pc}
 181              	.LVL14:
 182              	.L19:
 183 004a 00BF     		.align	2
 184              	.L18:
 185 004c FFFFFFFF 		.word	_bss_start-1
 186 0050 FFFFFFFF 		.word	_bss_end-1
 187 0054 00000000 		.word	__init_array_start
 188 0058 00000000 		.word	__init_array_end
 189              		.cfi_endproc
 190              	.LFE228:
 191              		.size	_entry, .-_entry
 192              		.section	.hooks,"a",%progbits
 193              		.type	s_hook_table, %object
 194              		.size	s_hook_table, 64
 195              	s_hook_table:
 196 0000 55       		.byte	85
 197 0001 4D       		.byte	77
 198 0002 4F       		.byte	79
 199 0003 44       		.byte	68
 200 0004 00010100 		.4byte	65792
 201 0008 03       		.byte	3
 202 0009 00       		.byte	0
 203 000a 00000000 		.space	6
 203      0000
 204 0010 00000000 		.4byte	_entry
 205 0014 00000000 		.4byte	_hook_process
 206 0018 00000000 		.4byte	_hook_suspend
 207 001c 00000000 		.4byte	_hook_resume
 208 0020 00000000 		.4byte	_hook_param
 209 0024 00000000 		.4byte	0
 210 0028 00000000 		.space	24
 210      00000000 
 210      00000000 
 210      00000000 
 210      00000000 
 211              		.text
 212              	.Letext0:
 213              		.file 2 "c:\\msys64\\home\\joshu\\logue-sdk\\tools\\gcc\\gcc-arm-none-eabi-5_4-2016q3\\arm-none-ea
 214              		.file 3 "c:\\msys64\\home\\joshu\\logue-sdk\\tools\\gcc\\gcc-arm-none-eabi-5_4-2016q3\\arm-none-ea
 215              		.file 4 "c:\\msys64\\home\\joshu\\logue-sdk\\tools\\gcc\\gcc-arm-none-eabi-5_4-2016q3\\lib\\gcc\\a
 216              		.file 5 "../../../../logue-sdk/platform/nutekt-digital/inc/userprg.h"
 217              		.file 6 "../../../../logue-sdk/platform/nutekt-digital/inc/usermodfx.h"
 218              		.file 7 "../../../../logue-sdk/platform/nutekt-digital/inc/fx_api.h"