ARM GAS  C:\msys64\tmp\cciZdueF.s 			page 1


   1              		.syntax unified
   2              		.cpu cortex-m4
   3              		.eabi_attribute 27, 1
   4              		.eabi_attribute 28, 1
   5              		.fpu fpv4-sp-d16
   6              		.eabi_attribute 20, 1
   7              		.eabi_attribute 21, 1
   8              		.eabi_attribute 23, 3
   9              		.eabi_attribute 24, 1
  10              		.eabi_attribute 25, 1
  11              		.eabi_attribute 26, 1
  12              		.eabi_attribute 30, 4
  13              		.eabi_attribute 34, 1
  14              		.eabi_attribute 18, 4
  15              		.thumb
  16              		.syntax unified
  17              		.file	"delayline.cpp"
  18              		.text
  19              	.Ltext0:
  20              		.cfi_sections	.debug_frame
  21              		.align	1
  22              		.global	_hook_init
  23              		.thumb
  24              		.thumb_func
  25              		.type	_hook_init, %function
  26              	_hook_init:
  27              	.LFB264:
  28              		.file 1 "../src/delayline.cpp"
  29              		.loc 1 24 0
  30              		.cfi_startproc
  31              		@ args = 0, pretend = 0, frame = 0
  32              		@ frame_needed = 0, uses_anonymous_args = 0
  33              		@ link register save eliminated.
  34              	.LVL0:
  35              	.LBB33:
  36              	.LBB34:
  37              		.file 2 "../../../../logue-sdk/platform/nutekt-digital/inc/dsp/delayline.hpp"
  38              		.loc 2 243 0
  39 0000 074B     		ldr	r3, .L2
  40 0002 084A     		ldr	r2, .L2+4
  41 0004 1A60     		str	r2, [r3]
  42              		.loc 2 244 0
  43 0006 4FF40052 		mov	r2, #8192
  44 000a DA60     		str	r2, [r3, #12]
  45              		.loc 2 245 0
  46 000c 41F6FF72 		movw	r2, #8191
  47 0010 1A61     		str	r2, [r3, #16]
  48              		.loc 2 246 0
  49 0012 0022     		movs	r2, #0
  50 0014 5A61     		str	r2, [r3, #20]
  51              	.LVL1:
  52              	.LBE34:
  53              	.LBE33:
  54              		.loc 1 26 0
  55 0016 4FF07E52 		mov	r2, #1065353216
  56 001a 9A61     		str	r2, [r3, #24]	@ float
  57 001c DA61     		str	r2, [r3, #28]	@ float
ARM GAS  C:\msys64\tmp\cciZdueF.s 			page 2


  58 001e 7047     		bx	lr
  59              	.L3:
  60              		.align	2
  61              	.L2:
  62 0020 00000000 		.word	.LANCHOR0
  63 0024 00000000 		.word	.LANCHOR1
  64              		.cfi_endproc
  65              	.LFE264:
  66              		.size	_hook_init, .-_hook_init
  67              		.align	1
  68              		.global	_hook_process
  69              		.thumb
  70              		.thumb_func
  71              		.type	_hook_process, %function
  72              	_hook_process:
  73              	.LFB265:
  74              		.loc 1 32 0
  75              		.cfi_startproc
  76              		@ args = 4, pretend = 0, frame = 0
  77              		@ frame_needed = 0, uses_anonymous_args = 0
  78              	.LVL2:
  79 0028 2DE9F04F 		push	{r4, r5, r6, r7, r8, r9, r10, fp, lr}
  80              		.cfi_def_cfa_offset 36
  81              		.cfi_offset 4, -36
  82              		.cfi_offset 5, -32
  83              		.cfi_offset 6, -28
  84              		.cfi_offset 7, -24
  85              		.cfi_offset 8, -20
  86              		.cfi_offset 9, -16
  87              		.cfi_offset 10, -12
  88              		.cfi_offset 11, -8
  89              		.cfi_offset 14, -4
  90              		.loc 1 40 0
  91 002c 334E     		ldr	r6, .L9
  92              		.loc 1 35 0
  93 002e 099C     		ldr	r4, [sp, #36]
  94 0030 D6F814E0 		ldr	lr, [r6, #20]
  95              		.loc 1 40 0
  96 0034 96ED074A 		vldr.32	s8, [r6, #28]
  97              		.loc 1 41 0
  98 0038 96ED067A 		vldr.32	s14, [r6, #24]
  99              	.LBB35:
 100              	.LBB36:
 101              	.LBB37:
 102              	.LBB38:
 103              	.LBB39:
 104              	.LBB40:
 105              		.loc 2 267 0
 106 003c D6F80080 		ldr	r8, [r6]
 107 0040 D6F81090 		ldr	r9, [r6, #16]
 108              	.LBE40:
 109              	.LBE39:
 110              	.LBE38:
 111              	.LBE37:
 112              	.LBB71:
 113              	.LBB72:
 114              		.file 3 "../../../../logue-sdk/platform/nutekt-digital/inc/utils/float_math.h"
ARM GAS  C:\msys64\tmp\cciZdueF.s 			page 3


 115              		.loc 3 825 0
 116 0044 DFED2E4A 		vldr.32	s9, .L9+4
 117              	.LBE72:
 118              	.LBE71:
 119              	.LBE36:
 120              	.LBE35:
 121              		.loc 1 35 0
 122 0048 4FEAC40C 		lsl	ip, r4, #3
 123 004c 01EB0C0A 		add	r10, r1, ip
 124              	.LVL3:
 125              	.LBB94:
 126              	.LBB91:
 127              	.LBB75:
 128              	.LBB65:
 129              	.LBB44:
 130              	.LBB41:
 131              		.loc 2 267 0
 132 0050 7546     		mov	r5, lr
 133              	.LBE41:
 134              	.LBE44:
 135              	.LBB45:
 136              	.LBB46:
 137              		.loc 3 263 0
 138 0052 B7EE005A 		vmov.f32	s10, #1.0e+0
 139              	.LVL4:
 140              	.L6:
 141              	.LBE46:
 142              	.LBE45:
 143              	.LBE65:
 144              	.LBE75:
 145              	.LBE91:
 146              		.loc 1 43 0
 147 0056 5145     		cmp	r1, r10
 148 0058 00F10800 		add	r0, r0, #8
 149 005c 02F10802 		add	r2, r2, #8
 150 0060 03F10803 		add	r3, r3, #8
 151 0064 05F1FF3B 		add	fp, r5, #-1
 152 0068 40D0     		beq	.L5
 153              	.LVL5:
 154              	.LBB92:
 155              	.LBB76:
 156              	.LBB73:
 157              		.loc 3 825 0
 158 006a 74EE477A 		vsub.f32	s15, s8, s14
 159              	.LBE73:
 160              	.LBE76:
 161              		.loc 1 45 0
 162 006e 50F8084C 		ldr	r4, [r0, #-8]	@ float
 163 0072 41F8084B 		str	r4, [r1], #8	@ float
 164              	.LVL6:
 165              	.LBB77:
 166              	.LBB74:
 167              		.loc 3 825 0
 168 0076 A7EEA47A 		vfma.f32	s14, s15, s9
 169              	.LVL7:
 170              	.LBE74:
 171              	.LBE77:
ARM GAS  C:\msys64\tmp\cciZdueF.s 			page 4


 172              		.loc 1 46 0
 173 007a 52F8084C 		ldr	r4, [r2, #-8]	@ float
 174 007e 43F8084C 		str	r4, [r3, #-8]	@ float
 175              	.LVL8:
 176              	.LBB78:
 177              	.LBB66:
 178              		.loc 2 278 0
 179 0082 FCEEC77A 		vcvt.u32.f32	s15, s14
 180 0086 17EE904A 		vmov	r4, s15	@ int
 181              	.LVL9:
 182              	.LBB53:
 183              	.LBB42:
 184              		.loc 2 267 0
 185 008a 6719     		adds	r7, r4, r5
 186              	.LBE42:
 187              	.LBE53:
 188              	.LBB54:
 189              	.LBB55:
 190 008c 0134     		adds	r4, r4, #1
 191              	.LVL10:
 192 008e 2C44     		add	r4, r4, r5
 193              	.LBE55:
 194              	.LBE54:
 195              		.loc 2 279 0
 196 0090 F8EEE77A 		vcvt.f32.s32	s15, s15
 197              	.LVL11:
 198              	.LBB57:
 199              	.LBB56:
 200              		.loc 2 267 0
 201 0094 04EA0904 		and	r4, r4, r9
 202 0098 08EBC404 		add	r4, r8, r4, lsl #3
 203              	.LBE56:
 204              	.LBE57:
 205              	.LBB58:
 206              	.LBB47:
 207              		.loc 3 264 0
 208 009c D4ED006A 		vldr.32	s13, [r4]
 209              	.LBE47:
 210              	.LBE58:
 211              		.loc 2 279 0
 212 00a0 77EE677A 		vsub.f32	s15, s14, s15
 213              	.LVL12:
 214              	.LBB59:
 215              	.LBB43:
 216              		.loc 2 267 0
 217 00a4 07EA0907 		and	r7, r7, r9
 218 00a8 08EBC707 		add	r7, r8, r7, lsl #3
 219              	.LVL13:
 220              	.LBE43:
 221              	.LBE59:
 222              	.LBB60:
 223              	.LBB48:
 224              		.loc 3 264 0
 225 00ac D7ED005A 		vldr.32	s11, [r7]
 226              		.loc 3 263 0
 227 00b0 35EE676A 		vsub.f32	s12, s10, s15
 228              	.LVL14:
ARM GAS  C:\msys64\tmp\cciZdueF.s 			page 5


 229              		.loc 3 264 0
 230 00b4 67EEA66A 		vmul.f32	s13, s15, s13
 231              	.LVL15:
 232              	.LBE48:
 233              	.LBE60:
 234              	.LBE66:
 235              	.LBE78:
 236              	.LBB79:
 237              	.LBB80:
 238              		.loc 2 256 0
 239 00b8 09EA0505 		and	r5, r9, r5
 240              	.LBE80:
 241              	.LBE79:
 242              	.LBB84:
 243              	.LBB67:
 244              	.LBB61:
 245              	.LBB49:
 246              		.loc 3 264 0
 247 00bc E5EE866A 		vfma.f32	s13, s11, s12
 248              	.LBE49:
 249              	.LBE61:
 250              	.LBE67:
 251              	.LBE84:
 252              	.LBB85:
 253              	.LBB81:
 254              		.loc 2 256 0
 255 00c0 08EBC505 		add	r5, r8, r5, lsl #3
 256              	.LBE81:
 257              	.LBE85:
 258              	.LBB86:
 259              	.LBB68:
 260              	.LBB62:
 261              	.LBB50:
 262              		.loc 3 264 0
 263 00c4 D4ED015A 		vldr.32	s11, [r4, #4]
 264              	.LBE50:
 265              	.LBE62:
 266              	.LBE68:
 267              	.LBE86:
 268              		.loc 1 51 0
 269 00c8 52F8044C 		ldr	r4, [r2, #-4]	@ float
 270              	.LVL16:
 271              	.LBB87:
 272              	.LBB69:
 273              	.LBB63:
 274              	.LBB51:
 275              		.loc 3 264 0
 276 00cc 67EEA57A 		vmul.f32	s15, s15, s11
 277              	.LVL17:
 278 00d0 D7ED015A 		vldr.32	s11, [r7, #4]
 279              	.LVL18:
 280              	.LBE51:
 281              	.LBE63:
 282              	.LBE69:
 283              	.LBE87:
 284              		.loc 1 51 0
 285 00d4 50F8047C 		ldr	r7, [r0, #-4]	@ float
ARM GAS  C:\msys64\tmp\cciZdueF.s 			page 6


 286              	.LVL19:
 287              	.LBB88:
 288              	.LBB82:
 289              		.loc 2 256 0
 290 00d8 2F60     		str	r7, [r5]	@ float
 291              	.LVL20:
 292              	.LBE82:
 293              	.LBE88:
 294              	.LBB89:
 295              	.LBB70:
 296              	.LBB64:
 297              	.LBB52:
 298              		.loc 3 264 0
 299 00da E5EE867A 		vfma.f32	s15, s11, s12
 300              	.LVL21:
 301              	.LBE52:
 302              	.LBE64:
 303              	.LBE70:
 304              	.LBE89:
 305              	.LBB90:
 306              	.LBB83:
 307              		.loc 2 256 0
 308 00de 6C60     		str	r4, [r5, #4]	@ float
 309              	.LVL22:
 310              	.LBE83:
 311              	.LBE90:
 312              	.LBE92:
 313              		.loc 1 43 0
 314 00e0 5D46     		mov	r5, fp
 315              	.LBB93:
 316              		.loc 1 53 0
 317 00e2 41ED016A 		vstr.32	s13, [r1, #-4]
 318              	.LVL23:
 319              		.loc 1 54 0
 320 00e6 43ED017A 		vstr.32	s15, [r3, #-4]
 321              	.LVL24:
 322              	.LBE93:
 323              		.loc 1 43 0
 324 00ea B4E7     		b	.L6
 325              	.LVL25:
 326              	.L5:
 327 00ec AEEBDC03 		sub	r3, lr, ip, lsr #3
 328 00f0 7361     		str	r3, [r6, #20]
 329              	.LBE94:
 330              		.loc 1 57 0
 331 00f2 86ED067A 		vstr.32	s14, [r6, #24]
 332 00f6 BDE8F08F 		pop	{r4, r5, r6, r7, r8, r9, r10, fp, pc}
 333              	.LVL26:
 334              	.L10:
 335 00fa 00BF     		.align	2
 336              	.L9:
 337 00fc 00000000 		.word	.LANCHOR0
 338 0100 ACC52738 		.word	942130604
 339              		.cfi_endproc
 340              	.LFE265:
 341              		.size	_hook_process, .-_hook_process
 342              		.align	1
ARM GAS  C:\msys64\tmp\cciZdueF.s 			page 7


 343              		.global	_hook_param
 344              		.thumb
 345              		.thumb_func
 346              		.type	_hook_param, %function
 347              	_hook_param:
 348              	.LFB266:
 349              		.loc 1 62 0
 350              		.cfi_startproc
 351              		@ args = 0, pretend = 0, frame = 0
 352              		@ frame_needed = 0, uses_anonymous_args = 0
 353              		@ link register save eliminated.
 354              	.LVL27:
 355              		.loc 1 64 0
 356 0104 0128     		cmp	r0, #1
 357              		.loc 1 62 0
 358 0106 07EE901A 		vmov	s15, r1	@ int
 359              	.LVL28:
 360              		.loc 1 64 0
 361 010a 10D1     		bne	.L11
 362              		.loc 1 63 0
 363 010c FAEEE07A 		vcvt.f32.s32	s15, s15, #31
 364              		.loc 1 68 0
 365 0110 9FED077A 		vldr.32	s14, .L14
 366 0114 DFED076A 		vldr.32	s13, .L14+4
 367 0118 074B     		ldr	r3, .L14+8
 368 011a 67EEA77A 		vmul.f32	s15, s15, s15
 369 011e 67EE877A 		vmul.f32	s15, s15, s14
 370 0122 B7EE007A 		vmov.f32	s14, #1.0e+0
 371 0126 A7EEA67A 		vfma.f32	s14, s15, s13
 372 012a 83ED077A 		vstr.32	s14, [r3, #28]
 373              	.L11:
 374 012e 7047     		bx	lr
 375              	.L15:
 376              		.align	2
 377              	.L14:
 378 0130 CDCCCC3D 		.word	1036831949
 379 0134 00803B47 		.word	1195081728
 380 0138 00000000 		.word	.LANCHOR0
 381              		.cfi_endproc
 382              	.LFE266:
 383              		.size	_hook_param, .-_hook_param
 384              		.section	.text.startup,"ax",%progbits
 385              		.align	1
 386              		.thumb
 387              		.thumb_func
 388              		.type	_GLOBAL__sub_I__hook_init, %function
 389              	_GLOBAL__sub_I__hook_init:
 390              	.LFB268:
 391              		.loc 1 73 0
 392              		.cfi_startproc
 393              		@ args = 0, pretend = 0, frame = 0
 394              		@ frame_needed = 0, uses_anonymous_args = 0
 395              		@ link register save eliminated.
 396              	.LVL29:
 397              	.LBB99:
 398              	.LBB100:
 399              	.LBB101:
ARM GAS  C:\msys64\tmp\cciZdueF.s 			page 8


 400              		.loc 2 204 0
 401 0000 034B     		ldr	r3, .L17
 402 0002 0022     		movs	r2, #0
 403 0004 1A60     		str	r2, [r3]
 404 0006 DA60     		str	r2, [r3, #12]
 405 0008 1A61     		str	r2, [r3, #16]
 406 000a 5A61     		str	r2, [r3, #20]
 407              	.LVL30:
 408 000c 7047     		bx	lr
 409              	.L18:
 410 000e 00BF     		.align	2
 411              	.L17:
 412 0010 00000000 		.word	.LANCHOR0
 413              	.LBE101:
 414              	.LBE100:
 415              	.LBE99:
 416              		.cfi_endproc
 417              	.LFE268:
 418              		.size	_GLOBAL__sub_I__hook_init, .-_GLOBAL__sub_I__hook_init
 419              		.section	.init_array,"aw",%init_array
 420              		.align	2
 421 0000 00000000 		.word	_GLOBAL__sub_I__hook_init(target1)
 422              		.bss
 423              		.align	2
 424              		.set	.LANCHOR0,. + 0
 425              		.type	_ZL7s_delay, %object
 426              		.size	_ZL7s_delay, 24
 427              	_ZL7s_delay:
 428 0000 00000000 		.space	24
 428      00000000 
 428      00000000 
 428      00000000 
 428      00000000 
 429              		.type	_ZL7s_len_z, %object
 430              		.size	_ZL7s_len_z, 4
 431              	_ZL7s_len_z:
 432 0018 00000000 		.space	4
 433              		.type	_ZL5s_len, %object
 434              		.size	_ZL5s_len, 4
 435              	_ZL5s_len:
 436 001c 00000000 		.space	4
 437              		.section	.sdram,"aw",%progbits
 438              		.align	2
 439              		.set	.LANCHOR1,. + 0
 440              		.type	_ZL11s_delay_ram, %object
 441              		.size	_ZL11s_delay_ram, 65536
 442              	_ZL11s_delay_ram:
 443 0000 00000000 		.space	65536
 443      00000000 
 443      00000000 
 443      00000000 
 443      00000000 
 444              		.text
 445              	.Letext0:
 446              		.file 4 "c:\\msys64\\home\\joshu\\logue-sdk\\tools\\gcc\\gcc-arm-none-eabi-5_4-2016q3\\arm-none-ea
 447              		.file 5 "c:\\msys64\\home\\joshu\\logue-sdk\\tools\\gcc\\gcc-arm-none-eabi-5_4-2016q3\\arm-none-ea
 448              		.file 6 "c:\\msys64\\home\\joshu\\logue-sdk\\tools\\gcc\\gcc-arm-none-eabi-5_4-2016q3\\lib\\gcc\\a
ARM GAS  C:\msys64\tmp\cciZdueF.s 			page 9


 449              		.file 7 "../../../../logue-sdk/platform/nutekt-digital/inc/usermodfx.h"
 450              		.file 8 "../../../../logue-sdk/platform/nutekt-digital/inc/utils/int_math.h"
 451              		.file 9 "../../../../logue-sdk/platform/nutekt-digital/inc/fx_api.h"
 452              		.file 10 "../../../../logue-sdk/platform/nutekt-digital/inc/userprg.h"