ARM GAS  C:\msys64\tmp\ccppbPL4.s 			page 1


   1              		.syntax unified
   2              		.cpu cortex-m4
   3              		.eabi_attribute 27, 1
   4              		.eabi_attribute 28, 1
   5              		.fpu fpv4-sp-d16
   6              		.eabi_attribute 20, 1
   7              		.eabi_attribute 21, 1
   8              		.eabi_attribute 23, 3
   9              		.eabi_attribute 24, 1
  10              		.eabi_attribute 25, 1
  11              		.eabi_attribute 26, 1
  12              		.eabi_attribute 30, 4
  13              		.eabi_attribute 34, 1
  14              		.eabi_attribute 18, 4
  15              		.thumb
  16              		.syntax unified
  17              		.file	"test.cpp"
  18              		.text
  19              	.Ltext0:
  20              		.cfi_sections	.debug_frame
  21              		.align	1
  22              		.global	_hook_init
  23              		.thumb
  24              		.thumb_func
  25              		.type	_hook_init, %function
  26              	_hook_init:
  27              	.LFB232:
  28              		.file 1 "test.cpp"
  29              		.loc 1 48 0
  30              		.cfi_startproc
  31              		@ args = 0, pretend = 0, frame = 0
  32              		@ frame_needed = 0, uses_anonymous_args = 0
  33              		@ link register save eliminated.
  34              	.LVL0:
  35              		.loc 1 49 0
  36 0000 034B     		ldr	r3, .L2
  37 0002 4FF07E52 		mov	r2, #1065353216
  38 0006 1A60     		str	r2, [r3]	@ float
  39              		.loc 1 50 0
  40 0008 0122     		movs	r2, #1
  41 000a 5A60     		str	r2, [r3, #4]
  42 000c 7047     		bx	lr
  43              	.L3:
  44 000e 00BF     		.align	2
  45              	.L2:
  46 0010 00000000 		.word	.LANCHOR0
  47              		.cfi_endproc
  48              	.LFE232:
  49              		.size	_hook_init, .-_hook_init
  50              		.align	1
  51              		.global	_hook_process
  52              		.thumb
  53              		.thumb_func
  54              		.type	_hook_process, %function
  55              	_hook_process:
  56              	.LFB233:
  57              		.loc 1 56 0
ARM GAS  C:\msys64\tmp\ccppbPL4.s 			page 2


  58              		.cfi_startproc
  59              		@ args = 4, pretend = 0, frame = 0
  60              		@ frame_needed = 0, uses_anonymous_args = 0
  61              	.LVL1:
  62 0014 2DE9F041 		push	{r4, r5, r6, r7, r8, lr}
  63              		.cfi_def_cfa_offset 24
  64              		.cfi_offset 4, -24
  65              		.cfi_offset 5, -20
  66              		.cfi_offset 6, -16
  67              		.cfi_offset 7, -12
  68              		.cfi_offset 8, -8
  69              		.cfi_offset 14, -4
  70              		.loc 1 56 0
  71 0018 0C46     		mov	r4, r1
  72 001a 1D46     		mov	r5, r3
  73 001c 0746     		mov	r7, r0
  74 001e 9046     		mov	r8, r2
  75              	.LBB74:
  76              	.LBB75:
  77              		.file 2 "../../logue-sdk/platform/nutekt-digital/inc/fx_api.h"
  78              		.loc 2 107 0
  79 0020 FFF7FEFF 		bl	_fx_get_bpmf
  80              	.LVL2:
  81              	.LBE75:
  82              	.LBE74:
  83              		.loc 1 60 0
  84 0024 069B     		ldr	r3, [sp, #24]
  85              	.LBB76:
  86              	.LBB77:
  87              		.loc 1 37 0
  88 0026 DFED8C6A 		vldr.32	s13, .L78
  89 002a DFED8C5A 		vldr.32	s11, .L78+4
  90              	.LBE77:
  91              	.LBE76:
  92              		.loc 1 60 0
  93 002e 04EBC301 		add	r1, r4, r3, lsl #3
  94              	.LVL3:
  95              		.loc 1 69 0
  96 0032 8B4B     		ldr	r3, .L78+8
  97 0034 5E68     		ldr	r6, [r3, #4]
  98              		.loc 1 67 0
  99 0036 F2EE043A 		vmov.f32	s7, #1.0e+1
 100 003a B7EE003A 		vmov.f32	s6, #1.0e+0
 101 003e B0EE666A 		vmov.f32	s12, s13
 102 0042 B0EE665A 		vmov.f32	s10, s13
 103 0046 F0EE654A 		vmov.f32	s9, s11
 104              	.LVL4:
 105              	.L5:
 106              		.loc 1 66 0
 107 004a 8C42     		cmp	r4, r1
 108 004c 80F00181 		bcs	.L4
 109              		.loc 1 67 0
 110 0050 D3ED007A 		vldr.32	s15, [r3]
 111              		.loc 1 68 0
 112 0054 B8EC014A 		vldmia.32	r8!, {s8}
 113              	.LVL5:
 114              		.loc 1 67 0
ARM GAS  C:\msys64\tmp\ccppbPL4.s 			page 3


 115 0058 B0EE437A 		vmov.f32	s14, s6
 116 005c A7EEA37A 		vfma.f32	s14, s15, s7
 117 0060 F0EE477A 		vmov.f32	s15, s14
 118 0064 B7EC017A 		vldmia.32	r7!, {s14}
 119              	.LVL6:
 120 0068 27EE877A 		vmul.f32	s14, s15, s14
 121              	.LVL7:
 122              		.loc 1 68 0
 123 006c 67EE847A 		vmul.f32	s15, s15, s8
 124              	.LVL8:
 125              		.loc 1 69 0
 126 0070 032E     		cmp	r6, #3
 127 0072 EAD8     		bhi	.L5
 128 0074 DFE806F0 		tbb	[pc, r6]
 129              	.L9:
 130 0078 02       		.byte	(.L8-.L9)/2
 131 0079 39       		.byte	(.L10-.L9)/2
 132 007a 64       		.byte	(.L11-.L9)/2
 133 007b A4       		.byte	(.L12-.L9)/2
 134              		.p2align 1
 135              	.L8:
 136              	.LVL9:
 137              	.LBB79:
 138              	.LBB80:
 139              	.LBB81:
 140              	.LBB82:
 141              	.LBB83:
 142              	.LBB84:
 143              	.LBB85:
 144              		.file 3 "../../logue-sdk/platform/nutekt-digital/inc/utils/float_math.h"
 145              		.loc 3 193 0
 146 007c 37EE264A 		vadd.f32	s8, s14, s13
 147              	.LBE85:
 148              	.LBE84:
 149              	.LBE83:
 150              	.LBE82:
 151              	.LBE81:
 152              	.LBE80:
 153              	.LBE79:
 154              		.loc 1 72 0
 155 0080 0435     		adds	r5, r5, #4
 156              	.LVL10:
 157              	.LBB100:
 158              	.LBB98:
 159              	.LBB96:
 160              	.LBB94:
 161              	.LBB92:
 162              	.LBB87:
 163              	.LBB86:
 164              		.loc 3 193 0
 165 0082 B5EEC04A 		vcmpe.f32	s8, #0
 166 0086 F1EE10FA 		vmrs	APSR_nzcv, FPSCR
 167 008a B8BF     		it	lt
 168 008c B0EE657A 		vmovlt.f32	s14, s11
 169              	.LVL11:
 170              	.LBE86:
 171              	.LBE87:
ARM GAS  C:\msys64\tmp\ccppbPL4.s 			page 4


 172              	.LBB88:
 173              	.LBB89:
 174 0090 37EE464A 		vsub.f32	s8, s14, s12
 175              	.LBE89:
 176              	.LBE88:
 177              	.LBE92:
 178              	.LBE94:
 179              	.LBE96:
 180              	.LBE98:
 181              	.LBE100:
 182              		.loc 1 71 0
 183 0094 0434     		adds	r4, r4, #4
 184              	.LVL12:
 185              	.LBB101:
 186              	.LBB99:
 187              	.LBB97:
 188              	.LBB95:
 189              	.LBB93:
 190              	.LBB91:
 191              	.LBB90:
 192              		.loc 3 193 0
 193 0096 B5EE404A 		vcmp.f32	s8, #0
 194 009a F1EE10FA 		vmrs	APSR_nzcv, FPSCR
 195 009e A8BF     		it	ge
 196 00a0 B0EE667A 		vmovge.f32	s14, s13
 197              	.LVL13:
 198              	.LBE90:
 199              	.LBE91:
 200              	.LBE93:
 201              	.LBE95:
 202              	.LBE97:
 203              	.LBE99:
 204              	.LBE101:
 205              		.loc 1 71 0
 206 00a4 27EE074A 		vmul.f32	s8, s14, s14
 207 00a8 27EE444A 		vnmul.f32	s8, s14, s8
 208 00ac A4EE067A 		vfma.f32	s14, s8, s12
 209 00b0 04ED017A 		vstr.32	s14, [r4, #-4]
 210              	.LVL14:
 211              	.LBB102:
 212              	.LBB103:
 213              	.LBB104:
 214              	.LBB105:
 215              	.LBB106:
 216              	.LBB107:
 217              	.LBB108:
 218              		.loc 3 193 0
 219 00b4 37EE867A 		vadd.f32	s14, s15, s12
 220 00b8 B5EEC07A 		vcmpe.f32	s14, #0
 221 00bc F1EE10FA 		vmrs	APSR_nzcv, FPSCR
 222 00c0 B8BF     		it	lt
 223 00c2 F0EE657A 		vmovlt.f32	s15, s11
 224              	.LVL15:
 225              	.LBE108:
 226              	.LBE107:
 227              	.LBB109:
 228              	.LBB110:
ARM GAS  C:\msys64\tmp\ccppbPL4.s 			page 5


 229 00c6 37EEC67A 		vsub.f32	s14, s15, s12
 230 00ca B5EE407A 		vcmp.f32	s14, #0
 231 00ce F1EE10FA 		vmrs	APSR_nzcv, FPSCR
 232 00d2 A8BF     		it	ge
 233 00d4 F0EE667A 		vmovge.f32	s15, s13
 234              	.LVL16:
 235              	.LBE110:
 236              	.LBE109:
 237              	.LBE106:
 238              	.LBE105:
 239              	.LBE104:
 240              	.LBE103:
 241              	.LBE102:
 242              		.loc 1 72 0
 243 00d8 27EEA77A 		vmul.f32	s14, s15, s15
 244 00dc 27EEC77A 		vnmul.f32	s14, s15, s14
 245 00e0 E7EE067A 		vfma.f32	s15, s14, s12
 246 00e4 45ED017A 		vstr.32	s15, [r5, #-4]
 247              		.loc 1 73 0
 248 00e8 AFE7     		b	.L5
 249              	.LVL17:
 250              	.L10:
 251              	.LBB111:
 252              	.LBB112:
 253              	.LBB113:
 254              	.LBB114:
 255              	.LBB115:
 256              	.LBB116:
 257              		.loc 3 193 0
 258 00ea 37EE264A 		vadd.f32	s8, s14, s13
 259              	.LBE116:
 260              	.LBE115:
 261              	.LBE114:
 262              	.LBE113:
 263              	.LBE112:
 264              	.LBE111:
 265              		.loc 1 76 0
 266 00ee 0435     		adds	r5, r5, #4
 267              	.LVL18:
 268              	.LBB129:
 269              	.LBB127:
 270              	.LBB125:
 271              	.LBB123:
 272              	.LBB118:
 273              	.LBB117:
 274              		.loc 3 193 0
 275 00f0 B5EEC04A 		vcmpe.f32	s8, #0
 276 00f4 F1EE10FA 		vmrs	APSR_nzcv, FPSCR
 277 00f8 B8BF     		it	lt
 278 00fa B0EE657A 		vmovlt.f32	s14, s11
 279              	.LVL19:
 280              	.LBE117:
 281              	.LBE118:
 282              	.LBB119:
 283              	.LBB120:
 284 00fe 37EE464A 		vsub.f32	s8, s14, s12
 285              	.LBE120:
ARM GAS  C:\msys64\tmp\ccppbPL4.s 			page 6


 286              	.LBE119:
 287              	.LBE123:
 288              	.LBE125:
 289              	.LBE127:
 290              	.LBE129:
 291              		.loc 1 75 0
 292 0102 0434     		adds	r4, r4, #4
 293              	.LVL20:
 294              	.LBB130:
 295              	.LBB128:
 296              	.LBB126:
 297              	.LBB124:
 298              	.LBB122:
 299              	.LBB121:
 300              		.loc 3 193 0
 301 0104 B5EE404A 		vcmp.f32	s8, #0
 302 0108 F1EE10FA 		vmrs	APSR_nzcv, FPSCR
 303 010c A8BF     		it	ge
 304 010e B0EE667A 		vmovge.f32	s14, s13
 305              	.LVL21:
 306              	.LBE121:
 307              	.LBE122:
 308              	.LBE124:
 309              	.LBE126:
 310              	.LBE128:
 311              	.LBE130:
 312              		.loc 1 75 0
 313 0112 04ED017A 		vstr.32	s14, [r4, #-4]
 314              	.LVL22:
 315              	.LBB131:
 316              	.LBB132:
 317              	.LBB133:
 318              	.LBB134:
 319              	.LBB135:
 320              	.LBB136:
 321              		.loc 3 193 0
 322 0116 37EE867A 		vadd.f32	s14, s15, s12
 323 011a B5EEC07A 		vcmpe.f32	s14, #0
 324 011e F1EE10FA 		vmrs	APSR_nzcv, FPSCR
 325 0122 B8BF     		it	lt
 326 0124 F0EE657A 		vmovlt.f32	s15, s11
 327              	.LVL23:
 328              	.LBE136:
 329              	.LBE135:
 330              	.LBB137:
 331              	.LBB138:
 332 0128 37EEC67A 		vsub.f32	s14, s15, s12
 333 012c B5EE407A 		vcmp.f32	s14, #0
 334 0130 F1EE10FA 		vmrs	APSR_nzcv, FPSCR
 335 0134 A8BF     		it	ge
 336 0136 F0EE667A 		vmovge.f32	s15, s13
 337              	.LVL24:
 338              	.LBE138:
 339              	.LBE137:
 340              	.LBE134:
 341              	.LBE133:
 342              	.LBE132:
ARM GAS  C:\msys64\tmp\ccppbPL4.s 			page 7


 343              	.LBE131:
 344              		.loc 1 76 0
 345 013a 45ED017A 		vstr.32	s15, [r5, #-4]
 346              		.loc 1 77 0
 347 013e 84E7     		b	.L5
 348              	.LVL25:
 349              	.L11:
 350              		.loc 1 79 0
 351 0140 221D     		adds	r2, r4, #4
 352              	.LVL26:
 353              	.L21:
 354              	.LBB139:
 355              	.LBB140:
 356              		.loc 1 25 0
 357 0142 B4EEE67A 		vcmpe.f32	s14, s13
 358 0146 F1EE10FA 		vmrs	APSR_nzcv, FPSCR
 359 014a 04D8     		bhi	.L22
 360 014c B4EEE57A 		vcmpe.f32	s14, s11
 361 0150 F1EE10FA 		vmrs	APSR_nzcv, FPSCR
 362 0154 13DA     		bge	.L24
 363              	.L22:
 364              		.loc 1 26 0
 365 0156 B4EEC67A 		vcmpe.f32	s14, s12
 366 015a F1EE10FA 		vmrs	APSR_nzcv, FPSCR
 367 015e 04DD     		ble	.L73
 368              		.loc 1 27 0
 369 0160 37EE667A 		vsub.f32	s14, s14, s13
 370              	.LVL27:
 371 0164 37EE667A 		vsub.f32	s14, s14, s13
 372              	.LVL28:
 373 0168 EBE7     		b	.L21
 374              	.L73:
 375              		.loc 1 28 0
 376 016a B4EEE57A 		vcmpe.f32	s14, s11
 377 016e F1EE10FA 		vmrs	APSR_nzcv, FPSCR
 378 0172 E6D5     		bpl	.L21
 379              		.loc 1 29 0
 380 0174 37EE267A 		vadd.f32	s14, s14, s13
 381              	.LVL29:
 382 0178 37EE267A 		vadd.f32	s14, s14, s13
 383              	.LVL30:
 384 017c E1E7     		b	.L21
 385              	.L24:
 386              	.LVL31:
 387              	.LBE140:
 388              	.LBE139:
 389              		.loc 1 79 0
 390 017e 84ED007A 		vstr.32	s14, [r4]
 391              	.LVL32:
 392              		.loc 1 80 0
 393 0182 281D     		adds	r0, r5, #4
 394              	.LVL33:
 395              	.L29:
 396              	.LBB141:
 397              	.LBB142:
 398              		.loc 1 25 0
 399 0184 F4EEC57A 		vcmpe.f32	s15, s10
ARM GAS  C:\msys64\tmp\ccppbPL4.s 			page 8


 400 0188 F1EE10FA 		vmrs	APSR_nzcv, FPSCR
 401 018c 04D8     		bhi	.L30
 402 018e F4EEE47A 		vcmpe.f32	s15, s9
 403 0192 F1EE10FA 		vmrs	APSR_nzcv, FPSCR
 404 0196 57DA     		bge	.L48
 405              	.L30:
 406              		.loc 1 26 0
 407 0198 F4EEC57A 		vcmpe.f32	s15, s10
 408 019c F1EE10FA 		vmrs	APSR_nzcv, FPSCR
 409 01a0 04DD     		ble	.L74
 410              		.loc 1 27 0
 411 01a2 77EEE67A 		vsub.f32	s15, s15, s13
 412              	.LVL34:
 413 01a6 77EEE67A 		vsub.f32	s15, s15, s13
 414              	.LVL35:
 415 01aa EBE7     		b	.L29
 416              	.L74:
 417              		.loc 1 28 0
 418 01ac F4EEE47A 		vcmpe.f32	s15, s9
 419 01b0 F1EE10FA 		vmrs	APSR_nzcv, FPSCR
 420 01b4 E6D5     		bpl	.L29
 421              		.loc 1 29 0
 422 01b6 77EEA67A 		vadd.f32	s15, s15, s13
 423              	.LVL36:
 424 01ba 77EEA67A 		vadd.f32	s15, s15, s13
 425              	.LVL37:
 426 01be E1E7     		b	.L29
 427              	.LVL38:
 428              	.L12:
 429              	.LBE142:
 430              	.LBE141:
 431              		.loc 1 83 0
 432 01c0 221D     		adds	r2, r4, #4
 433              	.LVL39:
 434              	.L37:
 435              	.LBB143:
 436              	.LBB78:
 437              		.loc 1 37 0
 438 01c2 B4EEE67A 		vcmpe.f32	s14, s13
 439 01c6 F1EE10FA 		vmrs	APSR_nzcv, FPSCR
 440 01ca 04D8     		bhi	.L38
 441 01cc B4EEE57A 		vcmpe.f32	s14, s11
 442 01d0 F1EE10FA 		vmrs	APSR_nzcv, FPSCR
 443 01d4 15DA     		bge	.L40
 444              	.L38:
 445              		.loc 1 38 0
 446 01d6 B4EEC67A 		vcmpe.f32	s14, s12
 447 01da F1EE10FA 		vmrs	APSR_nzcv, FPSCR
 448 01de 04DD     		ble	.L75
 449              		.loc 1 39 0
 450 01e0 36EEC77A 		vsub.f32	s14, s13, s14
 451              	.LVL40:
 452 01e4 37EE267A 		vadd.f32	s14, s14, s13
 453              	.LVL41:
 454 01e8 EBE7     		b	.L37
 455              	.L75:
 456              		.loc 1 40 0
ARM GAS  C:\msys64\tmp\ccppbPL4.s 			page 9


 457 01ea B4EEE57A 		vcmpe.f32	s14, s11
 458 01ee F1EE10FA 		vmrs	APSR_nzcv, FPSCR
 459 01f2 E6D5     		bpl	.L37
 460              		.loc 1 41 0
 461 01f4 B1EE477A 		vneg.f32	s14, s14
 462              	.LVL42:
 463 01f8 37EE667A 		vsub.f32	s14, s14, s13
 464 01fc 37EE667A 		vsub.f32	s14, s14, s13
 465              	.LVL43:
 466 0200 DFE7     		b	.L37
 467              	.L40:
 468              	.LVL44:
 469              	.LBE78:
 470              	.LBE143:
 471              		.loc 1 83 0
 472 0202 84ED007A 		vstr.32	s14, [r4]
 473              	.LVL45:
 474              		.loc 1 84 0
 475 0206 281D     		adds	r0, r5, #4
 476              	.LVL46:
 477              	.L45:
 478              	.LBB144:
 479              	.LBB145:
 480              		.loc 1 37 0
 481 0208 F4EEC57A 		vcmpe.f32	s15, s10
 482 020c F1EE10FA 		vmrs	APSR_nzcv, FPSCR
 483 0210 04D8     		bhi	.L46
 484 0212 F4EEE47A 		vcmpe.f32	s15, s9
 485 0216 F1EE10FA 		vmrs	APSR_nzcv, FPSCR
 486 021a 15DA     		bge	.L48
 487              	.L46:
 488              		.loc 1 38 0
 489 021c F4EEC57A 		vcmpe.f32	s15, s10
 490 0220 F1EE10FA 		vmrs	APSR_nzcv, FPSCR
 491 0224 04DD     		ble	.L76
 492              		.loc 1 39 0
 493 0226 76EEE77A 		vsub.f32	s15, s13, s15
 494              	.LVL47:
 495 022a 77EEA67A 		vadd.f32	s15, s15, s13
 496              	.LVL48:
 497 022e EBE7     		b	.L45
 498              	.L76:
 499              		.loc 1 40 0
 500 0230 F4EEE47A 		vcmpe.f32	s15, s9
 501 0234 F1EE10FA 		vmrs	APSR_nzcv, FPSCR
 502 0238 E6D5     		bpl	.L45
 503              		.loc 1 41 0
 504 023a F1EE677A 		vneg.f32	s15, s15
 505              	.LVL49:
 506 023e 77EEE67A 		vsub.f32	s15, s15, s13
 507 0242 77EEE67A 		vsub.f32	s15, s15, s13
 508              	.LVL50:
 509 0246 DFE7     		b	.L45
 510              	.LVL51:
 511              	.L48:
 512              	.LBE145:
 513              	.LBE144:
ARM GAS  C:\msys64\tmp\ccppbPL4.s 			page 10


 514              		.loc 1 84 0
 515 0248 C5ED007A 		vstr.32	s15, [r5]
 516              		.loc 1 83 0
 517 024c 1446     		mov	r4, r2
 518              		.loc 1 84 0
 519 024e 0546     		mov	r5, r0
 520              		.loc 1 85 0
 521 0250 FBE6     		b	.L5
 522              	.LVL52:
 523              	.L4:
 524 0252 BDE8F081 		pop	{r4, r5, r6, r7, r8, pc}
 525              	.LVL53:
 526              	.L79:
 527 0256 00BF     		.align	2
 528              	.L78:
 529 0258 9A99193E 		.word	1041865114
 530 025c 9A9919BE 		.word	-1105618534
 531 0260 00000000 		.word	.LANCHOR0
 532              		.cfi_endproc
 533              	.LFE233:
 534              		.size	_hook_process, .-_hook_process
 535              		.align	1
 536              		.global	_hook_param
 537              		.thumb
 538              		.thumb_func
 539              		.type	_hook_param, %function
 540              	_hook_param:
 541              	.LFB234:
 542              		.loc 1 92 0
 543              		.cfi_startproc
 544              		@ args = 0, pretend = 0, frame = 0
 545              		@ frame_needed = 0, uses_anonymous_args = 0
 546              		@ link register save eliminated.
 547              	.LVL54:
 548              		.loc 1 93 0
 549 0264 07EE901A 		vmov	s15, r1	@ int
 550 0268 FAEEE07A 		vcvt.f32.s32	s15, s15, #31
 551              	.LVL55:
 552              		.loc 1 94 0
 553 026c 10B1     		cbz	r0, .L82
 554 026e 0128     		cmp	r0, #1
 555 0270 1FD0     		beq	.L83
 556 0272 7047     		bx	lr
 557              	.L82:
 558              		.loc 1 96 0
 559 0274 B5EE007A 		vmov.f32	s14, #2.5e-1
 560 0278 F4EEC77A 		vcmpe.f32	s15, s14
 561 027c F1EE10FA 		vmrs	APSR_nzcv, FPSCR
 562 0280 0E4B     		ldr	r3, .L96
 563 0282 01D5     		bpl	.L93
 564              		.loc 1 97 0
 565 0284 5860     		str	r0, [r3, #4]
 566 0286 7047     		bx	lr
 567              	.L93:
 568              		.loc 1 98 0
 569 0288 B6EE007A 		vmov.f32	s14, #5.0e-1
 570 028c F4EEC77A 		vcmpe.f32	s15, s14
ARM GAS  C:\msys64\tmp\ccppbPL4.s 			page 11


 571 0290 F1EE10FA 		vmrs	APSR_nzcv, FPSCR
 572 0294 02D5     		bpl	.L94
 573              		.loc 1 99 0
 574 0296 0122     		movs	r2, #1
 575 0298 5A60     		str	r2, [r3, #4]
 576 029a 7047     		bx	lr
 577              	.L94:
 578              		.loc 1 100 0
 579 029c B6EE087A 		vmov.f32	s14, #7.5e-1
 580 02a0 F4EEC77A 		vcmpe.f32	s15, s14
 581 02a4 F1EE10FA 		vmrs	APSR_nzcv, FPSCR
 582              		.loc 1 101 0
 583 02a8 4CBF     		ite	mi
 584 02aa 0222     		movmi	r2, #2
 585              		.loc 1 103 0
 586 02ac 0322     		movpl	r2, #3
 587 02ae 5A60     		str	r2, [r3, #4]
 588 02b0 7047     		bx	lr
 589              	.L83:
 590              		.loc 1 107 0
 591 02b2 024B     		ldr	r3, .L96
 592 02b4 C3ED007A 		vstr.32	s15, [r3]
 593 02b8 7047     		bx	lr
 594              	.L97:
 595 02ba 00BF     		.align	2
 596              	.L96:
 597 02bc 00000000 		.word	.LANCHOR0
 598              		.cfi_endproc
 599              	.LFE234:
 600              		.size	_hook_param, .-_hook_param
 601              		.global	len
 602              		.global	dpth
 603              		.global	dist_type
 604              		.global	dist_depth
 605              		.bss
 606              		.align	2
 607              		.set	.LANCHOR0,. + 0
 608              		.type	dist_depth, %object
 609              		.size	dist_depth, 4
 610              	dist_depth:
 611 0000 00000000 		.space	4
 612              		.type	dist_type, %object
 613              		.size	dist_type, 4
 614              	dist_type:
 615 0004 00000000 		.space	4
 616              		.type	len, %object
 617              		.size	len, 4
 618              	len:
 619 0008 00000000 		.space	4
 620              		.type	dpth, %object
 621              		.size	dpth, 4
 622              	dpth:
 623 000c 00000000 		.space	4
 624              		.text
 625              	.Letext0:
 626              		.file 4 "c:\\msys64\\home\\joshu\\logue-sdk\\tools\\gcc\\gcc-arm-none-eabi-5_4-2016q3\\arm-none-ea
 627              		.file 5 "c:\\msys64\\home\\joshu\\logue-sdk\\tools\\gcc\\gcc-arm-none-eabi-5_4-2016q3\\arm-none-ea
ARM GAS  C:\msys64\tmp\ccppbPL4.s 			page 12


 628              		.file 6 "../../logue-sdk/platform/nutekt-digital/inc/usermodfx.h"
 629              		.file 7 "../../logue-sdk/platform/nutekt-digital/inc/userprg.h"