ARM GAS  C:\msys64\tmp\ccFg5cm6.s 			page 1


   1              		.syntax unified
   2              		.cpu cortex-m4
   3              		.eabi_attribute 27, 1
   4              		.eabi_attribute 28, 1
   5              		.fpu fpv4-sp-d16
   6              		.eabi_attribute 20, 1
   7              		.eabi_attribute 21, 1
   8              		.eabi_attribute 23, 3
   9              		.eabi_attribute 24, 1
  10              		.eabi_attribute 25, 1
  11              		.eabi_attribute 26, 1
  12              		.eabi_attribute 30, 4
  13              		.eabi_attribute 34, 1
  14              		.eabi_attribute 18, 4
  15              		.thumb
  16              		.syntax unified
  17              		.file	"808-osc.cpp"
  18              		.text
  19              	.Ltext0:
  20              		.cfi_sections	.debug_frame
  21              		.align	1
  22              		.global	_hook_init
  23              		.thumb
  24              		.thumb_func
  25              		.type	_hook_init, %function
  26              	_hook_init:
  27              	.LFB239:
  28              		.file 1 "808-osc.cpp"
  29              		.loc 1 29 0
  30              		.cfi_startproc
  31              		@ args = 0, pretend = 0, frame = 0
  32              		@ frame_needed = 0, uses_anonymous_args = 0
  33              		@ link register save eliminated.
  34              	.LVL0:
  35              		.loc 1 32 0
  36 0000 054B     		ldr	r3, .L2
  37 0002 0022     		movs	r2, #0
  38 0004 5A60     		str	r2, [r3, #4]	@ float
  39              		.loc 1 33 0
  40 0006 9A60     		str	r2, [r3, #8]	@ float
  41              		.loc 1 34 0
  42 0008 1A60     		str	r2, [r3]	@ float
  43              		.loc 1 35 0
  44 000a 5A61     		str	r2, [r3, #20]	@ float
  45              		.loc 1 36 0
  46 000c DA60     		str	r2, [r3, #12]	@ float
  47              		.loc 1 37 0
  48 000e 1A61     		str	r2, [r3, #16]	@ float
  49              		.loc 1 38 0
  50 0010 9A61     		str	r2, [r3, #24]	@ float
  51              		.loc 1 39 0
  52 0012 DA61     		str	r2, [r3, #28]	@ float
  53              		.loc 1 40 0
  54 0014 1A62     		str	r2, [r3, #32]	@ float
  55 0016 7047     		bx	lr
  56              	.L3:
  57              		.align	2
ARM GAS  C:\msys64\tmp\ccFg5cm6.s 			page 2


  58              	.L2:
  59 0018 00000000 		.word	.LANCHOR0
  60              		.cfi_endproc
  61              	.LFE239:
  62              		.size	_hook_init, .-_hook_init
  63              		.align	1
  64              		.global	_hook_cycle
  65              		.thumb
  66              		.thumb_func
  67              		.type	_hook_cycle, %function
  68              	_hook_cycle:
  69              	.LFB240:
  70              		.loc 1 49 0
  71              		.cfi_startproc
  72              		@ args = 0, pretend = 0, frame = 0
  73              		@ frame_needed = 0, uses_anonymous_args = 0
  74              	.LVL1:
  75 001c F0B5     		push	{r4, r5, r6, r7, lr}
  76              		.cfi_def_cfa_offset 20
  77              		.cfi_offset 4, -20
  78              		.cfi_offset 5, -16
  79              		.cfi_offset 6, -12
  80              		.cfi_offset 7, -8
  81              		.cfi_offset 14, -4
  82 001e 2DED048B 		vpush.64	{d8, d9}
  83              		.cfi_def_cfa_offset 36
  84              		.cfi_offset 80, -36
  85              		.cfi_offset 81, -32
  86              		.cfi_offset 82, -28
  87              		.cfi_offset 83, -24
  88              		.loc 1 52 0
  89 0022 A14B     		ldr	r3, .L40
  90              	.LBB109:
  91              	.LBB110:
  92              	.LBB111:
  93              	.LBB112:
  94              		.file 2 "../../logue-sdk/platform/nutekt-digital/inc/osc_api.h"
  95              		.loc 2 115 0
  96 0024 A14E     		ldr	r6, .L40+4
  97              	.LBE112:
  98              	.LBE111:
  99              	.LBE110:
 100              	.LBE109:
 101              		.loc 1 52 0
 102 0026 93F82C70 		ldrb	r7, [r3, #44]	@ zero_extendqisi2
 103              	.LVL2:
 104              	.LBB143:
 105              	.LBB139:
 106              		.loc 2 128 0
 107 002a 9FEDA17A 		vldr.32	s14, .L40+8
 108              	.LBE139:
 109              	.LBE143:
 110              		.loc 1 57 0
 111 002e 9FEDA14A 		vldr.32	s8, .L40+12
 112              		.loc 1 55 0
 113 0032 93ED085A 		vldr.32	s10, [r3, #32]
 114              	.LVL3:
ARM GAS  C:\msys64\tmp\ccFg5cm6.s 			page 3


 115              		.loc 1 59 0
 116 0036 93ED032A 		vldr.32	s4, [r3, #12]
 117              		.loc 1 66 0
 118 003a D3ED063A 		vldr.32	s7, [r3, #24]
 119              		.loc 1 67 0
 120 003e D3ED070A 		vldr.32	s1, [r3, #28]
 121              		.loc 1 53 0
 122 0042 0024     		movs	r4, #0
 123 0044 83F82C40 		strb	r4, [r3, #44]
 124              		.loc 1 57 0
 125 0048 8488     		ldrh	r4, [r0, #4]
 126 004a 2512     		asrs	r5, r4, #8
 127              	.LBB144:
 128              	.LBB140:
 129              	.LBB119:
 130              	.LBB117:
 131              	.LBB113:
 132              	.LBB114:
 133              		.file 3 "../../logue-sdk/platform/nutekt-digital/inc/utils/int_math.h"
 134              		.loc 3 85 0
 135 004c 962D     		cmp	r5, #150
 136              	.LBE114:
 137              	.LBE113:
 138              	.LBE117:
 139              	.LBE119:
 140              	.LBE140:
 141              	.LBE144:
 142              		.loc 1 57 0
 143 004e E4B2     		uxtb	r4, r4
 144 0050 06EE904A 		vmov	s13, r4	@ int
 145              	.LVL4:
 146              	.LBB145:
 147              	.LBB141:
 148              	.LBB120:
 149              	.LBB118:
 150              	.LBB116:
 151              	.LBB115:
 152              		.loc 3 85 0
 153 0054 D4BF     		ite	le
 154 0056 2C46     		movle	r4, r5
 155              	.LVL5:
 156 0058 9724     		movgt	r4, #151
 157              	.LVL6:
 158              	.LBE115:
 159              	.LBE116:
 160              		.loc 2 115 0
 161 005a 06EB8404 		add	r4, r6, r4, lsl #2
 162 005e D4ED007A 		vldr.32	s15, [r4]
 163              	.LVL7:
 164              	.LBE118:
 165              	.LBE120:
 166              		.loc 2 126 0
 167 0062 6C1C     		adds	r4, r5, #1
 168 0064 E4B2     		uxtb	r4, r4
 169              	.LVL8:
 170              	.LBB121:
 171              	.LBB122:
ARM GAS  C:\msys64\tmp\ccFg5cm6.s 			page 4


 172              	.LBB123:
 173              	.LBB124:
 174              		.loc 3 85 0
 175 0066 962C     		cmp	r4, #150
 176 0068 94BF     		ite	ls
 177 006a A646     		movls	lr, r4
 178 006c 4FF0970E 		movhi	lr, #151
 179              	.LVL9:
 180              	.LBE124:
 181              	.LBE123:
 182              		.loc 2 115 0
 183 0070 06EB8E0E 		add	lr, r6, lr, lsl #2
 184              	.LBE122:
 185              	.LBE121:
 186              		.loc 2 128 0
 187 0074 F8EEE66A 		vcvt.f32.s32	s13, s13
 188              	.LVL10:
 189              	.LBB125:
 190              	.LBB126:
 191              		.file 4 "../../logue-sdk/platform/nutekt-digital/inc/utils/float_math.h"
 192              		.loc 4 825 0
 193 0078 9EED006A 		vldr.32	s12, [lr]
 194              	.LBE126:
 195              	.LBE125:
 196              		.loc 2 128 0
 197 007c 66EE876A 		vmul.f32	s13, s13, s14
 198              	.LVL11:
 199              	.LBB129:
 200              	.LBB127:
 201              		.loc 4 825 0
 202 0080 36EE676A 		vsub.f32	s12, s12, s15
 203              	.LBE127:
 204              	.LBE129:
 205              	.LBB130:
 206              	.LBB131:
 207              	.LBB132:
 208              	.LBB133:
 209              		.loc 4 193 0
 210 0084 9FED8C7A 		vldr.32	s14, .L40+16
 211              	.LBE133:
 212              	.LBE132:
 213              	.LBE131:
 214              	.LBE130:
 215              	.LBB137:
 216              	.LBB128:
 217              		.loc 4 825 0
 218 0088 E6EE867A 		vfma.f32	s15, s13, s12
 219              	.LVL12:
 220              	.LBE128:
 221              	.LBE137:
 222              	.LBE141:
 223              	.LBE145:
 224              		.loc 1 57 0
 225 008c B6EE006A 		vmov.f32	s12, #5.0e-1
 226              	.LBB146:
 227              	.LBB142:
 228              	.LBB138:
ARM GAS  C:\msys64\tmp\ccFg5cm6.s 			page 5


 229              	.LBB136:
 230              	.LBB135:
 231              	.LBB134:
 232              		.loc 4 193 0
 233 0090 F4EEC77A 		vcmpe.f32	s15, s14
 234 0094 F1EE10FA 		vmrs	APSR_nzcv, FPSCR
 235 0098 A8BF     		it	ge
 236 009a F0EE477A 		vmovge.f32	s15, s14
 237              	.LVL13:
 238              	.LBE134:
 239              	.LBE135:
 240              	.LBE136:
 241              	.LBE138:
 242              	.LBE142:
 243              	.LBE146:
 244              	.LBB147:
 245              	.LBB148:
 246              	.LBB149:
 247              	.LBB150:
 248              	.LBB151:
 249              	.LBB152:
 250              		.loc 3 85 0
 251 009e 972D     		cmp	r5, #151
 252 00a0 A8BF     		it	ge
 253 00a2 9725     		movge	r5, #151
 254              	.LBE152:
 255              	.LBE151:
 256              	.LBE150:
 257              	.LBE149:
 258              	.LBB155:
 259              	.LBB156:
 260              	.LBB157:
 261              	.LBB158:
 262 00a4 972C     		cmp	r4, #151
 263 00a6 28BF     		it	cs
 264 00a8 9724     		movcs	r4, #151
 265              	.LBE158:
 266              	.LBE157:
 267              	.LBE156:
 268              	.LBE155:
 269              	.LBE148:
 270              	.LBE147:
 271              		.loc 1 57 0
 272 00aa 67EE847A 		vmul.f32	s15, s15, s8
 273              	.LBB175:
 274              	.LBB171:
 275              	.LBB160:
 276              	.LBB153:
 277              		.loc 2 115 0
 278 00ae 06EB8505 		add	r5, r6, r5, lsl #2
 279              	.LBE153:
 280              	.LBE160:
 281              	.LBB161:
 282              	.LBB159:
 283 00b2 06EB8404 		add	r4, r6, r4, lsl #2
 284              	.LBE159:
 285              	.LBE161:
ARM GAS  C:\msys64\tmp\ccFg5cm6.s 			page 6


 286              	.LBE171:
 287              	.LBE175:
 288              		.loc 1 57 0
 289 00b6 67EE867A 		vmul.f32	s15, s15, s12
 290              	.LBB176:
 291              	.LBB172:
 292              	.LBB162:
 293              	.LBB163:
 294              		.loc 4 825 0
 295 00ba D4ED005A 		vldr.32	s11, [r4]
 296              	.LBE163:
 297              	.LBE162:
 298              	.LBB165:
 299              	.LBB154:
 300              		.loc 2 115 0
 301 00be 95ED006A 		vldr.32	s12, [r5]
 302              	.LBE154:
 303              	.LBE165:
 304              	.LBE172:
 305              	.LBE176:
 306              		.loc 1 57 0
 307 00c2 C3ED017A 		vstr.32	s15, [r3, #4]
 308              	.LVL14:
 309              	.LBB177:
 310              	.LBB173:
 311              	.LBB166:
 312              	.LBB164:
 313              		.loc 4 825 0
 314 00c6 75EEC65A 		vsub.f32	s11, s11, s12
 315 00ca A5EEA66A 		vfma.f32	s12, s11, s13
 316              	.LVL15:
 317              	.LBE164:
 318              	.LBE166:
 319              	.LBE173:
 320              	.LBE177:
 321              		.loc 1 60 0
 322 00ce D3ED045A 		vldr.32	s11, [r3, #16]
 323              	.LBB178:
 324              	.LBB174:
 325              	.LBB167:
 326              	.LBB168:
 327              	.LBB169:
 328              	.LBB170:
 329              		.loc 4 193 0
 330 00d2 B4EEC76A 		vcmpe.f32	s12, s14
 331 00d6 F1EE10FA 		vmrs	APSR_nzcv, FPSCR
 332 00da B8BF     		it	lt
 333 00dc B0EE467A 		vmovlt.f32	s14, s12
 334              	.LVL16:
 335              	.LBE170:
 336              	.LBE169:
 337              	.LBE168:
 338              	.LBE167:
 339              	.LBE174:
 340              	.LBE178:
 341              		.loc 1 58 0
 342 00e0 27EE047A 		vmul.f32	s14, s14, s8
ARM GAS  C:\msys64\tmp\ccFg5cm6.s 			page 7


 343              		.loc 1 63 0
 344 00e4 17F00107 		ands	r7, r7, #1
 345              	.LVL17:
 346              		.loc 1 58 0
 347 00e8 27EE057A 		vmul.f32	s14, s14, s10
 348              		.loc 1 63 0
 349 00ec 08BF     		it	eq
 350 00ee 93ED056A 		vldreq.32	s12, [r3, #20]
 351              		.loc 1 58 0
 352 00f2 83ED027A 		vstr.32	s14, [r3, #8]
 353              	.LVL18:
 354              	.LBB179:
 355              	.LBB180:
 356              		.loc 4 825 0
 357 00f6 77EEC77A 		vsub.f32	s15, s15, s14
 358              	.LVL19:
 359              	.LBE180:
 360              	.LBE179:
 361              		.loc 1 63 0
 362 00fa 18BF     		it	ne
 363 00fc 9FED6F6A 		vldrne.32	s12, .L40+20
 364              	.LBB183:
 365              	.LBB181:
 366              		.loc 4 825 0
 367 0100 A5EEA77A 		vfma.f32	s14, s11, s15
 368              	.LVL20:
 369              	.LBE181:
 370              	.LBE183:
 371              		.loc 1 70 0
 372 0104 D0ED007A 		vldr.32	s15, [r0]	@ int
 373              		.loc 1 62 0
 374 0108 83ED007A 		vstr.32	s14, [r3]
 375              		.loc 1 70 0
 376 010c FAEEE07A 		vcvt.f32.s32	s15, s15, #31
 377              	.LBB184:
 378              	.LBB182:
 379              		.loc 4 825 0
 380 0110 F0EE476A 		vmov.f32	s13, s14
 381              	.LVL21:
 382              	.LBE182:
 383              	.LBE184:
 384              		.loc 1 70 0
 385 0114 C3ED097A 		vstr.32	s15, [r3, #36]
 386              	.LVL22:
 387              		.loc 1 71 0
 388 0118 1FB9     		cbnz	r7, .L30
 389              		.loc 1 71 0 is_stmt 0 discriminator 1
 390 011a 6348     		ldr	r0, .L40
 391              	.LVL23:
 392 011c 90ED0A5A 		vldr.32	s10, [r0, #40]
 393              	.LVL24:
 394 0120 01E0     		b	.L12
 395              	.LVL25:
 396              	.L30:
 397              		.loc 1 71 0
 398 0122 B0EE675A 		vmov.f32	s10, s15
 399              	.LVL26:
ARM GAS  C:\msys64\tmp\ccFg5cm6.s 			page 8


 400              	.L12:
 401              		.loc 1 72 0 is_stmt 1 discriminator 4
 402 0126 07EE102A 		vmov	s14, r2	@ int
 403 012a 77EEC57A 		vsub.f32	s15, s15, s10
 404              	.LVL27:
 405 012e B8EE477A 		vcvt.f32.u32	s14, s14
 406              	.LBB185:
 407              	.LBB186:
 408              	.LBB187:
 409              	.LBB188:
 410              		.loc 2 160 0 discriminator 4
 411 0132 9FED633A 		vldr.32	s6, .L40+24
 412              		.loc 2 166 0 discriminator 4
 413 0136 634C     		ldr	r4, .L40+28
 414              	.LBE188:
 415              	.LBE187:
 416              		.loc 1 79 0 discriminator 4
 417 0138 9FED608A 		vldr.32	s16, .L40+20
 418              		.loc 1 83 0 discriminator 4
 419 013c 9FED621A 		vldr.32	s2, .L40+32
 420 0140 DFED621A 		vldr.32	s3, .L40+36
 421              	.LBE186:
 422              	.LBE185:
 423              		.loc 1 72 0 discriminator 4
 424 0144 C7EE872A 		vdiv.f32	s5, s15, s14
 425              	.LVL28:
 426              		.loc 1 75 0 discriminator 4
 427 0148 01EB8202 		add	r2, r1, r2, lsl #2
 428              	.LVL29:
 429 014c 2546     		mov	r5, r4
 430 014e B0EE430A 		vmov.f32	s0, s6
 431 0152 F7EE004A 		vmov.f32	s9, #1.0e+0
 432              	.LBB227:
 433              	.LBB225:
 434              	.LBB198:
 435              	.LBB199:
 436              	.LBB200:
 437              	.LBB201:
 438              	.LBB202:
 439              	.LBB203:
 440              		.loc 4 193 0 discriminator 4
 441 0156 FFEE008A 		vmov.f32	s17, #-1.0e+0
 442              	.LVL30:
 443              	.L22:
 444              	.LBE203:
 445              	.LBE202:
 446              	.LBE201:
 447              	.LBE200:
 448              	.LBE199:
 449              	.LBE198:
 450              	.LBE225:
 451              		.loc 1 76 0
 452 015a 9142     		cmp	r1, r2
 453 015c 00F09A80 		beq	.L13
 454              	.LVL31:
 455              	.LBB226:
 456              	.LBB209:
ARM GAS  C:\msys64\tmp\ccFg5cm6.s 			page 9


 457              	.LBB197:
 458              		.loc 2 160 0
 459 0160 FCEEC67A 		vcvt.u32.f32	s15, s12
 460 0164 F8EE677A 		vcvt.f32.u32	s15, s15
 461 0168 76EE677A 		vsub.f32	s15, s12, s15
 462 016c 67EE837A 		vmul.f32	s15, s15, s6
 463              	.LVL32:
 464              		.loc 2 161 0
 465 0170 BCEEE77A 		vcvt.u32.f32	s14, s15
 466 0174 17EE106A 		vmov	r6, s14	@ int
 467              	.LVL33:
 468              		.loc 2 163 0
 469 0178 06F07F00 		and	r0, r6, #127
 470              	.LVL34:
 471              	.LBB189:
 472              	.LBB190:
 473              		.loc 4 825 0
 474 017c 09EE106A 		vmov	s18, r6	@ int
 475              	.LBE190:
 476              	.LBE189:
 477              		.loc 2 166 0
 478 0180 04EB8007 		add	r7, r4, r0, lsl #2
 479 0184 0130     		adds	r0, r0, #1
 480              	.LVL35:
 481              	.LBB194:
 482              	.LBB191:
 483              		.loc 4 825 0
 484 0186 B8EE499A 		vcvt.f32.u32	s18, s18
 485              	.LBE191:
 486              	.LBE194:
 487              		.loc 2 166 0
 488 018a 00F07F00 		and	r0, r0, #127
 489              	.LVL36:
 490 018e 04EB8000 		add	r0, r4, r0, lsl #2
 491              	.LVL37:
 492 0192 97ED007A 		vldr.32	s14, [r7]
 493              	.LVL38:
 494              	.LBB195:
 495              	.LBB192:
 496              		.loc 4 825 0
 497 0196 77EEC97A 		vsub.f32	s15, s15, s18
 498              	.LVL39:
 499 019a 90ED009A 		vldr.32	s18, [r0]
 500 019e 39EE479A 		vsub.f32	s18, s18, s14
 501              	.LBE192:
 502              	.LBE195:
 503              		.loc 2 167 0
 504 01a2 7F2E     		cmp	r6, #127
 505              	.LBB196:
 506              	.LBB193:
 507              		.loc 4 825 0
 508 01a4 A7EE897A 		vfma.f32	s14, s15, s18
 509              	.LVL40:
 510 01a8 F0EE477A 		vmov.f32	s15, s14
 511              	.LVL41:
 512              	.LBE193:
 513              	.LBE196:
ARM GAS  C:\msys64\tmp\ccFg5cm6.s 			page 10


 514              		.loc 2 167 0
 515 01ac 88BF     		it	hi
 516 01ae F1EE477A 		vneghi.f32	s15, s14
 517              	.LVL42:
 518              	.LBE197:
 519              	.LBE209:
 520              		.loc 1 79 0
 521 01b2 63EEA77A 		vmul.f32	s15, s7, s15
 522 01b6 B0EE487A 		vmov.f32	s14, s16
 523 01ba A3EEA77A 		vfma.f32	s14, s7, s15
 524 01be 77EE067A 		vadd.f32	s15, s14, s12
 525              	.LVL43:
 526              		.loc 1 80 0
 527 01c2 F5EEC07A 		vcmpe.f32	s15, #0
 528 01c6 F1EE10FA 		vmrs	APSR_nzcv, FPSCR
 529 01ca 89BF     		itett	hi
 530 01cc BCEEE77A 		vcvthi.u32.f32	s14, s15
 531 01d0 74EEE77A 		vsubls.f32	s15, s9, s15
 532              	.LVL44:
 533 01d4 B8EE477A 		vcvthi.f32.u32	s14, s14
 534 01d8 77EEC77A 		vsubhi.f32	s15, s15, s14
 535              	.LVL45:
 536              	.LBB210:
 537              	.LBB211:
 538              		.loc 2 160 0
 539 01dc BCEEE77A 		vcvt.u32.f32	s14, s15
 540 01e0 B8EE477A 		vcvt.f32.u32	s14, s14
 541 01e4 77EEC77A 		vsub.f32	s15, s15, s14
 542              	.LVL46:
 543 01e8 27EE807A 		vmul.f32	s14, s15, s0
 544              	.LVL47:
 545              		.loc 2 161 0
 546 01ec FCEEC77A 		vcvt.u32.f32	s15, s14
 547 01f0 17EE906A 		vmov	r6, s15	@ int
 548              	.LVL48:
 549              		.loc 2 163 0
 550 01f4 06F07F00 		and	r0, r6, #127
 551              	.LVL49:
 552              	.LBB212:
 553              	.LBB213:
 554              		.loc 4 825 0
 555 01f8 09EE106A 		vmov	s18, r6	@ int
 556              	.LBE213:
 557              	.LBE212:
 558              		.loc 2 166 0
 559 01fc 05EB8007 		add	r7, r5, r0, lsl #2
 560 0200 0130     		adds	r0, r0, #1
 561              	.LVL50:
 562              	.LBB217:
 563              	.LBB214:
 564              		.loc 4 825 0
 565 0202 B8EE499A 		vcvt.f32.u32	s18, s18
 566              	.LBE214:
 567              	.LBE217:
 568              		.loc 2 166 0
 569 0206 00F07F00 		and	r0, r0, #127
 570              	.LVL51:
ARM GAS  C:\msys64\tmp\ccFg5cm6.s 			page 11


 571 020a 05EB8000 		add	r0, r5, r0, lsl #2
 572              	.LVL52:
 573 020e D7ED007A 		vldr.32	s15, [r7]
 574              	.LVL53:
 575              	.LBB218:
 576              	.LBB215:
 577              		.loc 4 825 0
 578 0212 37EE497A 		vsub.f32	s14, s14, s18
 579              	.LVL54:
 580 0216 90ED009A 		vldr.32	s18, [r0]
 581 021a 39EE679A 		vsub.f32	s18, s18, s15
 582              	.LBE215:
 583              	.LBE218:
 584              		.loc 2 167 0
 585 021e 7F2E     		cmp	r6, #127
 586              	.LBB219:
 587              	.LBB216:
 588              		.loc 4 825 0
 589 0220 E7EE097A 		vfma.f32	s15, s14, s18
 590              	.LVL55:
 591              	.LBE216:
 592              	.LBE219:
 593              		.loc 2 167 0
 594 0224 88BF     		it	hi
 595 0226 F1EE677A 		vneghi.f32	s15, s15
 596              	.LVL56:
 597              	.LBE211:
 598              	.LBE210:
 599              		.loc 1 82 0
 600 022a 60EEA77A 		vmul.f32	s15, s1, s15
 601              	.LVL57:
 602              	.LBB220:
 603              	.LBB208:
 604              	.LBB207:
 605              	.LBB206:
 606              	.LBB205:
 607              	.LBB204:
 608              		.loc 4 193 0
 609 022e F4EEE87A 		vcmpe.f32	s15, s17
 610 0232 F1EE10FA 		vmrs	APSR_nzcv, FPSCR
 611 0236 07DB     		blt	.L38
 612              	.LVL58:
 613 0238 F4EEE47A 		vcmpe.f32	s15, s9
 614 023c F1EE10FA 		vmrs	APSR_nzcv, FPSCR
 615 0240 A8BF     		it	ge
 616 0242 F0EE647A 		vmovge.f32	s15, s9
 617              	.LVL59:
 618 0246 01E0     		b	.L19
 619              	.LVL60:
 620              	.L38:
 621 0248 FFEE007A 		vmov.f32	s15, #-1.0e+0
 622              	.LVL61:
 623              	.L19:
 624              	.LBE204:
 625              	.LBE205:
 626              	.LBE206:
 627              	.LBE207:
ARM GAS  C:\msys64\tmp\ccFg5cm6.s 			page 12


 628              	.LBE208:
 629              	.LBE220:
 630              		.loc 1 83 0
 631 024c 27EEA77A 		vmul.f32	s14, s15, s15
 632              		.loc 1 85 0
 633 0250 36EE266A 		vadd.f32	s12, s12, s13
 634              	.LVL62:
 635              		.loc 1 83 0
 636 0254 27EEC77A 		vnmul.f32	s14, s15, s14
 637              		.loc 1 90 0
 638 0258 35EE225A 		vadd.f32	s10, s10, s5
 639              	.LVL63:
 640              		.loc 1 83 0
 641 025c E7EE017A 		vfma.f32	s15, s14, s2
 642 0260 67EEA17A 		vmul.f32	s15, s15, s3
 643 0264 FDEEE77A 		vcvt.s32.f32	s15, s15
 644 0268 E1EC017A 		vstmia.32	r1!, {s15}	@ int
 645              	.LVL64:
 646              		.loc 1 86 0
 647 026c FCEEC67A 		vcvt.u32.f32	s15, s12
 648 0270 F8EE677A 		vcvt.f32.u32	s15, s15
 649 0274 36EE676A 		vsub.f32	s12, s12, s15
 650              	.LVL65:
 651              		.loc 1 87 0
 652 0278 F3EE047A 		vmov.f32	s15, #2.0e+1
 653 027c E2EE677A 		vfms.f32	s15, s4, s15
 654 0280 E7EE845A 		vfma.f32	s11, s15, s8
 655              	.LVL66:
 656              	.LBB221:
 657              	.LBB222:
 658              	.LBB223:
 659              	.LBB224:
 660              		.loc 4 193 0
 661 0284 F4EE645A 		vcmp.f32	s11, s9
 662 0288 F1EE10FA 		vmrs	APSR_nzcv, FPSCR
 663 028c A8BF     		it	ge
 664 028e F0EE645A 		vmovge.f32	s11, s9
 665              	.LVL67:
 666              	.LBE224:
 667              	.LBE223:
 668              	.LBE222:
 669              	.LBE221:
 670              	.LBE226:
 671              		.loc 1 76 0
 672 0292 62E7     		b	.L22
 673              	.LVL68:
 674              	.L13:
 675              	.LBE227:
 676              		.loc 1 95 0
 677 0294 BDEC048B 		vldm	sp!, {d8-d9}
 678              		.cfi_restore 82
 679              		.cfi_restore 83
 680              		.cfi_restore 80
 681              		.cfi_restore 81
 682              		.cfi_def_cfa_offset 20
 683              		.loc 1 92 0
 684 0298 C3ED045A 		vstr.32	s11, [r3, #16]
ARM GAS  C:\msys64\tmp\ccFg5cm6.s 			page 13


 685              		.loc 1 93 0
 686 029c 83ED056A 		vstr.32	s12, [r3, #20]
 687              		.loc 1 94 0
 688 02a0 83ED0A5A 		vstr.32	s10, [r3, #40]
 689              		.loc 1 95 0
 690 02a4 F0BD     		pop	{r4, r5, r6, r7, pc}
 691              	.L41:
 692 02a6 00BF     		.align	2
 693              	.L40:
 694 02a8 00000000 		.word	.LANCHOR0
 695 02ac 00000000 		.word	midi_to_hz_lut_f
 696 02b0 8180803B 		.word	998277249
 697 02b4 3EC3AE37 		.word	934200126
 698 02b8 49FFB846 		.word	1186529097
 699 02bc 00000000 		.word	0
 700 02c0 00008043 		.word	1132462080
 701 02c4 00000000 		.word	wt_sine_lut_f
 702 02c8 CDCC4C3D 		.word	1028443341
 703 02cc 0000004F 		.word	1325400064
 704              		.cfi_endproc
 705              	.LFE240:
 706              		.size	_hook_cycle, .-_hook_cycle
 707              		.align	1
 708              		.global	_hook_on
 709              		.thumb
 710              		.thumb_func
 711              		.type	_hook_on, %function
 712              	_hook_on:
 713              	.LFB241:
 714              		.loc 1 97 0
 715              		.cfi_startproc
 716              		@ args = 0, pretend = 0, frame = 0
 717              		@ frame_needed = 0, uses_anonymous_args = 0
 718              		@ link register save eliminated.
 719              	.LVL69:
 720              		.loc 1 99 0
 721 02d0 044B     		ldr	r3, .L43
 722 02d2 93F82C20 		ldrb	r2, [r3, #44]	@ zero_extendqisi2
 723 02d6 42F00102 		orr	r2, r2, #1
 724 02da 83F82C20 		strb	r2, [r3, #44]
 725              		.loc 1 100 0
 726 02de 0022     		movs	r2, #0
 727 02e0 1A61     		str	r2, [r3, #16]	@ float
 728 02e2 7047     		bx	lr
 729              	.L44:
 730              		.align	2
 731              	.L43:
 732 02e4 00000000 		.word	.LANCHOR0
 733              		.cfi_endproc
 734              	.LFE241:
 735              		.size	_hook_on, .-_hook_on
 736              		.align	1
 737              		.global	_hook_off
 738              		.thumb
 739              		.thumb_func
 740              		.type	_hook_off, %function
 741              	_hook_off:
ARM GAS  C:\msys64\tmp\ccFg5cm6.s 			page 14


 742              	.LFB242:
 743              		.loc 1 103 0
 744              		.cfi_startproc
 745              		@ args = 0, pretend = 0, frame = 0
 746              		@ frame_needed = 0, uses_anonymous_args = 0
 747              		@ link register save eliminated.
 748              	.LVL70:
 749 02e8 7047     		bx	lr
 750              		.cfi_endproc
 751              	.LFE242:
 752              		.size	_hook_off, .-_hook_off
 753              		.align	1
 754              		.global	_hook_param
 755              		.thumb
 756              		.thumb_func
 757              		.type	_hook_param, %function
 758              	_hook_param:
 759              	.LFB243:
 760              		.loc 1 107 0
 761              		.cfi_startproc
 762              		@ args = 0, pretend = 0, frame = 0
 763              		@ frame_needed = 0, uses_anonymous_args = 0
 764              		@ link register save eliminated.
 765              	.LVL71:
 766              		.loc 1 108 0
 767 02ea 07EE901A 		vmov	s15, r1	@ int
 768 02ee 9FED167A 		vldr.32	s14, .L53
 769 02f2 F8EEE77A 		vcvt.f32.s32	s15, s15
 770 02f6 67EE877A 		vmul.f32	s15, s15, s14
 771              	.LVL72:
 772              		.loc 1 110 0
 773 02fa 0728     		cmp	r0, #7
 774 02fc 22D8     		bhi	.L46
 775 02fe DFE800F0 		tbb	[pc, r0]
 776              	.L49:
 777 0302 04       		.byte	(.L48-.L49)/2
 778 0303 0C       		.byte	(.L50-.L49)/2
 779 0304 21       		.byte	(.L46-.L49)/2
 780 0305 21       		.byte	(.L46-.L49)/2
 781 0306 21       		.byte	(.L46-.L49)/2
 782 0307 21       		.byte	(.L46-.L49)/2
 783 0308 16       		.byte	(.L51-.L49)/2
 784 0309 1A       		.byte	(.L52-.L49)/2
 785              		.p2align 1
 786              	.L48:
 787              		.loc 1 112 0
 788 030a B7EE007A 		vmov.f32	s14, #1.0e+0
 789 030e 77EE877A 		vadd.f32	s15, s15, s14
 790              	.LVL73:
 791 0312 0E4B     		ldr	r3, .L53+4
 792 0314 C3ED077A 		vstr.32	s15, [r3, #28]
 793              		.loc 1 113 0
 794 0318 7047     		bx	lr
 795              	.LVL74:
 796              	.L50:
 797              		.loc 1 115 0
 798 031a B7EE007A 		vmov.f32	s14, #1.0e+0
ARM GAS  C:\msys64\tmp\ccFg5cm6.s 			page 15


 799 031e F3EE086A 		vmov.f32	s13, #2.4e+1
 800 0322 A7EEA67A 		vfma.f32	s14, s15, s13
 801 0326 094B     		ldr	r3, .L53+4
 802 0328 83ED087A 		vstr.32	s14, [r3, #32]
 803              		.loc 1 116 0
 804 032c 7047     		bx	lr
 805              	.L51:
 806              		.loc 1 123 0
 807 032e 074B     		ldr	r3, .L53+4
 808 0330 C3ED037A 		vstr.32	s15, [r3, #12]
 809              		.loc 1 124 0
 810 0334 7047     		bx	lr
 811              	.L52:
 812              		.loc 1 126 0
 813 0336 9FED067A 		vldr.32	s14, .L53+8
 814 033a 044B     		ldr	r3, .L53+4
 815 033c 67EE877A 		vmul.f32	s15, s15, s14
 816              	.LVL75:
 817 0340 C3ED067A 		vstr.32	s15, [r3, #24]
 818              	.L46:
 819 0344 7047     		bx	lr
 820              	.L54:
 821 0346 00BF     		.align	2
 822              	.L53:
 823 0348 0820803A 		.word	981475336
 824 034c 00000000 		.word	.LANCHOR0
 825 0350 3333333F 		.word	1060320051
 826              		.cfi_endproc
 827              	.LFE243:
 828              		.size	_hook_param, .-_hook_param
 829              		.bss
 830              		.align	2
 831              		.set	.LANCHOR0,. + 0
 832              		.type	_ZL7s_state, %object
 833              		.size	_ZL7s_state, 48
 834              	_ZL7s_state:
 835 0000 00000000 		.space	48
 835      00000000 
 835      00000000 
 835      00000000 
 835      00000000 
 836              		.text
 837              	.Letext0:
 838              		.file 5 "c:\\msys64\\home\\joshu\\logue-sdk\\tools\\gcc\\gcc-arm-none-eabi-5_4-2016q3\\arm-none-ea
 839              		.file 6 "c:\\msys64\\home\\joshu\\logue-sdk\\tools\\gcc\\gcc-arm-none-eabi-5_4-2016q3\\arm-none-ea
 840              		.file 7 "c:\\msys64\\home\\joshu\\logue-sdk\\platform\\ext\\cmsis\\cmsis\\include\\arm_math.h"
 841              		.file 8 "../../logue-sdk/platform/nutekt-digital/inc/userosc.h"
 842              		.file 9 "../../logue-sdk/platform/nutekt-digital/inc/userprg.h"