ARM GAS  C:\msys64\tmp\ccyN5w4R.s 			page 1


   1              		.syntax unified
   2              		.cpu cortex-m4
   3              		.eabi_attribute 27, 1
   4              		.eabi_attribute 28, 1
   5              		.fpu fpv4-sp-d16
   6              		.eabi_attribute 20, 1
   7              		.eabi_attribute 21, 1
   8              		.eabi_attribute 23, 3
   9              		.eabi_attribute 24, 1
  10              		.eabi_attribute 25, 1
  11              		.eabi_attribute 26, 1
  12              		.eabi_attribute 30, 4
  13              		.eabi_attribute 34, 1
  14              		.eabi_attribute 18, 4
  15              		.thumb
  16              		.syntax unified
  17              		.file	"test.cpp"
  18              		.text
  19              	.Ltext0:
  20              		.cfi_sections	.debug_frame
  21              		.align	1
  22              		.global	_hook_init
  23              		.thumb
  24              		.thumb_func
  25              		.type	_hook_init, %function
  26              	_hook_init:
  27              	.LFB239:
  28              		.file 1 "test.cpp"
  29              		.loc 1 27 0
  30              		.cfi_startproc
  31              		@ args = 0, pretend = 0, frame = 0
  32              		@ frame_needed = 0, uses_anonymous_args = 0
  33              		@ link register save eliminated.
  34              	.LVL0:
  35              		.loc 1 30 0
  36 0000 074B     		ldr	r3, .L2
  37 0002 0022     		movs	r2, #0
  38 0004 1A60     		str	r2, [r3]	@ float
  39              		.loc 1 31 0
  40 0006 5A60     		str	r2, [r3, #4]	@ float
  41              		.loc 1 32 0
  42 0008 9A60     		str	r2, [r3, #8]	@ float
  43              		.loc 1 33 0
  44 000a DA60     		str	r2, [r3, #12]	@ float
  45              		.loc 1 34 0
  46 000c 4FF07E51 		mov	r1, #1065353216
  47              	.LVL1:
  48              		.loc 1 35 0
  49 0010 5A61     		str	r2, [r3, #20]	@ float
  50              		.loc 1 36 0
  51 0012 DA61     		str	r2, [r3, #28]	@ float
  52 0014 9A61     		str	r2, [r3, #24]	@ float
  53              		.loc 1 37 0
  54 0016 0022     		movs	r2, #0
  55              		.loc 1 34 0
  56 0018 1961     		str	r1, [r3, #16]	@ float
  57              		.loc 1 37 0
ARM GAS  C:\msys64\tmp\ccyN5w4R.s 			page 2


  58 001a 83F82020 		strb	r2, [r3, #32]
  59 001e 7047     		bx	lr
  60              	.L3:
  61              		.align	2
  62              	.L2:
  63 0020 00000000 		.word	.LANCHOR0
  64              		.cfi_endproc
  65              	.LFE239:
  66              		.size	_hook_init, .-_hook_init
  67              		.align	1
  68              		.global	_hook_cycle
  69              		.thumb
  70              		.thumb_func
  71              		.type	_hook_cycle, %function
  72              	_hook_cycle:
  73              	.LFB240:
  74              		.loc 1 45 0
  75              		.cfi_startproc
  76              		@ args = 0, pretend = 0, frame = 0
  77              		@ frame_needed = 0, uses_anonymous_args = 0
  78              	.LVL2:
  79 0024 F0B5     		push	{r4, r5, r6, r7, lr}
  80              		.cfi_def_cfa_offset 20
  81              		.cfi_offset 4, -20
  82              		.cfi_offset 5, -16
  83              		.cfi_offset 6, -12
  84              		.cfi_offset 7, -8
  85              		.cfi_offset 14, -4
  86 0026 2DED028B 		vpush.64	{d8}
  87              		.cfi_def_cfa_offset 28
  88              		.cfi_offset 80, -28
  89              		.cfi_offset 81, -24
  90              		.loc 1 46 0
  91 002a 944B     		ldr	r3, .L35
  92              	.LBB96:
  93              	.LBB97:
  94              	.LBB98:
  95              	.LBB99:
  96              		.file 2 "../../logue-sdk/platform/nutekt-digital/inc/osc_api.h"
  97              		.loc 2 115 0
  98 002c 944E     		ldr	r6, .L35+4
  99              	.LBE99:
 100              	.LBE98:
 101              	.LBE97:
 102              	.LBE96:
 103              		.loc 1 46 0
 104 002e 93F82070 		ldrb	r7, [r3, #32]	@ zero_extendqisi2
 105              	.LVL3:
 106              	.LBB124:
 107              	.LBB120:
 108              		.loc 2 128 0
 109 0032 9FED947A 		vldr.32	s14, .L35+8
 110              		.loc 2 130 0
 111 0036 9FED945A 		vldr.32	s10, .L35+12
 112              	.LBE120:
 113              	.LBE124:
 114              		.loc 1 54 0
ARM GAS  C:\msys64\tmp\ccyN5w4R.s 			page 3


 115 003a D3ED041A 		vldr.32	s3, [r3, #16]
 116              		.loc 1 47 0
 117 003e 0024     		movs	r4, #0
 118 0040 83F82040 		strb	r4, [r3, #32]
 119              		.loc 1 49 0
 120 0044 8488     		ldrh	r4, [r0, #4]
 121 0046 2512     		asrs	r5, r4, #8
 122              	.LBB125:
 123              	.LBB121:
 124              	.LBB106:
 125              	.LBB104:
 126              	.LBB100:
 127              	.LBB101:
 128              		.file 3 "../../logue-sdk/platform/nutekt-digital/inc/utils/int_math.h"
 129              		.loc 3 85 0
 130 0048 962D     		cmp	r5, #150
 131              	.LBE101:
 132              	.LBE100:
 133              	.LBE104:
 134              	.LBE106:
 135              	.LBE121:
 136              	.LBE125:
 137              		.loc 1 49 0
 138 004a E4B2     		uxtb	r4, r4
 139 004c 07EE904A 		vmov	s15, r4	@ int
 140              	.LVL4:
 141              	.LBB126:
 142              	.LBB122:
 143              	.LBB107:
 144              	.LBB105:
 145              	.LBB103:
 146              	.LBB102:
 147              		.loc 3 85 0
 148 0050 D4BF     		ite	le
 149 0052 2C46     		movle	r4, r5
 150              	.LVL5:
 151 0054 9724     		movgt	r4, #151
 152              	.LVL6:
 153              	.LBE102:
 154              	.LBE103:
 155              		.loc 2 115 0
 156 0056 06EB8404 		add	r4, r6, r4, lsl #2
 157 005a D4ED006A 		vldr.32	s13, [r4]
 158              	.LVL7:
 159              	.LBE105:
 160              	.LBE107:
 161              		.loc 2 126 0
 162 005e 6C1C     		adds	r4, r5, #1
 163 0060 E4B2     		uxtb	r4, r4
 164              	.LVL8:
 165              	.LBB108:
 166              	.LBB109:
 167              	.LBB110:
 168              	.LBB111:
 169              		.loc 3 85 0
 170 0062 962C     		cmp	r4, #150
 171 0064 94BF     		ite	ls
ARM GAS  C:\msys64\tmp\ccyN5w4R.s 			page 4


 172 0066 A646     		movls	lr, r4
 173 0068 4FF0970E 		movhi	lr, #151
 174              	.LVL9:
 175              	.LBE111:
 176              	.LBE110:
 177              	.LBE109:
 178              	.LBE108:
 179              		.loc 2 128 0
 180 006c F8EEE77A 		vcvt.f32.s32	s15, s15
 181              	.LVL10:
 182              	.LBB113:
 183              	.LBB112:
 184              		.loc 2 115 0
 185 0070 06EB8E0E 		add	lr, r6, lr, lsl #2
 186              	.LBE112:
 187              	.LBE113:
 188              		.loc 2 128 0
 189 0074 67EE877A 		vmul.f32	s15, s15, s14
 190              	.LVL11:
 191              	.LBB114:
 192              	.LBB115:
 193              		.file 4 "../../logue-sdk/platform/nutekt-digital/inc/utils/float_math.h"
 194              		.loc 4 825 0
 195 0078 9EED007A 		vldr.32	s14, [lr]
 196 007c 37EE667A 		vsub.f32	s14, s14, s13
 197 0080 E7EE876A 		vfma.f32	s13, s15, s14
 198              	.LVL12:
 199              	.LBE115:
 200              	.LBE114:
 201              	.LBB116:
 202              	.LBB117:
 203              	.LBB118:
 204              	.LBB119:
 205              		.loc 4 193 0
 206 0084 9FED817A 		vldr.32	s14, .L35+16
 207 0088 F4EEC76A 		vcmpe.f32	s13, s14
 208 008c F1EE10FA 		vmrs	APSR_nzcv, FPSCR
 209 0090 A8BF     		it	ge
 210 0092 F0EE476A 		vmovge.f32	s13, s14
 211              	.LVL13:
 212              	.LBE119:
 213              	.LBE118:
 214              	.LBE117:
 215              	.LBE116:
 216              	.LBE122:
 217              	.LBE126:
 218              	.LBB127:
 219              	.LBB128:
 220              	.LBB129:
 221              	.LBB130:
 222              	.LBB131:
 223              	.LBB132:
 224              		.loc 3 85 0
 225 0096 972D     		cmp	r5, #151
 226 0098 A8BF     		it	ge
 227 009a 9725     		movge	r5, #151
 228              	.LVL14:
ARM GAS  C:\msys64\tmp\ccyN5w4R.s 			page 5


 229              	.LBE132:
 230              	.LBE131:
 231              	.LBE130:
 232              	.LBE129:
 233              	.LBB135:
 234              	.LBB136:
 235              	.LBB137:
 236              	.LBB138:
 237 009c 972C     		cmp	r4, #151
 238 009e 28BF     		it	cs
 239 00a0 9724     		movcs	r4, #151
 240              	.LBE138:
 241              	.LBE137:
 242              	.LBE136:
 243              	.LBE135:
 244              	.LBB140:
 245              	.LBB133:
 246              		.loc 2 115 0
 247 00a2 06EB8505 		add	r5, r6, r5, lsl #2
 248              	.LBE133:
 249              	.LBE140:
 250              	.LBB141:
 251              	.LBB139:
 252 00a6 06EB8404 		add	r4, r6, r4, lsl #2
 253              	.LBE139:
 254              	.LBE141:
 255              	.LBB142:
 256              	.LBB134:
 257 00aa D5ED005A 		vldr.32	s11, [r5]
 258              	.LBE134:
 259              	.LBE142:
 260              	.LBB143:
 261              	.LBB144:
 262              		.loc 4 825 0
 263 00ae 94ED006A 		vldr.32	s12, [r4]
 264 00b2 36EE656A 		vsub.f32	s12, s12, s11
 265              	.LBE144:
 266              	.LBE143:
 267              	.LBE128:
 268              	.LBE127:
 269              	.LBB154:
 270              	.LBB123:
 271              		.loc 2 130 0
 272 00b6 66EE856A 		vmul.f32	s13, s13, s10
 273              	.LVL15:
 274              	.LBE123:
 275              	.LBE154:
 276              	.LBB155:
 277              	.LBB151:
 278              	.LBB146:
 279              	.LBB145:
 280              		.loc 4 825 0
 281 00ba E6EE275A 		vfma.f32	s11, s12, s15
 282              	.LBE145:
 283              	.LBE146:
 284              	.LBE151:
 285              	.LBE155:
ARM GAS  C:\msys64\tmp\ccyN5w4R.s 			page 6


 286              		.loc 1 57 0
 287 00be D0ED007A 		vldr.32	s15, [r0]	@ int
 288              		.loc 1 49 0
 289 00c2 C3ED006A 		vstr.32	s13, [r3]
 290              	.LVL16:
 291              	.LBB156:
 292              	.LBB152:
 293              	.LBB147:
 294              	.LBB148:
 295              	.LBB149:
 296              	.LBB150:
 297              		.loc 4 193 0
 298 00c6 F4EEC75A 		vcmpe.f32	s11, s14
 299 00ca F1EE10FA 		vmrs	APSR_nzcv, FPSCR
 300 00ce B8BF     		it	lt
 301 00d0 B0EE657A 		vmovlt.f32	s14, s11
 302              	.LVL17:
 303              	.LBE150:
 304              	.LBE149:
 305              	.LBE148:
 306              	.LBE147:
 307              	.LBE152:
 308              	.LBE156:
 309              		.loc 1 51 0
 310 00d4 17F00107 		ands	r7, r7, #1
 311              	.LVL18:
 312              	.LBB157:
 313              	.LBB153:
 314              		.loc 2 130 0
 315 00d8 67EE055A 		vmul.f32	s11, s14, s10
 316              	.LVL19:
 317              	.LBE153:
 318              	.LBE157:
 319              		.loc 1 57 0
 320 00dc FAEEE07A 		vcvt.f32.s32	s15, s15, #31
 321              		.loc 1 51 0
 322 00e0 18BF     		it	ne
 323 00e2 9FED6B7A 		vldrne.32	s14, .L35+20
 324              		.loc 1 50 0
 325 00e6 C3ED015A 		vstr.32	s11, [r3, #4]
 326              	.LVL20:
 327              		.loc 1 51 0
 328 00ea 04BF     		itt	eq
 329 00ec 93ED027A 		vldreq.32	s14, [r3, #8]
 330              		.loc 1 52 0
 331 00f0 93ED035A 		vldreq.32	s10, [r3, #12]
 332              		.loc 1 57 0
 333 00f4 C3ED067A 		vstr.32	s15, [r3, #24]
 334              		.loc 1 52 0
 335 00f8 18BF     		it	ne
 336 00fa B0EE475A 		vmovne.f32	s10, s14
 337              	.LVL21:
 338              		.loc 1 58 0
 339 00fe 1FB9     		cbnz	r7, .L28
 340              		.loc 1 58 0 is_stmt 0 discriminator 1
 341 0100 5E48     		ldr	r0, .L35
 342              	.LVL22:
ARM GAS  C:\msys64\tmp\ccyN5w4R.s 			page 7


 343 0102 D0ED074A 		vldr.32	s9, [r0, #28]
 344 0106 01E0     		b	.L12
 345              	.LVL23:
 346              	.L28:
 347              		.loc 1 58 0
 348 0108 F0EE674A 		vmov.f32	s9, s15
 349              	.LVL24:
 350              	.L12:
 351              		.loc 1 59 0 is_stmt 1 discriminator 4
 352 010c 06EE102A 		vmov	s12, r2	@ int
 353 0110 77EEE47A 		vsub.f32	s15, s15, s9
 354              	.LVL25:
 355 0114 B8EE466A 		vcvt.f32.u32	s12, s12
 356              	.LBB158:
 357              	.LBB159:
 358              	.LBB160:
 359              	.LBB161:
 360              		.loc 2 211 0 discriminator 4
 361 0118 9FED5E4A 		vldr.32	s8, .L35+24
 362              		.loc 2 222 0 discriminator 4
 363 011c 5E4D     		ldr	r5, .L35+28
 364              	.LBE161:
 365              	.LBE160:
 366              		.loc 1 73 0 discriminator 4
 367 011e 9FED5F2A 		vldr.32	s4, .L35+32
 368 0122 DFED5F2A 		vldr.32	s5, .L35+36
 369              	.LBE159:
 370              	.LBE158:
 371              		.loc 1 59 0 discriminator 4
 372 0126 87EE863A 		vdiv.f32	s6, s15, s12
 373              	.LVL26:
 374              		.loc 1 62 0 discriminator 4
 375 012a 01EB8202 		add	r2, r1, r2, lsl #2
 376              	.LVL27:
 377 012e 2E46     		mov	r6, r5
 378 0130 B0EE441A 		vmov.f32	s2, s8
 379 0134 FFEE000A 		vmov.f32	s1, #-1.0e+0
 380              	.LBB190:
 381              	.LBB188:
 382              	.LBB166:
 383              	.LBB162:
 384              		.loc 2 215 0 discriminator 4
 385 0138 F7EE003A 		vmov.f32	s7, #1.0e+0
 386              	.LVL28:
 387              	.L20:
 388              	.LBE162:
 389              	.LBE166:
 390              	.LBE188:
 391              		.loc 1 64 0
 392 013c 9142     		cmp	r1, r2
 393 013e 00F09080 		beq	.L13
 394              	.LVL29:
 395              	.LBB189:
 396              	.LBB167:
 397              	.LBB163:
 398              		.loc 2 211 0
 399 0142 BCEEC76A 		vcvt.u32.f32	s12, s14
ARM GAS  C:\msys64\tmp\ccyN5w4R.s 			page 8


 400 0146 B8EE466A 		vcvt.f32.u32	s12, s12
 401 014a 37EE466A 		vsub.f32	s12, s14, s12
 402 014e 26EE046A 		vmul.f32	s12, s12, s8
 403              	.LVL30:
 404              		.loc 2 212 0
 405 0152 FCEEC67A 		vcvt.u32.f32	s15, s12
 406 0156 17EE904A 		vmov	r4, s15	@ int
 407              	.LVL31:
 408              		.loc 2 216 0
 409 015a 7F2C     		cmp	r4, #127
 410              		.loc 2 223 0
 411 015c 00EE104A 		vmov	s0, r4	@ int
 412              		.loc 2 217 0
 413 0160 87BF     		ittee	hi
 414 0162 04F07F00 		andhi	r0, r4, #127
 415 0166 C0F18007 		rsbhi	r7, r0, #128
 416              		.loc 2 214 0
 417 016a 601C     		addls	r0, r4, #1
 418 016c 2746     		movls	r7, r4
 419              	.LVL32:
 420              		.loc 2 218 0
 421 016e 88BF     		it	hi
 422 0170 C0F17F00 		rsbhi	r0, r0, #127
 423              	.LVL33:
 424              		.loc 2 223 0
 425 0174 B8EE400A 		vcvt.f32.u32	s0, s0
 426              		.loc 2 222 0
 427 0178 05EB8000 		add	r0, r5, r0, lsl #2
 428              	.LVL34:
 429 017c 05EB8707 		add	r7, r5, r7, lsl #2
 430              	.LVL35:
 431 0180 D7ED007A 		vldr.32	s15, [r7]
 432              		.loc 2 223 0
 433 0184 36EE406A 		vsub.f32	s12, s12, s0
 434              	.LVL36:
 435 0188 90ED000A 		vldr.32	s0, [r0]
 436 018c 30EE670A 		vsub.f32	s0, s0, s15
 437              		.loc 2 215 0
 438 0190 98BF     		it	ls
 439 0192 B7EE008A 		vmovls.f32	s16, #1.0e+0
 440              		.loc 2 223 0
 441 0196 E6EE007A 		vfma.f32	s15, s12, s0
 442              	.LBE163:
 443              	.LBE167:
 444              	.LBB168:
 445              	.LBB169:
 446              		.loc 2 211 0
 447 019a BCEEC56A 		vcvt.u32.f32	s12, s10
 448              	.LBE169:
 449              	.LBE168:
 450              	.LBB175:
 451              	.LBB164:
 452              		.loc 2 219 0
 453 019e 88BF     		it	hi
 454 01a0 BFEE008A 		vmovhi.f32	s16, #-1.0e+0
 455              	.LVL37:
 456              	.LBE164:
ARM GAS  C:\msys64\tmp\ccyN5w4R.s 			page 9


 457              	.LBE175:
 458              	.LBB176:
 459              	.LBB170:
 460              		.loc 2 211 0
 461 01a4 B8EE466A 		vcvt.f32.u32	s12, s12
 462              	.LBE170:
 463              	.LBE176:
 464              	.LBB177:
 465              	.LBB165:
 466              		.loc 2 223 0
 467 01a8 67EE887A 		vmul.f32	s15, s15, s16
 468              	.LVL38:
 469              	.LBE165:
 470              	.LBE177:
 471              	.LBB178:
 472              	.LBB171:
 473              		.loc 2 211 0
 474 01ac 35EE466A 		vsub.f32	s12, s10, s12
 475 01b0 26EE016A 		vmul.f32	s12, s12, s2
 476              	.LVL39:
 477              		.loc 2 212 0
 478 01b4 BCEEC60A 		vcvt.u32.f32	s0, s12
 479 01b8 10EE104A 		vmov	r4, s0	@ int
 480              	.LVL40:
 481              		.loc 2 216 0
 482 01bc 7F2C     		cmp	r4, #127
 483              		.loc 2 217 0
 484 01be 87BF     		ittee	hi
 485 01c0 04F07F00 		andhi	r0, r4, #127
 486 01c4 C0F18007 		rsbhi	r7, r0, #128
 487              		.loc 2 214 0
 488 01c8 601C     		addls	r0, r4, #1
 489 01ca 2746     		movls	r7, r4
 490              	.LVL41:
 491              		.loc 2 218 0
 492 01cc 88BF     		it	hi
 493 01ce C0F17F00 		rsbhi	r0, r0, #127
 494              	.LVL42:
 495              	.LBE171:
 496              	.LBE178:
 497              		.loc 1 72 0
 498 01d2 B8EE400A 		vcvt.f32.u32	s0, s0
 499              	.LBB179:
 500              	.LBB172:
 501              		.loc 2 222 0
 502 01d6 06EB8707 		add	r7, r6, r7, lsl #2
 503              	.LVL43:
 504 01da 06EB8000 		add	r0, r6, r0, lsl #2
 505              	.LVL44:
 506 01de 97ED008A 		vldr.32	s16, [r7]
 507              	.LBE172:
 508              	.LBE179:
 509              		.loc 1 72 0
 510 01e2 36EE406A 		vsub.f32	s12, s12, s0
 511              	.LVL45:
 512 01e6 90ED000A 		vldr.32	s0, [r0]
 513 01ea 30EE480A 		vsub.f32	s0, s0, s16
ARM GAS  C:\msys64\tmp\ccyN5w4R.s 			page 10


 514              	.LBB180:
 515              	.LBB173:
 516              		.loc 2 215 0
 517 01ee 98BF     		it	ls
 518 01f0 F7EE008A 		vmovls.f32	s17, #1.0e+0
 519              	.LBE173:
 520              	.LBE180:
 521              		.loc 1 72 0
 522 01f4 A6EE008A 		vfma.f32	s16, s12, s0
 523              	.LBB181:
 524              	.LBB174:
 525              		.loc 2 219 0
 526 01f8 88BF     		it	hi
 527 01fa FFEE008A 		vmovhi.f32	s17, #-1.0e+0
 528              	.LVL46:
 529              	.LBE174:
 530              	.LBE181:
 531              		.loc 1 72 0
 532 01fe E8EE287A 		vfma.f32	s15, s16, s17
 533 0202 67EEA17A 		vmul.f32	s15, s15, s3
 534              	.LVL47:
 535              	.LBB182:
 536              	.LBB183:
 537              	.LBB184:
 538              	.LBB185:
 539              	.LBB186:
 540              	.LBB187:
 541              		.loc 4 193 0
 542 0206 F4EEE07A 		vcmpe.f32	s15, s1
 543 020a F1EE10FA 		vmrs	APSR_nzcv, FPSCR
 544 020e 07DB     		blt	.L33
 545              	.LVL48:
 546 0210 F4EEE37A 		vcmpe.f32	s15, s7
 547 0214 F1EE10FA 		vmrs	APSR_nzcv, FPSCR
 548 0218 A8BF     		it	ge
 549 021a F0EE637A 		vmovge.f32	s15, s7
 550              	.LVL49:
 551 021e 01E0     		b	.L18
 552              	.LVL50:
 553              	.L33:
 554 0220 FFEE007A 		vmov.f32	s15, #-1.0e+0
 555              	.LVL51:
 556              	.L18:
 557              	.LBE187:
 558              	.LBE186:
 559              	.LBE185:
 560              	.LBE184:
 561              	.LBE183:
 562              	.LBE182:
 563              		.loc 1 73 0
 564 0224 27EEA76A 		vmul.f32	s12, s15, s15
 565              		.loc 1 75 0
 566 0228 37EE267A 		vadd.f32	s14, s14, s13
 567              	.LVL52:
 568              		.loc 1 73 0
 569 022c 27EEC66A 		vnmul.f32	s12, s15, s12
 570              		.loc 1 77 0
ARM GAS  C:\msys64\tmp\ccyN5w4R.s 			page 11


 571 0230 35EE255A 		vadd.f32	s10, s10, s11
 572              	.LVL53:
 573              		.loc 1 73 0
 574 0234 E6EE027A 		vfma.f32	s15, s12, s4
 575              		.loc 1 80 0
 576 0238 74EE834A 		vadd.f32	s9, s9, s6
 577              	.LVL54:
 578              		.loc 1 73 0
 579 023c 67EEA27A 		vmul.f32	s15, s15, s5
 580 0240 FDEEE77A 		vcvt.s32.f32	s15, s15
 581 0244 E1EC017A 		vstmia.32	r1!, {s15}	@ int
 582              	.LVL55:
 583              		.loc 1 76 0
 584 0248 FCEEC77A 		vcvt.u32.f32	s15, s14
 585 024c F8EE677A 		vcvt.f32.u32	s15, s15
 586 0250 37EE677A 		vsub.f32	s14, s14, s15
 587              	.LVL56:
 588              		.loc 1 78 0
 589 0254 FCEEC77A 		vcvt.u32.f32	s15, s14
 590 0258 F8EE677A 		vcvt.f32.u32	s15, s15
 591 025c 35EE675A 		vsub.f32	s10, s10, s15
 592              	.LVL57:
 593              	.LBE189:
 594              		.loc 1 64 0
 595 0260 6CE7     		b	.L20
 596              	.LVL58:
 597              	.L13:
 598              	.LBE190:
 599              		.loc 1 87 0
 600 0262 BDEC028B 		vldm	sp!, {d8}
 601              		.cfi_restore 80
 602              		.cfi_restore 81
 603              		.cfi_def_cfa_offset 20
 604              		.loc 1 85 0
 605 0266 D3ED097A 		vldr.32	s15, [r3, #36]
 606              		.loc 1 84 0
 607 026a 83ED027A 		vstr.32	s14, [r3, #8]
 608              		.loc 1 85 0
 609 026e 37EE855A 		vadd.f32	s10, s15, s10
 610              	.LVL59:
 611              		.loc 1 86 0
 612 0272 C3ED074A 		vstr.32	s9, [r3, #28]
 613              		.loc 1 85 0
 614 0276 83ED035A 		vstr.32	s10, [r3, #12]
 615              		.loc 1 87 0
 616 027a F0BD     		pop	{r4, r5, r6, r7, pc}
 617              	.L36:
 618              		.align	2
 619              	.L35:
 620 027c 00000000 		.word	.LANCHOR0
 621 0280 00000000 		.word	midi_to_hz_lut_f
 622 0284 8180803B 		.word	998277249
 623 0288 3EC3AE37 		.word	934200126
 624 028c 49FFB846 		.word	1186529097
 625 0290 00000000 		.word	0
 626 0294 00008043 		.word	1132462080
 627 0298 00000000 		.word	wt_saw_lut_f
ARM GAS  C:\msys64\tmp\ccyN5w4R.s 			page 12


 628 029c CDCC4C3D 		.word	1028443341
 629 02a0 0000004F 		.word	1325400064
 630              		.cfi_endproc
 631              	.LFE240:
 632              		.size	_hook_cycle, .-_hook_cycle
 633              		.align	1
 634              		.global	_hook_on
 635              		.thumb
 636              		.thumb_func
 637              		.type	_hook_on, %function
 638              	_hook_on:
 639              	.LFB241:
 640              		.loc 1 89 0
 641              		.cfi_startproc
 642              		@ args = 0, pretend = 0, frame = 0
 643              		@ frame_needed = 0, uses_anonymous_args = 0
 644              		@ link register save eliminated.
 645              	.LVL60:
 646              		.loc 1 90 0
 647 02a4 034A     		ldr	r2, .L38
 648 02a6 92F82030 		ldrb	r3, [r2, #32]	@ zero_extendqisi2
 649 02aa 43F00103 		orr	r3, r3, #1
 650 02ae 82F82030 		strb	r3, [r2, #32]
 651 02b2 7047     		bx	lr
 652              	.L39:
 653              		.align	2
 654              	.L38:
 655 02b4 00000000 		.word	.LANCHOR0
 656              		.cfi_endproc
 657              	.LFE241:
 658              		.size	_hook_on, .-_hook_on
 659              		.align	1
 660              		.global	_hook_off
 661              		.thumb
 662              		.thumb_func
 663              		.type	_hook_off, %function
 664              	_hook_off:
 665              	.LFB242:
 666              		.loc 1 93 0
 667              		.cfi_startproc
 668              		@ args = 0, pretend = 0, frame = 0
 669              		@ frame_needed = 0, uses_anonymous_args = 0
 670              		@ link register save eliminated.
 671              	.LVL61:
 672 02b8 7047     		bx	lr
 673              		.cfi_endproc
 674              	.LFE242:
 675              		.size	_hook_off, .-_hook_off
 676              		.align	1
 677              		.global	_hook_param
 678              		.thumb
 679              		.thumb_func
 680              		.type	_hook_param, %function
 681              	_hook_param:
 682              	.LFB243:
 683              		.loc 1 97 0
 684              		.cfi_startproc
ARM GAS  C:\msys64\tmp\ccyN5w4R.s 			page 13


 685              		@ args = 0, pretend = 0, frame = 0
 686              		@ frame_needed = 0, uses_anonymous_args = 0
 687              		@ link register save eliminated.
 688              	.LVL62:
 689              		.loc 1 98 0
 690 02ba 07EE901A 		vmov	s15, r1	@ int
 691 02be 9FED117A 		vldr.32	s14, .L46
 692 02c2 F8EEE77A 		vcvt.f32.s32	s15, s15
 693              		.loc 1 100 0
 694 02c6 0628     		cmp	r0, #6
 695              		.loc 1 98 0
 696 02c8 67EE877A 		vmul.f32	s15, s15, s14
 697              	.LVL63:
 698              		.loc 1 100 0
 699 02cc 0AD0     		beq	.L43
 700 02ce 0728     		cmp	r0, #7
 701 02d0 10D0     		beq	.L44
 702 02d2 B0B9     		cbnz	r0, .L41
 703              		.loc 1 102 0
 704 02d4 9FED0C7A 		vldr.32	s14, .L46+4
 705 02d8 0C4B     		ldr	r3, .L46+8
 706 02da 67EE877A 		vmul.f32	s15, s15, s14
 707              	.LVL64:
 708 02de C3ED097A 		vstr.32	s15, [r3, #36]
 709              		.loc 1 103 0
 710 02e2 7047     		bx	lr
 711              	.LVL65:
 712              	.L43:
 713              		.loc 1 111 0
 714 02e4 9FED0A7A 		vldr.32	s14, .L46+12
 715 02e8 084B     		ldr	r3, .L46+8
 716 02ea 67EE877A 		vmul.f32	s15, s15, s14
 717              	.LVL66:
 718 02ee C3ED057A 		vstr.32	s15, [r3, #20]
 719              		.loc 1 112 0
 720 02f2 7047     		bx	lr
 721              	.LVL67:
 722              	.L44:
 723              		.loc 1 114 0
 724 02f4 B7EE007A 		vmov.f32	s14, #1.0e+0
 725 02f8 77EE877A 		vadd.f32	s15, s15, s14
 726              	.LVL68:
 727 02fc 034B     		ldr	r3, .L46+8
 728 02fe C3ED047A 		vstr.32	s15, [r3, #16]
 729              	.L41:
 730 0302 7047     		bx	lr
 731              	.L47:
 732              		.align	2
 733              	.L46:
 734 0304 0820803A 		.word	981475336
 735 0308 CDCCCC3D 		.word	1036831949
 736 030c 00000000 		.word	.LANCHOR0
 737 0310 9A99993E 		.word	1050253722
 738              		.cfi_endproc
 739              	.LFE243:
 740              		.size	_hook_param, .-_hook_param
 741              		.bss
ARM GAS  C:\msys64\tmp\ccyN5w4R.s 			page 14


 742              		.align	2
 743              		.set	.LANCHOR0,. + 0
 744              		.type	_ZL7s_state, %object
 745              		.size	_ZL7s_state, 40
 746              	_ZL7s_state:
 747 0000 00000000 		.space	40
 747      00000000 
 747      00000000 
 747      00000000 
 747      00000000 
 748              		.text
 749              	.Letext0:
 750              		.file 5 "c:\\msys64\\home\\joshu\\logue-sdk\\tools\\gcc\\gcc-arm-none-eabi-5_4-2016q3\\arm-none-ea
 751              		.file 6 "c:\\msys64\\home\\joshu\\logue-sdk\\tools\\gcc\\gcc-arm-none-eabi-5_4-2016q3\\arm-none-ea
 752              		.file 7 "c:\\msys64\\home\\joshu\\logue-sdk\\platform\\ext\\cmsis\\cmsis\\include\\arm_math.h"
 753              		.file 8 "../../logue-sdk/platform/nutekt-digital/inc/userosc.h"
 754              		.file 9 "../../logue-sdk/platform/nutekt-digital/inc/userprg.h"