ARM GAS  C:\msys64\tmp\cczvjl2B.s 			page 1


   1              		.syntax unified
   2              		.cpu cortex-m4
   3              		.eabi_attribute 27, 1
   4              		.eabi_attribute 28, 1
   5              		.fpu fpv4-sp-d16
   6              		.eabi_attribute 20, 1
   7              		.eabi_attribute 21, 1
   8              		.eabi_attribute 23, 3
   9              		.eabi_attribute 24, 1
  10              		.eabi_attribute 25, 1
  11              		.eabi_attribute 26, 1
  12              		.eabi_attribute 30, 4
  13              		.eabi_attribute 34, 1
  14              		.eabi_attribute 18, 4
  15              		.thumb
  16              		.syntax unified
  17              		.file	"_unit.c"
  18              		.text
  19              	.Ltext0:
  20              		.cfi_sections	.debug_frame
  21              		.align	1
  22              		.weak	_hook_cycle
  23              		.thumb
  24              		.thumb_func
  25              		.type	_hook_cycle, %function
  26              	_hook_cycle:
  27              	.LFB241:
  28              		.file 1 "./tpl/_unit.c"
  29              		.loc 1 130 0
  30              		.cfi_startproc
  31              		@ args = 0, pretend = 0, frame = 0
  32              		@ frame_needed = 0, uses_anonymous_args = 0
  33              		@ link register save eliminated.
  34              	.LVL0:
  35 0000 7047     		bx	lr
  36              		.cfi_endproc
  37              	.LFE241:
  38              		.size	_hook_cycle, .-_hook_cycle
  39              		.align	1
  40              		.weak	_hook_mute
  41              		.thumb
  42              		.thumb_func
  43              		.type	_hook_mute, %function
  44              	_hook_mute:
  45              	.LFB244:
  46              		.loc 1 150 0
  47              		.cfi_startproc
  48              		@ args = 0, pretend = 0, frame = 0
  49              		@ frame_needed = 0, uses_anonymous_args = 0
  50              		@ link register save eliminated.
  51              	.LVL1:
  52 0002 7047     		bx	lr
  53              		.cfi_endproc
  54              	.LFE244:
  55              		.size	_hook_mute, .-_hook_mute
  56              		.align	1
  57              		.weak	_hook_value
ARM GAS  C:\msys64\tmp\cczvjl2B.s 			page 2


  58              		.thumb
  59              		.thumb_func
  60              		.type	_hook_value, %function
  61              	_hook_value:
  62              	.LFB245:
  63              		.loc 1 156 0
  64              		.cfi_startproc
  65              		@ args = 0, pretend = 0, frame = 0
  66              		@ frame_needed = 0, uses_anonymous_args = 0
  67              		@ link register save eliminated.
  68              	.LVL2:
  69 0004 7047     		bx	lr
  70              		.cfi_endproc
  71              	.LFE245:
  72              		.size	_hook_value, .-_hook_value
  73              		.align	1
  74              		.weak	_hook_param
  75              		.thumb
  76              		.thumb_func
  77              		.type	_hook_param, %function
  78              	_hook_param:
  79              	.LFB246:
  80              		.loc 1 162 0
  81              		.cfi_startproc
  82              		@ args = 0, pretend = 0, frame = 0
  83              		@ frame_needed = 0, uses_anonymous_args = 0
  84              		@ link register save eliminated.
  85              	.LVL3:
  86 0006 7047     		bx	lr
  87              		.cfi_endproc
  88              	.LFE246:
  89              		.size	_hook_param, .-_hook_param
  90              		.align	1
  91              		.weak	_hook_off
  92              		.thumb
  93              		.thumb_func
  94              		.type	_hook_off, %function
  95              	_hook_off:
  96              	.LFB248:
  97              		.cfi_startproc
  98              		@ args = 0, pretend = 0, frame = 0
  99              		@ frame_needed = 0, uses_anonymous_args = 0
 100              		@ link register save eliminated.
 101 0008 7047     		bx	lr
 102              		.cfi_endproc
 103              	.LFE248:
 104              		.size	_hook_off, .-_hook_off
 105              		.align	1
 106              		.weak	_hook_on
 107              		.thumb
 108              		.thumb_func
 109              		.type	_hook_on, %function
 110              	_hook_on:
 111              	.LFB250:
 112              		.cfi_startproc
 113              		@ args = 0, pretend = 0, frame = 0
 114              		@ frame_needed = 0, uses_anonymous_args = 0
ARM GAS  C:\msys64\tmp\cczvjl2B.s 			page 3


 115              		@ link register save eliminated.
 116 000a 7047     		bx	lr
 117              		.cfi_endproc
 118              	.LFE250:
 119              		.size	_hook_on, .-_hook_on
 120              		.align	1
 121              		.weak	_hook_init
 122              		.thumb
 123              		.thumb_func
 124              		.type	_hook_init, %function
 125              	_hook_init:
 126              	.LFB240:
 127              		.loc 1 123 0
 128              		.cfi_startproc
 129              		@ args = 0, pretend = 0, frame = 0
 130              		@ frame_needed = 0, uses_anonymous_args = 0
 131              		@ link register save eliminated.
 132              	.LVL4:
 133 000c 7047     		bx	lr
 134              		.cfi_endproc
 135              	.LFE240:
 136              		.size	_hook_init, .-_hook_init
 137              		.align	1
 138              		.global	_entry
 139              		.thumb
 140              		.thumb_func
 141              		.type	_entry, %function
 142              	_entry:
 143              	.LFB239:
 144              		.loc 1 101 0
 145              		.cfi_startproc
 146              		@ args = 0, pretend = 0, frame = 0
 147              		@ frame_needed = 0, uses_anonymous_args = 0
 148              	.LVL5:
 149 000e 104B     		ldr	r3, .L20
 150 0010 104A     		ldr	r2, .L20+4
 151              		.loc 1 101 0
 152 0012 2DE9F041 		push	{r4, r5, r6, r7, r8, lr}
 153              		.cfi_def_cfa_offset 24
 154              		.cfi_offset 4, -24
 155              		.cfi_offset 5, -20
 156              		.cfi_offset 6, -16
 157              		.cfi_offset 7, -12
 158              		.cfi_offset 8, -8
 159              		.cfi_offset 14, -4
 160              		.loc 1 101 0
 161 0016 8846     		mov	r8, r1
 162 0018 0746     		mov	r7, r0
 163              		.loc 1 107 0
 164 001a 0021     		movs	r1, #0
 165              	.LVL6:
 166              	.L9:
 167              		.loc 1 106 0
 168 001c 9342     		cmp	r3, r2
 169 001e 02D0     		beq	.L18
 170              	.LVL7:
 171              		.loc 1 107 0
ARM GAS  C:\msys64\tmp\cczvjl2B.s 			page 4


 172 0020 03F8011F 		strb	r1, [r3, #1]!
 173              	.LVL8:
 174 0024 FAE7     		b	.L9
 175              	.L18:
 176              	.LVL9:
 177 0026 0C4B     		ldr	r3, .L20+8
 178              	.LVL10:
 179 0028 0C4C     		ldr	r4, .L20+12
 180 002a E41A     		subs	r4, r4, r3
 181 002c A410     		asrs	r4, r4, #2
 182              	.LBB2:
 183              		.loc 1 111 0
 184 002e 0025     		movs	r5, #0
 185 0030 1E46     		mov	r6, r3
 186              	.LVL11:
 187              	.L11:
 188              		.loc 1 111 0 is_stmt 0 discriminator 1
 189 0032 A542     		cmp	r5, r4
 190 0034 05D0     		beq	.L19
 191              	.LBB3:
 192              		.loc 1 112 0 is_stmt 1
 193 0036 56F82530 		ldr	r3, [r6, r5, lsl #2]
 194              	.LVL12:
 195              		.loc 1 113 0
 196 003a 03B1     		cbz	r3, .L12
 197              		.loc 1 114 0
 198 003c 9847     		blx	r3
 199              	.LVL13:
 200              	.L12:
 201              	.LBE3:
 202              		.loc 1 111 0 discriminator 2
 203 003e 0135     		adds	r5, r5, #1
 204              	.LVL14:
 205 0040 F7E7     		b	.L11
 206              	.L19:
 207              	.LBE2:
 208              		.loc 1 118 0
 209 0042 4146     		mov	r1, r8
 210 0044 3846     		mov	r0, r7
 211 0046 FFF7FEFF 		bl	_hook_init
 212              	.LVL15:
 213 004a BDE8F081 		pop	{r4, r5, r6, r7, r8, pc}
 214              	.LVL16:
 215              	.L21:
 216 004e 00BF     		.align	2
 217              	.L20:
 218 0050 FFFFFFFF 		.word	_bss_start-1
 219 0054 FFFFFFFF 		.word	_bss_end-1
 220 0058 00000000 		.word	__init_array_start
 221 005c 00000000 		.word	__init_array_end
 222              		.cfi_endproc
 223              	.LFE239:
 224              		.size	_entry, .-_entry
 225              		.section	.hooks,"a",%progbits
 226              		.type	s_hook_table, %object
 227              		.size	s_hook_table, 64
 228              	s_hook_table:
ARM GAS  C:\msys64\tmp\cczvjl2B.s 			page 5


 229 0000 55       		.byte	85
 230 0001 4F       		.byte	79
 231 0002 53       		.byte	83
 232 0003 43       		.byte	67
 233 0004 00010100 		.4byte	65792
 234 0008 03       		.byte	3
 235 0009 00       		.byte	0
 236 000a 00000000 		.space	6
 236      0000
 237 0010 00000000 		.4byte	_entry
 238 0014 00000000 		.4byte	_hook_cycle
 239 0018 00000000 		.4byte	_hook_on
 240 001c 00000000 		.4byte	_hook_off
 241 0020 00000000 		.4byte	_hook_mute
 242 0024 00000000 		.4byte	_hook_value
 243 0028 00000000 		.4byte	_hook_param
 244 002c 00000000 		.4byte	0
 245 0030 00000000 		.space	16
 245      00000000 
 245      00000000 
 245      00000000 
 246              		.text
 247              	.Letext0:
 248              		.file 2 "c:\\msys64\\home\\joshu\\logue-sdk\\tools\\gcc\\gcc-arm-none-eabi-5_4-2016q3\\arm-none-ea
 249              		.file 3 "c:\\msys64\\home\\joshu\\logue-sdk\\tools\\gcc\\gcc-arm-none-eabi-5_4-2016q3\\arm-none-ea
 250              		.file 4 "c:\\msys64\\home\\joshu\\logue-sdk\\tools\\gcc\\gcc-arm-none-eabi-5_4-2016q3\\lib\\gcc\\a
 251              		.file 5 "../../logue-sdk/platform/nutekt-digital/inc/userprg.h"
 252              		.file 6 "../../logue-sdk/platform/nutekt-digital/inc/userosc.h"
 253              		.file 7 "../../logue-sdk/platform/nutekt-digital/inc/osc_api.h"