ARM GAS  C:\msys64\tmp\ccsi6EuC.s 			page 1


   1              		.syntax unified
   2              		.cpu cortex-m4
   3              		.eabi_attribute 27, 1
   4              		.eabi_attribute 28, 1
   5              		.fpu fpv4-sp-d16
   6              		.eabi_attribute 20, 1
   7              		.eabi_attribute 21, 1
   8              		.eabi_attribute 23, 3
   9              		.eabi_attribute 24, 1
  10              		.eabi_attribute 25, 1
  11              		.eabi_attribute 26, 1
  12              		.eabi_attribute 30, 4
  13              		.eabi_attribute 34, 1
  14              		.eabi_attribute 18, 4
  15              		.thumb
  16              		.syntax unified
  17              		.file	"additive.cpp"
  18              		.text
  19              	.Ltext0:
  20              		.cfi_sections	.debug_frame
  21              		.align	1
  22              		.global	_hook_init
  23              		.thumb
  24              		.thumb_func
  25              		.type	_hook_init, %function
  26              	_hook_init:
  27              	.LFB239:
  28              		.file 1 "additive.cpp"
  29              		.loc 1 73 0
  30              		.cfi_startproc
  31              		@ args = 0, pretend = 0, frame = 0
  32              		@ frame_needed = 0, uses_anonymous_args = 0
  33              		@ link register save eliminated.
  34              	.LVL0:
  35              		.loc 1 75 0
  36 0000 0D4B     		ldr	r3, .L2
  37 0002 0022     		movs	r2, #0
  38              		.loc 1 83 0
  39 0004 4FF07E51 		mov	r1, #1065353216
  40              	.LVL1:
  41              		.loc 1 75 0
  42 0008 1A60     		str	r2, [r3]	@ float
  43              		.loc 1 76 0
  44 000a 5A60     		str	r2, [r3, #4]	@ float
  45              		.loc 1 77 0
  46 000c DA60     		str	r2, [r3, #12]	@ float
  47              		.loc 1 78 0
  48 000e 5A61     		str	r2, [r3, #20]	@ float
  49              		.loc 1 79 0
  50 0010 DA61     		str	r2, [r3, #28]	@ float
  51              		.loc 1 80 0
  52 0012 5A62     		str	r2, [r3, #36]	@ float
  53              		.loc 1 81 0
  54 0014 DA62     		str	r2, [r3, #44]	@ float
  55              		.loc 1 82 0
  56 0016 5A63     		str	r2, [r3, #52]	@ float
  57              		.loc 1 84 0
ARM GAS  C:\msys64\tmp\ccsi6EuC.s 			page 2


  58 0018 9A65     		str	r2, [r3, #88]	@ float
  59              		.loc 1 86 0
  60 001a 1A65     		str	r2, [r3, #80]	@ float
  61 001c DA64     		str	r2, [r3, #76]	@ float
  62 001e 9A64     		str	r2, [r3, #72]	@ float
  63 0020 5A64     		str	r2, [r3, #68]	@ float
  64 0022 1A64     		str	r2, [r3, #64]	@ float
  65 0024 DA63     		str	r2, [r3, #60]	@ float
  66              		.loc 1 87 0
  67 0026 1A66     		str	r2, [r3, #96]	@ float
  68 0028 DA65     		str	r2, [r3, #92]	@ float
  69              		.loc 1 88 0
  70 002a 0022     		movs	r2, #0
  71              		.loc 1 83 0
  72 002c 5965     		str	r1, [r3, #84]	@ float
  73              		.loc 1 85 0
  74 002e 9963     		str	r1, [r3, #56]	@ float
  75              		.loc 1 88 0
  76 0030 83F86420 		strb	r2, [r3, #100]
  77 0034 7047     		bx	lr
  78              	.L3:
  79 0036 00BF     		.align	2
  80              	.L2:
  81 0038 00000000 		.word	.LANCHOR0
  82              		.cfi_endproc
  83              	.LFE239:
  84              		.size	_hook_init, .-_hook_init
  85              		.align	1
  86              		.global	_hook_cycle
  87              		.thumb
  88              		.thumb_func
  89              		.type	_hook_cycle, %function
  90              	_hook_cycle:
  91              	.LFB240:
  92              		.loc 1 94 0
  93              		.cfi_startproc
  94              		@ args = 0, pretend = 0, frame = 8
  95              		@ frame_needed = 0, uses_anonymous_args = 0
  96              	.LVL2:
  97 003c F0B5     		push	{r4, r5, r6, r7, lr}
  98              		.cfi_def_cfa_offset 20
  99              		.cfi_offset 4, -20
 100              		.cfi_offset 5, -16
 101              		.cfi_offset 6, -12
 102              		.cfi_offset 7, -8
 103              		.cfi_offset 14, -4
 104 003e 2DED108B 		vpush.64	{d8, d9, d10, d11, d12, d13, d14, d15}
 105              		.cfi_def_cfa_offset 84
 106              		.cfi_offset 80, -84
 107              		.cfi_offset 81, -80
 108              		.cfi_offset 82, -76
 109              		.cfi_offset 83, -72
 110              		.cfi_offset 84, -68
 111              		.cfi_offset 85, -64
 112              		.cfi_offset 86, -60
 113              		.cfi_offset 87, -56
 114              		.cfi_offset 88, -52
ARM GAS  C:\msys64\tmp\ccsi6EuC.s 			page 3


 115              		.cfi_offset 89, -48
 116              		.cfi_offset 90, -44
 117              		.cfi_offset 91, -40
 118              		.cfi_offset 92, -36
 119              		.cfi_offset 93, -32
 120              		.cfi_offset 94, -28
 121              		.cfi_offset 95, -24
 122              		.loc 1 96 0
 123 0042 3A4B     		ldr	r3, .L73
 124              		.loc 1 100 0
 125 0044 8588     		ldrh	r5, [r0, #4]
 126              		.loc 1 96 0
 127 0046 93F86460 		ldrb	r6, [r3, #100]	@ zero_extendqisi2
 128              	.LVL3:
 129              	.LBB142:
 130              	.LBB143:
 131              	.LBB144:
 132              	.LBB145:
 133              		.file 2 "../../logue-sdk/platform/nutekt-digital/inc/utils/float_math.h"
 134              		.loc 2 825 0
 135 004a DFED396A 		vldr.32	s13, .L73+4
 136              	.LBE145:
 137              	.LBE144:
 138              	.LBE143:
 139              	.LBE142:
 140              		.loc 1 97 0
 141 004e 0024     		movs	r4, #0
 142 0050 83F86440 		strb	r4, [r3, #100]
 143              		.loc 1 100 0
 144 0054 2C12     		asrs	r4, r5, #8
 145              	.LBB169:
 146              	.LBB166:
 147              	.LBB148:
 148              	.LBB149:
 149              		.file 3 "../../logue-sdk/platform/nutekt-digital/inc/osc_api.h"
 150              		.loc 3 115 0
 151 0056 962C     		cmp	r4, #150
 152 0058 D8BF     		it	le
 153 005a 2746     		movle	r7, r4
 154              	.LBE149:
 155              	.LBE148:
 156              		.loc 3 126 0
 157 005c 04F10104 		add	r4, r4, #1
 158 0060 E4B2     		uxtb	r4, r4
 159              	.LBE166:
 160              	.LBE169:
 161              		.loc 1 100 0
 162 0062 EDB2     		uxtb	r5, r5
 163 0064 07EE905A 		vmov	s15, r5	@ int
 164              	.LVL4:
 165              	.LBB170:
 166              	.LBB167:
 167              	.LBB153:
 168              	.LBB150:
 169              		.loc 3 115 0
 170 0068 C8BF     		it	gt
 171 006a 9727     		movgt	r7, #151
ARM GAS  C:\msys64\tmp\ccsi6EuC.s 			page 4


 172              	.LVL5:
 173 006c 314D     		ldr	r5, .L73+8
 174              	.LVL6:
 175              	.LBE150:
 176              	.LBE153:
 177              	.LBB154:
 178              	.LBB155:
 179 006e 962C     		cmp	r4, #150
 180 0070 88BF     		it	hi
 181 0072 9724     		movhi	r4, #151
 182              	.LBE155:
 183              	.LBE154:
 184              	.LBB157:
 185              	.LBB151:
 186 0074 05EB8707 		add	r7, r5, r7, lsl #2
 187              	.LBE151:
 188              	.LBE157:
 189              	.LBB158:
 190              	.LBB156:
 191 0078 05EB8404 		add	r4, r5, r4, lsl #2
 192              	.LBE156:
 193              	.LBE158:
 194              	.LBB159:
 195              	.LBB152:
 196 007c D7ED003A 		vldr.32	s7, [r7]
 197              	.LVL7:
 198              	.LBE152:
 199              	.LBE159:
 200              	.LBB160:
 201              	.LBB146:
 202              		.loc 2 825 0
 203 0080 94ED007A 		vldr.32	s14, [r4]
 204 0084 F8EEE77A 		vcvt.f32.s32	s15, s15
 205              	.LVL8:
 206 0088 37EE637A 		vsub.f32	s14, s14, s7
 207 008c 67EEA67A 		vmul.f32	s15, s15, s13
 208              	.LBE146:
 209              	.LBE160:
 210              	.LBE167:
 211              	.LBE170:
 212              		.loc 1 94 0
 213 0090 83B0     		sub	sp, sp, #12
 214              		.cfi_def_cfa_offset 96
 215              	.LBB171:
 216              	.LBB168:
 217              	.LBB161:
 218              	.LBB147:
 219              		.loc 2 825 0
 220 0092 E7EE273A 		vfma.f32	s7, s14, s15
 221              	.LVL9:
 222              	.LBE147:
 223              	.LBE161:
 224              	.LBB162:
 225              	.LBB163:
 226              	.LBB164:
 227              	.LBB165:
 228              		.loc 2 193 0
ARM GAS  C:\msys64\tmp\ccsi6EuC.s 			page 5


 229 0096 DFED287A 		vldr.32	s15, .L73+12
 230 009a F4EEE73A 		vcmpe.f32	s7, s15
 231 009e F1EE10FA 		vmrs	APSR_nzcv, FPSCR
 232 00a2 A8BF     		it	ge
 233 00a4 F0EE673A 		vmovge.f32	s7, s15
 234              	.LVL10:
 235              	.LBE165:
 236              	.LBE164:
 237              	.LBE163:
 238              	.LBE162:
 239              		.loc 3 130 0
 240 00a8 DFED247A 		vldr.32	s15, .L73+16
 241 00ac 63EEA73A 		vmul.f32	s7, s7, s15
 242              	.LVL11:
 243              	.LBE168:
 244              	.LBE171:
 245              		.loc 1 102 0
 246 00b0 16F00106 		ands	r6, r6, #1
 247              	.LVL12:
 248              		.loc 1 100 0
 249 00b4 C3ED003A 		vstr.32	s7, [r3]
 250              	.LVL13:
 251              		.loc 1 102 0
 252 00b8 0ED1     		bne	.L52
 253              		.loc 1 102 0 is_stmt 0 discriminator 1
 254 00ba 93ED010A 		vldr.32	s0, [r3, #4]
 255              	.LVL14:
 256              		.loc 1 103 0 is_stmt 1 discriminator 1
 257 00be D3ED030A 		vldr.32	s1, [r3, #12]
 258              	.LVL15:
 259              		.loc 1 104 0 discriminator 1
 260 00c2 93ED051A 		vldr.32	s2, [r3, #20]
 261              	.LVL16:
 262              		.loc 1 105 0 discriminator 1
 263 00c6 D3ED071A 		vldr.32	s3, [r3, #28]
 264              	.LVL17:
 265              		.loc 1 106 0 discriminator 1
 266 00ca 93ED092A 		vldr.32	s4, [r3, #36]
 267              	.LVL18:
 268              		.loc 1 107 0 discriminator 1
 269 00ce D3ED0B4A 		vldr.32	s9, [r3, #44]
 270              	.LVL19:
 271              		.loc 1 108 0 discriminator 1
 272 00d2 D3ED0D2A 		vldr.32	s5, [r3, #52]
 273 00d6 0DE0     		b	.L8
 274              	.LVL20:
 275              	.L52:
 276              		.loc 1 107 0
 277 00d8 DFED194A 		vldr.32	s9, .L73+20
 278              		.loc 1 106 0
 279 00dc B0EE642A 		vmov.f32	s4, s9
 280              		.loc 1 105 0
 281 00e0 F0EE641A 		vmov.f32	s3, s9
 282              		.loc 1 104 0
 283 00e4 B0EE641A 		vmov.f32	s2, s9
 284              		.loc 1 103 0
 285 00e8 F0EE640A 		vmov.f32	s1, s9
ARM GAS  C:\msys64\tmp\ccsi6EuC.s 			page 6


 286              		.loc 1 102 0
 287 00ec B0EE640A 		vmov.f32	s0, s9
 288              		.loc 1 108 0
 289 00f0 F0EE642A 		vmov.f32	s5, s9
 290              	.L8:
 291              	.LVL21:
 292              		.loc 1 123 0 discriminator 4
 293 00f4 D0ED007A 		vldr.32	s15, [r0]	@ int
 294              		.loc 1 112 0 discriminator 4
 295 00f8 93ED15CA 		vldr.32	s24, [r3, #84]
 296              	.LVL22:
 297              		.loc 1 113 0 discriminator 4
 298 00fc D3ED16AA 		vldr.32	s21, [r3, #88]
 299              	.LVL23:
 300              		.loc 1 114 0 discriminator 4
 301 0100 D3ED0FCA 		vldr.32	s25, [r3, #60]
 302              	.LVL24:
 303              		.loc 1 115 0 discriminator 4
 304 0104 93ED10DA 		vldr.32	s26, [r3, #64]
 305              	.LVL25:
 306              		.loc 1 116 0 discriminator 4
 307 0108 D3ED11DA 		vldr.32	s27, [r3, #68]
 308              	.LVL26:
 309              		.loc 1 117 0 discriminator 4
 310 010c 93ED12EA 		vldr.32	s28, [r3, #72]
 311              	.LVL27:
 312              		.loc 1 118 0 discriminator 4
 313 0110 D3ED13EA 		vldr.32	s29, [r3, #76]
 314              	.LVL28:
 315              		.loc 1 119 0 discriminator 4
 316 0114 93ED14FA 		vldr.32	s30, [r3, #80]
 317              	.LVL29:
 318              		.loc 1 123 0 discriminator 4
 319 0118 FAEEE07A 		vcvt.f32.s32	s15, s15, #31
 320 011c C3ED177A 		vstr.32	s15, [r3, #92]
 321              	.LVL30:
 322              		.loc 1 125 0 discriminator 4
 323 0120 96B9     		cbnz	r6, .L53
 324              		.loc 1 125 0 is_stmt 0 discriminator 1
 325 0122 0248     		ldr	r0, .L73
 326              	.LVL31:
 327 0124 D0ED189A 		vldr.32	s19, [r0, #96]
 328 0128 10E0     		b	.L9
 329              	.L74:
 330 012a 00BF     		.align	2
 331              	.L73:
 332 012c 00000000 		.word	.LANCHOR0
 333 0130 8180803B 		.word	998277249
 334 0134 00000000 		.word	midi_to_hz_lut_f
 335 0138 49FFB846 		.word	1186529097
 336 013c 3EC3AE37 		.word	934200126
 337 0140 00000000 		.word	0
 338 0144 00008043 		.word	1132462080
 339              	.LVL32:
 340              	.L53:
 341              		.loc 1 125 0
 342 0148 F0EE679A 		vmov.f32	s19, s15
ARM GAS  C:\msys64\tmp\ccsi6EuC.s 			page 7


 343              	.LVL33:
 344              	.L9:
 345              		.loc 1 127 0 is_stmt 1 discriminator 4
 346 014c 07EE102A 		vmov	s14, r2	@ int
 347 0150 77EEE97A 		vsub.f32	s15, s15, s19
 348              	.LVL34:
 349 0154 B8EE477A 		vcvt.f32.u32	s14, s14
 350              	.LBB172:
 351              	.LBB173:
 352              	.LBB174:
 353              	.LBB175:
 354              		.loc 3 160 0 discriminator 4
 355 0158 1FED06BA 		vldr.32	s22, .L73+24
 356              		.loc 3 166 0 discriminator 4
 357 015c 084D     		ldr	r5, .L75
 358              	.LBE175:
 359              	.LBE174:
 360              		.loc 1 137 0 discriminator 4
 361 015e DFED09BA 		vldr.32	s23, .L75+4
 362              	.LBE173:
 363              	.LBE172:
 364              		.loc 1 127 0 discriminator 4
 365 0162 C7EE876A 		vdiv.f32	s13, s15, s14
 366              		.loc 1 131 0 discriminator 4
 367 0166 01EB8202 		add	r2, r1, r2, lsl #2
 368              	.LVL35:
 369 016a 2846     		mov	r0, r5
 370 016c B0EE4B3A 		vmov.f32	s6, s22
 371              		.loc 1 127 0 discriminator 4
 372 0170 CDED016A 		vstr.32	s13, [sp, #4]
 373              	.LVL36:
 374 0174 B0EE6BAA 		vmov.f32	s20, s23
 375              	.LBB380:
 376              	.LBB378:
 377              		.loc 1 138 0 discriminator 4
 378 0178 F7EE008A 		vmov.f32	s17, #1.0e+0
 379 017c 04E0     		b	.L76
 380              	.L77:
 381 017e 00BF     		.align	2
 382              	.L75:
 383 0180 00000000 		.word	wt_sine_lut_f
 384 0184 00000000 		.word	0
 385              	.L76:
 386              	.LVL37:
 387              	.L48:
 388              	.LBE378:
 389              		.loc 1 133 0
 390 0188 9142     		cmp	r1, r2
 391 018a 80F03583 		bcs	.L10
 392              	.LBB379:
 393              	.LBB190:
 394              	.LBB184:
 395              		.loc 3 160 0
 396 018e FCEEC07A 		vcvt.u32.f32	s15, s0
 397              	.LBE184:
 398              	.LBE190:
 399              		.loc 1 134 0
ARM GAS  C:\msys64\tmp\ccsi6EuC.s 			page 8


 400 0192 B0EE6A4A 		vmov.f32	s8, s21
 401              	.LBB191:
 402              	.LBB185:
 403              		.loc 3 160 0
 404 0196 F8EE677A 		vcvt.f32.u32	s15, s15
 405              	.LBE185:
 406              	.LBE191:
 407              		.loc 1 134 0
 408 019a A9EEAA4A 		vfma.f32	s8, s19, s21
 409              	.LVL38:
 410              	.LBB192:
 411              	.LBB186:
 412              		.loc 3 160 0
 413 019e 70EE677A 		vsub.f32	s15, s0, s15
 414              	.LBE186:
 415              	.LBE192:
 416              		.loc 1 137 0
 417 01a2 B0EE6B5A 		vmov.f32	s10, s23
 418              	.LBB193:
 419              	.LBB187:
 420              		.loc 3 160 0
 421 01a6 67EE8B7A 		vmul.f32	s15, s15, s22
 422              	.LVL39:
 423              	.LBE187:
 424              	.LBE193:
 425              		.loc 1 139 0
 426 01aa F0EE4A5A 		vmov.f32	s11, s20
 427              	.LBB194:
 428              	.LBB188:
 429              		.loc 3 161 0
 430 01ae BCEEE77A 		vcvt.u32.f32	s14, s15
 431              	.LBE188:
 432              	.LBE194:
 433              		.loc 1 141 0
 434 01b2 B0EE4A6A 		vmov.f32	s12, s20
 435              	.LBB195:
 436              	.LBB189:
 437              		.loc 3 161 0
 438 01b6 17EE106A 		vmov	r6, s14	@ int
 439              	.LVL40:
 440              		.loc 3 163 0
 441 01ba 06F07F04 		and	r4, r6, #127
 442              	.LVL41:
 443              	.LBB176:
 444              	.LBB177:
 445              		.loc 2 825 0
 446 01be 06EE906A 		vmov	s13, r6	@ int
 447              	.LBE177:
 448              	.LBE176:
 449              		.loc 3 166 0
 450 01c2 05EB8407 		add	r7, r5, r4, lsl #2
 451 01c6 0134     		adds	r4, r4, #1
 452              	.LVL42:
 453              	.LBB181:
 454              	.LBB178:
 455              		.loc 2 825 0
 456 01c8 F8EE666A 		vcvt.f32.u32	s13, s13
ARM GAS  C:\msys64\tmp\ccsi6EuC.s 			page 9


 457              	.LBE178:
 458              	.LBE181:
 459              		.loc 3 166 0
 460 01cc 04F07F04 		and	r4, r4, #127
 461              	.LVL43:
 462 01d0 05EB8404 		add	r4, r5, r4, lsl #2
 463              	.LVL44:
 464 01d4 97ED007A 		vldr.32	s14, [r7]
 465              	.LVL45:
 466              	.LBB182:
 467              	.LBB179:
 468              		.loc 2 825 0
 469 01d8 77EEE67A 		vsub.f32	s15, s15, s13
 470              	.LVL46:
 471 01dc D4ED006A 		vldr.32	s13, [r4]
 472 01e0 76EEC76A 		vsub.f32	s13, s13, s14
 473              	.LBE179:
 474              	.LBE182:
 475              		.loc 3 167 0
 476 01e4 7F2E     		cmp	r6, #127
 477              	.LBB183:
 478              	.LBB180:
 479              		.loc 2 825 0
 480 01e6 A7EEA67A 		vfma.f32	s14, s15, s13
 481              	.LVL47:
 482 01ea F0EE477A 		vmov.f32	s15, s14
 483              	.LVL48:
 484              	.LBE180:
 485              	.LBE183:
 486              		.loc 3 167 0
 487 01ee 88BF     		it	hi
 488 01f0 F1EE477A 		vneghi.f32	s15, s14
 489              	.LVL49:
 490              	.LBE189:
 491              	.LBE195:
 492              		.loc 1 137 0
 493 01f4 64EE277A 		vmul.f32	s15, s8, s15
 494 01f8 A4EE275A 		vfma.f32	s10, s8, s15
 495 01fc 35EE005A 		vadd.f32	s10, s10, s0
 496              	.LVL50:
 497              		.loc 1 138 0
 498 0200 B5EEC05A 		vcmpe.f32	s10, #0
 499 0204 F1EE10FA 		vmrs	APSR_nzcv, FPSCR
 500 0208 89BF     		itett	hi
 501 020a FCEEC57A 		vcvthi.u32.f32	s15, s10
 502 020e 38EEC55A 		vsubls.f32	s10, s17, s10
 503              	.LVL51:
 504 0212 F8EE677A 		vcvthi.f32.u32	s15, s15
 505 0216 35EE675A 		vsubhi.f32	s10, s10, s15
 506              	.LVL52:
 507              	.LBB196:
 508              	.LBB197:
 509              		.loc 3 160 0
 510 021a FCEEE07A 		vcvt.u32.f32	s15, s1
 511 021e F8EE677A 		vcvt.f32.u32	s15, s15
 512 0222 70EEE77A 		vsub.f32	s15, s1, s15
 513 0226 67EE837A 		vmul.f32	s15, s15, s6
ARM GAS  C:\msys64\tmp\ccsi6EuC.s 			page 10


 514              	.LVL53:
 515              		.loc 3 161 0
 516 022a BCEEE77A 		vcvt.u32.f32	s14, s15
 517 022e 17EE106A 		vmov	r6, s14	@ int
 518              	.LVL54:
 519              		.loc 3 163 0
 520 0232 06F07F04 		and	r4, r6, #127
 521              	.LVL55:
 522              	.LBB198:
 523              	.LBB199:
 524              		.loc 2 825 0
 525 0236 06EE906A 		vmov	s13, r6	@ int
 526              	.LBE199:
 527              	.LBE198:
 528              		.loc 3 166 0
 529 023a 00EB8407 		add	r7, r0, r4, lsl #2
 530 023e 0134     		adds	r4, r4, #1
 531              	.LVL56:
 532              	.LBB203:
 533              	.LBB200:
 534              		.loc 2 825 0
 535 0240 F8EE666A 		vcvt.f32.u32	s13, s13
 536              	.LBE200:
 537              	.LBE203:
 538              		.loc 3 166 0
 539 0244 04F07F04 		and	r4, r4, #127
 540              	.LVL57:
 541 0248 00EB8404 		add	r4, r0, r4, lsl #2
 542              	.LVL58:
 543 024c 97ED007A 		vldr.32	s14, [r7]
 544              	.LVL59:
 545              	.LBB204:
 546              	.LBB201:
 547              		.loc 2 825 0
 548 0250 77EEE67A 		vsub.f32	s15, s15, s13
 549              	.LVL60:
 550 0254 D4ED006A 		vldr.32	s13, [r4]
 551 0258 76EEC76A 		vsub.f32	s13, s13, s14
 552              	.LBE201:
 553              	.LBE204:
 554              		.loc 3 167 0
 555 025c 7F2E     		cmp	r6, #127
 556              	.LBB205:
 557              	.LBB202:
 558              		.loc 2 825 0
 559 025e A7EEA67A 		vfma.f32	s14, s15, s13
 560              	.LVL61:
 561 0262 F0EE477A 		vmov.f32	s15, s14
 562              	.LVL62:
 563              	.LBE202:
 564              	.LBE205:
 565              		.loc 3 167 0
 566 0266 88BF     		it	hi
 567 0268 F1EE477A 		vneghi.f32	s15, s14
 568              	.LVL63:
 569              	.LBE197:
 570              	.LBE196:
ARM GAS  C:\msys64\tmp\ccsi6EuC.s 			page 11


 571              		.loc 1 139 0
 572 026c 64EE277A 		vmul.f32	s15, s8, s15
 573              	.LBB206:
 574              	.LBB207:
 575              		.loc 3 160 0
 576 0270 BCEEC17A 		vcvt.u32.f32	s14, s2
 577              	.LBE207:
 578              	.LBE206:
 579              		.loc 1 139 0
 580 0274 E4EE275A 		vfma.f32	s11, s8, s15
 581              	.LBB221:
 582              	.LBB216:
 583              		.loc 3 160 0
 584 0278 B8EE477A 		vcvt.f32.u32	s14, s14
 585              	.LBE216:
 586              	.LBE221:
 587              		.loc 1 139 0
 588 027c 75EEA05A 		vadd.f32	s11, s11, s1
 589              	.LVL64:
 590              	.LBB222:
 591              	.LBB217:
 592              		.loc 3 160 0
 593 0280 31EE477A 		vsub.f32	s14, s2, s14
 594              	.LBE217:
 595              	.LBE222:
 596              		.loc 1 140 0
 597 0284 F5EEC05A 		vcmpe.f32	s11, #0
 598 0288 F1EE10FA 		vmrs	APSR_nzcv, FPSCR
 599 028c 88BF     		it	hi
 600 028e FCEEE57A 		vcvthi.u32.f32	s15, s11
 601              	.LBB223:
 602              	.LBB218:
 603              		.loc 3 160 0
 604 0292 27EE037A 		vmul.f32	s14, s14, s6
 605              	.LBE218:
 606              	.LBE223:
 607              		.loc 1 140 0
 608 0296 8ABF     		itet	hi
 609 0298 F8EE677A 		vcvthi.f32.u32	s15, s15
 610 029c 78EEE55A 		vsubls.f32	s11, s17, s11
 611              	.LVL65:
 612 02a0 75EEE75A 		vsubhi.f32	s11, s11, s15
 613              	.LVL66:
 614              	.LBB224:
 615              	.LBB219:
 616              		.loc 3 161 0
 617 02a4 FCEEC77A 		vcvt.u32.f32	s15, s14
 618 02a8 17EE906A 		vmov	r6, s15	@ int
 619              	.LVL67:
 620              		.loc 3 163 0
 621 02ac 06F07F04 		and	r4, r6, #127
 622              	.LVL68:
 623              	.LBB208:
 624              	.LBB209:
 625              		.loc 2 825 0
 626 02b0 06EE906A 		vmov	s13, r6	@ int
 627              	.LBE209:
ARM GAS  C:\msys64\tmp\ccsi6EuC.s 			page 12


 628              	.LBE208:
 629              		.loc 3 166 0
 630 02b4 00EB8407 		add	r7, r0, r4, lsl #2
 631 02b8 0134     		adds	r4, r4, #1
 632              	.LVL69:
 633              	.LBB213:
 634              	.LBB210:
 635              		.loc 2 825 0
 636 02ba F8EE666A 		vcvt.f32.u32	s13, s13
 637              	.LBE210:
 638              	.LBE213:
 639              		.loc 3 166 0
 640 02be 04F07F04 		and	r4, r4, #127
 641              	.LVL70:
 642 02c2 00EB8404 		add	r4, r0, r4, lsl #2
 643              	.LVL71:
 644 02c6 D7ED007A 		vldr.32	s15, [r7]
 645              	.LVL72:
 646              	.LBB214:
 647              	.LBB211:
 648              		.loc 2 825 0
 649 02ca 37EE667A 		vsub.f32	s14, s14, s13
 650              	.LVL73:
 651 02ce D4ED006A 		vldr.32	s13, [r4]
 652 02d2 76EEE76A 		vsub.f32	s13, s13, s15
 653              	.LBE211:
 654              	.LBE214:
 655              		.loc 3 167 0
 656 02d6 7F2E     		cmp	r6, #127
 657              	.LBB215:
 658              	.LBB212:
 659              		.loc 2 825 0
 660 02d8 E7EE267A 		vfma.f32	s15, s14, s13
 661              	.LVL74:
 662              	.LBE212:
 663              	.LBE215:
 664              	.LBE219:
 665              	.LBE224:
 666              	.LBB225:
 667              	.LBB226:
 668              		.loc 3 160 0
 669 02dc BCEEE17A 		vcvt.u32.f32	s14, s3
 670              	.LBE226:
 671              	.LBE225:
 672              	.LBB240:
 673              	.LBB220:
 674              		.loc 3 167 0
 675 02e0 88BF     		it	hi
 676 02e2 F1EE677A 		vneghi.f32	s15, s15
 677              	.LVL75:
 678              	.LBE220:
 679              	.LBE240:
 680              		.loc 1 141 0
 681 02e6 64EE277A 		vmul.f32	s15, s8, s15
 682              	.LBB241:
 683              	.LBB235:
 684              		.loc 3 160 0
ARM GAS  C:\msys64\tmp\ccsi6EuC.s 			page 13


 685 02ea B8EE477A 		vcvt.f32.u32	s14, s14
 686              	.LBE235:
 687              	.LBE241:
 688              		.loc 1 141 0
 689 02ee A4EE276A 		vfma.f32	s12, s8, s15
 690              	.LBB242:
 691              	.LBB236:
 692              		.loc 3 160 0
 693 02f2 31EEC77A 		vsub.f32	s14, s3, s14
 694              	.LBE236:
 695              	.LBE242:
 696              		.loc 1 141 0
 697 02f6 36EE016A 		vadd.f32	s12, s12, s2
 698              	.LVL76:
 699              	.LBB243:
 700              	.LBB237:
 701              		.loc 3 160 0
 702 02fa 27EE037A 		vmul.f32	s14, s14, s6
 703              	.LBE237:
 704              	.LBE243:
 705              		.loc 1 142 0
 706 02fe B5EEC06A 		vcmpe.f32	s12, #0
 707 0302 F1EE10FA 		vmrs	APSR_nzcv, FPSCR
 708 0306 89BF     		itett	hi
 709 0308 FCEEC67A 		vcvthi.u32.f32	s15, s12
 710 030c 38EEC66A 		vsubls.f32	s12, s17, s12
 711              	.LVL77:
 712 0310 F8EE677A 		vcvthi.f32.u32	s15, s15
 713 0314 36EE676A 		vsubhi.f32	s12, s12, s15
 714              	.LVL78:
 715              	.LBB244:
 716              	.LBB238:
 717              		.loc 3 161 0
 718 0318 FCEEC77A 		vcvt.u32.f32	s15, s14
 719 031c 17EE906A 		vmov	r6, s15	@ int
 720              	.LVL79:
 721              		.loc 3 163 0
 722 0320 06F07F04 		and	r4, r6, #127
 723              	.LVL80:
 724              	.LBB227:
 725              	.LBB228:
 726              		.loc 2 825 0
 727 0324 06EE906A 		vmov	s13, r6	@ int
 728              	.LBE228:
 729              	.LBE227:
 730              		.loc 3 166 0
 731 0328 00EB8407 		add	r7, r0, r4, lsl #2
 732 032c 0134     		adds	r4, r4, #1
 733              	.LVL81:
 734              	.LBB232:
 735              	.LBB229:
 736              		.loc 2 825 0
 737 032e F8EE666A 		vcvt.f32.u32	s13, s13
 738              	.LBE229:
 739              	.LBE232:
 740              		.loc 3 166 0
 741 0332 04F07F04 		and	r4, r4, #127
ARM GAS  C:\msys64\tmp\ccsi6EuC.s 			page 14


 742              	.LVL82:
 743 0336 00EB8404 		add	r4, r0, r4, lsl #2
 744              	.LVL83:
 745 033a D7ED007A 		vldr.32	s15, [r7]
 746              	.LVL84:
 747              	.LBB233:
 748              	.LBB230:
 749              		.loc 2 825 0
 750 033e 37EE667A 		vsub.f32	s14, s14, s13
 751              	.LVL85:
 752 0342 D4ED006A 		vldr.32	s13, [r4]
 753 0346 76EEE76A 		vsub.f32	s13, s13, s15
 754              	.LBE230:
 755              	.LBE233:
 756              		.loc 3 167 0
 757 034a 7F2E     		cmp	r6, #127
 758              	.LBB234:
 759              	.LBB231:
 760              		.loc 2 825 0
 761 034c E7EE267A 		vfma.f32	s15, s14, s13
 762              	.LVL86:
 763              	.LBE231:
 764              	.LBE234:
 765              	.LBE238:
 766              	.LBE244:
 767              		.loc 1 143 0
 768 0350 F0EE4A6A 		vmov.f32	s13, s20
 769              	.LBB245:
 770              	.LBB239:
 771              		.loc 3 167 0
 772 0354 88BF     		it	hi
 773 0356 F1EE677A 		vneghi.f32	s15, s15
 774              	.LVL87:
 775              	.LBE239:
 776              	.LBE245:
 777              		.loc 1 143 0
 778 035a 64EE277A 		vmul.f32	s15, s8, s15
 779 035e E4EE276A 		vfma.f32	s13, s8, s15
 780 0362 76EEA16A 		vadd.f32	s13, s13, s3
 781              	.LVL88:
 782              		.loc 1 144 0
 783 0366 F5EEC06A 		vcmpe.f32	s13, #0
 784 036a F1EE10FA 		vmrs	APSR_nzcv, FPSCR
 785 036e 89BF     		itett	hi
 786 0370 FCEEE67A 		vcvthi.u32.f32	s15, s13
 787 0374 78EEE66A 		vsubls.f32	s13, s17, s13
 788              	.LVL89:
 789 0378 F8EE677A 		vcvthi.f32.u32	s15, s15
 790 037c 76EEE76A 		vsubhi.f32	s13, s13, s15
 791              	.LVL90:
 792              	.LBB246:
 793              	.LBB247:
 794              		.loc 3 160 0
 795 0380 FCEEC27A 		vcvt.u32.f32	s15, s4
 796 0384 F8EE677A 		vcvt.f32.u32	s15, s15
 797 0388 72EE677A 		vsub.f32	s15, s4, s15
 798 038c 67EE837A 		vmul.f32	s15, s15, s6
ARM GAS  C:\msys64\tmp\ccsi6EuC.s 			page 15


 799              	.LVL91:
 800              		.loc 3 161 0
 801 0390 BCEEE77A 		vcvt.u32.f32	s14, s15
 802 0394 17EE106A 		vmov	r6, s14	@ int
 803              	.LVL92:
 804              		.loc 3 163 0
 805 0398 06F07F04 		and	r4, r6, #127
 806              	.LVL93:
 807              	.LBB248:
 808              	.LBB249:
 809              		.loc 2 825 0
 810 039c 08EE106A 		vmov	s16, r6	@ int
 811              	.LBE249:
 812              	.LBE248:
 813              		.loc 3 166 0
 814 03a0 00EB8407 		add	r7, r0, r4, lsl #2
 815 03a4 0134     		adds	r4, r4, #1
 816              	.LVL94:
 817              	.LBB253:
 818              	.LBB250:
 819              		.loc 2 825 0
 820 03a6 B8EE488A 		vcvt.f32.u32	s16, s16
 821              	.LBE250:
 822              	.LBE253:
 823              		.loc 3 166 0
 824 03aa 04F07F04 		and	r4, r4, #127
 825              	.LVL95:
 826 03ae 00EB8404 		add	r4, r0, r4, lsl #2
 827              	.LVL96:
 828 03b2 97ED007A 		vldr.32	s14, [r7]
 829              	.LVL97:
 830              	.LBB254:
 831              	.LBB251:
 832              		.loc 2 825 0
 833 03b6 77EEC87A 		vsub.f32	s15, s15, s16
 834              	.LVL98:
 835 03ba 94ED008A 		vldr.32	s16, [r4]
 836 03be 38EE478A 		vsub.f32	s16, s16, s14
 837              	.LBE251:
 838              	.LBE254:
 839              		.loc 3 167 0
 840 03c2 7F2E     		cmp	r6, #127
 841              	.LBB255:
 842              	.LBB252:
 843              		.loc 2 825 0
 844 03c4 A7EE887A 		vfma.f32	s14, s15, s16
 845              	.LVL99:
 846              	.LBE252:
 847              	.LBE255:
 848              	.LBE247:
 849              	.LBE246:
 850              		.loc 1 145 0
 851 03c8 F0EE4A7A 		vmov.f32	s15, s20
 852              	.LBB257:
 853              	.LBB256:
 854              		.loc 3 167 0
 855 03cc 88BF     		it	hi
ARM GAS  C:\msys64\tmp\ccsi6EuC.s 			page 16


 856 03ce B1EE477A 		vneghi.f32	s14, s14
 857              	.LVL100:
 858              	.LBE256:
 859              	.LBE257:
 860              		.loc 1 145 0
 861 03d2 24EE077A 		vmul.f32	s14, s8, s14
 862 03d6 E4EE077A 		vfma.f32	s15, s8, s14
 863 03da 37EE827A 		vadd.f32	s14, s15, s4
 864              	.LVL101:
 865              		.loc 1 146 0
 866 03de B5EEC07A 		vcmpe.f32	s14, #0
 867 03e2 F1EE10FA 		vmrs	APSR_nzcv, FPSCR
 868 03e6 89BF     		itett	hi
 869 03e8 FCEEC77A 		vcvthi.u32.f32	s15, s14
 870 03ec 38EEC77A 		vsubls.f32	s14, s17, s14
 871              	.LVL102:
 872 03f0 F8EE677A 		vcvthi.f32.u32	s15, s15
 873 03f4 37EE677A 		vsubhi.f32	s14, s14, s15
 874              	.LVL103:
 875              	.LBB258:
 876              	.LBB259:
 877              		.loc 3 160 0
 878 03f8 FCEEE47A 		vcvt.u32.f32	s15, s9
 879 03fc F8EE677A 		vcvt.f32.u32	s15, s15
 880 0400 74EEE77A 		vsub.f32	s15, s9, s15
 881 0404 67EE837A 		vmul.f32	s15, s15, s6
 882              	.LVL104:
 883              		.loc 3 161 0
 884 0408 BCEEE78A 		vcvt.u32.f32	s16, s15
 885 040c 18EE106A 		vmov	r6, s16	@ int
 886              	.LVL105:
 887              		.loc 3 163 0
 888 0410 06F07F04 		and	r4, r6, #127
 889              	.LVL106:
 890              	.LBB260:
 891              	.LBB261:
 892              		.loc 2 825 0
 893 0414 09EE106A 		vmov	s18, r6	@ int
 894              	.LBE261:
 895              	.LBE260:
 896              		.loc 3 166 0
 897 0418 00EB8407 		add	r7, r0, r4, lsl #2
 898 041c 0134     		adds	r4, r4, #1
 899              	.LVL107:
 900              	.LBB265:
 901              	.LBB262:
 902              		.loc 2 825 0
 903 041e B8EE499A 		vcvt.f32.u32	s18, s18
 904              	.LBE262:
 905              	.LBE265:
 906              		.loc 3 166 0
 907 0422 04F07F04 		and	r4, r4, #127
 908              	.LVL108:
 909 0426 00EB8404 		add	r4, r0, r4, lsl #2
 910              	.LVL109:
 911 042a 97ED008A 		vldr.32	s16, [r7]
 912              	.LVL110:
ARM GAS  C:\msys64\tmp\ccsi6EuC.s 			page 17


 913              	.LBB266:
 914              	.LBB263:
 915              		.loc 2 825 0
 916 042e 77EEC97A 		vsub.f32	s15, s15, s18
 917              	.LVL111:
 918 0432 94ED009A 		vldr.32	s18, [r4]
 919 0436 39EE489A 		vsub.f32	s18, s18, s16
 920              	.LBE263:
 921              	.LBE266:
 922              		.loc 3 167 0
 923 043a 7F2E     		cmp	r6, #127
 924              	.LBB267:
 925              	.LBB264:
 926              		.loc 2 825 0
 927 043c A7EE898A 		vfma.f32	s16, s15, s18
 928              	.LVL112:
 929              	.LBE264:
 930              	.LBE267:
 931              	.LBE259:
 932              	.LBE258:
 933              		.loc 1 147 0
 934 0440 F0EE4A7A 		vmov.f32	s15, s20
 935              	.LBB269:
 936              	.LBB268:
 937              		.loc 3 167 0
 938 0444 88BF     		it	hi
 939 0446 B1EE488A 		vneghi.f32	s16, s16
 940              	.LVL113:
 941              	.LBE268:
 942              	.LBE269:
 943              		.loc 1 147 0
 944 044a 24EE088A 		vmul.f32	s16, s8, s16
 945 044e E4EE087A 		vfma.f32	s15, s8, s16
 946 0452 77EEA47A 		vadd.f32	s15, s15, s9
 947              	.LVL114:
 948              		.loc 1 148 0
 949 0456 F5EEC07A 		vcmpe.f32	s15, #0
 950 045a F1EE10FA 		vmrs	APSR_nzcv, FPSCR
 951 045e 89BF     		itett	hi
 952 0460 BCEEE78A 		vcvthi.u32.f32	s16, s15
 953 0464 78EEE77A 		vsubls.f32	s15, s17, s15
 954              	.LVL115:
 955 0468 B8EE488A 		vcvthi.f32.u32	s16, s16
 956 046c 77EEC87A 		vsubhi.f32	s15, s15, s16
 957              	.LVL116:
 958              	.LBB270:
 959              	.LBB271:
 960              		.loc 3 160 0
 961 0470 BCEEE28A 		vcvt.u32.f32	s16, s5
 962 0474 B8EE488A 		vcvt.f32.u32	s16, s16
 963 0478 32EEC88A 		vsub.f32	s16, s5, s16
 964 047c 28EE038A 		vmul.f32	s16, s16, s6
 965              	.LVL117:
 966              		.loc 3 161 0
 967 0480 BCEEC89A 		vcvt.u32.f32	s18, s16
 968 0484 19EE106A 		vmov	r6, s18	@ int
 969              	.LVL118:
ARM GAS  C:\msys64\tmp\ccsi6EuC.s 			page 18


 970              		.loc 3 163 0
 971 0488 06F07F04 		and	r4, r6, #127
 972              	.LVL119:
 973              	.LBB272:
 974              	.LBB273:
 975              		.loc 2 825 0
 976 048c 0FEE906A 		vmov	s31, r6	@ int
 977              	.LBE273:
 978              	.LBE272:
 979              		.loc 3 166 0
 980 0490 00EB8407 		add	r7, r0, r4, lsl #2
 981 0494 0134     		adds	r4, r4, #1
 982              	.LVL120:
 983              	.LBB277:
 984              	.LBB274:
 985              		.loc 2 825 0
 986 0496 F8EE6FFA 		vcvt.f32.u32	s31, s31
 987              	.LBE274:
 988              	.LBE277:
 989              		.loc 3 166 0
 990 049a 04F07F04 		and	r4, r4, #127
 991              	.LVL121:
 992 049e 00EB8404 		add	r4, r0, r4, lsl #2
 993              	.LVL122:
 994 04a2 97ED009A 		vldr.32	s18, [r7]
 995              	.LVL123:
 996              	.LBB278:
 997              	.LBB275:
 998              		.loc 2 825 0
 999 04a6 38EE6F8A 		vsub.f32	s16, s16, s31
 1000              	.LVL124:
 1001 04aa D4ED00FA 		vldr.32	s31, [r4]
 1002 04ae 7FEEC9FA 		vsub.f32	s31, s31, s18
 1003              	.LBE275:
 1004              	.LBE278:
 1005              		.loc 3 167 0
 1006 04b2 7F2E     		cmp	r6, #127
 1007              	.LBB279:
 1008              	.LBB276:
 1009              		.loc 2 825 0
 1010 04b4 A8EE2F9A 		vfma.f32	s18, s16, s31
 1011              	.LVL125:
 1012              	.LBE276:
 1013              	.LBE279:
 1014              	.LBE271:
 1015              	.LBE270:
 1016              		.loc 1 149 0
 1017 04b8 B0EE4A8A 		vmov.f32	s16, s20
 1018              	.LBB281:
 1019              	.LBB280:
 1020              		.loc 3 167 0
 1021 04bc 88BF     		it	hi
 1022 04be B1EE499A 		vneghi.f32	s18, s18
 1023              	.LVL126:
 1024              	.LBE280:
 1025              	.LBE281:
 1026              		.loc 1 149 0
ARM GAS  C:\msys64\tmp\ccsi6EuC.s 			page 19


 1027 04c2 24EE099A 		vmul.f32	s18, s8, s18
 1028 04c6 A4EE098A 		vfma.f32	s16, s8, s18
 1029 04ca 38EE224A 		vadd.f32	s8, s16, s5
 1030              	.LVL127:
 1031              		.loc 1 150 0
 1032 04ce B5EEC04A 		vcmpe.f32	s8, #0
 1033 04d2 F1EE10FA 		vmrs	APSR_nzcv, FPSCR
 1034 04d6 89BF     		itett	hi
 1035 04d8 BCEEC48A 		vcvthi.u32.f32	s16, s8
 1036 04dc 38EEC44A 		vsubls.f32	s8, s17, s8
 1037              	.LVL128:
 1038 04e0 B8EE488A 		vcvthi.f32.u32	s16, s16
 1039 04e4 34EE484A 		vsubhi.f32	s8, s8, s16
 1040              	.LVL129:
 1041              	.LBB282:
 1042              	.LBB283:
 1043              		.loc 3 160 0
 1044 04e8 BCEEC58A 		vcvt.u32.f32	s16, s10
 1045 04ec B8EE488A 		vcvt.f32.u32	s16, s16
 1046 04f0 35EE488A 		vsub.f32	s16, s10, s16
 1047 04f4 28EE038A 		vmul.f32	s16, s16, s6
 1048              	.LVL130:
 1049              		.loc 3 161 0
 1050 04f8 BCEEC85A 		vcvt.u32.f32	s10, s16
 1051              	.LVL131:
 1052 04fc 15EE106A 		vmov	r6, s10	@ int
 1053              	.LVL132:
 1054              		.loc 3 163 0
 1055 0500 06F07F04 		and	r4, r6, #127
 1056              	.LVL133:
 1057              	.LBB284:
 1058              	.LBB285:
 1059              		.loc 2 825 0
 1060 0504 09EE106A 		vmov	s18, r6	@ int
 1061              	.LBE285:
 1062              	.LBE284:
 1063              		.loc 3 166 0
 1064 0508 00EB8407 		add	r7, r0, r4, lsl #2
 1065 050c 0134     		adds	r4, r4, #1
 1066              	.LVL134:
 1067              	.LBB289:
 1068              	.LBB286:
 1069              		.loc 2 825 0
 1070 050e B8EE499A 		vcvt.f32.u32	s18, s18
 1071              	.LBE286:
 1072              	.LBE289:
 1073              		.loc 3 166 0
 1074 0512 04F07F04 		and	r4, r4, #127
 1075              	.LVL135:
 1076 0516 00EB8404 		add	r4, r0, r4, lsl #2
 1077              	.LVL136:
 1078 051a 97ED005A 		vldr.32	s10, [r7]
 1079              	.LVL137:
 1080              	.LBB290:
 1081              	.LBB287:
 1082              		.loc 2 825 0
 1083 051e 38EE498A 		vsub.f32	s16, s16, s18
ARM GAS  C:\msys64\tmp\ccsi6EuC.s 			page 20


 1084              	.LVL138:
 1085 0522 94ED009A 		vldr.32	s18, [r4]
 1086 0526 39EE459A 		vsub.f32	s18, s18, s10
 1087              	.LBE287:
 1088              	.LBE290:
 1089              		.loc 3 167 0
 1090 052a 7F2E     		cmp	r6, #127
 1091              	.LBB291:
 1092              	.LBB288:
 1093              		.loc 2 825 0
 1094 052c A8EE095A 		vfma.f32	s10, s16, s18
 1095              	.LVL139:
 1096              	.LBE288:
 1097              	.LBE291:
 1098              	.LBE283:
 1099              	.LBE282:
 1100              	.LBB293:
 1101              	.LBB294:
 1102              		.loc 3 160 0
 1103 0530 BCEEE58A 		vcvt.u32.f32	s16, s11
 1104              	.LBE294:
 1105              	.LBE293:
 1106              	.LBB305:
 1107              	.LBB292:
 1108              		.loc 3 167 0
 1109 0534 88BF     		it	hi
 1110 0536 B1EE455A 		vneghi.f32	s10, s10
 1111              	.LVL140:
 1112              	.LBE292:
 1113              	.LBE305:
 1114              	.LBB306:
 1115              	.LBB303:
 1116              		.loc 3 160 0
 1117 053a B8EE488A 		vcvt.f32.u32	s16, s16
 1118 053e 75EEC85A 		vsub.f32	s11, s11, s16
 1119              	.LVL141:
 1120 0542 65EE835A 		vmul.f32	s11, s11, s6
 1121              	.LVL142:
 1122              		.loc 3 161 0
 1123 0546 BCEEE58A 		vcvt.u32.f32	s16, s11
 1124 054a 18EE106A 		vmov	r6, s16	@ int
 1125              	.LVL143:
 1126              		.loc 3 163 0
 1127 054e 06F07F04 		and	r4, r6, #127
 1128              	.LVL144:
 1129              	.LBB295:
 1130              	.LBB296:
 1131              		.loc 2 825 0
 1132 0552 09EE106A 		vmov	s18, r6	@ int
 1133              	.LBE296:
 1134              	.LBE295:
 1135              		.loc 3 166 0
 1136 0556 00EB8407 		add	r7, r0, r4, lsl #2
 1137 055a 0134     		adds	r4, r4, #1
 1138              	.LVL145:
 1139              	.LBB300:
 1140              	.LBB297:
ARM GAS  C:\msys64\tmp\ccsi6EuC.s 			page 21


 1141              		.loc 2 825 0
 1142 055c B8EE499A 		vcvt.f32.u32	s18, s18
 1143              	.LBE297:
 1144              	.LBE300:
 1145              		.loc 3 166 0
 1146 0560 04F07F04 		and	r4, r4, #127
 1147              	.LVL146:
 1148 0564 00EB8404 		add	r4, r0, r4, lsl #2
 1149              	.LVL147:
 1150 0568 97ED008A 		vldr.32	s16, [r7]
 1151              	.LVL148:
 1152              	.LBB301:
 1153              	.LBB298:
 1154              		.loc 2 825 0
 1155 056c 75EEC95A 		vsub.f32	s11, s11, s18
 1156              	.LVL149:
 1157 0570 94ED009A 		vldr.32	s18, [r4]
 1158 0574 39EE489A 		vsub.f32	s18, s18, s16
 1159              	.LBE298:
 1160              	.LBE301:
 1161              		.loc 3 167 0
 1162 0578 7F2E     		cmp	r6, #127
 1163              	.LBB302:
 1164              	.LBB299:
 1165              		.loc 2 825 0
 1166 057a A5EE898A 		vfma.f32	s16, s11, s18
 1167              	.LVL150:
 1168              	.LBE299:
 1169              	.LBE302:
 1170              	.LBE303:
 1171              	.LBE306:
 1172              	.LBB307:
 1173              	.LBB308:
 1174              		.loc 3 160 0
 1175 057e FCEEC65A 		vcvt.u32.f32	s11, s12
 1176              	.LBE308:
 1177              	.LBE307:
 1178              	.LBB320:
 1179              	.LBB304:
 1180              		.loc 3 167 0
 1181 0582 88BF     		it	hi
 1182 0584 B1EE488A 		vneghi.f32	s16, s16
 1183              	.LVL151:
 1184              	.LBE304:
 1185              	.LBE320:
 1186              	.LBB321:
 1187              	.LBB317:
 1188              		.loc 3 160 0
 1189 0588 F8EE655A 		vcvt.f32.u32	s11, s11
 1190              	.LBE317:
 1191              	.LBE321:
 1192              		.loc 1 153 0
 1193 058c ACEE885A 		vfma.f32	s10, s25, s16
 1194              	.LVL152:
 1195              	.LBB322:
 1196              	.LBB318:
 1197              		.loc 3 160 0
ARM GAS  C:\msys64\tmp\ccsi6EuC.s 			page 22


 1198 0590 36EE656A 		vsub.f32	s12, s12, s11
 1199              	.LVL153:
 1200 0594 26EE036A 		vmul.f32	s12, s12, s6
 1201              	.LVL154:
 1202              		.loc 3 161 0
 1203 0598 FCEEC65A 		vcvt.u32.f32	s11, s12
 1204 059c 15EE906A 		vmov	r6, s11	@ int
 1205              	.LVL155:
 1206              		.loc 3 163 0
 1207 05a0 06F07F04 		and	r4, r6, #127
 1208              	.LVL156:
 1209              	.LBB309:
 1210              	.LBB310:
 1211              		.loc 2 825 0
 1212 05a4 08EE106A 		vmov	s16, r6	@ int
 1213              	.LBE310:
 1214              	.LBE309:
 1215              		.loc 3 166 0
 1216 05a8 00EB8407 		add	r7, r0, r4, lsl #2
 1217 05ac 0134     		adds	r4, r4, #1
 1218              	.LVL157:
 1219              	.LBB314:
 1220              	.LBB311:
 1221              		.loc 2 825 0
 1222 05ae B8EE488A 		vcvt.f32.u32	s16, s16
 1223              	.LBE311:
 1224              	.LBE314:
 1225              		.loc 3 166 0
 1226 05b2 04F07F04 		and	r4, r4, #127
 1227              	.LVL158:
 1228 05b6 00EB8404 		add	r4, r0, r4, lsl #2
 1229              	.LVL159:
 1230 05ba D7ED005A 		vldr.32	s11, [r7]
 1231              	.LVL160:
 1232              	.LBB315:
 1233              	.LBB312:
 1234              		.loc 2 825 0
 1235 05be 36EE486A 		vsub.f32	s12, s12, s16
 1236              	.LVL161:
 1237 05c2 94ED008A 		vldr.32	s16, [r4]
 1238 05c6 38EE658A 		vsub.f32	s16, s16, s11
 1239              	.LBE312:
 1240              	.LBE315:
 1241              		.loc 3 167 0
 1242 05ca 7F2E     		cmp	r6, #127
 1243              	.LBB316:
 1244              	.LBB313:
 1245              		.loc 2 825 0
 1246 05cc E6EE085A 		vfma.f32	s11, s12, s16
 1247              	.LVL162:
 1248              	.LBE313:
 1249              	.LBE316:
 1250              	.LBE318:
 1251              	.LBE322:
 1252              	.LBB323:
 1253              	.LBB324:
 1254              		.loc 3 160 0
ARM GAS  C:\msys64\tmp\ccsi6EuC.s 			page 23


 1255 05d0 BCEEE66A 		vcvt.u32.f32	s12, s13
 1256              	.LBE324:
 1257              	.LBE323:
 1258              	.LBB335:
 1259              	.LBB319:
 1260              		.loc 3 167 0
 1261 05d4 88BF     		it	hi
 1262 05d6 F1EE655A 		vneghi.f32	s11, s11
 1263              	.LVL163:
 1264              	.LBE319:
 1265              	.LBE335:
 1266              	.LBB336:
 1267              	.LBB333:
 1268              		.loc 3 160 0
 1269 05da B8EE466A 		vcvt.f32.u32	s12, s12
 1270              	.LBE333:
 1271              	.LBE336:
 1272              		.loc 1 153 0
 1273 05de ADEE255A 		vfma.f32	s10, s26, s11
 1274              	.LVL164:
 1275              	.LBB337:
 1276              	.LBB334:
 1277              		.loc 3 160 0
 1278 05e2 76EEC66A 		vsub.f32	s13, s13, s12
 1279              	.LVL165:
 1280 05e6 26EE836A 		vmul.f32	s12, s13, s6
 1281              	.LVL166:
 1282              		.loc 3 161 0
 1283 05ea FCEEC66A 		vcvt.u32.f32	s13, s12
 1284 05ee 16EE906A 		vmov	r6, s13	@ int
 1285              	.LVL167:
 1286              		.loc 3 163 0
 1287 05f2 06F07F04 		and	r4, r6, #127
 1288              	.LVL168:
 1289              	.LBB325:
 1290              	.LBB326:
 1291              		.loc 2 825 0
 1292 05f6 05EE906A 		vmov	s11, r6	@ int
 1293              	.LBE326:
 1294              	.LBE325:
 1295              		.loc 3 166 0
 1296 05fa 00EB8407 		add	r7, r0, r4, lsl #2
 1297 05fe 0134     		adds	r4, r4, #1
 1298              	.LVL169:
 1299              	.LBB330:
 1300              	.LBB327:
 1301              		.loc 2 825 0
 1302 0600 F8EE655A 		vcvt.f32.u32	s11, s11
 1303              	.LBE327:
 1304              	.LBE330:
 1305              		.loc 3 166 0
 1306 0604 04F07F04 		and	r4, r4, #127
 1307              	.LVL170:
 1308 0608 00EB8404 		add	r4, r0, r4, lsl #2
 1309              	.LVL171:
 1310 060c D7ED006A 		vldr.32	s13, [r7]
 1311              	.LVL172:
ARM GAS  C:\msys64\tmp\ccsi6EuC.s 			page 24


 1312              	.LBB331:
 1313              	.LBB328:
 1314              		.loc 2 825 0
 1315 0610 36EE656A 		vsub.f32	s12, s12, s11
 1316              	.LVL173:
 1317 0614 D4ED005A 		vldr.32	s11, [r4]
 1318 0618 75EEE65A 		vsub.f32	s11, s11, s13
 1319              	.LBE328:
 1320              	.LBE331:
 1321              		.loc 3 167 0
 1322 061c 7F2E     		cmp	r6, #127
 1323              	.LBB332:
 1324              	.LBB329:
 1325              		.loc 2 825 0
 1326 061e E6EE256A 		vfma.f32	s13, s12, s11
 1327              	.LVL174:
 1328              	.LBE329:
 1329              	.LBE332:
 1330              		.loc 3 167 0
 1331 0622 88BF     		it	hi
 1332 0624 F1EE666A 		vneghi.f32	s13, s13
 1333              	.LVL175:
 1334              	.LBE334:
 1335              	.LBE337:
 1336              		.loc 1 153 0
 1337 0628 ADEEA65A 		vfma.f32	s10, s27, s13
 1338              	.LVL176:
 1339              	.LBB338:
 1340              	.LBB339:
 1341              		.loc 3 160 0
 1342 062c FCEEC76A 		vcvt.u32.f32	s13, s14
 1343 0630 F8EE666A 		vcvt.f32.u32	s13, s13
 1344 0634 37EE667A 		vsub.f32	s14, s14, s13
 1345              	.LVL177:
 1346 0638 27EE037A 		vmul.f32	s14, s14, s6
 1347              	.LVL178:
 1348              		.loc 3 161 0
 1349 063c FCEEC76A 		vcvt.u32.f32	s13, s14
 1350 0640 16EE906A 		vmov	r6, s13	@ int
 1351              	.LVL179:
 1352              		.loc 3 163 0
 1353 0644 06F07F04 		and	r4, r6, #127
 1354              	.LVL180:
 1355              	.LBB340:
 1356              	.LBB341:
 1357              		.loc 2 825 0
 1358 0648 06EE106A 		vmov	s12, r6	@ int
 1359              	.LBE341:
 1360              	.LBE340:
 1361              		.loc 3 166 0
 1362 064c 00EB8407 		add	r7, r0, r4, lsl #2
 1363 0650 0134     		adds	r4, r4, #1
 1364              	.LVL181:
 1365              	.LBB345:
 1366              	.LBB342:
 1367              		.loc 2 825 0
 1368 0652 B8EE466A 		vcvt.f32.u32	s12, s12
ARM GAS  C:\msys64\tmp\ccsi6EuC.s 			page 25


 1369              	.LBE342:
 1370              	.LBE345:
 1371              		.loc 3 166 0
 1372 0656 04F07F04 		and	r4, r4, #127
 1373              	.LVL182:
 1374 065a 00EB8404 		add	r4, r0, r4, lsl #2
 1375              	.LVL183:
 1376 065e D7ED006A 		vldr.32	s13, [r7]
 1377              	.LVL184:
 1378              	.LBB346:
 1379              	.LBB343:
 1380              		.loc 2 825 0
 1381 0662 37EE467A 		vsub.f32	s14, s14, s12
 1382              	.LVL185:
 1383 0666 94ED006A 		vldr.32	s12, [r4]
 1384 066a 36EE666A 		vsub.f32	s12, s12, s13
 1385              	.LBE343:
 1386              	.LBE346:
 1387              		.loc 3 167 0
 1388 066e 7F2E     		cmp	r6, #127
 1389              	.LBB347:
 1390              	.LBB344:
 1391              		.loc 2 825 0
 1392 0670 E7EE066A 		vfma.f32	s13, s14, s12
 1393              	.LVL186:
 1394 0674 B0EE667A 		vmov.f32	s14, s13
 1395              	.LVL187:
 1396              	.LBE344:
 1397              	.LBE347:
 1398              		.loc 3 167 0
 1399 0678 88BF     		it	hi
 1400 067a B1EE667A 		vneghi.f32	s14, s13
 1401              	.LVL188:
 1402              	.LBE339:
 1403              	.LBE338:
 1404              		.loc 1 154 0
 1405 067e AEEE075A 		vfma.f32	s10, s28, s14
 1406              	.LVL189:
 1407              	.LBB348:
 1408              	.LBB349:
 1409              		.loc 3 160 0
 1410 0682 BCEEE77A 		vcvt.u32.f32	s14, s15
 1411 0686 B8EE477A 		vcvt.f32.u32	s14, s14
 1412 068a 77EEC77A 		vsub.f32	s15, s15, s14
 1413              	.LVL190:
 1414 068e 67EE837A 		vmul.f32	s15, s15, s6
 1415              	.LVL191:
 1416              		.loc 3 161 0
 1417 0692 BCEEE77A 		vcvt.u32.f32	s14, s15
 1418 0696 17EE106A 		vmov	r6, s14	@ int
 1419              	.LVL192:
 1420              		.loc 3 163 0
 1421 069a 06F07F04 		and	r4, r6, #127
 1422              	.LVL193:
 1423              		.loc 3 166 0
 1424 069e 00EB8407 		add	r7, r0, r4, lsl #2
 1425 06a2 0134     		adds	r4, r4, #1
ARM GAS  C:\msys64\tmp\ccsi6EuC.s 			page 26


 1426              	.LVL194:
 1427              	.LBB350:
 1428              	.LBB351:
 1429              		.loc 2 825 0
 1430 06a4 B8EE477A 		vcvt.f32.u32	s14, s14
 1431              	.LBE351:
 1432              	.LBE350:
 1433              		.loc 3 166 0
 1434 06a8 04F07F04 		and	r4, r4, #127
 1435              	.LVL195:
 1436 06ac 00EB8404 		add	r4, r0, r4, lsl #2
 1437              	.LVL196:
 1438 06b0 D7ED006A 		vldr.32	s13, [r7]
 1439              	.LVL197:
 1440              	.LBB354:
 1441              	.LBB352:
 1442              		.loc 2 825 0
 1443 06b4 77EEC77A 		vsub.f32	s15, s15, s14
 1444              	.LVL198:
 1445 06b8 94ED007A 		vldr.32	s14, [r4]
 1446 06bc 37EE667A 		vsub.f32	s14, s14, s13
 1447              	.LBE352:
 1448              	.LBE354:
 1449              		.loc 3 167 0
 1450 06c0 7F2E     		cmp	r6, #127
 1451              	.LBB355:
 1452              	.LBB353:
 1453              		.loc 2 825 0
 1454 06c2 E7EE876A 		vfma.f32	s13, s15, s14
 1455              	.LVL199:
 1456              	.LBE353:
 1457              	.LBE355:
 1458              	.LBE349:
 1459              	.LBE348:
 1460              	.LBB357:
 1461              	.LBB358:
 1462              		.loc 3 160 0
 1463 06c6 BCEEC47A 		vcvt.u32.f32	s14, s8
 1464              	.LBE358:
 1465              	.LBE357:
 1466              	.LBB368:
 1467              	.LBB356:
 1468              		.loc 3 167 0
 1469 06ca 88BF     		it	hi
 1470 06cc F1EE666A 		vneghi.f32	s13, s13
 1471              	.LVL200:
 1472              	.LBE356:
 1473              	.LBE368:
 1474              	.LBB369:
 1475              	.LBB365:
 1476              		.loc 3 160 0
 1477 06d0 B8EE477A 		vcvt.f32.u32	s14, s14
 1478              	.LBE365:
 1479              	.LBE369:
 1480              		.loc 1 154 0
 1481 06d4 F0EE457A 		vmov.f32	s15, s10
 1482              	.LBB370:
ARM GAS  C:\msys64\tmp\ccsi6EuC.s 			page 27


 1483              	.LBB366:
 1484              		.loc 3 160 0
 1485 06d8 34EE474A 		vsub.f32	s8, s8, s14
 1486              	.LVL201:
 1487              	.LBE366:
 1488              	.LBE370:
 1489              		.loc 1 154 0
 1490 06dc EEEEA67A 		vfma.f32	s15, s29, s13
 1491              	.LBB371:
 1492              	.LBB367:
 1493              		.loc 3 160 0
 1494 06e0 24EE034A 		vmul.f32	s8, s8, s6
 1495              	.LVL202:
 1496              		.loc 3 161 0
 1497 06e4 BCEEC47A 		vcvt.u32.f32	s14, s8
 1498 06e8 17EE106A 		vmov	r6, s14	@ int
 1499              	.LVL203:
 1500              		.loc 3 163 0
 1501 06ec 06F07F04 		and	r4, r6, #127
 1502              	.LVL204:
 1503              		.loc 3 166 0
 1504 06f0 00EB8407 		add	r7, r0, r4, lsl #2
 1505 06f4 0134     		adds	r4, r4, #1
 1506              	.LVL205:
 1507              	.LBB359:
 1508              	.LBB360:
 1509              		.loc 2 825 0
 1510 06f6 B8EE477A 		vcvt.f32.u32	s14, s14
 1511              	.LBE360:
 1512              	.LBE359:
 1513              		.loc 3 166 0
 1514 06fa 04F07F04 		and	r4, r4, #127
 1515              	.LVL206:
 1516 06fe 00EB8404 		add	r4, r0, r4, lsl #2
 1517              	.LVL207:
 1518 0702 D7ED006A 		vldr.32	s13, [r7]
 1519              	.LVL208:
 1520              	.LBB363:
 1521              	.LBB361:
 1522              		.loc 2 825 0
 1523 0706 34EE474A 		vsub.f32	s8, s8, s14
 1524              	.LVL209:
 1525 070a 94ED007A 		vldr.32	s14, [r4]
 1526 070e 37EE667A 		vsub.f32	s14, s14, s13
 1527              	.LBE361:
 1528              	.LBE363:
 1529              		.loc 3 167 0
 1530 0712 7F2E     		cmp	r6, #127
 1531              	.LBB364:
 1532              	.LBB362:
 1533              		.loc 2 825 0
 1534 0714 E4EE076A 		vfma.f32	s13, s8, s14
 1535              	.LVL210:
 1536              	.LBE362:
 1537              	.LBE364:
 1538              		.loc 3 167 0
 1539 0718 88BF     		it	hi
ARM GAS  C:\msys64\tmp\ccsi6EuC.s 			page 28


 1540 071a F1EE666A 		vneghi.f32	s13, s13
 1541              	.LVL211:
 1542              	.LBE367:
 1543              	.LBE371:
 1544              		.loc 1 152 0
 1545 071e EFEE267A 		vfma.f32	s15, s30, s13
 1546 0722 27EE8C7A 		vmul.f32	s14, s15, s24
 1547              	.LVL212:
 1548              	.LBB372:
 1549              	.LBB373:
 1550              	.LBB374:
 1551              	.LBB375:
 1552              	.LBB376:
 1553              	.LBB377:
 1554              		.loc 2 193 0
 1555 0726 FFEE007A 		vmov.f32	s15, #-1.0e+0
 1556 072a B4EEE77A 		vcmpe.f32	s14, s15
 1557 072e F1EE10FA 		vmrs	APSR_nzcv, FPSCR
 1558 0732 08DB     		blt	.L46
 1559              	.LVL213:
 1560 0734 B4EEE87A 		vcmpe.f32	s14, s17
 1561 0738 F1EE10FA 		vmrs	APSR_nzcv, FPSCR
 1562 073c B4BF     		ite	lt
 1563 073e F0EE477A 		vmovlt.f32	s15, s14
 1564 0742 F0EE687A 		vmovge.f32	s15, s17
 1565              	.LVL214:
 1566              	.L46:
 1567              	.LBE377:
 1568              	.LBE376:
 1569              	.LBE375:
 1570              	.LBE374:
 1571              	.LBE373:
 1572              	.LBE372:
 1573              		.loc 1 155 0
 1574 0746 27EEA77A 		vmul.f32	s14, s15, s15
 1575 074a DFED356A 		vldr.32	s13, .L78
 1576 074e 27EEC77A 		vnmul.f32	s14, s15, s14
 1577              		.loc 1 157 0
 1578 0752 30EE230A 		vadd.f32	s0, s0, s7
 1579              	.LVL215:
 1580              		.loc 1 155 0
 1581 0756 E7EE267A 		vfma.f32	s15, s14, s13
 1582 075a 9FED327A 		vldr.32	s14, .L78+4
 1583 075e 67EE877A 		vmul.f32	s15, s15, s14
 1584 0762 FDEEE77A 		vcvt.s32.f32	s15, s15
 1585 0766 E1EC017A 		vstmia.32	r1!, {s15}	@ int
 1586              	.LVL216:
 1587              		.loc 1 158 0
 1588 076a FCEEC07A 		vcvt.u32.f32	s15, s0
 1589 076e F8EE677A 		vcvt.f32.u32	s15, s15
 1590 0772 30EE670A 		vsub.f32	s0, s0, s15
 1591              	.LVL217:
 1592              		.loc 1 159 0
 1593 0776 F0EE007A 		vmov.f32	s15, #2.0e+0
 1594 077a E3EEA70A 		vfma.f32	s1, s7, s15
 1595              	.LVL218:
 1596              		.loc 1 160 0
ARM GAS  C:\msys64\tmp\ccsi6EuC.s 			page 29


 1597 077e FCEEE07A 		vcvt.u32.f32	s15, s1
 1598 0782 F8EE677A 		vcvt.f32.u32	s15, s15
 1599 0786 70EEE70A 		vsub.f32	s1, s1, s15
 1600              	.LVL219:
 1601              		.loc 1 161 0
 1602 078a F0EE087A 		vmov.f32	s15, #3.0e+0
 1603 078e A3EEA71A 		vfma.f32	s2, s7, s15
 1604              	.LVL220:
 1605              		.loc 1 162 0
 1606 0792 FCEEC17A 		vcvt.u32.f32	s15, s2
 1607 0796 F8EE677A 		vcvt.f32.u32	s15, s15
 1608 079a 31EE671A 		vsub.f32	s2, s2, s15
 1609              	.LVL221:
 1610              		.loc 1 163 0
 1611 079e F1EE007A 		vmov.f32	s15, #4.0e+0
 1612 07a2 E3EEA71A 		vfma.f32	s3, s7, s15
 1613              	.LVL222:
 1614              		.loc 1 164 0
 1615 07a6 FCEEE17A 		vcvt.u32.f32	s15, s3
 1616 07aa F8EE677A 		vcvt.f32.u32	s15, s15
 1617 07ae 71EEE71A 		vsub.f32	s3, s3, s15
 1618              	.LVL223:
 1619              		.loc 1 165 0
 1620 07b2 F1EE047A 		vmov.f32	s15, #5.0e+0
 1621 07b6 A3EEA72A 		vfma.f32	s4, s7, s15
 1622              	.LVL224:
 1623              		.loc 1 166 0
 1624 07ba FCEEC27A 		vcvt.u32.f32	s15, s4
 1625 07be F8EE677A 		vcvt.f32.u32	s15, s15
 1626 07c2 32EE672A 		vsub.f32	s4, s4, s15
 1627              	.LVL225:
 1628              		.loc 1 167 0
 1629 07c6 F1EE087A 		vmov.f32	s15, #6.0e+0
 1630 07ca E3EEA74A 		vfma.f32	s9, s7, s15
 1631              	.LVL226:
 1632              		.loc 1 168 0
 1633 07ce FCEEE47A 		vcvt.u32.f32	s15, s9
 1634 07d2 F8EE677A 		vcvt.f32.u32	s15, s15
 1635 07d6 74EEE74A 		vsub.f32	s9, s9, s15
 1636              	.LVL227:
 1637              		.loc 1 169 0
 1638 07da F1EE0C7A 		vmov.f32	s15, #7.0e+0
 1639 07de E3EEA72A 		vfma.f32	s5, s7, s15
 1640              	.LVL228:
 1641              		.loc 1 170 0
 1642 07e2 FCEEE27A 		vcvt.u32.f32	s15, s5
 1643 07e6 F8EE677A 		vcvt.f32.u32	s15, s15
 1644 07ea 72EEE72A 		vsub.f32	s5, s5, s15
 1645              	.LVL229:
 1646              		.loc 1 172 0
 1647 07ee DDED017A 		vldr.32	s15, [sp, #4]
 1648 07f2 79EEA79A 		vadd.f32	s19, s19, s15
 1649              	.LVL230:
 1650              	.LBE379:
 1651              		.loc 1 133 0
 1652 07f6 C7E4     		b	.L48
 1653              	.LVL231:
ARM GAS  C:\msys64\tmp\ccsi6EuC.s 			page 30


 1654              	.L10:
 1655              	.LBE380:
 1656              		.loc 1 175 0
 1657 07f8 83ED010A 		vstr.32	s0, [r3, #4]
 1658              		.loc 1 176 0
 1659 07fc C3ED030A 		vstr.32	s1, [r3, #12]
 1660              		.loc 1 177 0
 1661 0800 83ED051A 		vstr.32	s2, [r3, #20]
 1662              		.loc 1 178 0
 1663 0804 C3ED071A 		vstr.32	s3, [r3, #28]
 1664              		.loc 1 179 0
 1665 0808 83ED092A 		vstr.32	s4, [r3, #36]
 1666              		.loc 1 180 0
 1667 080c C3ED0B4A 		vstr.32	s9, [r3, #44]
 1668              		.loc 1 181 0
 1669 0810 C3ED0D2A 		vstr.32	s5, [r3, #52]
 1670              		.loc 1 182 0
 1671 0814 C3ED189A 		vstr.32	s19, [r3, #96]
 1672              		.loc 1 183 0
 1673 0818 03B0     		add	sp, sp, #12
 1674              		.cfi_def_cfa_offset 84
 1675              		@ sp needed
 1676 081a BDEC108B 		vldm	sp!, {d8-d15}
 1677              		.cfi_restore 94
 1678              		.cfi_restore 95
 1679              		.cfi_restore 92
 1680              		.cfi_restore 93
 1681              		.cfi_restore 90
 1682              		.cfi_restore 91
 1683              		.cfi_restore 88
 1684              		.cfi_restore 89
 1685              		.cfi_restore 86
 1686              		.cfi_restore 87
 1687              		.cfi_restore 84
 1688              		.cfi_restore 85
 1689              		.cfi_restore 82
 1690              		.cfi_restore 83
 1691              		.cfi_restore 80
 1692              		.cfi_restore 81
 1693              		.cfi_def_cfa_offset 20
 1694              	.LVL232:
 1695 081e F0BD     		pop	{r4, r5, r6, r7, pc}
 1696              	.LVL233:
 1697              	.L79:
 1698              		.align	2
 1699              	.L78:
 1700 0820 CDCC4C3D 		.word	1028443341
 1701 0824 0000004F 		.word	1325400064
 1702              		.cfi_endproc
 1703              	.LFE240:
 1704              		.size	_hook_cycle, .-_hook_cycle
 1705              		.align	1
 1706              		.global	_hook_on
 1707              		.thumb
 1708              		.thumb_func
 1709              		.type	_hook_on, %function
 1710              	_hook_on:
ARM GAS  C:\msys64\tmp\ccsi6EuC.s 			page 31


 1711              	.LFB241:
 1712              		.loc 1 186 0
 1713              		.cfi_startproc
 1714              		@ args = 0, pretend = 0, frame = 0
 1715              		@ frame_needed = 0, uses_anonymous_args = 0
 1716              		@ link register save eliminated.
 1717              	.LVL234:
 1718              		.loc 1 187 0
 1719 0828 034A     		ldr	r2, .L81
 1720 082a 92F86430 		ldrb	r3, [r2, #100]	@ zero_extendqisi2
 1721 082e 43F00103 		orr	r3, r3, #1
 1722 0832 82F86430 		strb	r3, [r2, #100]
 1723 0836 7047     		bx	lr
 1724              	.L82:
 1725              		.align	2
 1726              	.L81:
 1727 0838 00000000 		.word	.LANCHOR0
 1728              		.cfi_endproc
 1729              	.LFE241:
 1730              		.size	_hook_on, .-_hook_on
 1731              		.align	1
 1732              		.global	_hook_off
 1733              		.thumb
 1734              		.thumb_func
 1735              		.type	_hook_off, %function
 1736              	_hook_off:
 1737              	.LFB242:
 1738              		.loc 1 191 0
 1739              		.cfi_startproc
 1740              		@ args = 0, pretend = 0, frame = 0
 1741              		@ frame_needed = 0, uses_anonymous_args = 0
 1742              		@ link register save eliminated.
 1743              	.LVL235:
 1744 083c 7047     		bx	lr
 1745              		.cfi_endproc
 1746              	.LFE242:
 1747              		.size	_hook_off, .-_hook_off
 1748              		.align	1
 1749              		.global	_hook_param
 1750              		.thumb
 1751              		.thumb_func
 1752              		.type	_hook_param, %function
 1753              	_hook_param:
 1754              	.LFB243:
 1755              		.loc 1 196 0
 1756              		.cfi_startproc
 1757              		@ args = 0, pretend = 0, frame = 0
 1758              		@ frame_needed = 0, uses_anonymous_args = 0
 1759              		@ link register save eliminated.
 1760              	.LVL236:
 1761              		.loc 1 197 0
 1762 083e 07EE901A 		vmov	s15, r1	@ int
 1763 0842 9FED1B7A 		vldr.32	s14, .L95
 1764 0846 F8EEE77A 		vcvt.f32.s32	s15, s15
 1765 084a 67EE877A 		vmul.f32	s15, s15, s14
 1766              	.LVL237:
 1767              		.loc 1 199 0
ARM GAS  C:\msys64\tmp\ccsi6EuC.s 			page 32


 1768 084e 0728     		cmp	r0, #7
 1769 0850 2CD8     		bhi	.L84
 1770 0852 DFE800F0 		tbb	[pc, r0]
 1771              	.L87:
 1772 0856 04       		.byte	(.L86-.L87)/2
 1773 0857 08       		.byte	(.L88-.L87)/2
 1774 0858 0C       		.byte	(.L89-.L87)/2
 1775 0859 10       		.byte	(.L90-.L87)/2
 1776 085a 14       		.byte	(.L91-.L87)/2
 1777 085b 18       		.byte	(.L92-.L87)/2
 1778 085c 1C       		.byte	(.L93-.L87)/2
 1779 085d 24       		.byte	(.L94-.L87)/2
 1780              		.p2align 1
 1781              	.L86:
 1782              		.loc 1 201 0
 1783 085e 154B     		ldr	r3, .L95+4
 1784 0860 C3ED0F7A 		vstr.32	s15, [r3, #60]
 1785              		.loc 1 202 0
 1786 0864 7047     		bx	lr
 1787              	.L88:
 1788              		.loc 1 204 0
 1789 0866 134B     		ldr	r3, .L95+4
 1790 0868 C3ED107A 		vstr.32	s15, [r3, #64]
 1791              		.loc 1 205 0
 1792 086c 7047     		bx	lr
 1793              	.L89:
 1794              		.loc 1 207 0
 1795 086e 114B     		ldr	r3, .L95+4
 1796 0870 C3ED117A 		vstr.32	s15, [r3, #68]
 1797              		.loc 1 208 0
 1798 0874 7047     		bx	lr
 1799              	.L90:
 1800              		.loc 1 210 0
 1801 0876 0F4B     		ldr	r3, .L95+4
 1802 0878 C3ED127A 		vstr.32	s15, [r3, #72]
 1803              		.loc 1 211 0
 1804 087c 7047     		bx	lr
 1805              	.L91:
 1806              		.loc 1 213 0
 1807 087e 0D4B     		ldr	r3, .L95+4
 1808 0880 C3ED137A 		vstr.32	s15, [r3, #76]
 1809              		.loc 1 214 0
 1810 0884 7047     		bx	lr
 1811              	.L92:
 1812              		.loc 1 216 0
 1813 0886 0B4B     		ldr	r3, .L95+4
 1814 0888 C3ED147A 		vstr.32	s15, [r3, #80]
 1815              		.loc 1 217 0
 1816 088c 7047     		bx	lr
 1817              	.L93:
 1818              		.loc 1 219 0
 1819 088e 9FED0A7A 		vldr.32	s14, .L95+8
 1820 0892 084B     		ldr	r3, .L95+4
 1821 0894 67EE877A 		vmul.f32	s15, s15, s14
 1822              	.LVL238:
 1823 0898 C3ED167A 		vstr.32	s15, [r3, #88]
 1824              		.loc 1 220 0
ARM GAS  C:\msys64\tmp\ccsi6EuC.s 			page 33


 1825 089c 7047     		bx	lr
 1826              	.LVL239:
 1827              	.L94:
 1828              		.loc 1 222 0
 1829 089e B7EE007A 		vmov.f32	s14, #1.0e+0
 1830 08a2 77EE877A 		vadd.f32	s15, s15, s14
 1831              	.LVL240:
 1832 08a6 034B     		ldr	r3, .L95+4
 1833 08a8 C3ED157A 		vstr.32	s15, [r3, #84]
 1834              	.L84:
 1835 08ac 7047     		bx	lr
 1836              	.L96:
 1837 08ae 00BF     		.align	2
 1838              	.L95:
 1839 08b0 0820803A 		.word	981475336
 1840 08b4 00000000 		.word	.LANCHOR0
 1841 08b8 9A99993E 		.word	1050253722
 1842              		.cfi_endproc
 1843              	.LFE243:
 1844              		.size	_hook_param, .-_hook_param
 1845              		.bss
 1846              		.align	2
 1847              		.set	.LANCHOR0,. + 0
 1848              		.type	_ZL7s_state, %object
 1849              		.size	_ZL7s_state, 104
 1850              	_ZL7s_state:
 1851 0000 00000000 		.space	104
 1851      00000000 
 1851      00000000 
 1851      00000000 
 1851      00000000 
 1852              		.text
 1853              	.Letext0:
 1854              		.file 4 "c:\\msys64\\home\\joshu\\logue-sdk\\tools\\gcc\\gcc-arm-none-eabi-5_4-2016q3\\arm-none-ea
 1855              		.file 5 "c:\\msys64\\home\\joshu\\logue-sdk\\tools\\gcc\\gcc-arm-none-eabi-5_4-2016q3\\arm-none-ea
 1856              		.file 6 "c:\\msys64\\home\\joshu\\logue-sdk\\platform\\ext\\cmsis\\cmsis\\include\\arm_math.h"
 1857              		.file 7 "../../logue-sdk/platform/nutekt-digital/inc/userosc.h"
 1858              		.file 8 "../../logue-sdk/platform/nutekt-digital/inc/userprg.h"
 1859              		.file 9 "../../logue-sdk/platform/nutekt-digital/inc/utils/int_math.h"