ARM GAS  /tmp/ccJJl1OT.s 			page 1


   1              		.syntax unified
   2              		.cpu cortex-m4
   3              		.eabi_attribute 27, 1
   4              		.eabi_attribute 28, 1
   5              		.fpu fpv4-sp-d16
   6              		.eabi_attribute 20, 1
   7              		.eabi_attribute 21, 1
   8              		.eabi_attribute 23, 3
   9              		.eabi_attribute 24, 1
  10              		.eabi_attribute 25, 1
  11              		.eabi_attribute 26, 1
  12              		.eabi_attribute 30, 4
  13              		.eabi_attribute 34, 1
  14              		.eabi_attribute 18, 4
  15              		.thumb
  16              		.syntax unified
  17              		.file	"chords.cpp"
  18              		.text
  19              	.Ltext0:
  20              		.cfi_sections	.debug_frame
  21              		.align	1
  22              		.global	_hook_init
  23              		.thumb
  24              		.thumb_func
  25              		.type	_hook_init, %function
  26              	_hook_init:
  27              	.LFB239:
  28              		.file 1 "chords.cpp"
  29              		.loc 1 79 0
  30              		.cfi_startproc
  31              		@ args = 0, pretend = 0, frame = 0
  32              		@ frame_needed = 0, uses_anonymous_args = 0
  33              		@ link register save eliminated.
  34              	.LVL0:
  35 0000 064B     		ldr	r3, .L5
  36              	.LBB992:
  37              		.loc 1 82 0
  38 0002 0022     		movs	r2, #0
  39 0004 03F13001 		add	r1, r3, #48
  40              	.LVL1:
  41              	.L2:
  42              		.loc 1 82 0 is_stmt 0 discriminator 2
  43 0008 43F8042B 		str	r2, [r3], #4	@ float
  44              		.loc 1 81 0 is_stmt 1 discriminator 2
  45 000c 8B42     		cmp	r3, r1
  46              		.loc 1 83 0 discriminator 2
  47 000e DA62     		str	r2, [r3, #44]	@ float
  48              		.loc 1 81 0 discriminator 2
  49 0010 FAD1     		bne	.L2
  50              	.LBE992:
  51              		.loc 1 85 0
  52 0012 034B     		ldr	r3, .L5+4
  53 0014 0022     		movs	r2, #0
  54 0016 1A72     		strb	r2, [r3, #8]
  55              		.loc 1 86 0
  56 0018 9A72     		strb	r2, [r3, #10]
  57 001a 7047     		bx	lr
ARM GAS  /tmp/ccJJl1OT.s 			page 2


  58              	.L6:
  59              		.align	2
  60              	.L5:
  61 001c 10000000 		.word	.LANCHOR0+16
  62 0020 00000000 		.word	.LANCHOR0
  63              		.cfi_endproc
  64              	.LFE239:
  65              		.size	_hook_init, .-_hook_init
  66              		.align	1
  67              		.global	_hook_cycle
  68              		.thumb
  69              		.thumb_func
  70              		.type	_hook_cycle, %function
  71              	_hook_cycle:
  72              	.LFB240:
  73              		.loc 1 92 0
  74              		.cfi_startproc
  75              		@ args = 0, pretend = 0, frame = 104
  76              		@ frame_needed = 0, uses_anonymous_args = 0
  77              	.LVL2:
  78 0024 2DE9F04F 		push	{r4, r5, r6, r7, r8, r9, r10, fp, lr}
  79              		.cfi_def_cfa_offset 36
  80              		.cfi_offset 4, -36
  81              		.cfi_offset 5, -32
  82              		.cfi_offset 6, -28
  83              		.cfi_offset 7, -24
  84              		.cfi_offset 8, -20
  85              		.cfi_offset 9, -16
  86              		.cfi_offset 10, -12
  87              		.cfi_offset 11, -8
  88              		.cfi_offset 14, -4
  89              	.LBB993:
  90              		.loc 1 94 0
  91 0028 164B     		ldr	r3, .L403
  92 002a DFF85C80 		ldr	r8, .L403+4
  93 002e 93F80A90 		ldrb	r9, [r3, #10]	@ zero_extendqisi2
  94              	.LBE993:
  95              		.loc 1 92 0
  96 0032 9BB0     		sub	sp, sp, #108
  97              		.cfi_def_cfa_offset 144
  98              	.LBB994:
  99              		.loc 1 93 0
 100 0034 0026     		movs	r6, #0
 101              		.loc 1 94 0
 102 0036 0C27     		movs	r7, #12
 103              	.LVL3:
 104              	.L8:
 105              		.loc 1 94 0 is_stmt 0 discriminator 2
 106 0038 8488     		ldrh	r4, [r0, #4]
 107 003a DFF848E0 		ldr	lr, .L403
 108 003e 09EB1424 		add	r4, r9, r4, lsr #8
 109 0042 94FBF7F5 		sdiv	r5, r4, r7
 110 0046 07FB1544 		mls	r4, r7, r5, r4
 111 004a 06EB8404 		add	r4, r6, r4, lsl #2
 112 004e 03EB060C 		add	ip, r3, r6
 113              		.loc 1 93 0 is_stmt 1 discriminator 2
 114 0052 0136     		adds	r6, r6, #1
ARM GAS  /tmp/ccJJl1OT.s 			page 3


 115              	.LVL4:
 116              		.loc 1 94 0 discriminator 2
 117 0054 58F82440 		ldr	r4, [r8, r4, lsl #2]
 118 0058 8CF80C40 		strb	r4, [ip, #12]
 119              		.loc 1 93 0 discriminator 2
 120 005c 042E     		cmp	r6, #4
 121 005e EBD1     		bne	.L8
 122              	.LBE994:
 123              		.loc 1 98 0
 124 0060 0024     		movs	r4, #0
 125              		.loc 1 97 0
 126 0062 9EF80970 		ldrb	r7, [lr, #9]	@ zero_extendqisi2
 127              	.LVL5:
 128              		.loc 1 98 0
 129 0066 8EF80940 		strb	r4, [lr, #9]
 130              		.loc 1 102 0
 131 006a 9EF80B40 		ldrb	r4, [lr, #11]	@ zero_extendqisi2
 132 006e 042C     		cmp	r4, #4
 133 0070 00F2C486 		bhi	.L9
 134 0074 DFE814F0 		tbh	[pc, r4, lsl #1]
 135              	.L11:
 136 0078 0A00     		.2byte	(.L10-.L11)/2
 137 007a F201     		.2byte	(.L12-.L11)/2
 138 007c 7E03     		.2byte	(.L13-.L11)/2
 139 007e 2005     		.2byte	(.L14-.L11)/2
 140 0080 2005     		.2byte	(.L14-.L11)/2
 141              		.p2align 1
 142              	.L404:
 143 0082 00BF     		.align	2
 144              	.L403:
 145 0084 00000000 		.word	.LANCHOR0
 146 0088 00000000 		.word	.LANCHOR1
 147              	.L10:
 148              		.loc 1 104 0
 149 008c 8588     		ldrh	r5, [r0, #4]
 150 008e 1C7B     		ldrb	r4, [r3, #12]	@ zero_extendqisi2
 151 0090 93ED1C4A 		vldr.32	s8, [r3, #112]
 152              	.LBB995:
 153              	.LBB996:
 154              	.LBB997:
 155              	.LBB998:
 156              		.file 2 "../../logue-sdk/platform/nutekt-digital/inc/osc_api.h"
 157              		.loc 2 115 0
 158 0094 E74E     		ldr	r6, .L405
 159              	.LVL6:
 160              	.LBE998:
 161              	.LBE997:
 162              	.LBB1005:
 163              	.LBB1006:
 164              		.file 3 "../../logue-sdk/platform/nutekt-digital/inc/utils/float_math.h"
 165              		.loc 3 826 0
 166 0096 DFEDE84A 		vldr.32	s9, .L405+4
 167              	.LBE1006:
 168              	.LBE1005:
 169              		.loc 2 130 0
 170 009a 9FEDE85A 		vldr.32	s10, .L405+8
 171              	.LBE996:
ARM GAS  /tmp/ccJJl1OT.s 			page 4


 172              	.LBE995:
 173              		.loc 1 105 0
 174 009e 9FEDE83A 		vldr.32	s6, .L405+12
 175              		.loc 1 104 0
 176 00a2 04EB1524 		add	r4, r4, r5, lsr #8
 177 00a6 EDB2     		uxtb	r5, r5
 178 00a8 07EE105A 		vmov	s14, r5	@ int
 179 00ac B8EEC76A 		vcvt.f32.s32	s12, s14
 180 00b0 E4B2     		uxtb	r4, r4
 181 00b2 36EE047A 		vadd.f32	s14, s12, s8
 182              	.LBB1021:
 183              	.LBB1019:
 184              	.LBB1008:
 185              	.LBB1003:
 186              	.LBB999:
 187              	.LBB1000:
 188              		.file 4 "../../logue-sdk/platform/nutekt-digital/inc/utils/int_math.h"
 189              		.loc 4 85 0
 190 00b6 962C     		cmp	r4, #150
 191              	.LBE1000:
 192              	.LBE999:
 193              	.LBE1003:
 194              	.LBE1008:
 195              	.LBE1019:
 196              	.LBE1021:
 197              		.loc 1 104 0
 198 00b8 BCEEC77A 		vcvt.u32.f32	s14, s14
 199              		.loc 1 105 0
 200 00bc 24EE033A 		vmul.f32	s6, s8, s6
 201              		.loc 1 104 0
 202 00c0 8DED017A 		vstr.32	s14, [sp, #4]	@ int
 203 00c4 9DF80450 		ldrb	r5, [sp, #4]	@ zero_extendqisi2
 204 00c8 07EE105A 		vmov	s14, r5	@ int
 205              	.LVL7:
 206              	.LBB1022:
 207              	.LBB1020:
 208              	.LBB1009:
 209              	.LBB1004:
 210              	.LBB1002:
 211              	.LBB1001:
 212              		.loc 4 85 0
 213 00cc 94BF     		ite	ls
 214 00ce 2546     		movls	r5, r4
 215 00d0 9725     		movhi	r5, #151
 216              	.LVL8:
 217              	.LBE1001:
 218              	.LBE1002:
 219              		.loc 2 115 0
 220 00d2 06EB8505 		add	r5, r6, r5, lsl #2
 221 00d6 D5ED006A 		vldr.32	s13, [r5]
 222              	.LVL9:
 223              	.LBE1004:
 224              	.LBE1009:
 225              		.loc 2 126 0
 226 00da 651C     		adds	r5, r4, #1
 227 00dc EDB2     		uxtb	r5, r5
 228              	.LVL10:
ARM GAS  /tmp/ccJJl1OT.s 			page 5


 229              	.LBB1010:
 230              	.LBB1011:
 231              	.LBB1012:
 232              	.LBB1013:
 233              		.loc 4 85 0
 234 00de 962D     		cmp	r5, #150
 235 00e0 94BF     		ite	ls
 236 00e2 AE46     		movls	lr, r5
 237 00e4 4FF0970E 		movhi	lr, #151
 238              	.LVL11:
 239              	.LBE1013:
 240              	.LBE1012:
 241              		.loc 2 115 0
 242 00e8 06EB8E0E 		add	lr, r6, lr, lsl #2
 243              	.LBE1011:
 244              	.LBE1010:
 245              	.LBB1014:
 246              	.LBB1007:
 247              		.loc 3 826 0
 248 00ec DEED005A 		vldr.32	s11, [lr]
 249 00f0 B8EEC77A 		vcvt.f32.s32	s14, s14
 250              	.LVL12:
 251 00f4 75EEE65A 		vsub.f32	s11, s11, s13
 252 00f8 27EE247A 		vmul.f32	s14, s14, s9
 253 00fc F0EE663A 		vmov.f32	s7, s13
 254 0100 E7EE253A 		vfma.f32	s7, s14, s11
 255              	.LVL13:
 256              	.LBE1007:
 257              	.LBE1014:
 258              	.LBB1015:
 259              	.LBB1016:
 260              	.LBB1017:
 261              	.LBB1018:
 262              		.loc 3 193 0
 263 0104 9FEDCF7A 		vldr.32	s14, .L405+16
 264 0108 F4EEC73A 		vcmpe.f32	s7, s14
 265 010c F1EE10FA 		vmrs	APSR_nzcv, FPSCR
 266 0110 A8BF     		it	ge
 267 0112 F0EE473A 		vmovge.f32	s7, s14
 268              	.LVL14:
 269              	.LBE1018:
 270              	.LBE1017:
 271              	.LBE1016:
 272              	.LBE1015:
 273              		.loc 2 130 0
 274 0116 63EE853A 		vmul.f32	s7, s7, s10
 275              	.LVL15:
 276              	.LBE1020:
 277              	.LBE1022:
 278              	.LBB1023:
 279              	.LBB1024:
 280              	.LBB1025:
 281              	.LBB1026:
 282              		.loc 3 826 0
 283 011a F0EE662A 		vmov.f32	s5, s13
 284              	.LBE1026:
 285              	.LBE1025:
ARM GAS  /tmp/ccJJl1OT.s 			page 6


 286              	.LBE1024:
 287              	.LBE1023:
 288              		.loc 1 104 0
 289 011e C3ED043A 		vstr.32	s7, [r3, #16]
 290 0122 CDED023A 		vstr.32	s7, [sp, #8]
 291              		.loc 1 105 0
 292 0126 76EE033A 		vadd.f32	s7, s12, s6
 293              	.LBB1048:
 294              	.LBB1049:
 295              	.LBB1050:
 296              	.LBB1051:
 297              		.loc 3 826 0
 298 012a B0EE662A 		vmov.f32	s4, s13
 299              	.LBE1051:
 300              	.LBE1050:
 301              	.LBE1049:
 302              	.LBE1048:
 303              		.loc 1 105 0
 304 012e FCEEE33A 		vcvt.u32.f32	s7, s7
 305              	.LBB1066:
 306              	.LBB1067:
 307              	.LBB1068:
 308              	.LBB1069:
 309              		.loc 3 826 0
 310 0132 F0EE661A 		vmov.f32	s3, s13
 311              	.LBE1069:
 312              	.LBE1068:
 313              	.LBE1067:
 314              	.LBE1066:
 315              		.loc 1 105 0
 316 0136 CDED013A 		vstr.32	s7, [sp, #4]	@ int
 317 013a 9DF804E0 		ldrb	lr, [sp, #4]	@ zero_extendqisi2
 318 013e 03EE90EA 		vmov	s7, lr	@ int
 319              	.LVL16:
 320              	.LBB1084:
 321              	.LBB1043:
 322              	.LBB1031:
 323              	.LBB1027:
 324              		.loc 3 826 0
 325 0142 F8EEE33A 		vcvt.f32.s32	s7, s7
 326              	.LBE1027:
 327              	.LBE1031:
 328              	.LBE1043:
 329              	.LBE1084:
 330              	.LBB1085:
 331              	.LBB1086:
 332              	.LBB1087:
 333              	.LBB1088:
 334 0146 B0EE661A 		vmov.f32	s2, s13
 335              	.LBE1088:
 336              	.LBE1087:
 337              	.LBE1086:
 338              	.LBE1085:
 339              	.LBB1103:
 340              	.LBB1044:
 341              	.LBB1032:
 342              	.LBB1028:
ARM GAS  /tmp/ccJJl1OT.s 			page 7


 343 014a 63EEA43A 		vmul.f32	s7, s7, s9
 344              	.LBE1028:
 345              	.LBE1032:
 346              	.LBE1044:
 347              	.LBE1103:
 348              	.LBB1104:
 349              	.LBB1105:
 350              	.LBB1106:
 351              	.LBB1107:
 352 014e F0EE660A 		vmov.f32	s1, s13
 353              	.LBE1107:
 354              	.LBE1106:
 355              	.LBE1105:
 356              	.LBE1104:
 357              	.LBB1121:
 358              	.LBB1045:
 359              	.LBB1033:
 360              	.LBB1029:
 361 0152 E3EEA52A 		vfma.f32	s5, s7, s11
 362              	.LBE1029:
 363              	.LBE1033:
 364              	.LBE1045:
 365              	.LBE1121:
 366              		.loc 1 114 0
 367 0156 36EE433A 		vsub.f32	s6, s12, s6
 368              	.LBB1122:
 369              	.LBB1046:
 370              	.LBB1034:
 371              	.LBB1035:
 372              	.LBB1036:
 373              	.LBB1037:
 374              		.loc 3 193 0
 375 015a F4EEC72A 		vcmpe.f32	s5, s14
 376 015e F1EE10FA 		vmrs	APSR_nzcv, FPSCR
 377              	.LBE1037:
 378              	.LBE1036:
 379              	.LBE1035:
 380              	.LBE1034:
 381              	.LBB1041:
 382              	.LBB1030:
 383              		.loc 3 826 0
 384 0162 F0EE623A 		vmov.f32	s7, s5
 385              	.LVL17:
 386              	.LBE1030:
 387              	.LBE1041:
 388              	.LBE1046:
 389              	.LBE1122:
 390              		.loc 1 106 0
 391 0166 DFEDB82A 		vldr.32	s5, .L405+20
 392              	.LVL18:
 393              	.LBB1123:
 394              	.LBB1047:
 395              	.LBB1042:
 396              	.LBB1040:
 397              	.LBB1039:
 398              	.LBB1038:
 399              		.loc 3 193 0
ARM GAS  /tmp/ccJJl1OT.s 			page 8


 400 016a A8BF     		it	ge
 401 016c F0EE473A 		vmovge.f32	s7, s14
 402              	.LVL19:
 403              	.LBE1038:
 404              	.LBE1039:
 405              	.LBE1040:
 406              	.LBE1042:
 407              		.loc 2 130 0
 408 0170 63EE853A 		vmul.f32	s7, s7, s10
 409              	.LVL20:
 410              	.LBE1047:
 411              	.LBE1123:
 412              		.loc 1 106 0
 413 0174 64EE222A 		vmul.f32	s5, s8, s5
 414              		.loc 1 105 0
 415 0178 C3ED053A 		vstr.32	s7, [r3, #20]
 416 017c CDED033A 		vstr.32	s7, [sp, #12]
 417              		.loc 1 106 0
 418 0180 76EE223A 		vadd.f32	s7, s12, s5
 419              		.loc 1 113 0
 420 0184 76EE622A 		vsub.f32	s5, s12, s5
 421              		.loc 1 106 0
 422 0188 FCEEE33A 		vcvt.u32.f32	s7, s7
 423 018c CDED013A 		vstr.32	s7, [sp, #4]	@ int
 424 0190 9DF804E0 		ldrb	lr, [sp, #4]	@ zero_extendqisi2
 425 0194 03EE90EA 		vmov	s7, lr	@ int
 426              	.LVL21:
 427              	.LBB1124:
 428              	.LBB1064:
 429              	.LBB1054:
 430              	.LBB1052:
 431              		.loc 3 826 0
 432 0198 F8EEE33A 		vcvt.f32.s32	s7, s7
 433 019c 63EEA43A 		vmul.f32	s7, s7, s9
 434 01a0 A3EEA52A 		vfma.f32	s4, s7, s11
 435              	.LBE1052:
 436              	.LBE1054:
 437              	.LBB1055:
 438              	.LBB1056:
 439              	.LBB1057:
 440              	.LBB1058:
 441              		.loc 3 193 0
 442 01a4 B4EEC72A 		vcmpe.f32	s4, s14
 443 01a8 F1EE10FA 		vmrs	APSR_nzcv, FPSCR
 444              	.LBE1058:
 445              	.LBE1057:
 446              	.LBE1056:
 447              	.LBE1055:
 448              	.LBB1062:
 449              	.LBB1053:
 450              		.loc 3 826 0
 451 01ac F0EE423A 		vmov.f32	s7, s4
 452              	.LVL22:
 453              	.LBE1053:
 454              	.LBE1062:
 455              	.LBE1064:
 456              	.LBE1124:
ARM GAS  /tmp/ccJJl1OT.s 			page 9


 457              		.loc 1 107 0
 458 01b0 9FEDA62A 		vldr.32	s4, .L405+24
 459              	.LVL23:
 460              	.LBB1125:
 461              	.LBB1065:
 462              	.LBB1063:
 463              	.LBB1061:
 464              	.LBB1060:
 465              	.LBB1059:
 466              		.loc 3 193 0
 467 01b4 A8BF     		it	ge
 468 01b6 F0EE473A 		vmovge.f32	s7, s14
 469              	.LVL24:
 470              	.LBE1059:
 471              	.LBE1060:
 472              	.LBE1061:
 473              	.LBE1063:
 474              		.loc 2 130 0
 475 01ba 63EE853A 		vmul.f32	s7, s7, s10
 476              	.LVL25:
 477              	.LBE1065:
 478              	.LBE1125:
 479              		.loc 1 107 0
 480 01be 24EE022A 		vmul.f32	s4, s8, s4
 481              		.loc 1 106 0
 482 01c2 C3ED063A 		vstr.32	s7, [r3, #24]
 483 01c6 CDED043A 		vstr.32	s7, [sp, #16]
 484              		.loc 1 107 0
 485 01ca 76EE023A 		vadd.f32	s7, s12, s4
 486              		.loc 1 112 0
 487 01ce 36EE422A 		vsub.f32	s4, s12, s4
 488              		.loc 1 107 0
 489 01d2 FCEEE33A 		vcvt.u32.f32	s7, s7
 490 01d6 CDED013A 		vstr.32	s7, [sp, #4]	@ int
 491 01da 9DF804E0 		ldrb	lr, [sp, #4]	@ zero_extendqisi2
 492 01de 03EE90EA 		vmov	s7, lr	@ int
 493              	.LVL26:
 494              	.LBB1126:
 495              	.LBB1082:
 496              	.LBB1072:
 497              	.LBB1070:
 498              		.loc 3 826 0
 499 01e2 F8EEE33A 		vcvt.f32.s32	s7, s7
 500 01e6 63EEA43A 		vmul.f32	s7, s7, s9
 501 01ea E3EEA51A 		vfma.f32	s3, s7, s11
 502              	.LBE1070:
 503              	.LBE1072:
 504              	.LBB1073:
 505              	.LBB1074:
 506              	.LBB1075:
 507              	.LBB1076:
 508              		.loc 3 193 0
 509 01ee F4EEC71A 		vcmpe.f32	s3, s14
 510 01f2 F1EE10FA 		vmrs	APSR_nzcv, FPSCR
 511              	.LBE1076:
 512              	.LBE1075:
 513              	.LBE1074:
ARM GAS  /tmp/ccJJl1OT.s 			page 10


 514              	.LBE1073:
 515              	.LBB1080:
 516              	.LBB1071:
 517              		.loc 3 826 0
 518 01f6 F0EE613A 		vmov.f32	s7, s3
 519              	.LVL27:
 520              	.LBE1071:
 521              	.LBE1080:
 522              	.LBE1082:
 523              	.LBE1126:
 524              		.loc 1 108 0
 525 01fa DFED951A 		vldr.32	s3, .L405+28
 526              	.LVL28:
 527              	.LBB1127:
 528              	.LBB1083:
 529              	.LBB1081:
 530              	.LBB1079:
 531              	.LBB1078:
 532              	.LBB1077:
 533              		.loc 3 193 0
 534 01fe A8BF     		it	ge
 535 0200 F0EE473A 		vmovge.f32	s7, s14
 536              	.LVL29:
 537              	.LBE1077:
 538              	.LBE1078:
 539              	.LBE1079:
 540              	.LBE1081:
 541              		.loc 2 130 0
 542 0204 63EE853A 		vmul.f32	s7, s7, s10
 543              	.LVL30:
 544              	.LBE1083:
 545              	.LBE1127:
 546              		.loc 1 108 0
 547 0208 64EE211A 		vmul.f32	s3, s8, s3
 548              		.loc 1 107 0
 549 020c C3ED073A 		vstr.32	s7, [r3, #28]
 550 0210 CDED053A 		vstr.32	s7, [sp, #20]
 551              		.loc 1 108 0
 552 0214 76EE213A 		vadd.f32	s7, s12, s3
 553              		.loc 1 111 0
 554 0218 76EE611A 		vsub.f32	s3, s12, s3
 555              		.loc 1 108 0
 556 021c FCEEE33A 		vcvt.u32.f32	s7, s7
 557 0220 CDED013A 		vstr.32	s7, [sp, #4]	@ int
 558 0224 9DF804E0 		ldrb	lr, [sp, #4]	@ zero_extendqisi2
 559 0228 03EE90EA 		vmov	s7, lr	@ int
 560              	.LVL31:
 561              	.LBB1128:
 562              	.LBB1101:
 563              	.LBB1091:
 564              	.LBB1089:
 565              		.loc 3 826 0
 566 022c F8EEE33A 		vcvt.f32.s32	s7, s7
 567 0230 63EEA43A 		vmul.f32	s7, s7, s9
 568 0234 A3EEA51A 		vfma.f32	s2, s7, s11
 569              	.LBE1089:
 570              	.LBE1091:
ARM GAS  /tmp/ccJJl1OT.s 			page 11


 571              	.LBB1092:
 572              	.LBB1093:
 573              	.LBB1094:
 574              	.LBB1095:
 575              		.loc 3 193 0
 576 0238 B4EEC71A 		vcmpe.f32	s2, s14
 577 023c F1EE10FA 		vmrs	APSR_nzcv, FPSCR
 578              	.LBE1095:
 579              	.LBE1094:
 580              	.LBE1093:
 581              	.LBE1092:
 582              	.LBB1099:
 583              	.LBB1090:
 584              		.loc 3 826 0
 585 0240 F0EE413A 		vmov.f32	s7, s2
 586              	.LVL32:
 587              	.LBE1090:
 588              	.LBE1099:
 589              	.LBE1101:
 590              	.LBE1128:
 591              		.loc 1 109 0
 592 0244 9FED831A 		vldr.32	s2, .L405+32
 593              	.LVL33:
 594              	.LBB1129:
 595              	.LBB1102:
 596              	.LBB1100:
 597              	.LBB1098:
 598              	.LBB1097:
 599              	.LBB1096:
 600              		.loc 3 193 0
 601 0248 A8BF     		it	ge
 602 024a F0EE473A 		vmovge.f32	s7, s14
 603              	.LVL34:
 604              	.LBE1096:
 605              	.LBE1097:
 606              	.LBE1098:
 607              	.LBE1100:
 608              		.loc 2 130 0
 609 024e 63EE853A 		vmul.f32	s7, s7, s10
 610              	.LVL35:
 611              	.LBE1102:
 612              	.LBE1129:
 613              		.loc 1 109 0
 614 0252 24EE011A 		vmul.f32	s2, s8, s2
 615              		.loc 1 108 0
 616 0256 C3ED083A 		vstr.32	s7, [r3, #32]
 617 025a CDED063A 		vstr.32	s7, [sp, #24]
 618              		.loc 1 109 0
 619 025e 76EE013A 		vadd.f32	s7, s12, s2
 620              		.loc 1 110 0
 621 0262 36EE411A 		vsub.f32	s2, s12, s2
 622              		.loc 1 109 0
 623 0266 FCEEE33A 		vcvt.u32.f32	s7, s7
 624              		.loc 1 115 0
 625 026a 36EE446A 		vsub.f32	s12, s12, s8
 626              		.loc 1 109 0
 627 026e CDED013A 		vstr.32	s7, [sp, #4]	@ int
ARM GAS  /tmp/ccJJl1OT.s 			page 12


 628 0272 9DF804E0 		ldrb	lr, [sp, #4]	@ zero_extendqisi2
 629 0276 03EE90EA 		vmov	s7, lr	@ int
 630              	.LVL36:
 631              	.LBB1130:
 632              	.LBB1120:
 633              	.LBB1110:
 634              	.LBB1108:
 635              		.loc 3 826 0
 636 027a F8EEE33A 		vcvt.f32.s32	s7, s7
 637 027e 63EEA43A 		vmul.f32	s7, s7, s9
 638 0282 E3EEA50A 		vfma.f32	s1, s7, s11
 639              	.LBE1108:
 640              	.LBE1110:
 641              	.LBB1111:
 642              	.LBB1112:
 643              	.LBB1113:
 644              	.LBB1114:
 645              		.loc 3 193 0
 646 0286 F4EEC70A 		vcmpe.f32	s1, s14
 647 028a F1EE10FA 		vmrs	APSR_nzcv, FPSCR
 648              	.LBE1114:
 649              	.LBE1113:
 650              	.LBE1112:
 651              	.LBE1111:
 652              	.LBB1118:
 653              	.LBB1109:
 654              		.loc 3 826 0
 655 028e F0EE603A 		vmov.f32	s7, s1
 656              	.LVL37:
 657              	.LBE1109:
 658              	.LBE1118:
 659              	.LBB1119:
 660              	.LBB1117:
 661              	.LBB1116:
 662              	.LBB1115:
 663              		.loc 3 193 0
 664 0292 A8BF     		it	ge
 665 0294 F0EE473A 		vmovge.f32	s7, s14
 666              	.LVL38:
 667              	.LBE1115:
 668              	.LBE1116:
 669              	.LBE1117:
 670              	.LBE1119:
 671              		.loc 2 130 0
 672 0298 63EE853A 		vmul.f32	s7, s7, s10
 673              	.LVL39:
 674              	.LBE1120:
 675              	.LBE1130:
 676              		.loc 1 109 0
 677 029c C3ED093A 		vstr.32	s7, [r3, #36]
 678 02a0 CDED073A 		vstr.32	s7, [sp, #28]
 679              		.loc 1 110 0
 680 02a4 FCEEC13A 		vcvt.u32.f32	s7, s2
 681              	.LBB1131:
 682              	.LBB1132:
 683              	.LBB1133:
 684              	.LBB1134:
ARM GAS  /tmp/ccJJl1OT.s 			page 13


 685              		.loc 3 826 0
 686 02a8 B0EE661A 		vmov.f32	s2, s13
 687              	.LBE1134:
 688              	.LBE1133:
 689              	.LBE1132:
 690              	.LBE1131:
 691              		.loc 1 110 0
 692 02ac CDED013A 		vstr.32	s7, [sp, #4]	@ int
 693 02b0 9DF804E0 		ldrb	lr, [sp, #4]	@ zero_extendqisi2
 694 02b4 03EE90EA 		vmov	s7, lr	@ int
 695              	.LVL40:
 696              	.LBB1148:
 697              	.LBB1147:
 698              	.LBB1137:
 699              	.LBB1135:
 700              		.loc 3 826 0
 701 02b8 F8EEE33A 		vcvt.f32.s32	s7, s7
 702 02bc 63EEA43A 		vmul.f32	s7, s7, s9
 703 02c0 A5EEA31A 		vfma.f32	s2, s11, s7
 704              	.LBE1135:
 705              	.LBE1137:
 706              	.LBB1138:
 707              	.LBB1139:
 708              	.LBB1140:
 709              	.LBB1141:
 710              		.loc 3 193 0
 711 02c4 B4EEC71A 		vcmpe.f32	s2, s14
 712 02c8 F1EE10FA 		vmrs	APSR_nzcv, FPSCR
 713              	.LBE1141:
 714              	.LBE1140:
 715              	.LBE1139:
 716              	.LBE1138:
 717              	.LBB1145:
 718              	.LBB1136:
 719              		.loc 3 826 0
 720 02cc F0EE413A 		vmov.f32	s7, s2
 721              	.LVL41:
 722              	.LBE1136:
 723              	.LBE1145:
 724              	.LBB1146:
 725              	.LBB1144:
 726              	.LBB1143:
 727              	.LBB1142:
 728              		.loc 3 193 0
 729 02d0 A8BF     		it	ge
 730 02d2 F0EE473A 		vmovge.f32	s7, s14
 731              	.LVL42:
 732              	.LBE1142:
 733              	.LBE1143:
 734              	.LBE1144:
 735              	.LBE1146:
 736              		.loc 2 130 0
 737 02d6 63EE853A 		vmul.f32	s7, s7, s10
 738              	.LVL43:
 739              	.LBE1147:
 740              	.LBE1148:
 741              		.loc 1 110 0
ARM GAS  /tmp/ccJJl1OT.s 			page 14


 742 02da C3ED0A3A 		vstr.32	s7, [r3, #40]
 743 02de CDED083A 		vstr.32	s7, [sp, #32]
 744              		.loc 1 111 0
 745 02e2 FCEEE13A 		vcvt.u32.f32	s7, s3
 746              	.LBB1149:
 747              	.LBB1150:
 748              	.LBB1151:
 749              	.LBB1152:
 750              		.loc 3 826 0
 751 02e6 F0EE661A 		vmov.f32	s3, s13
 752              	.LBE1152:
 753              	.LBE1151:
 754              	.LBE1150:
 755              	.LBE1149:
 756              		.loc 1 111 0
 757 02ea CDED013A 		vstr.32	s7, [sp, #4]	@ int
 758 02ee 9DF804E0 		ldrb	lr, [sp, #4]	@ zero_extendqisi2
 759 02f2 03EE90EA 		vmov	s7, lr	@ int
 760              	.LVL44:
 761              	.LBB1166:
 762              	.LBB1165:
 763              	.LBB1155:
 764              	.LBB1153:
 765              		.loc 3 826 0
 766 02f6 F8EEE33A 		vcvt.f32.s32	s7, s7
 767 02fa 63EEA43A 		vmul.f32	s7, s7, s9
 768 02fe E5EEA31A 		vfma.f32	s3, s11, s7
 769              	.LBE1153:
 770              	.LBE1155:
 771              	.LBB1156:
 772              	.LBB1157:
 773              	.LBB1158:
 774              	.LBB1159:
 775              		.loc 3 193 0
 776 0302 F4EEC71A 		vcmpe.f32	s3, s14
 777 0306 F1EE10FA 		vmrs	APSR_nzcv, FPSCR
 778              	.LBE1159:
 779              	.LBE1158:
 780              	.LBE1157:
 781              	.LBE1156:
 782              	.LBB1163:
 783              	.LBB1154:
 784              		.loc 3 826 0
 785 030a F0EE613A 		vmov.f32	s7, s3
 786              	.LVL45:
 787              	.LBE1154:
 788              	.LBE1163:
 789              	.LBB1164:
 790              	.LBB1162:
 791              	.LBB1161:
 792              	.LBB1160:
 793              		.loc 3 193 0
 794 030e A8BF     		it	ge
 795 0310 F0EE473A 		vmovge.f32	s7, s14
 796              	.LVL46:
 797              	.LBE1160:
 798              	.LBE1161:
ARM GAS  /tmp/ccJJl1OT.s 			page 15


 799              	.LBE1162:
 800              	.LBE1164:
 801              		.loc 2 130 0
 802 0314 63EE853A 		vmul.f32	s7, s7, s10
 803              	.LVL47:
 804              	.LBE1165:
 805              	.LBE1166:
 806              		.loc 1 111 0
 807 0318 C3ED0B3A 		vstr.32	s7, [r3, #44]
 808 031c CDED093A 		vstr.32	s7, [sp, #36]
 809              		.loc 1 112 0
 810 0320 FCEEC23A 		vcvt.u32.f32	s7, s4
 811              	.LBB1167:
 812              	.LBB1168:
 813              	.LBB1169:
 814              	.LBB1170:
 815              		.loc 3 826 0
 816 0324 B0EE662A 		vmov.f32	s4, s13
 817              	.LBE1170:
 818              	.LBE1169:
 819              	.LBE1168:
 820              	.LBE1167:
 821              		.loc 1 112 0
 822 0328 CDED013A 		vstr.32	s7, [sp, #4]	@ int
 823 032c 9DF804E0 		ldrb	lr, [sp, #4]	@ zero_extendqisi2
 824 0330 03EE90EA 		vmov	s7, lr	@ int
 825              	.LVL48:
 826              	.LBB1184:
 827              	.LBB1183:
 828              	.LBB1173:
 829              	.LBB1171:
 830              		.loc 3 826 0
 831 0334 F8EEE33A 		vcvt.f32.s32	s7, s7
 832 0338 63EEA43A 		vmul.f32	s7, s7, s9
 833 033c A5EEA32A 		vfma.f32	s4, s11, s7
 834              	.LBE1171:
 835              	.LBE1173:
 836              	.LBB1174:
 837              	.LBB1175:
 838              	.LBB1176:
 839              	.LBB1177:
 840              		.loc 3 193 0
 841 0340 B4EEC72A 		vcmpe.f32	s4, s14
 842 0344 F1EE10FA 		vmrs	APSR_nzcv, FPSCR
 843              	.LBE1177:
 844              	.LBE1176:
 845              	.LBE1175:
 846              	.LBE1174:
 847              	.LBB1181:
 848              	.LBB1172:
 849              		.loc 3 826 0
 850 0348 F0EE423A 		vmov.f32	s7, s4
 851              	.LVL49:
 852              	.LBE1172:
 853              	.LBE1181:
 854              	.LBB1182:
 855              	.LBB1180:
ARM GAS  /tmp/ccJJl1OT.s 			page 16


 856              	.LBB1179:
 857              	.LBB1178:
 858              		.loc 3 193 0
 859 034c A8BF     		it	ge
 860 034e F0EE473A 		vmovge.f32	s7, s14
 861              	.LVL50:
 862              	.LBE1178:
 863              	.LBE1179:
 864              	.LBE1180:
 865              	.LBE1182:
 866              		.loc 2 130 0
 867 0352 63EE853A 		vmul.f32	s7, s7, s10
 868              	.LVL51:
 869              	.LBE1183:
 870              	.LBE1184:
 871              		.loc 1 112 0
 872 0356 C3ED0C3A 		vstr.32	s7, [r3, #48]
 873 035a CDED0A3A 		vstr.32	s7, [sp, #40]
 874              		.loc 1 113 0
 875 035e FCEEE23A 		vcvt.u32.f32	s7, s5
 876              	.LBB1185:
 877              	.LBB1186:
 878              	.LBB1187:
 879              	.LBB1188:
 880              		.loc 3 826 0
 881 0362 F0EE662A 		vmov.f32	s5, s13
 882              	.LBE1188:
 883              	.LBE1187:
 884              	.LBE1186:
 885              	.LBE1185:
 886              		.loc 1 113 0
 887 0366 CDED013A 		vstr.32	s7, [sp, #4]	@ int
 888 036a 9DF804E0 		ldrb	lr, [sp, #4]	@ zero_extendqisi2
 889 036e 03EE90EA 		vmov	s7, lr	@ int
 890              	.LVL52:
 891              	.LBB1205:
 892              	.LBB1203:
 893              	.LBB1192:
 894              	.LBB1189:
 895              		.loc 3 826 0
 896 0372 F8EEE33A 		vcvt.f32.s32	s7, s7
 897              	.LBE1189:
 898              	.LBE1192:
 899              	.LBE1203:
 900              	.LBE1205:
 901              		.loc 1 113 0
 902 0376 DFF8E0E0 		ldr	lr, .L405+36
 903              	.LVL53:
 904              	.LBB1206:
 905              	.LBB1204:
 906              	.LBB1193:
 907              	.LBB1190:
 908              		.loc 3 826 0
 909 037a 63EEA43A 		vmul.f32	s7, s7, s9
 910 037e E5EEA32A 		vfma.f32	s5, s11, s7
 911              	.LBE1190:
 912              	.LBE1193:
ARM GAS  /tmp/ccJJl1OT.s 			page 17


 913              	.LBB1194:
 914              	.LBB1195:
 915              	.LBB1196:
 916              	.LBB1197:
 917              		.loc 3 193 0
 918 0382 F4EEC72A 		vcmpe.f32	s5, s14
 919 0386 F1EE10FA 		vmrs	APSR_nzcv, FPSCR
 920              	.LBE1197:
 921              	.LBE1196:
 922              	.LBE1195:
 923              	.LBE1194:
 924              	.LBB1201:
 925              	.LBB1191:
 926              		.loc 3 826 0
 927 038a F0EE623A 		vmov.f32	s7, s5
 928              	.LVL54:
 929              	.LBE1191:
 930              	.LBE1201:
 931              	.LBB1202:
 932              	.LBB1200:
 933              	.LBB1199:
 934              	.LBB1198:
 935              		.loc 3 193 0
 936 038e A8BF     		it	ge
 937 0390 F0EE473A 		vmovge.f32	s7, s14
 938              	.LVL55:
 939              	.LBE1198:
 940              	.LBE1199:
 941              	.LBE1200:
 942              	.LBE1202:
 943              		.loc 2 130 0
 944 0394 63EE853A 		vmul.f32	s7, s7, s10
 945              	.LVL56:
 946              	.LBE1204:
 947              	.LBE1206:
 948              		.loc 1 113 0
 949 0398 CEED0D3A 		vstr.32	s7, [lr, #52]
 950 039c CDED0B3A 		vstr.32	s7, [sp, #44]
 951              		.loc 1 114 0
 952 03a0 FCEEC33A 		vcvt.u32.f32	s7, s6
 953 03a4 CDED013A 		vstr.32	s7, [sp, #4]	@ int
 954 03a8 9DF804C0 		ldrb	ip, [sp, #4]	@ zero_extendqisi2
 955 03ac 03EE90CA 		vmov	s7, ip	@ int
 956              	.LVL57:
 957              	.LBB1207:
 958              	.LBB1208:
 959              	.LBB1209:
 960              	.LBB1210:
 961              		.loc 3 826 0
 962 03b0 F8EEE33A 		vcvt.f32.s32	s7, s7
 963 03b4 63EEA43A 		vmul.f32	s7, s7, s9
 964 03b8 E5EEA36A 		vfma.f32	s13, s11, s7
 965              	.LVL58:
 966              	.LBE1210:
 967              	.LBE1209:
 968              	.LBB1211:
 969              	.LBB1212:
ARM GAS  /tmp/ccJJl1OT.s 			page 18


 970              	.LBB1213:
 971              	.LBB1214:
 972              		.loc 3 193 0
 973 03bc F4EEC76A 		vcmpe.f32	s13, s14
 974 03c0 F1EE10FA 		vmrs	APSR_nzcv, FPSCR
 975 03c4 A8BF     		it	ge
 976 03c6 F0EE476A 		vmovge.f32	s13, s14
 977              	.LVL59:
 978              	.LBE1214:
 979              	.LBE1213:
 980              	.LBE1212:
 981              	.LBE1211:
 982              		.loc 2 130 0
 983 03ca 66EE856A 		vmul.f32	s13, s13, s10
 984              	.LVL60:
 985              	.LBE1208:
 986              	.LBE1207:
 987              	.LBB1215:
 988              	.LBB1216:
 989              	.LBB1217:
 990              	.LBB1218:
 991              	.LBB1219:
 992              	.LBB1220:
 993              		.loc 4 85 0
 994 03ce 972C     		cmp	r4, #151
 995              	.LBE1220:
 996              	.LBE1219:
 997              	.LBE1218:
 998              	.LBE1217:
 999              	.LBE1216:
 1000              	.LBE1215:
 1001              		.loc 1 114 0
 1002 03d0 CEED0E6A 		vstr.32	s13, [lr, #56]
 1003 03d4 CDED0C6A 		vstr.32	s13, [sp, #48]
 1004              		.loc 1 115 0
 1005 03d8 FCEEC66A 		vcvt.u32.f32	s13, s12
 1006              	.LBB1244:
 1007              	.LBB1241:
 1008              	.LBB1226:
 1009              	.LBB1223:
 1010              	.LBB1222:
 1011              	.LBB1221:
 1012              		.loc 4 85 0
 1013 03dc 28BF     		it	cs
 1014 03de 9724     		movcs	r4, #151
 1015              	.LBE1221:
 1016              	.LBE1222:
 1017              	.LBE1223:
 1018              	.LBE1226:
 1019              	.LBE1241:
 1020              	.LBE1244:
 1021              		.loc 1 115 0
 1022 03e0 CDED016A 		vstr.32	s13, [sp, #4]	@ int
 1023 03e4 9DF804C0 		ldrb	ip, [sp, #4]	@ zero_extendqisi2
 1024              	.LBB1245:
 1025              	.LBB1242:
 1026              	.LBB1227:
ARM GAS  /tmp/ccJJl1OT.s 			page 19


 1027              	.LBB1228:
 1028              	.LBB1229:
 1029              	.LBB1230:
 1030              		.loc 4 85 0
 1031 03e8 972D     		cmp	r5, #151
 1032 03ea 28BF     		it	cs
 1033 03ec 9725     		movcs	r5, #151
 1034              	.LBE1230:
 1035              	.LBE1229:
 1036              	.LBE1228:
 1037              	.LBE1227:
 1038              	.LBE1242:
 1039              	.LBE1245:
 1040              		.loc 1 115 0
 1041 03ee 06EE90CA 		vmov	s13, ip	@ int
 1042              	.LVL61:
 1043              	.LBB1246:
 1044              	.LBB1243:
 1045              	.LBB1232:
 1046              	.LBB1224:
 1047              		.loc 2 115 0
 1048 03f2 06EB8404 		add	r4, r6, r4, lsl #2
 1049              	.LBE1224:
 1050              	.LBE1232:
 1051              	.LBB1233:
 1052              	.LBB1231:
 1053 03f6 06EB8506 		add	r6, r6, r5, lsl #2
 1054              	.LBE1231:
 1055              	.LBE1233:
 1056              	.LBB1234:
 1057              	.LBB1225:
 1058 03fa 94ED006A 		vldr.32	s12, [r4]
 1059              	.LVL62:
 1060              	.LBE1225:
 1061              	.LBE1234:
 1062              	.LBB1235:
 1063              	.LBB1236:
 1064              		.loc 3 826 0
 1065 03fe D6ED005A 		vldr.32	s11, [r6]
 1066 0402 F8EEE66A 		vcvt.f32.s32	s13, s13
 1067 0406 75EEC65A 		vsub.f32	s11, s11, s12
 1068 040a 66EEA44A 		vmul.f32	s9, s13, s9
 1069 040e F0EE466A 		vmov.f32	s13, s12
 1070 0412 E5EEA46A 		vfma.f32	s13, s11, s9
 1071              	.LVL63:
 1072              	.LBE1236:
 1073              	.LBE1235:
 1074              	.LBB1237:
 1075              	.LBB1238:
 1076              	.LBB1239:
 1077              	.LBB1240:
 1078              		.loc 3 193 0
 1079 0416 F4EEC76A 		vcmpe.f32	s13, s14
 1080 041a F1EE10FA 		vmrs	APSR_nzcv, FPSCR
 1081 041e B8BF     		it	lt
 1082 0420 B0EE667A 		vmovlt.f32	s14, s13
 1083              	.LVL64:
ARM GAS  /tmp/ccJJl1OT.s 			page 20


 1084              	.LBE1240:
 1085              	.LBE1239:
 1086              	.LBE1238:
 1087              	.LBE1237:
 1088              		.loc 2 130 0
 1089 0424 27EE057A 		vmul.f32	s14, s14, s10
 1090              	.LVL65:
 1091              	.LBE1243:
 1092              	.LBE1246:
 1093              		.loc 1 115 0
 1094 0428 8EED0F7A 		vstr.32	s14, [lr, #60]
 1095 042c 8DED0D7A 		vstr.32	s14, [sp, #52]
 1096              		.loc 1 116 0
 1097 0430 00F0E4BC 		b	.L9
 1098              	.L406:
 1099              		.align	2
 1100              	.L405:
 1101 0434 00000000 		.word	midi_to_hz_lut_f
 1102 0438 8180803B 		.word	998277249
 1103 043c 3EC3AE37 		.word	934200126
 1104 0440 CDCC4C3F 		.word	1061997773
 1105 0444 49FFB846 		.word	1186529097
 1106 0448 9A99193F 		.word	1058642330
 1107 044c CDCCCC3E 		.word	1053609165
 1108 0450 CDCC4C3E 		.word	1045220557
 1109 0454 CDCCCC3D 		.word	1036831949
 1110 0458 00000000 		.word	.LANCHOR0
 1111              	.LVL66:
 1112              	.L12:
 1113              		.loc 1 118 0
 1114 045c 8488     		ldrh	r4, [r0, #4]
 1115 045e 93ED1C1A 		vldr.32	s2, [r3, #112]
 1116 0462 1D7B     		ldrb	r5, [r3, #12]	@ zero_extendqisi2
 1117              	.LBB1247:
 1118              	.LBB1248:
 1119              	.LBB1249:
 1120              	.LBB1250:
 1121              		.loc 2 115 0
 1122 0464 BC4E     		ldr	r6, .L407
 1123              	.LVL67:
 1124              	.LBE1250:
 1125              	.LBE1249:
 1126              		.loc 2 128 0
 1127 0466 DFEDC01A 		vldr.32	s3, .L407+16
 1128              		.loc 2 130 0
 1129 046a DFEDC05A 		vldr.32	s11, .L407+20
 1130              	.LBE1248:
 1131              	.LBE1247:
 1132              		.loc 1 119 0
 1133 046e DFEDBB2A 		vldr.32	s5, .L407+4
 1134              		.loc 1 120 0
 1135 0472 9FEDBB4A 		vldr.32	s8, .L407+8
 1136              		.loc 1 118 0
 1137 0476 4FEA142C 		lsr	ip, r4, #8
 1138 047a E4B2     		uxtb	r4, r4
 1139 047c 07EE104A 		vmov	s14, r4	@ int
 1140 0480 B8EEC76A 		vcvt.f32.s32	s12, s14
ARM GAS  /tmp/ccJJl1OT.s 			page 21


 1141 0484 6544     		add	r5, r5, ip
 1142 0486 36EE017A 		vadd.f32	s14, s12, s2
 1143 048a EDB2     		uxtb	r5, r5
 1144 048c BCEEC77A 		vcvt.u32.f32	s14, s14
 1145              	.LBB1287:
 1146              	.LBB1283:
 1147              	.LBB1258:
 1148              	.LBB1255:
 1149              	.LBB1251:
 1150              	.LBB1252:
 1151              		.loc 4 85 0
 1152 0490 962D     		cmp	r5, #150
 1153              	.LBE1252:
 1154              	.LBE1251:
 1155              	.LBE1255:
 1156              	.LBE1258:
 1157              	.LBE1283:
 1158              	.LBE1287:
 1159              		.loc 1 118 0
 1160 0492 8DED017A 		vstr.32	s14, [sp, #4]	@ int
 1161 0496 9DF80440 		ldrb	r4, [sp, #4]	@ zero_extendqisi2
 1162              	.LBB1288:
 1163              	.LBB1284:
 1164              	.LBB1259:
 1165              	.LBB1260:
 1166              	.LBB1261:
 1167              	.LBB1262:
 1168              		.loc 3 193 0
 1169 049a 9FEDB57A 		vldr.32	s14, .L407+24
 1170              	.LBE1262:
 1171              	.LBE1261:
 1172              	.LBE1260:
 1173              	.LBE1259:
 1174              		.loc 2 126 0
 1175 049e 05F1010E 		add	lr, r5, #1
 1176 04a2 5FFA8EFE 		uxtb	lr, lr
 1177              	.LBE1284:
 1178              	.LBE1288:
 1179              		.loc 1 118 0
 1180 04a6 05EE104A 		vmov	s10, r4	@ int
 1181              	.LVL68:
 1182              	.LBB1289:
 1183              	.LBB1285:
 1184              	.LBB1266:
 1185              	.LBB1256:
 1186              	.LBB1254:
 1187              	.LBB1253:
 1188              		.loc 4 85 0
 1189 04aa 94BF     		ite	ls
 1190 04ac 2C46     		movls	r4, r5
 1191              	.LVL69:
 1192 04ae 9724     		movhi	r4, #151
 1193              	.LVL70:
 1194              	.LBE1253:
 1195              	.LBE1254:
 1196              		.loc 2 115 0
 1197 04b0 06EB8404 		add	r4, r6, r4, lsl #2
ARM GAS  /tmp/ccJJl1OT.s 			page 22


 1198              	.LBE1256:
 1199              	.LBE1266:
 1200              	.LBB1267:
 1201              	.LBB1268:
 1202              	.LBB1269:
 1203              	.LBB1270:
 1204              		.loc 4 85 0
 1205 04b4 BEF1960F 		cmp	lr, #150
 1206              	.LBE1270:
 1207              	.LBE1269:
 1208              	.LBE1268:
 1209              	.LBE1267:
 1210              	.LBB1274:
 1211              	.LBB1257:
 1212              		.loc 2 115 0
 1213 04b8 D4ED006A 		vldr.32	s13, [r4]
 1214              	.LVL71:
 1215              	.LBE1257:
 1216              	.LBE1274:
 1217              	.LBB1275:
 1218              	.LBB1273:
 1219              	.LBB1272:
 1220              	.LBB1271:
 1221              		.loc 4 85 0
 1222 04bc 94BF     		ite	ls
 1223 04be 7446     		movls	r4, lr
 1224 04c0 9724     		movhi	r4, #151
 1225              	.LVL72:
 1226              	.LBE1271:
 1227              	.LBE1272:
 1228              		.loc 2 115 0
 1229 04c2 06EB8404 		add	r4, r6, r4, lsl #2
 1230              	.LBE1273:
 1231              	.LBE1275:
 1232              	.LBB1276:
 1233              	.LBB1277:
 1234              		.loc 3 826 0
 1235 04c6 94ED002A 		vldr.32	s4, [r4]
 1236              	.LBE1277:
 1237              	.LBE1276:
 1238              		.loc 2 128 0
 1239 04ca B8EEC55A 		vcvt.f32.s32	s10, s10
 1240              	.LVL73:
 1241              	.LBB1280:
 1242              	.LBB1278:
 1243              		.loc 3 826 0
 1244 04ce 32EE662A 		vsub.f32	s4, s4, s13
 1245              	.LBE1278:
 1246              	.LBE1280:
 1247              		.loc 2 128 0
 1248 04d2 25EE215A 		vmul.f32	s10, s10, s3
 1249              	.LVL74:
 1250              	.LBB1281:
 1251              	.LBB1279:
 1252              		.loc 3 826 0
 1253 04d6 F0EE664A 		vmov.f32	s9, s13
 1254 04da E5EE024A 		vfma.f32	s9, s10, s4
ARM GAS  /tmp/ccJJl1OT.s 			page 23


 1255              	.LVL75:
 1256              	.LBE1279:
 1257              	.LBE1281:
 1258              	.LBE1285:
 1259              	.LBE1289:
 1260              		.loc 1 119 0
 1261 04de 61EE222A 		vmul.f32	s5, s2, s5
 1262              	.LBB1290:
 1263              	.LBB1286:
 1264              	.LBB1282:
 1265              	.LBB1265:
 1266              	.LBB1264:
 1267              	.LBB1263:
 1268              		.loc 3 193 0
 1269 04e2 F4EEC74A 		vcmpe.f32	s9, s14
 1270 04e6 F1EE10FA 		vmrs	APSR_nzcv, FPSCR
 1271 04ea A8BF     		it	ge
 1272 04ec F0EE474A 		vmovge.f32	s9, s14
 1273              	.LVL76:
 1274              	.LBE1263:
 1275              	.LBE1264:
 1276              	.LBE1265:
 1277              	.LBE1282:
 1278              		.loc 2 130 0
 1279 04f0 64EEA54A 		vmul.f32	s9, s9, s11
 1280              	.LVL77:
 1281              	.LBE1286:
 1282              	.LBE1290:
 1283              		.loc 1 120 0
 1284 04f4 21EE044A 		vmul.f32	s8, s2, s8
 1285              		.loc 1 118 0
 1286 04f8 C3ED044A 		vstr.32	s9, [r3, #16]
 1287 04fc CDED024A 		vstr.32	s9, [sp, #8]
 1288              		.loc 1 119 0
 1289 0500 76EE224A 		vadd.f32	s9, s12, s5
 1290              		.loc 1 122 0
 1291 0504 76EE622A 		vsub.f32	s5, s12, s5
 1292              		.loc 1 119 0
 1293 0508 FCEEE44A 		vcvt.u32.f32	s9, s9
 1294 050c CDED014A 		vstr.32	s9, [sp, #4]	@ int
 1295 0510 9DF80440 		ldrb	r4, [sp, #4]	@ zero_extendqisi2
 1296 0514 03EE104A 		vmov	s6, r4	@ int
 1297              	.LVL78:
 1298              	.LBB1291:
 1299              	.LBB1292:
 1300              		.loc 2 128 0
 1301 0518 B8EEC33A 		vcvt.f32.s32	s6, s6
 1302              	.LBB1293:
 1303              	.LBB1294:
 1304              		.loc 3 826 0
 1305 051c F0EE664A 		vmov.f32	s9, s13
 1306              	.LBE1294:
 1307              	.LBE1293:
 1308              		.loc 2 128 0
 1309 0520 23EE213A 		vmul.f32	s6, s6, s3
 1310              	.LVL79:
 1311              	.LBB1296:
ARM GAS  /tmp/ccJJl1OT.s 			page 24


 1312              	.LBB1295:
 1313              		.loc 3 826 0
 1314 0524 E3EE024A 		vfma.f32	s9, s6, s4
 1315              	.LVL80:
 1316              	.LBE1295:
 1317              	.LBE1296:
 1318              	.LBB1297:
 1319              	.LBB1298:
 1320              	.LBB1299:
 1321              	.LBB1300:
 1322              		.loc 3 193 0
 1323 0528 F4EEC74A 		vcmpe.f32	s9, s14
 1324 052c F1EE10FA 		vmrs	APSR_nzcv, FPSCR
 1325 0530 A8BF     		it	ge
 1326 0532 F0EE474A 		vmovge.f32	s9, s14
 1327              	.LVL81:
 1328              	.LBE1300:
 1329              	.LBE1299:
 1330              	.LBE1298:
 1331              	.LBE1297:
 1332              		.loc 2 130 0
 1333 0536 64EEA54A 		vmul.f32	s9, s9, s11
 1334              	.LVL82:
 1335              	.LBE1292:
 1336              	.LBE1291:
 1337              		.loc 1 119 0
 1338 053a C3ED054A 		vstr.32	s9, [r3, #20]
 1339 053e CDED034A 		vstr.32	s9, [sp, #12]
 1340              		.loc 1 120 0
 1341 0542 76EE044A 		vadd.f32	s9, s12, s8
 1342              		.loc 1 121 0
 1343 0546 36EE444A 		vsub.f32	s8, s12, s8
 1344              		.loc 1 120 0
 1345 054a FCEEE44A 		vcvt.u32.f32	s9, s9
 1346              		.loc 1 123 0
 1347 054e 36EE416A 		vsub.f32	s12, s12, s2
 1348              		.loc 1 120 0
 1349 0552 CDED014A 		vstr.32	s9, [sp, #4]	@ int
 1350 0556 9DF80440 		ldrb	r4, [sp, #4]	@ zero_extendqisi2
 1351 055a 03EE904A 		vmov	s7, r4	@ int
 1352              	.LVL83:
 1353              	.LBB1301:
 1354              	.LBB1302:
 1355              		.loc 2 128 0
 1356 055e F8EEE33A 		vcvt.f32.s32	s7, s7
 1357              	.LBB1303:
 1358              	.LBB1304:
 1359              		.loc 3 826 0
 1360 0562 F0EE664A 		vmov.f32	s9, s13
 1361              	.LBE1304:
 1362              	.LBE1303:
 1363              		.loc 2 128 0
 1364 0566 63EEA13A 		vmul.f32	s7, s7, s3
 1365              	.LVL84:
 1366              	.LBB1306:
 1367              	.LBB1305:
 1368              		.loc 3 826 0
ARM GAS  /tmp/ccJJl1OT.s 			page 25


 1369 056a E3EE824A 		vfma.f32	s9, s7, s4
 1370              	.LVL85:
 1371              	.LBE1305:
 1372              	.LBE1306:
 1373              	.LBB1307:
 1374              	.LBB1308:
 1375              	.LBB1309:
 1376              	.LBB1310:
 1377              		.loc 3 193 0
 1378 056e F4EEC74A 		vcmpe.f32	s9, s14
 1379 0572 F1EE10FA 		vmrs	APSR_nzcv, FPSCR
 1380 0576 A8BF     		it	ge
 1381 0578 F0EE474A 		vmovge.f32	s9, s14
 1382              	.LVL86:
 1383              	.LBE1310:
 1384              	.LBE1309:
 1385              	.LBE1308:
 1386              	.LBE1307:
 1387              		.loc 2 130 0
 1388 057c 64EEA54A 		vmul.f32	s9, s9, s11
 1389              	.LVL87:
 1390              	.LBE1302:
 1391              	.LBE1301:
 1392              		.loc 1 120 0
 1393 0580 C3ED064A 		vstr.32	s9, [r3, #24]
 1394 0584 CDED044A 		vstr.32	s9, [sp, #16]
 1395              		.loc 1 121 0
 1396 0588 FCEEC44A 		vcvt.u32.f32	s9, s8
 1397 058c CDED014A 		vstr.32	s9, [sp, #4]	@ int
 1398 0590 9DF80440 		ldrb	r4, [sp, #4]	@ zero_extendqisi2
 1399 0594 04EE104A 		vmov	s8, r4	@ int
 1400              	.LVL88:
 1401              	.LBB1311:
 1402              	.LBB1312:
 1403              		.loc 2 128 0
 1404 0598 B8EEC44A 		vcvt.f32.s32	s8, s8
 1405              	.LBB1313:
 1406              	.LBB1314:
 1407              		.loc 3 826 0
 1408 059c F0EE664A 		vmov.f32	s9, s13
 1409              	.LBE1314:
 1410              	.LBE1313:
 1411              		.loc 2 128 0
 1412 05a0 24EE214A 		vmul.f32	s8, s8, s3
 1413              	.LVL89:
 1414              	.LBB1316:
 1415              	.LBB1315:
 1416              		.loc 3 826 0
 1417 05a4 E4EE024A 		vfma.f32	s9, s8, s4
 1418              	.LVL90:
 1419              	.LBE1315:
 1420              	.LBE1316:
 1421              	.LBB1317:
 1422              	.LBB1318:
 1423              	.LBB1319:
 1424              	.LBB1320:
 1425              		.loc 3 193 0
ARM GAS  /tmp/ccJJl1OT.s 			page 26


 1426 05a8 F4EEC74A 		vcmpe.f32	s9, s14
 1427 05ac F1EE10FA 		vmrs	APSR_nzcv, FPSCR
 1428 05b0 A8BF     		it	ge
 1429 05b2 F0EE474A 		vmovge.f32	s9, s14
 1430              	.LVL91:
 1431              	.LBE1320:
 1432              	.LBE1319:
 1433              	.LBE1318:
 1434              	.LBE1317:
 1435              		.loc 2 130 0
 1436 05b6 64EEA54A 		vmul.f32	s9, s9, s11
 1437              	.LVL92:
 1438              	.LBE1312:
 1439              	.LBE1311:
 1440              		.loc 1 121 0
 1441 05ba C3ED074A 		vstr.32	s9, [r3, #28]
 1442 05be CDED054A 		vstr.32	s9, [sp, #20]
 1443              		.loc 1 122 0
 1444 05c2 FCEEE24A 		vcvt.u32.f32	s9, s5
 1445 05c6 CDED014A 		vstr.32	s9, [sp, #4]	@ int
 1446 05ca 9DF80440 		ldrb	r4, [sp, #4]	@ zero_extendqisi2
 1447 05ce 04EE904A 		vmov	s9, r4	@ int
 1448              	.LVL93:
 1449              	.LBB1321:
 1450              	.LBB1322:
 1451              		.loc 2 128 0
 1452 05d2 F8EEE44A 		vcvt.f32.s32	s9, s9
 1453 05d6 64EEA14A 		vmul.f32	s9, s9, s3
 1454              	.LVL94:
 1455              	.LBB1323:
 1456              	.LBB1324:
 1457              		.loc 3 826 0
 1458 05da E4EE826A 		vfma.f32	s13, s9, s4
 1459              	.LVL95:
 1460              	.LBE1324:
 1461              	.LBE1323:
 1462              	.LBB1325:
 1463              	.LBB1326:
 1464              	.LBB1327:
 1465              	.LBB1328:
 1466              		.loc 3 193 0
 1467 05de F4EEC76A 		vcmpe.f32	s13, s14
 1468 05e2 F1EE10FA 		vmrs	APSR_nzcv, FPSCR
 1469 05e6 A8BF     		it	ge
 1470 05e8 F0EE476A 		vmovge.f32	s13, s14
 1471              	.LVL96:
 1472              	.LBE1328:
 1473              	.LBE1327:
 1474              	.LBE1326:
 1475              	.LBE1325:
 1476              		.loc 2 130 0
 1477 05ec 66EEA56A 		vmul.f32	s13, s13, s11
 1478              	.LVL97:
 1479              	.LBE1322:
 1480              	.LBE1321:
 1481              	.LBB1329:
 1482              	.LBB1330:
ARM GAS  /tmp/ccJJl1OT.s 			page 27


 1483              	.LBB1331:
 1484              	.LBB1332:
 1485              	.LBB1333:
 1486              	.LBB1334:
 1487              		.loc 4 85 0
 1488 05f0 972D     		cmp	r5, #151
 1489              	.LBE1334:
 1490              	.LBE1333:
 1491              	.LBE1332:
 1492              	.LBE1331:
 1493              	.LBE1330:
 1494              	.LBE1329:
 1495              		.loc 1 122 0
 1496 05f2 C3ED086A 		vstr.32	s13, [r3, #32]
 1497 05f6 CDED066A 		vstr.32	s13, [sp, #24]
 1498              		.loc 1 123 0
 1499 05fa FCEEC66A 		vcvt.u32.f32	s13, s12
 1500              	.LBB1367:
 1501              	.LBB1359:
 1502              	.LBB1339:
 1503              	.LBB1337:
 1504              	.LBB1336:
 1505              	.LBB1335:
 1506              		.loc 4 85 0
 1507 05fe 28BF     		it	cs
 1508 0600 9725     		movcs	r5, #151
 1509              	.LBE1335:
 1510              	.LBE1336:
 1511              	.LBE1337:
 1512              	.LBE1339:
 1513              	.LBE1359:
 1514              	.LBE1367:
 1515              		.loc 1 123 0
 1516 0602 CDED016A 		vstr.32	s13, [sp, #4]	@ int
 1517              	.LBB1368:
 1518              	.LBB1360:
 1519              	.LBB1340:
 1520              	.LBB1338:
 1521              		.loc 2 115 0
 1522 0606 06EB8505 		add	r5, r6, r5, lsl #2
 1523 060a D5ED006A 		vldr.32	s13, [r5]
 1524              	.LBE1338:
 1525              	.LBE1340:
 1526              	.LBE1360:
 1527              	.LBE1368:
 1528              		.loc 1 123 0
 1529 060e 9DF80440 		ldrb	r4, [sp, #4]	@ zero_extendqisi2
 1530              	.LBB1369:
 1531              	.LBB1361:
 1532              	.LBB1341:
 1533              	.LBB1342:
 1534              	.LBB1343:
 1535              	.LBB1344:
 1536              		.loc 4 85 0
 1537 0612 7546     		mov	r5, lr
 1538 0614 972D     		cmp	r5, #151
 1539              	.LBE1344:
ARM GAS  /tmp/ccJJl1OT.s 			page 28


 1540              	.LBE1343:
 1541              	.LBE1342:
 1542              	.LBE1341:
 1543              	.LBE1361:
 1544              	.LBE1369:
 1545              		.loc 1 123 0
 1546 0616 02EE904A 		vmov	s5, r4	@ int
 1547              	.LVL98:
 1548              	.LBB1370:
 1549              	.LBB1362:
 1550              	.LBB1348:
 1551              	.LBB1347:
 1552              	.LBB1346:
 1553              	.LBB1345:
 1554              		.loc 4 85 0
 1555 061a 28BF     		it	cs
 1556 061c 9725     		movcs	r5, #151
 1557              	.LVL99:
 1558              	.LBE1345:
 1559              	.LBE1346:
 1560              		.loc 2 115 0
 1561 061e 06EB8505 		add	r5, r6, r5, lsl #2
 1562              	.LBE1347:
 1563              	.LBE1348:
 1564              	.LBB1349:
 1565              	.LBB1350:
 1566              		.loc 3 826 0
 1567 0622 95ED006A 		vldr.32	s12, [r5]
 1568              	.LBE1350:
 1569              	.LBE1349:
 1570              	.LBE1362:
 1571              	.LBE1370:
 1572              		.loc 1 124 0
 1573 0626 5C7B     		ldrb	r4, [r3, #13]	@ zero_extendqisi2
 1574              	.LVL100:
 1575              	.LBB1371:
 1576              	.LBB1363:
 1577              		.loc 2 128 0
 1578 0628 F8EEE22A 		vcvt.f32.s32	s5, s5
 1579              	.LVL101:
 1580              	.LBB1353:
 1581              	.LBB1351:
 1582              		.loc 3 826 0
 1583 062c 36EE666A 		vsub.f32	s12, s12, s13
 1584              	.LBE1351:
 1585              	.LBE1353:
 1586              		.loc 2 128 0
 1587 0630 62EEA12A 		vmul.f32	s5, s5, s3
 1588              	.LVL102:
 1589              	.LBE1363:
 1590              	.LBE1371:
 1591              		.loc 1 124 0
 1592 0634 6444     		add	r4, r4, ip
 1593              	.LBB1372:
 1594              	.LBB1364:
 1595              	.LBB1354:
 1596              	.LBB1352:
ARM GAS  /tmp/ccJJl1OT.s 			page 29


 1597              		.loc 3 826 0
 1598 0636 E2EE866A 		vfma.f32	s13, s5, s12
 1599              	.LVL103:
 1600              	.LBE1352:
 1601              	.LBE1354:
 1602              	.LBE1364:
 1603              	.LBE1372:
 1604              		.loc 1 124 0
 1605 063a E4B2     		uxtb	r4, r4
 1606              	.LBB1373:
 1607              	.LBB1365:
 1608              	.LBB1355:
 1609              	.LBB1356:
 1610              	.LBB1357:
 1611              	.LBB1358:
 1612              		.loc 3 193 0
 1613 063c F4EEC76A 		vcmpe.f32	s13, s14
 1614 0640 F1EE10FA 		vmrs	APSR_nzcv, FPSCR
 1615 0644 A8BF     		it	ge
 1616 0646 F0EE476A 		vmovge.f32	s13, s14
 1617              	.LVL104:
 1618              	.LBE1358:
 1619              	.LBE1357:
 1620              	.LBE1356:
 1621              	.LBE1355:
 1622              	.LBE1365:
 1623              	.LBE1373:
 1624              	.LBB1374:
 1625              	.LBB1375:
 1626              	.LBB1376:
 1627              	.LBB1377:
 1628              	.LBB1378:
 1629              	.LBB1379:
 1630              		.loc 4 85 0
 1631 064a 962C     		cmp	r4, #150
 1632 064c 98BF     		it	ls
 1633 064e 2546     		movls	r5, r4
 1634              	.LBE1379:
 1635              	.LBE1378:
 1636              	.LBE1377:
 1637              	.LBE1376:
 1638              	.LBE1375:
 1639              	.LBE1374:
 1640              	.LBB1407:
 1641              	.LBB1366:
 1642              		.loc 2 130 0
 1643 0650 66EEA56A 		vmul.f32	s13, s13, s11
 1644              	.LVL105:
 1645              	.LBE1366:
 1646              	.LBE1407:
 1647              	.LBB1408:
 1648              	.LBB1404:
 1649              	.LBB1384:
 1650              	.LBB1382:
 1651              	.LBB1381:
 1652              	.LBB1380:
 1653              		.loc 4 85 0
ARM GAS  /tmp/ccJJl1OT.s 			page 30


 1654 0654 88BF     		it	hi
 1655 0656 9725     		movhi	r5, #151
 1656              	.LVL106:
 1657              	.LBE1380:
 1658              	.LBE1381:
 1659              		.loc 2 115 0
 1660 0658 06EB8505 		add	r5, r6, r5, lsl #2
 1661              	.LBE1382:
 1662              	.LBE1384:
 1663              	.LBE1404:
 1664              	.LBE1408:
 1665              		.loc 1 123 0
 1666 065c C3ED096A 		vstr.32	s13, [r3, #36]
 1667 0660 CDED076A 		vstr.32	s13, [sp, #28]
 1668              	.LBB1409:
 1669              	.LBB1405:
 1670              	.LBB1385:
 1671              	.LBB1383:
 1672              		.loc 2 115 0
 1673 0664 D5ED006A 		vldr.32	s13, [r5]
 1674              	.LVL107:
 1675              	.LBE1383:
 1676              	.LBE1385:
 1677              		.loc 2 126 0
 1678 0668 651C     		adds	r5, r4, #1
 1679 066a EDB2     		uxtb	r5, r5
 1680              	.LVL108:
 1681              	.LBB1386:
 1682              	.LBB1387:
 1683              	.LBB1388:
 1684              	.LBB1389:
 1685              		.loc 4 85 0
 1686 066c 962D     		cmp	r5, #150
 1687 066e 94BF     		ite	ls
 1688 0670 AE46     		movls	lr, r5
 1689 0672 4FF0970E 		movhi	lr, #151
 1690              	.LVL109:
 1691              	.LBE1389:
 1692              	.LBE1388:
 1693              		.loc 2 115 0
 1694 0676 06EB8E0E 		add	lr, r6, lr, lsl #2
 1695              	.LBE1387:
 1696              	.LBE1386:
 1697              	.LBB1390:
 1698              	.LBB1391:
 1699              		.loc 3 826 0
 1700 067a 9EED006A 		vldr.32	s12, [lr]
 1701              	.LBE1391:
 1702              	.LBE1390:
 1703              	.LBE1405:
 1704              	.LBE1409:
 1705              		.loc 1 127 0
 1706 067e DFF8E4E0 		ldr	lr, .L407+12
 1707              	.LBB1410:
 1708              	.LBB1406:
 1709              	.LBB1394:
 1710              	.LBB1392:
ARM GAS  /tmp/ccJJl1OT.s 			page 31


 1711              		.loc 3 826 0
 1712 0682 36EE666A 		vsub.f32	s12, s12, s13
 1713 0686 B0EE662A 		vmov.f32	s4, s13
 1714 068a A6EE052A 		vfma.f32	s4, s12, s10
 1715              	.LBE1392:
 1716              	.LBE1394:
 1717              	.LBB1395:
 1718              	.LBB1396:
 1719              	.LBB1397:
 1720              	.LBB1398:
 1721              		.loc 3 193 0
 1722 068e B4EEC72A 		vcmpe.f32	s4, s14
 1723 0692 F1EE10FA 		vmrs	APSR_nzcv, FPSCR
 1724              	.LBE1398:
 1725              	.LBE1397:
 1726              	.LBE1396:
 1727              	.LBE1395:
 1728              	.LBB1402:
 1729              	.LBB1393:
 1730              		.loc 3 826 0
 1731 0696 B0EE425A 		vmov.f32	s10, s4
 1732              	.LVL110:
 1733              	.LBE1393:
 1734              	.LBE1402:
 1735              	.LBB1403:
 1736              	.LBB1401:
 1737              	.LBB1400:
 1738              	.LBB1399:
 1739              		.loc 3 193 0
 1740 069a A8BF     		it	ge
 1741 069c B0EE475A 		vmovge.f32	s10, s14
 1742              	.LVL111:
 1743              	.LBE1399:
 1744              	.LBE1400:
 1745              	.LBE1401:
 1746              	.LBE1403:
 1747              		.loc 2 130 0
 1748 06a0 25EE255A 		vmul.f32	s10, s10, s11
 1749              	.LVL112:
 1750              	.LBE1406:
 1751              	.LBE1410:
 1752              		.loc 1 124 0
 1753 06a4 83ED0A5A 		vstr.32	s10, [r3, #40]
 1754 06a8 8DED085A 		vstr.32	s10, [sp, #32]
 1755              	.LVL113:
 1756              	.LBB1411:
 1757              	.LBB1412:
 1758              	.LBB1413:
 1759              	.LBB1414:
 1760              		.loc 3 826 0
 1761 06ac B0EE665A 		vmov.f32	s10, s13
 1762 06b0 A6EE035A 		vfma.f32	s10, s12, s6
 1763              	.LVL114:
 1764              	.LBE1414:
 1765              	.LBE1413:
 1766              	.LBB1415:
 1767              	.LBB1416:
ARM GAS  /tmp/ccJJl1OT.s 			page 32


 1768              	.LBB1417:
 1769              	.LBB1418:
 1770              		.loc 3 193 0
 1771 06b4 B4EEC75A 		vcmpe.f32	s10, s14
 1772 06b8 F1EE10FA 		vmrs	APSR_nzcv, FPSCR
 1773 06bc A8BF     		it	ge
 1774 06be B0EE475A 		vmovge.f32	s10, s14
 1775              	.LVL115:
 1776              	.LBE1418:
 1777              	.LBE1417:
 1778              	.LBE1416:
 1779              	.LBE1415:
 1780              		.loc 2 130 0
 1781 06c2 25EE255A 		vmul.f32	s10, s10, s11
 1782              	.LVL116:
 1783              	.LBE1412:
 1784              	.LBE1411:
 1785              		.loc 1 125 0
 1786 06c6 83ED0B5A 		vstr.32	s10, [r3, #44]
 1787 06ca 8DED095A 		vstr.32	s10, [sp, #36]
 1788              	.LVL117:
 1789              	.LBB1419:
 1790              	.LBB1420:
 1791              	.LBB1421:
 1792              	.LBB1422:
 1793              		.loc 3 826 0
 1794 06ce B0EE665A 		vmov.f32	s10, s13
 1795 06d2 A6EE235A 		vfma.f32	s10, s12, s7
 1796              	.LVL118:
 1797              	.LBE1422:
 1798              	.LBE1421:
 1799              	.LBB1423:
 1800              	.LBB1424:
 1801              	.LBB1425:
 1802              	.LBB1426:
 1803              		.loc 3 193 0
 1804 06d6 B4EEC75A 		vcmpe.f32	s10, s14
 1805 06da F1EE10FA 		vmrs	APSR_nzcv, FPSCR
 1806 06de A8BF     		it	ge
 1807 06e0 B0EE475A 		vmovge.f32	s10, s14
 1808              	.LVL119:
 1809              	.LBE1426:
 1810              	.LBE1425:
 1811              	.LBE1424:
 1812              	.LBE1423:
 1813              		.loc 2 130 0
 1814 06e4 25EE255A 		vmul.f32	s10, s10, s11
 1815              	.LVL120:
 1816              	.LBE1420:
 1817              	.LBE1419:
 1818              		.loc 1 126 0
 1819 06e8 83ED0C5A 		vstr.32	s10, [r3, #48]
 1820 06ec 8DED0A5A 		vstr.32	s10, [sp, #40]
 1821              	.LVL121:
 1822              	.LBB1427:
 1823              	.LBB1428:
 1824              	.LBB1429:
ARM GAS  /tmp/ccJJl1OT.s 			page 33


 1825              	.LBB1430:
 1826              		.loc 3 826 0
 1827 06f0 B0EE665A 		vmov.f32	s10, s13
 1828 06f4 A6EE045A 		vfma.f32	s10, s12, s8
 1829              	.LVL122:
 1830              	.LBE1430:
 1831              	.LBE1429:
 1832              	.LBE1428:
 1833              	.LBE1427:
 1834              	.LBB1442:
 1835              	.LBB1443:
 1836              	.LBB1444:
 1837              	.LBB1445:
 1838 06f8 E6EE246A 		vfma.f32	s13, s12, s9
 1839              	.LBE1445:
 1840              	.LBE1444:
 1841              	.LBE1443:
 1842              	.LBE1442:
 1843              	.LBB1457:
 1844              	.LBB1439:
 1845              	.LBB1431:
 1846              	.LBB1432:
 1847              	.LBB1433:
 1848              	.LBB1434:
 1849              		.loc 3 193 0
 1850 06fc B4EEC75A 		vcmpe.f32	s10, s14
 1851 0700 F1EE10FA 		vmrs	APSR_nzcv, FPSCR
 1852              	.LBE1434:
 1853              	.LBE1433:
 1854              	.LBE1432:
 1855              	.LBE1431:
 1856              	.LBE1439:
 1857              	.LBE1457:
 1858              	.LBB1458:
 1859              	.LBB1454:
 1860              	.LBB1446:
 1861              	.LBB1447:
 1862              	.LBB1448:
 1863              	.LBB1449:
 1864 0704 F4EEC76A 		vcmpe.f32	s13, s14
 1865              	.LBE1449:
 1866              	.LBE1448:
 1867              	.LBE1447:
 1868              	.LBE1446:
 1869              	.LBE1454:
 1870              	.LBE1458:
 1871              	.LBB1459:
 1872              	.LBB1440:
 1873              	.LBB1438:
 1874              	.LBB1437:
 1875              	.LBB1436:
 1876              	.LBB1435:
 1877 0708 A8BF     		it	ge
 1878 070a B0EE475A 		vmovge.f32	s10, s14
 1879              	.LVL123:
 1880              	.LBE1435:
 1881              	.LBE1436:
ARM GAS  /tmp/ccJJl1OT.s 			page 34


 1882              	.LBE1437:
 1883              	.LBE1438:
 1884              	.LBE1440:
 1885              	.LBE1459:
 1886              	.LBB1460:
 1887              	.LBB1455:
 1888              	.LBB1453:
 1889              	.LBB1452:
 1890              	.LBB1451:
 1891              	.LBB1450:
 1892 070e F1EE10FA 		vmrs	APSR_nzcv, FPSCR
 1893 0712 A8BF     		it	ge
 1894 0714 F0EE476A 		vmovge.f32	s13, s14
 1895              	.LBE1450:
 1896              	.LBE1451:
 1897              	.LBE1452:
 1898              	.LBE1453:
 1899              	.LBE1455:
 1900              	.LBE1460:
 1901              	.LBB1461:
 1902              	.LBB1462:
 1903              	.LBB1463:
 1904              	.LBB1464:
 1905              	.LBB1465:
 1906              	.LBB1466:
 1907              		.loc 4 85 0
 1908 0718 972C     		cmp	r4, #151
 1909              	.LBE1466:
 1910              	.LBE1465:
 1911              	.LBE1464:
 1912              	.LBE1463:
 1913              	.LBE1462:
 1914              	.LBE1461:
 1915              	.LBB1495:
 1916              	.LBB1456:
 1917              		.loc 2 130 0
 1918 071a 66EEA56A 		vmul.f32	s13, s13, s11
 1919              	.LBE1456:
 1920              	.LBE1495:
 1921              	.LBB1496:
 1922              	.LBB1491:
 1923              	.LBB1472:
 1924              	.LBB1469:
 1925              	.LBB1468:
 1926              	.LBB1467:
 1927              		.loc 4 85 0
 1928 071e 28BF     		it	cs
 1929 0720 9724     		movcs	r4, #151
 1930              	.LVL124:
 1931              	.LBE1467:
 1932              	.LBE1468:
 1933              	.LBE1469:
 1934              	.LBE1472:
 1935              	.LBB1473:
 1936              	.LBB1474:
 1937              	.LBB1475:
 1938              	.LBB1476:
ARM GAS  /tmp/ccJJl1OT.s 			page 35


 1939 0722 972D     		cmp	r5, #151
 1940              	.LBE1476:
 1941              	.LBE1475:
 1942              	.LBE1474:
 1943              	.LBE1473:
 1944              	.LBB1481:
 1945              	.LBB1470:
 1946              		.loc 2 115 0
 1947 0724 06EB8404 		add	r4, r6, r4, lsl #2
 1948              	.LBE1470:
 1949              	.LBE1481:
 1950              	.LBB1482:
 1951              	.LBB1479:
 1952              	.LBB1478:
 1953              	.LBB1477:
 1954              		.loc 4 85 0
 1955 0728 28BF     		it	cs
 1956 072a 9725     		movcs	r5, #151
 1957              	.LBE1477:
 1958              	.LBE1478:
 1959              	.LBE1479:
 1960              	.LBE1482:
 1961              	.LBE1491:
 1962              	.LBE1496:
 1963              		.loc 1 128 0
 1964 072c CEED0E6A 		vstr.32	s13, [lr, #56]
 1965 0730 CDED0C6A 		vstr.32	s13, [sp, #48]
 1966              	.LBB1497:
 1967              	.LBB1492:
 1968              	.LBB1483:
 1969              	.LBB1471:
 1970              		.loc 2 115 0
 1971 0734 D4ED006A 		vldr.32	s13, [r4]
 1972              	.LBE1471:
 1973              	.LBE1483:
 1974              	.LBB1484:
 1975              	.LBB1480:
 1976 0738 06EB8504 		add	r4, r6, r5, lsl #2
 1977              	.LBE1480:
 1978              	.LBE1484:
 1979              	.LBB1485:
 1980              	.LBB1486:
 1981              		.loc 3 826 0
 1982 073c 94ED006A 		vldr.32	s12, [r4]
 1983              	.LBE1486:
 1984              	.LBE1485:
 1985              	.LBE1492:
 1986              	.LBE1497:
 1987              	.LBB1498:
 1988              	.LBB1441:
 1989              		.loc 2 130 0
 1990 0740 25EE255A 		vmul.f32	s10, s10, s11
 1991              	.LVL125:
 1992              	.LBE1441:
 1993              	.LBE1498:
 1994              	.LBB1499:
 1995              	.LBB1493:
ARM GAS  /tmp/ccJJl1OT.s 			page 36


 1996              	.LBB1489:
 1997              	.LBB1487:
 1998              		.loc 3 826 0
 1999 0744 36EE666A 		vsub.f32	s12, s12, s13
 2000              	.LBE1487:
 2001              	.LBE1489:
 2002              	.LBE1493:
 2003              	.LBE1499:
 2004              		.loc 1 127 0
 2005 0748 8EED0D5A 		vstr.32	s10, [lr, #52]
 2006 074c 8DED0B5A 		vstr.32	s10, [sp, #44]
 2007              	.LVL126:
 2008              	.LBB1500:
 2009              	.LBB1494:
 2010              	.LBB1490:
 2011              	.LBB1488:
 2012              		.loc 3 826 0
 2013 0750 E6EE226A 		vfma.f32	s13, s12, s5
 2014              	.LVL127:
 2015 0754 98E1     		b	.L399
 2016              	.L408:
 2017 0756 00BF     		.align	2
 2018              	.L407:
 2019 0758 00000000 		.word	midi_to_hz_lut_f
 2020 075c 9A99193F 		.word	1058642330
 2021 0760 9A99993E 		.word	1050253722
 2022 0764 00000000 		.word	.LANCHOR0
 2023 0768 8180803B 		.word	998277249
 2024 076c 3EC3AE37 		.word	934200126
 2025 0770 49FFB846 		.word	1186529097
 2026              	.LVL128:
 2027              	.L13:
 2028              	.LBE1488:
 2029              	.LBE1490:
 2030              	.LBE1494:
 2031              	.LBE1500:
 2032              		.loc 1 132 0
 2033 0774 8588     		ldrh	r5, [r0, #4]
 2034 0776 93ED1C2A 		vldr.32	s4, [r3, #112]
 2035 077a 1C7B     		ldrb	r4, [r3, #12]	@ zero_extendqisi2
 2036              	.LBB1501:
 2037              	.LBB1502:
 2038              		.loc 2 128 0
 2039 077c 5FED062A 		vldr.32	s5, .L407+16
 2040              		.loc 2 130 0
 2041 0780 5FED065A 		vldr.32	s11, .L407+20
 2042              	.LBE1502:
 2043              	.LBE1501:
 2044              		.loc 1 132 0
 2045 0784 2E0A     		lsrs	r6, r5, #8
 2046              	.LVL129:
 2047 0786 EDB2     		uxtb	r5, r5
 2048 0788 07EE105A 		vmov	s14, r5	@ int
 2049 078c B8EEC76A 		vcvt.f32.s32	s12, s14
 2050 0790 3444     		add	r4, r4, r6
 2051 0792 36EE027A 		vadd.f32	s14, s12, s4
 2052 0796 E4B2     		uxtb	r4, r4
ARM GAS  /tmp/ccJJl1OT.s 			page 37


 2053 0798 BCEEC77A 		vcvt.u32.f32	s14, s14
 2054              	.LBB1533:
 2055              	.LBB1529:
 2056              	.LBB1503:
 2057              	.LBB1504:
 2058              	.LBB1505:
 2059              	.LBB1506:
 2060              		.loc 4 85 0
 2061 079c 962C     		cmp	r4, #150
 2062              	.LBE1506:
 2063              	.LBE1505:
 2064              	.LBE1504:
 2065              	.LBE1503:
 2066              	.LBE1529:
 2067              	.LBE1533:
 2068              		.loc 1 132 0
 2069 079e 8DED017A 		vstr.32	s14, [sp, #4]	@ int
 2070 07a2 9DF80450 		ldrb	r5, [sp, #4]	@ zero_extendqisi2
 2071              	.LBB1534:
 2072              	.LBB1530:
 2073              	.LBB1510:
 2074              	.LBB1511:
 2075              	.LBB1512:
 2076              	.LBB1513:
 2077              		.loc 3 193 0
 2078 07a6 1FED0E7A 		vldr.32	s14, .L407+24
 2079              	.LBE1513:
 2080              	.LBE1512:
 2081              	.LBE1511:
 2082              	.LBE1510:
 2083              	.LBE1530:
 2084              	.LBE1534:
 2085              		.loc 1 132 0
 2086 07aa 04EE105A 		vmov	s8, r5	@ int
 2087              	.LVL130:
 2088              	.LBB1535:
 2089              	.LBB1531:
 2090              	.LBB1517:
 2091              	.LBB1509:
 2092              		.loc 2 115 0
 2093 07ae BD4D     		ldr	r5, .L409
 2094              	.LVL131:
 2095              	.LBB1508:
 2096              	.LBB1507:
 2097              		.loc 4 85 0
 2098 07b0 94BF     		ite	ls
 2099 07b2 A646     		movls	lr, r4
 2100 07b4 4FF0970E 		movhi	lr, #151
 2101              	.LVL132:
 2102              	.LBE1507:
 2103              	.LBE1508:
 2104              		.loc 2 115 0
 2105 07b8 05EB8E0E 		add	lr, r5, lr, lsl #2
 2106 07bc DEED006A 		vldr.32	s13, [lr]
 2107              	.LVL133:
 2108              	.LBE1509:
 2109              	.LBE1517:
ARM GAS  /tmp/ccJJl1OT.s 			page 38


 2110              		.loc 2 126 0
 2111 07c0 04F1010E 		add	lr, r4, #1
 2112 07c4 5FFA8EFE 		uxtb	lr, lr
 2113              	.LVL134:
 2114              	.LBB1518:
 2115              	.LBB1519:
 2116              	.LBB1520:
 2117              	.LBB1521:
 2118              		.loc 4 85 0
 2119 07c8 BEF1960F 		cmp	lr, #150
 2120 07cc 94BF     		ite	ls
 2121 07ce F446     		movls	ip, lr
 2122 07d0 4FF0970C 		movhi	ip, #151
 2123              	.LVL135:
 2124              	.LBE1521:
 2125              	.LBE1520:
 2126              		.loc 2 115 0
 2127 07d4 05EB8C0C 		add	ip, r5, ip, lsl #2
 2128              	.LBE1519:
 2129              	.LBE1518:
 2130              	.LBB1522:
 2131              	.LBB1523:
 2132              		.loc 3 826 0
 2133 07d8 9CED003A 		vldr.32	s6, [ip]
 2134              	.LBE1523:
 2135              	.LBE1522:
 2136              		.loc 2 128 0
 2137 07dc B8EEC44A 		vcvt.f32.s32	s8, s8
 2138              	.LVL136:
 2139              	.LBB1526:
 2140              	.LBB1524:
 2141              		.loc 3 826 0
 2142 07e0 33EE663A 		vsub.f32	s6, s6, s13
 2143              	.LBE1524:
 2144              	.LBE1526:
 2145              		.loc 2 128 0
 2146 07e4 24EE224A 		vmul.f32	s8, s8, s5
 2147              	.LVL137:
 2148              	.LBB1527:
 2149              	.LBB1525:
 2150              		.loc 3 826 0
 2151 07e8 B0EE665A 		vmov.f32	s10, s13
 2152 07ec A4EE035A 		vfma.f32	s10, s8, s6
 2153              	.LVL138:
 2154              	.LBE1525:
 2155              	.LBE1527:
 2156              	.LBE1531:
 2157              	.LBE1535:
 2158              		.loc 1 133 0
 2159 07f0 F6EE003A 		vmov.f32	s7, #5.0e-1
 2160              	.LBB1536:
 2161              	.LBB1532:
 2162              	.LBB1528:
 2163              	.LBB1516:
 2164              	.LBB1515:
 2165              	.LBB1514:
 2166              		.loc 3 193 0
ARM GAS  /tmp/ccJJl1OT.s 			page 39


 2167 07f4 B4EEC75A 		vcmpe.f32	s10, s14
 2168 07f8 F1EE10FA 		vmrs	APSR_nzcv, FPSCR
 2169 07fc A8BF     		it	ge
 2170 07fe B0EE475A 		vmovge.f32	s10, s14
 2171              	.LVL139:
 2172              	.LBE1514:
 2173              	.LBE1515:
 2174              	.LBE1516:
 2175              	.LBE1528:
 2176              		.loc 2 130 0
 2177 0802 25EE255A 		vmul.f32	s10, s10, s11
 2178              	.LVL140:
 2179              	.LBE1532:
 2180              	.LBE1536:
 2181              		.loc 1 133 0
 2182 0806 62EE233A 		vmul.f32	s7, s4, s7
 2183              		.loc 1 132 0
 2184 080a 83ED045A 		vstr.32	s10, [r3, #16]
 2185 080e 8DED025A 		vstr.32	s10, [sp, #8]
 2186              		.loc 1 133 0
 2187 0812 36EE235A 		vadd.f32	s10, s12, s7
 2188              		.loc 1 134 0
 2189 0816 76EE633A 		vsub.f32	s7, s12, s7
 2190              		.loc 1 133 0
 2191 081a BCEEC55A 		vcvt.u32.f32	s10, s10
 2192 081e 8DED015A 		vstr.32	s10, [sp, #4]	@ int
 2193 0822 9DF804C0 		ldrb	ip, [sp, #4]	@ zero_extendqisi2
 2194 0826 04EE90CA 		vmov	s9, ip	@ int
 2195              	.LVL141:
 2196              	.LBB1537:
 2197              	.LBB1538:
 2198              		.loc 2 128 0
 2199 082a F8EEE44A 		vcvt.f32.s32	s9, s9
 2200              	.LBB1539:
 2201              	.LBB1540:
 2202              		.loc 3 826 0
 2203 082e B0EE665A 		vmov.f32	s10, s13
 2204              	.LBE1540:
 2205              	.LBE1539:
 2206              		.loc 2 128 0
 2207 0832 64EEA24A 		vmul.f32	s9, s9, s5
 2208              	.LVL142:
 2209              	.LBB1542:
 2210              	.LBB1541:
 2211              		.loc 3 826 0
 2212 0836 A4EE835A 		vfma.f32	s10, s9, s6
 2213              	.LVL143:
 2214              	.LBE1541:
 2215              	.LBE1542:
 2216              	.LBB1543:
 2217              	.LBB1544:
 2218              	.LBB1545:
 2219              	.LBB1546:
 2220              		.loc 3 193 0
 2221 083a B4EEC75A 		vcmpe.f32	s10, s14
 2222 083e F1EE10FA 		vmrs	APSR_nzcv, FPSCR
 2223 0842 A8BF     		it	ge
ARM GAS  /tmp/ccJJl1OT.s 			page 40


 2224 0844 B0EE475A 		vmovge.f32	s10, s14
 2225              	.LVL144:
 2226              	.LBE1546:
 2227              	.LBE1545:
 2228              	.LBE1544:
 2229              	.LBE1543:
 2230              		.loc 2 130 0
 2231 0848 25EE255A 		vmul.f32	s10, s10, s11
 2232              	.LVL145:
 2233              	.LBE1538:
 2234              	.LBE1537:
 2235              		.loc 1 133 0
 2236 084c 83ED055A 		vstr.32	s10, [r3, #20]
 2237 0850 8DED035A 		vstr.32	s10, [sp, #12]
 2238              		.loc 1 134 0
 2239 0854 BCEEE35A 		vcvt.u32.f32	s10, s7
 2240 0858 8DED015A 		vstr.32	s10, [sp, #4]	@ int
 2241 085c 9DF804C0 		ldrb	ip, [sp, #4]	@ zero_extendqisi2
 2242 0860 05EE10CA 		vmov	s10, ip	@ int
 2243              	.LVL146:
 2244              	.LBB1547:
 2245              	.LBB1548:
 2246              		.loc 2 128 0
 2247 0864 B8EEC55A 		vcvt.f32.s32	s10, s10
 2248 0868 25EE225A 		vmul.f32	s10, s10, s5
 2249              	.LVL147:
 2250              	.LBB1549:
 2251              	.LBB1550:
 2252              		.loc 3 826 0
 2253 086c E5EE036A 		vfma.f32	s13, s10, s6
 2254              	.LVL148:
 2255              	.LBE1550:
 2256              	.LBE1549:
 2257              	.LBB1551:
 2258              	.LBB1552:
 2259              	.LBB1553:
 2260              	.LBB1554:
 2261              		.loc 3 193 0
 2262 0870 F4EEC76A 		vcmpe.f32	s13, s14
 2263 0874 F1EE10FA 		vmrs	APSR_nzcv, FPSCR
 2264 0878 A8BF     		it	ge
 2265 087a F0EE476A 		vmovge.f32	s13, s14
 2266              	.LVL149:
 2267              	.LBE1554:
 2268              	.LBE1553:
 2269              	.LBE1552:
 2270              	.LBE1551:
 2271              		.loc 2 130 0
 2272 087e 66EEA56A 		vmul.f32	s13, s13, s11
 2273              	.LVL150:
 2274              	.LBE1548:
 2275              	.LBE1547:
 2276              	.LBB1555:
 2277              	.LBB1556:
 2278              	.LBB1557:
 2279              	.LBB1558:
 2280              	.LBB1559:
ARM GAS  /tmp/ccJJl1OT.s 			page 41


 2281              	.LBB1560:
 2282              		.loc 4 85 0
 2283 0882 972C     		cmp	r4, #151
 2284              	.LBE1560:
 2285              	.LBE1559:
 2286              	.LBE1558:
 2287              	.LBE1557:
 2288              	.LBE1556:
 2289              	.LBE1555:
 2290              		.loc 1 134 0
 2291 0884 C3ED066A 		vstr.32	s13, [r3, #24]
 2292 0888 CDED046A 		vstr.32	s13, [sp, #16]
 2293              		.loc 1 135 0
 2294 088c 76EE426A 		vsub.f32	s13, s12, s4
 2295              	.LBB1595:
 2296              	.LBB1587:
 2297              	.LBB1566:
 2298              	.LBB1563:
 2299              	.LBB1562:
 2300              	.LBB1561:
 2301              		.loc 4 85 0
 2302 0890 28BF     		it	cs
 2303 0892 9724     		movcs	r4, #151
 2304              	.LBE1561:
 2305              	.LBE1562:
 2306              	.LBE1563:
 2307              	.LBE1566:
 2308              	.LBE1587:
 2309              	.LBE1595:
 2310              		.loc 1 135 0
 2311 0894 FCEEE66A 		vcvt.u32.f32	s13, s13
 2312              	.LBB1596:
 2313              	.LBB1588:
 2314              	.LBB1567:
 2315              	.LBB1564:
 2316              		.loc 2 115 0
 2317 0898 05EB8404 		add	r4, r5, r4, lsl #2
 2318              	.LBE1564:
 2319              	.LBE1567:
 2320              	.LBE1588:
 2321              	.LBE1596:
 2322              		.loc 1 135 0
 2323 089c CDED016A 		vstr.32	s13, [sp, #4]	@ int
 2324 08a0 9DF804C0 		ldrb	ip, [sp, #4]	@ zero_extendqisi2
 2325              	.LBB1597:
 2326              	.LBB1589:
 2327              	.LBB1568:
 2328              	.LBB1565:
 2329              		.loc 2 115 0
 2330 08a4 D4ED006A 		vldr.32	s13, [r4]
 2331              	.LBE1565:
 2332              	.LBE1568:
 2333              	.LBB1569:
 2334              	.LBB1570:
 2335              	.LBB1571:
 2336              	.LBB1572:
 2337              		.loc 4 85 0
ARM GAS  /tmp/ccJJl1OT.s 			page 42


 2338 08a8 7446     		mov	r4, lr
 2339 08aa 972C     		cmp	r4, #151
 2340              	.LBE1572:
 2341              	.LBE1571:
 2342              	.LBE1570:
 2343              	.LBE1569:
 2344              	.LBE1589:
 2345              	.LBE1597:
 2346              		.loc 1 135 0
 2347 08ac 06EE10CA 		vmov	s12, ip	@ int
 2348              	.LVL151:
 2349              	.LBB1598:
 2350              	.LBB1590:
 2351              	.LBB1576:
 2352              	.LBB1575:
 2353              	.LBB1574:
 2354              	.LBB1573:
 2355              		.loc 4 85 0
 2356 08b0 28BF     		it	cs
 2357 08b2 9724     		movcs	r4, #151
 2358              	.LVL152:
 2359              	.LBE1573:
 2360              	.LBE1574:
 2361              		.loc 2 115 0
 2362 08b4 05EB8404 		add	r4, r5, r4, lsl #2
 2363              	.LBE1575:
 2364              	.LBE1576:
 2365              	.LBB1577:
 2366              	.LBB1578:
 2367              		.loc 3 826 0
 2368 08b8 D4ED003A 		vldr.32	s7, [r4]
 2369              	.LBE1578:
 2370              	.LBE1577:
 2371              	.LBE1590:
 2372              	.LBE1598:
 2373              		.loc 1 136 0
 2374 08bc 5C7B     		ldrb	r4, [r3, #13]	@ zero_extendqisi2
 2375              	.LBB1599:
 2376              	.LBB1591:
 2377              		.loc 2 128 0
 2378 08be B8EEC66A 		vcvt.f32.s32	s12, s12
 2379              	.LBB1581:
 2380              	.LBB1579:
 2381              		.loc 3 826 0
 2382 08c2 73EEE63A 		vsub.f32	s7, s7, s13
 2383              	.LBE1579:
 2384              	.LBE1581:
 2385              		.loc 2 128 0
 2386 08c6 26EE226A 		vmul.f32	s12, s12, s5
 2387              	.LVL153:
 2388              	.LBE1591:
 2389              	.LBE1599:
 2390              		.loc 1 136 0
 2391 08ca 3444     		add	r4, r4, r6
 2392              	.LBB1600:
 2393              	.LBB1592:
 2394              	.LBB1582:
ARM GAS  /tmp/ccJJl1OT.s 			page 43


 2395              	.LBB1580:
 2396              		.loc 3 826 0
 2397 08cc E6EE236A 		vfma.f32	s13, s12, s7
 2398              	.LVL154:
 2399              	.LBE1580:
 2400              	.LBE1582:
 2401              	.LBE1592:
 2402              	.LBE1600:
 2403              		.loc 1 136 0
 2404 08d0 E4B2     		uxtb	r4, r4
 2405              	.LBB1601:
 2406              	.LBB1593:
 2407              	.LBB1583:
 2408              	.LBB1584:
 2409              	.LBB1585:
 2410              	.LBB1586:
 2411              		.loc 3 193 0
 2412 08d2 F4EEC76A 		vcmpe.f32	s13, s14
 2413 08d6 F1EE10FA 		vmrs	APSR_nzcv, FPSCR
 2414 08da A8BF     		it	ge
 2415 08dc F0EE476A 		vmovge.f32	s13, s14
 2416              	.LVL155:
 2417              	.LBE1586:
 2418              	.LBE1585:
 2419              	.LBE1584:
 2420              	.LBE1583:
 2421              	.LBE1593:
 2422              	.LBE1601:
 2423              	.LBB1602:
 2424              	.LBB1603:
 2425              	.LBB1604:
 2426              	.LBB1605:
 2427              	.LBB1606:
 2428              	.LBB1607:
 2429              		.loc 4 85 0
 2430 08e0 962C     		cmp	r4, #150
 2431 08e2 98BF     		it	ls
 2432 08e4 A646     		movls	lr, r4
 2433              	.LBE1607:
 2434              	.LBE1606:
 2435              	.LBE1605:
 2436              	.LBE1604:
 2437              	.LBE1603:
 2438              	.LBE1602:
 2439              	.LBB1626:
 2440              	.LBB1594:
 2441              		.loc 2 130 0
 2442 08e6 66EEA56A 		vmul.f32	s13, s13, s11
 2443              	.LVL156:
 2444              	.LBE1594:
 2445              	.LBE1626:
 2446              	.LBB1627:
 2447              	.LBB1624:
 2448              	.LBB1612:
 2449              	.LBB1610:
 2450              	.LBB1609:
 2451              	.LBB1608:
ARM GAS  /tmp/ccJJl1OT.s 			page 44


 2452              		.loc 4 85 0
 2453 08ea 88BF     		it	hi
 2454 08ec 4FF0970E 		movhi	lr, #151
 2455              	.LVL157:
 2456              	.LBE1608:
 2457              	.LBE1609:
 2458              		.loc 2 115 0
 2459 08f0 05EB8E0E 		add	lr, r5, lr, lsl #2
 2460              	.LBE1610:
 2461              	.LBE1612:
 2462              	.LBE1624:
 2463              	.LBE1627:
 2464              		.loc 1 135 0
 2465 08f4 C3ED076A 		vstr.32	s13, [r3, #28]
 2466 08f8 CDED056A 		vstr.32	s13, [sp, #20]
 2467              	.LBB1628:
 2468              	.LBB1625:
 2469              	.LBB1613:
 2470              	.LBB1611:
 2471              		.loc 2 115 0
 2472 08fc DEED006A 		vldr.32	s13, [lr]
 2473              	.LVL158:
 2474              	.LBE1611:
 2475              	.LBE1613:
 2476              		.loc 2 126 0
 2477 0900 04F1010E 		add	lr, r4, #1
 2478 0904 5FFA8EFE 		uxtb	lr, lr
 2479              	.LVL159:
 2480              	.LBB1614:
 2481              	.LBB1615:
 2482              	.LBB1616:
 2483              	.LBB1617:
 2484              		.loc 4 85 0
 2485 0908 BEF1960F 		cmp	lr, #150
 2486 090c 94BF     		ite	ls
 2487 090e F446     		movls	ip, lr
 2488 0910 4FF0970C 		movhi	ip, #151
 2489              	.LVL160:
 2490              	.LBE1617:
 2491              	.LBE1616:
 2492              		.loc 2 115 0
 2493 0914 05EB8C0C 		add	ip, r5, ip, lsl #2
 2494              	.LBE1615:
 2495              	.LBE1614:
 2496              	.LBB1618:
 2497              	.LBB1619:
 2498              		.loc 3 826 0
 2499 0918 9CED003A 		vldr.32	s6, [ip]
 2500 091c 33EE663A 		vsub.f32	s6, s6, s13
 2501 0920 F0EE663A 		vmov.f32	s7, s13
 2502 0924 E3EE043A 		vfma.f32	s7, s6, s8
 2503              	.LVL161:
 2504              	.LBE1619:
 2505              	.LBE1618:
 2506              	.LBB1620:
 2507              	.LBB1621:
 2508              	.LBB1622:
ARM GAS  /tmp/ccJJl1OT.s 			page 45


 2509              	.LBB1623:
 2510              		.loc 3 193 0
 2511 0928 F4EEC73A 		vcmpe.f32	s7, s14
 2512 092c F1EE10FA 		vmrs	APSR_nzcv, FPSCR
 2513 0930 A8BF     		it	ge
 2514 0932 F0EE473A 		vmovge.f32	s7, s14
 2515              	.LVL162:
 2516              	.LBE1623:
 2517              	.LBE1622:
 2518              	.LBE1621:
 2519              	.LBE1620:
 2520              		.loc 2 130 0
 2521 0936 63EEA53A 		vmul.f32	s7, s7, s11
 2522              	.LVL163:
 2523              	.LBE1625:
 2524              	.LBE1628:
 2525              		.loc 1 136 0
 2526 093a C3ED083A 		vstr.32	s7, [r3, #32]
 2527 093e CDED063A 		vstr.32	s7, [sp, #24]
 2528              	.LVL164:
 2529              	.LBB1629:
 2530              	.LBB1630:
 2531              	.LBB1631:
 2532              	.LBB1632:
 2533              		.loc 3 826 0
 2534 0942 F0EE663A 		vmov.f32	s7, s13
 2535 0946 E3EE243A 		vfma.f32	s7, s6, s9
 2536              	.LVL165:
 2537              	.LBE1632:
 2538              	.LBE1631:
 2539              	.LBE1630:
 2540              	.LBE1629:
 2541              	.LBB1644:
 2542              	.LBB1645:
 2543              	.LBB1646:
 2544              	.LBB1647:
 2545 094a E3EE056A 		vfma.f32	s13, s6, s10
 2546              	.LBE1647:
 2547              	.LBE1646:
 2548              	.LBE1645:
 2549              	.LBE1644:
 2550              	.LBB1659:
 2551              	.LBB1641:
 2552              	.LBB1633:
 2553              	.LBB1634:
 2554              	.LBB1635:
 2555              	.LBB1636:
 2556              		.loc 3 193 0
 2557 094e F4EEC73A 		vcmpe.f32	s7, s14
 2558 0952 F1EE10FA 		vmrs	APSR_nzcv, FPSCR
 2559              	.LBE1636:
 2560              	.LBE1635:
 2561              	.LBE1634:
 2562              	.LBE1633:
 2563              	.LBE1641:
 2564              	.LBE1659:
 2565              	.LBB1660:
ARM GAS  /tmp/ccJJl1OT.s 			page 46


 2566              	.LBB1656:
 2567              	.LBB1648:
 2568              	.LBB1649:
 2569              	.LBB1650:
 2570              	.LBB1651:
 2571 0956 F4EEC76A 		vcmpe.f32	s13, s14
 2572              	.LBE1651:
 2573              	.LBE1650:
 2574              	.LBE1649:
 2575              	.LBE1648:
 2576              	.LBE1656:
 2577              	.LBE1660:
 2578              	.LBB1661:
 2579              	.LBB1642:
 2580              	.LBB1640:
 2581              	.LBB1639:
 2582              	.LBB1638:
 2583              	.LBB1637:
 2584 095a A8BF     		it	ge
 2585 095c F0EE473A 		vmovge.f32	s7, s14
 2586              	.LVL166:
 2587              	.LBE1637:
 2588              	.LBE1638:
 2589              	.LBE1639:
 2590              	.LBE1640:
 2591              	.LBE1642:
 2592              	.LBE1661:
 2593              	.LBB1662:
 2594              	.LBB1657:
 2595              	.LBB1655:
 2596              	.LBB1654:
 2597              	.LBB1653:
 2598              	.LBB1652:
 2599 0960 F1EE10FA 		vmrs	APSR_nzcv, FPSCR
 2600 0964 A8BF     		it	ge
 2601 0966 F0EE476A 		vmovge.f32	s13, s14
 2602              	.LBE1652:
 2603              	.LBE1653:
 2604              	.LBE1654:
 2605              	.LBE1655:
 2606              	.LBE1657:
 2607              	.LBE1662:
 2608              	.LBB1663:
 2609              	.LBB1664:
 2610              	.LBB1665:
 2611              	.LBB1666:
 2612              	.LBB1667:
 2613              	.LBB1668:
 2614              		.loc 4 85 0
 2615 096a 972C     		cmp	r4, #151
 2616 096c 28BF     		it	cs
 2617 096e 9724     		movcs	r4, #151
 2618              	.LVL167:
 2619              	.LBE1668:
 2620              	.LBE1667:
 2621              	.LBE1666:
 2622              	.LBE1665:
ARM GAS  /tmp/ccJJl1OT.s 			page 47


 2623              	.LBB1671:
 2624              	.LBB1672:
 2625              	.LBB1673:
 2626              	.LBB1674:
 2627 0970 BEF1970F 		cmp	lr, #151
 2628              	.LBE1674:
 2629              	.LBE1673:
 2630              	.LBE1672:
 2631              	.LBE1671:
 2632              	.LBE1664:
 2633              	.LBE1663:
 2634              	.LBB1697:
 2635              	.LBB1643:
 2636              		.loc 2 130 0
 2637 0974 63EEA53A 		vmul.f32	s7, s7, s11
 2638              	.LVL168:
 2639              	.LBE1643:
 2640              	.LBE1697:
 2641              	.LBB1698:
 2642              	.LBB1658:
 2643 0978 66EEA56A 		vmul.f32	s13, s13, s11
 2644              	.LBE1658:
 2645              	.LBE1698:
 2646              	.LBB1699:
 2647              	.LBB1691:
 2648              	.LBB1678:
 2649              	.LBB1677:
 2650              	.LBB1676:
 2651              	.LBB1675:
 2652              		.loc 4 85 0
 2653 097c 28BF     		it	cs
 2654 097e 4FF0970E 		movcs	lr, #151
 2655              	.LBE1675:
 2656              	.LBE1676:
 2657              		.loc 2 115 0
 2658 0982 05EB8E0E 		add	lr, r5, lr, lsl #2
 2659              	.LBE1677:
 2660              	.LBE1678:
 2661              	.LBB1679:
 2662              	.LBB1669:
 2663 0986 05EB8404 		add	r4, r5, r4, lsl #2
 2664              	.LBE1669:
 2665              	.LBE1679:
 2666              	.LBE1691:
 2667              	.LBE1699:
 2668              		.loc 1 137 0
 2669 098a C3ED093A 		vstr.32	s7, [r3, #36]
 2670 098e CDED073A 		vstr.32	s7, [sp, #28]
 2671              	.LVL169:
 2672              		.loc 1 138 0
 2673 0992 C3ED0A6A 		vstr.32	s13, [r3, #40]
 2674 0996 CDED086A 		vstr.32	s13, [sp, #32]
 2675              	.LVL170:
 2676              	.LBB1700:
 2677              	.LBB1692:
 2678              	.LBB1680:
 2679              	.LBB1670:
ARM GAS  /tmp/ccJJl1OT.s 			page 48


 2680              		.loc 2 115 0
 2681 099a D4ED006A 		vldr.32	s13, [r4]
 2682              	.LVL171:
 2683              	.LBE1670:
 2684              	.LBE1680:
 2685              	.LBB1681:
 2686              	.LBB1682:
 2687              		.loc 3 826 0
 2688 099e DEED003A 		vldr.32	s7, [lr]
 2689              	.LBE1682:
 2690              	.LBE1681:
 2691              	.LBE1692:
 2692              	.LBE1700:
 2693              		.loc 1 140 0
 2694 09a2 9C7B     		ldrb	r4, [r3, #14]	@ zero_extendqisi2
 2695              	.LBB1701:
 2696              	.LBB1693:
 2697              	.LBB1685:
 2698              	.LBB1683:
 2699              		.loc 3 826 0
 2700 09a4 73EEE63A 		vsub.f32	s7, s7, s13
 2701              	.LBE1683:
 2702              	.LBE1685:
 2703              	.LBE1693:
 2704              	.LBE1701:
 2705              		.loc 1 140 0
 2706 09a8 2644     		add	r6, r6, r4
 2707              	.LBB1702:
 2708              	.LBB1694:
 2709              	.LBB1686:
 2710              	.LBB1684:
 2711              		.loc 3 826 0
 2712 09aa E3EE866A 		vfma.f32	s13, s7, s12
 2713              	.LVL172:
 2714              	.LBE1684:
 2715              	.LBE1686:
 2716              	.LBE1694:
 2717              	.LBE1702:
 2718              		.loc 1 140 0
 2719 09ae F6B2     		uxtb	r6, r6
 2720              	.LBB1703:
 2721              	.LBB1695:
 2722              	.LBB1687:
 2723              	.LBB1688:
 2724              	.LBB1689:
 2725              	.LBB1690:
 2726              		.loc 3 193 0
 2727 09b0 F4EEC76A 		vcmpe.f32	s13, s14
 2728 09b4 F1EE10FA 		vmrs	APSR_nzcv, FPSCR
 2729 09b8 A8BF     		it	ge
 2730 09ba F0EE476A 		vmovge.f32	s13, s14
 2731              	.LVL173:
 2732              	.LBE1690:
 2733              	.LBE1689:
 2734              	.LBE1688:
 2735              	.LBE1687:
 2736              	.LBE1695:
ARM GAS  /tmp/ccJJl1OT.s 			page 49


 2737              	.LBE1703:
 2738              	.LBB1704:
 2739              	.LBB1705:
 2740              	.LBB1706:
 2741              	.LBB1707:
 2742              	.LBB1708:
 2743              	.LBB1709:
 2744              		.loc 4 85 0
 2745 09be 962E     		cmp	r6, #150
 2746 09c0 98BF     		it	ls
 2747 09c2 3446     		movls	r4, r6
 2748              	.LBE1709:
 2749              	.LBE1708:
 2750              	.LBE1707:
 2751              	.LBE1706:
 2752              	.LBE1705:
 2753              	.LBE1704:
 2754              	.LBB1737:
 2755              	.LBB1696:
 2756              		.loc 2 130 0
 2757 09c4 66EEA56A 		vmul.f32	s13, s13, s11
 2758              	.LVL174:
 2759              	.LBE1696:
 2760              	.LBE1737:
 2761              	.LBB1738:
 2762              	.LBB1734:
 2763              	.LBB1714:
 2764              	.LBB1712:
 2765              	.LBB1711:
 2766              	.LBB1710:
 2767              		.loc 4 85 0
 2768 09c8 88BF     		it	hi
 2769 09ca 9724     		movhi	r4, #151
 2770              	.LVL175:
 2771              	.LBE1710:
 2772              	.LBE1711:
 2773              		.loc 2 115 0
 2774 09cc 05EB8404 		add	r4, r5, r4, lsl #2
 2775              	.LBE1712:
 2776              	.LBE1714:
 2777              	.LBE1734:
 2778              	.LBE1738:
 2779              		.loc 1 139 0
 2780 09d0 C3ED0B6A 		vstr.32	s13, [r3, #44]
 2781 09d4 CDED096A 		vstr.32	s13, [sp, #36]
 2782              	.LBB1739:
 2783              	.LBB1735:
 2784              	.LBB1715:
 2785              	.LBB1713:
 2786              		.loc 2 115 0
 2787 09d8 D4ED006A 		vldr.32	s13, [r4]
 2788              	.LVL176:
 2789              	.LBE1713:
 2790              	.LBE1715:
 2791              		.loc 2 126 0
 2792 09dc 741C     		adds	r4, r6, #1
 2793 09de E4B2     		uxtb	r4, r4
ARM GAS  /tmp/ccJJl1OT.s 			page 50


 2794              	.LVL177:
 2795              	.LBB1716:
 2796              	.LBB1717:
 2797              	.LBB1718:
 2798              	.LBB1719:
 2799              		.loc 4 85 0
 2800 09e0 962C     		cmp	r4, #150
 2801 09e2 94BF     		ite	ls
 2802 09e4 A646     		movls	lr, r4
 2803 09e6 4FF0970E 		movhi	lr, #151
 2804              	.LVL178:
 2805              	.LBE1719:
 2806              	.LBE1718:
 2807              		.loc 2 115 0
 2808 09ea 05EB8E0E 		add	lr, r5, lr, lsl #2
 2809              	.LBE1717:
 2810              	.LBE1716:
 2811              	.LBB1720:
 2812              	.LBB1721:
 2813              		.loc 3 826 0
 2814 09ee DEED003A 		vldr.32	s7, [lr]
 2815              	.LBE1721:
 2816              	.LBE1720:
 2817              	.LBE1735:
 2818              	.LBE1739:
 2819              		.loc 1 141 0
 2820 09f2 DFF8B4E0 		ldr	lr, .L409+4
 2821              	.LBB1740:
 2822              	.LBB1736:
 2823              	.LBB1724:
 2824              	.LBB1722:
 2825              		.loc 3 826 0
 2826 09f6 73EEE63A 		vsub.f32	s7, s7, s13
 2827 09fa B0EE663A 		vmov.f32	s6, s13
 2828 09fe A3EE843A 		vfma.f32	s6, s7, s8
 2829              	.LBE1722:
 2830              	.LBE1724:
 2831              	.LBB1725:
 2832              	.LBB1726:
 2833              	.LBB1727:
 2834              	.LBB1728:
 2835              		.loc 3 193 0
 2836 0a02 B4EEC73A 		vcmpe.f32	s6, s14
 2837 0a06 F1EE10FA 		vmrs	APSR_nzcv, FPSCR
 2838              	.LBE1728:
 2839              	.LBE1727:
 2840              	.LBE1726:
 2841              	.LBE1725:
 2842              	.LBB1732:
 2843              	.LBB1723:
 2844              		.loc 3 826 0
 2845 0a0a B0EE434A 		vmov.f32	s8, s6
 2846              	.LVL179:
 2847              	.LBE1723:
 2848              	.LBE1732:
 2849              	.LBB1733:
 2850              	.LBB1731:
ARM GAS  /tmp/ccJJl1OT.s 			page 51


 2851              	.LBB1730:
 2852              	.LBB1729:
 2853              		.loc 3 193 0
 2854 0a0e A8BF     		it	ge
 2855 0a10 B0EE474A 		vmovge.f32	s8, s14
 2856              	.LVL180:
 2857              	.LBE1729:
 2858              	.LBE1730:
 2859              	.LBE1731:
 2860              	.LBE1733:
 2861              		.loc 2 130 0
 2862 0a14 24EE254A 		vmul.f32	s8, s8, s11
 2863              	.LVL181:
 2864              	.LBE1736:
 2865              	.LBE1740:
 2866              		.loc 1 140 0
 2867 0a18 83ED0C4A 		vstr.32	s8, [r3, #48]
 2868 0a1c 8DED0A4A 		vstr.32	s8, [sp, #40]
 2869              	.LVL182:
 2870              	.LBB1741:
 2871              	.LBB1742:
 2872              	.LBB1743:
 2873              	.LBB1744:
 2874              		.loc 3 826 0
 2875 0a20 B0EE664A 		vmov.f32	s8, s13
 2876 0a24 A3EEA44A 		vfma.f32	s8, s7, s9
 2877              	.LBE1744:
 2878              	.LBE1743:
 2879              	.LBE1742:
 2880              	.LBE1741:
 2881              	.LBB1758:
 2882              	.LBB1759:
 2883              	.LBB1760:
 2884              	.LBB1761:
 2885 0a28 E3EE856A 		vfma.f32	s13, s7, s10
 2886              	.LBE1761:
 2887              	.LBE1760:
 2888              	.LBE1759:
 2889              	.LBE1758:
 2890              	.LBB1773:
 2891              	.LBB1755:
 2892              	.LBB1746:
 2893              	.LBB1747:
 2894              	.LBB1748:
 2895              	.LBB1749:
 2896              		.loc 3 193 0
 2897 0a2c B4EEC74A 		vcmpe.f32	s8, s14
 2898 0a30 F1EE10FA 		vmrs	APSR_nzcv, FPSCR
 2899              	.LBE1749:
 2900              	.LBE1748:
 2901              	.LBE1747:
 2902              	.LBE1746:
 2903              	.LBB1753:
 2904              	.LBB1745:
 2905              		.loc 3 826 0
 2906 0a34 F0EE444A 		vmov.f32	s9, s8
 2907              	.LVL183:
ARM GAS  /tmp/ccJJl1OT.s 			page 52


 2908              	.LBE1745:
 2909              	.LBE1753:
 2910              	.LBE1755:
 2911              	.LBE1773:
 2912              	.LBB1774:
 2913              	.LBB1770:
 2914              	.LBB1762:
 2915              	.LBB1763:
 2916              	.LBB1764:
 2917              	.LBB1765:
 2918              		.loc 3 193 0
 2919 0a38 F4EEC76A 		vcmpe.f32	s13, s14
 2920              	.LBE1765:
 2921              	.LBE1764:
 2922              	.LBE1763:
 2923              	.LBE1762:
 2924              	.LBE1770:
 2925              	.LBE1774:
 2926              	.LBB1775:
 2927              	.LBB1756:
 2928              	.LBB1754:
 2929              	.LBB1752:
 2930              	.LBB1751:
 2931              	.LBB1750:
 2932 0a3c A8BF     		it	ge
 2933 0a3e F0EE474A 		vmovge.f32	s9, s14
 2934              	.LVL184:
 2935              	.LBE1750:
 2936              	.LBE1751:
 2937              	.LBE1752:
 2938              	.LBE1754:
 2939              	.LBE1756:
 2940              	.LBE1775:
 2941              	.LBB1776:
 2942              	.LBB1771:
 2943              	.LBB1769:
 2944              	.LBB1768:
 2945              	.LBB1767:
 2946              	.LBB1766:
 2947 0a42 F1EE10FA 		vmrs	APSR_nzcv, FPSCR
 2948 0a46 A8BF     		it	ge
 2949 0a48 F0EE476A 		vmovge.f32	s13, s14
 2950              	.LBE1766:
 2951              	.LBE1767:
 2952              	.LBE1768:
 2953              	.LBE1769:
 2954              	.LBE1771:
 2955              	.LBE1776:
 2956              	.LBB1777:
 2957              	.LBB1778:
 2958              	.LBB1779:
 2959              	.LBB1780:
 2960              	.LBB1781:
 2961              	.LBB1782:
 2962              		.loc 4 85 0
 2963 0a4c 972E     		cmp	r6, #151
 2964 0a4e 28BF     		it	cs
ARM GAS  /tmp/ccJJl1OT.s 			page 53


 2965 0a50 9726     		movcs	r6, #151
 2966              	.LVL185:
 2967              	.LBE1782:
 2968              	.LBE1781:
 2969              	.LBE1780:
 2970              	.LBE1779:
 2971              	.LBB1785:
 2972              	.LBB1786:
 2973              	.LBB1787:
 2974              	.LBB1788:
 2975 0a52 972C     		cmp	r4, #151
 2976              	.LBE1788:
 2977              	.LBE1787:
 2978              	.LBE1786:
 2979              	.LBE1785:
 2980              	.LBE1778:
 2981              	.LBE1777:
 2982              	.LBB1811:
 2983              	.LBB1772:
 2984              		.loc 2 130 0
 2985 0a54 66EEA56A 		vmul.f32	s13, s13, s11
 2986              	.LBE1772:
 2987              	.LBE1811:
 2988              	.LBB1812:
 2989              	.LBB1807:
 2990              	.LBB1793:
 2991              	.LBB1791:
 2992              	.LBB1790:
 2993              	.LBB1789:
 2994              		.loc 4 85 0
 2995 0a58 28BF     		it	cs
 2996 0a5a 9724     		movcs	r4, #151
 2997              	.LBE1789:
 2998              	.LBE1790:
 2999              	.LBE1791:
 3000              	.LBE1793:
 3001              	.LBB1794:
 3002              	.LBB1783:
 3003              		.loc 2 115 0
 3004 0a5c 05EB8606 		add	r6, r5, r6, lsl #2
 3005              	.LBE1783:
 3006              	.LBE1794:
 3007              	.LBB1795:
 3008              	.LBB1792:
 3009 0a60 05EB8404 		add	r4, r5, r4, lsl #2
 3010              	.LBE1792:
 3011              	.LBE1795:
 3012              	.LBE1807:
 3013              	.LBE1812:
 3014              		.loc 1 142 0
 3015 0a64 CEED0E6A 		vstr.32	s13, [lr, #56]
 3016 0a68 CDED0C6A 		vstr.32	s13, [sp, #48]
 3017              	.LBB1813:
 3018              	.LBB1808:
 3019              	.LBB1796:
 3020              	.LBB1797:
 3021              		.loc 3 826 0
ARM GAS  /tmp/ccJJl1OT.s 			page 54


 3022 0a6c 94ED005A 		vldr.32	s10, [r4]
 3023              	.LBE1797:
 3024              	.LBE1796:
 3025              	.LBB1800:
 3026              	.LBB1784:
 3027              		.loc 2 115 0
 3028 0a70 D6ED006A 		vldr.32	s13, [r6]
 3029              	.LBE1784:
 3030              	.LBE1800:
 3031              	.LBB1801:
 3032              	.LBB1798:
 3033              		.loc 3 826 0
 3034 0a74 35EE665A 		vsub.f32	s10, s10, s13
 3035              	.LBE1798:
 3036              	.LBE1801:
 3037              	.LBE1808:
 3038              	.LBE1813:
 3039              	.LBB1814:
 3040              	.LBB1757:
 3041              		.loc 2 130 0
 3042 0a78 64EEA54A 		vmul.f32	s9, s9, s11
 3043              	.LVL186:
 3044              	.LBE1757:
 3045              	.LBE1814:
 3046              	.LBB1815:
 3047              	.LBB1809:
 3048              	.LBB1802:
 3049              	.LBB1799:
 3050              		.loc 3 826 0
 3051 0a7c E5EE066A 		vfma.f32	s13, s10, s12
 3052              	.LBE1799:
 3053              	.LBE1802:
 3054              	.LBE1809:
 3055              	.LBE1815:
 3056              		.loc 1 141 0
 3057 0a80 CEED0D4A 		vstr.32	s9, [lr, #52]
 3058 0a84 CDED0B4A 		vstr.32	s9, [sp, #44]
 3059              	.LVL187:
 3060              	.L399:
 3061              	.LBB1816:
 3062              	.LBB1810:
 3063              	.LBB1803:
 3064              	.LBB1804:
 3065              	.LBB1805:
 3066              	.LBB1806:
 3067              		.loc 3 193 0
 3068 0a88 F4EEC76A 		vcmpe.f32	s13, s14
 3069 0a8c F1EE10FA 		vmrs	APSR_nzcv, FPSCR
 3070 0a90 B8BF     		it	lt
 3071 0a92 B0EE667A 		vmovlt.f32	s14, s13
 3072              	.LVL188:
 3073              	.LBE1806:
 3074              	.LBE1805:
 3075              	.LBE1804:
 3076              	.LBE1803:
 3077              		.loc 2 130 0
 3078 0a96 27EE257A 		vmul.f32	s14, s14, s11
ARM GAS  /tmp/ccJJl1OT.s 			page 55


 3079              	.LBE1810:
 3080              	.LBE1816:
 3081              		.loc 1 143 0
 3082 0a9a 8EED0F7A 		vstr.32	s14, [lr, #60]
 3083 0a9e 8DED0D7A 		vstr.32	s14, [sp, #52]
 3084              		.loc 1 144 0
 3085 0aa2 ABE1     		b	.L9
 3086              	.L410:
 3087              		.align	2
 3088              	.L409:
 3089 0aa4 00000000 		.word	midi_to_hz_lut_f
 3090 0aa8 00000000 		.word	.LANCHOR0
 3091 0aac 8180803B 		.word	998277249
 3092 0ab0 3EC3AE37 		.word	934200126
 3093 0ab4 49FFB846 		.word	1186529097
 3094              	.LVL189:
 3095              	.L14:
 3096              		.loc 1 147 0
 3097 0ab8 8588     		ldrh	r5, [r0, #4]
 3098 0aba 93ED1C5A 		vldr.32	s10, [r3, #112]
 3099 0abe 1C7B     		ldrb	r4, [r3, #12]	@ zero_extendqisi2
 3100              	.LBB1817:
 3101              	.LBB1818:
 3102              		.loc 2 128 0
 3103 0ac0 5FED062A 		vldr.32	s5, .L409+8
 3104              		.loc 2 130 0
 3105 0ac4 5FED066A 		vldr.32	s13, .L409+12
 3106              	.LBE1818:
 3107              	.LBE1817:
 3108              		.loc 1 147 0
 3109 0ac8 2E0A     		lsrs	r6, r5, #8
 3110              	.LVL190:
 3111 0aca EDB2     		uxtb	r5, r5
 3112 0acc 05EE905A 		vmov	s11, r5	@ int
 3113 0ad0 F8EEE53A 		vcvt.f32.s32	s7, s11
 3114 0ad4 3444     		add	r4, r4, r6
 3115 0ad6 33EE857A 		vadd.f32	s14, s7, s10
 3116 0ada E4B2     		uxtb	r4, r4
 3117 0adc BCEEC77A 		vcvt.u32.f32	s14, s14
 3118              	.LBB1856:
 3119              	.LBB1849:
 3120              	.LBB1819:
 3121              	.LBB1820:
 3122              	.LBB1821:
 3123              	.LBB1822:
 3124              		.loc 4 85 0
 3125 0ae0 962C     		cmp	r4, #150
 3126              	.LBE1822:
 3127              	.LBE1821:
 3128              	.LBE1820:
 3129              	.LBE1819:
 3130              	.LBE1849:
 3131              	.LBE1856:
 3132              		.loc 1 147 0
 3133 0ae2 8DED017A 		vstr.32	s14, [sp, #4]	@ int
 3134 0ae6 9DF80450 		ldrb	r5, [sp, #4]	@ zero_extendqisi2
 3135              	.LBB1857:
ARM GAS  /tmp/ccJJl1OT.s 			page 56


 3136              	.LBB1850:
 3137              	.LBB1826:
 3138              	.LBB1827:
 3139              	.LBB1828:
 3140              	.LBB1829:
 3141              		.loc 3 193 0
 3142 0aea 1FED0E7A 		vldr.32	s14, .L409+16
 3143              	.LBE1829:
 3144              	.LBE1828:
 3145              	.LBE1827:
 3146              	.LBE1826:
 3147              	.LBE1850:
 3148              	.LBE1857:
 3149              		.loc 1 147 0
 3150 0aee 04EE905A 		vmov	s9, r5	@ int
 3151              	.LVL191:
 3152              	.LBB1858:
 3153              	.LBB1851:
 3154              	.LBB1836:
 3155              	.LBB1825:
 3156              		.loc 2 115 0
 3157 0af2 E64D     		ldr	r5, .L411
 3158              	.LVL192:
 3159              	.LBB1824:
 3160              	.LBB1823:
 3161              		.loc 4 85 0
 3162 0af4 94BF     		ite	ls
 3163 0af6 A646     		movls	lr, r4
 3164 0af8 4FF0970E 		movhi	lr, #151
 3165              	.LVL193:
 3166              	.LBE1823:
 3167              	.LBE1824:
 3168              		.loc 2 115 0
 3169 0afc 05EB8E0E 		add	lr, r5, lr, lsl #2
 3170 0b00 9EED006A 		vldr.32	s12, [lr]
 3171              	.LVL194:
 3172              	.LBE1825:
 3173              	.LBE1836:
 3174              		.loc 2 126 0
 3175 0b04 04F1010E 		add	lr, r4, #1
 3176 0b08 5FFA8EFE 		uxtb	lr, lr
 3177              	.LVL195:
 3178              	.LBB1837:
 3179              	.LBB1838:
 3180              	.LBB1839:
 3181              	.LBB1840:
 3182              		.loc 4 85 0
 3183 0b0c BEF1960F 		cmp	lr, #150
 3184 0b10 94BF     		ite	ls
 3185 0b12 F446     		movls	ip, lr
 3186 0b14 4FF0970C 		movhi	ip, #151
 3187              	.LVL196:
 3188              	.LBE1840:
 3189              	.LBE1839:
 3190              		.loc 2 115 0
 3191 0b18 05EB8C0C 		add	ip, r5, ip, lsl #2
 3192              	.LBE1838:
ARM GAS  /tmp/ccJJl1OT.s 			page 57


 3193              	.LBE1837:
 3194              	.LBB1841:
 3195              	.LBB1842:
 3196              		.loc 3 826 0
 3197 0b1c 9CED003A 		vldr.32	s6, [ip]
 3198              	.LBE1842:
 3199              	.LBE1841:
 3200              		.loc 2 128 0
 3201 0b20 F8EEE44A 		vcvt.f32.s32	s9, s9
 3202              	.LVL197:
 3203              	.LBB1845:
 3204              	.LBB1843:
 3205              		.loc 3 826 0
 3206 0b24 33EE463A 		vsub.f32	s6, s6, s12
 3207              	.LBE1843:
 3208              	.LBE1845:
 3209              		.loc 2 128 0
 3210 0b28 64EEA24A 		vmul.f32	s9, s9, s5
 3211              	.LVL198:
 3212              	.LBE1851:
 3213              	.LBE1858:
 3214              	.LBB1859:
 3215              	.LBB1860:
 3216 0b2c 63EEA25A 		vmul.f32	s11, s7, s5
 3217              	.LBE1860:
 3218              	.LBE1859:
 3219              	.LBB1874:
 3220              	.LBB1852:
 3221              	.LBB1846:
 3222              	.LBB1844:
 3223              		.loc 3 826 0
 3224 0b30 B0EE464A 		vmov.f32	s8, s12
 3225 0b34 A4EE834A 		vfma.f32	s8, s9, s6
 3226              	.LVL199:
 3227              	.LBE1844:
 3228              	.LBE1846:
 3229              	.LBE1852:
 3230              	.LBE1874:
 3231              	.LBB1875:
 3232              	.LBB1871:
 3233              	.LBB1861:
 3234              	.LBB1862:
 3235 0b38 A5EE836A 		vfma.f32	s12, s11, s6
 3236              	.LBE1862:
 3237              	.LBE1861:
 3238              	.LBE1871:
 3239              	.LBE1875:
 3240              	.LBB1876:
 3241              	.LBB1853:
 3242              	.LBB1847:
 3243              	.LBB1834:
 3244              	.LBB1832:
 3245              	.LBB1830:
 3246              		.loc 3 193 0
 3247 0b3c B4EEC74A 		vcmpe.f32	s8, s14
 3248 0b40 F1EE10FA 		vmrs	APSR_nzcv, FPSCR
 3249              	.LBE1830:
ARM GAS  /tmp/ccJJl1OT.s 			page 58


 3250              	.LBE1832:
 3251              	.LBE1834:
 3252              	.LBE1847:
 3253              	.LBE1853:
 3254              	.LBE1876:
 3255              	.LBB1877:
 3256              	.LBB1872:
 3257              	.LBB1863:
 3258              	.LBB1864:
 3259              	.LBB1865:
 3260              	.LBB1866:
 3261 0b44 B4EEC76A 		vcmpe.f32	s12, s14
 3262              	.LBE1866:
 3263              	.LBE1865:
 3264              	.LBE1864:
 3265              	.LBE1863:
 3266              	.LBE1872:
 3267              	.LBE1877:
 3268              	.LBB1878:
 3269              	.LBB1854:
 3270              	.LBB1848:
 3271              	.LBB1835:
 3272              	.LBB1833:
 3273              	.LBB1831:
 3274 0b48 A8BF     		it	ge
 3275 0b4a B0EE474A 		vmovge.f32	s8, s14
 3276              	.LVL200:
 3277              	.LBE1831:
 3278              	.LBE1833:
 3279              	.LBE1835:
 3280              	.LBE1848:
 3281              	.LBE1854:
 3282              	.LBE1878:
 3283              	.LBB1879:
 3284              	.LBB1873:
 3285              	.LBB1870:
 3286              	.LBB1869:
 3287              	.LBB1868:
 3288              	.LBB1867:
 3289 0b4e F1EE10FA 		vmrs	APSR_nzcv, FPSCR
 3290 0b52 A8BF     		it	ge
 3291 0b54 B0EE476A 		vmovge.f32	s12, s14
 3292              	.LBE1867:
 3293              	.LBE1868:
 3294              	.LBE1869:
 3295              	.LBE1870:
 3296              		.loc 2 130 0
 3297 0b58 26EE266A 		vmul.f32	s12, s12, s13
 3298              	.LBE1873:
 3299              	.LBE1879:
 3300              		.loc 1 149 0
 3301 0b5c 73EEC53A 		vsub.f32	s7, s7, s10
 3302              	.LBB1880:
 3303              	.LBB1881:
 3304              	.LBB1882:
 3305              	.LBB1883:
 3306              	.LBB1884:
ARM GAS  /tmp/ccJJl1OT.s 			page 59


 3307              	.LBB1885:
 3308              		.loc 4 85 0
 3309 0b60 972C     		cmp	r4, #151
 3310              	.LBE1885:
 3311              	.LBE1884:
 3312              	.LBE1883:
 3313              	.LBE1882:
 3314              	.LBE1881:
 3315              	.LBE1880:
 3316              		.loc 1 148 0
 3317 0b62 83ED056A 		vstr.32	s12, [r3, #20]
 3318 0b66 8DED036A 		vstr.32	s12, [sp, #12]
 3319              		.loc 1 149 0
 3320 0b6a BCEEE36A 		vcvt.u32.f32	s12, s7
 3321              	.LBB1921:
 3322              	.LBB1912:
 3323              	.LBB1891:
 3324              	.LBB1888:
 3325              	.LBB1887:
 3326              	.LBB1886:
 3327              		.loc 4 85 0
 3328 0b6e 28BF     		it	cs
 3329 0b70 9724     		movcs	r4, #151
 3330              	.LVL201:
 3331              	.LBE1886:
 3332              	.LBE1887:
 3333              	.LBE1888:
 3334              	.LBE1891:
 3335              	.LBE1912:
 3336              	.LBE1921:
 3337              		.loc 1 149 0
 3338 0b72 8DED016A 		vstr.32	s12, [sp, #4]	@ int
 3339              	.LVL202:
 3340              	.LBB1922:
 3341              	.LBB1913:
 3342              	.LBB1892:
 3343              	.LBB1889:
 3344              		.loc 2 115 0
 3345 0b76 05EB8404 		add	r4, r5, r4, lsl #2
 3346              	.LBE1889:
 3347              	.LBE1892:
 3348              	.LBE1913:
 3349              	.LBE1922:
 3350              		.loc 1 149 0
 3351 0b7a 9DF804C0 		ldrb	ip, [sp, #4]	@ zero_extendqisi2
 3352              	.LBB1923:
 3353              	.LBB1914:
 3354              	.LBB1893:
 3355              	.LBB1890:
 3356              		.loc 2 115 0
 3357 0b7e 94ED006A 		vldr.32	s12, [r4]
 3358              	.LBE1890:
 3359              	.LBE1893:
 3360              	.LBB1894:
 3361              	.LBB1895:
 3362              	.LBB1896:
 3363              	.LBB1897:
ARM GAS  /tmp/ccJJl1OT.s 			page 60


 3364              		.loc 4 85 0
 3365 0b82 7446     		mov	r4, lr
 3366 0b84 972C     		cmp	r4, #151
 3367              	.LBE1897:
 3368              	.LBE1896:
 3369              	.LBE1895:
 3370              	.LBE1894:
 3371              	.LBE1914:
 3372              	.LBE1923:
 3373              		.loc 1 149 0
 3374 0b86 05EE10CA 		vmov	s10, ip	@ int
 3375              	.LBB1924:
 3376              	.LBB1855:
 3377              		.loc 2 130 0
 3378 0b8a 24EE264A 		vmul.f32	s8, s8, s13
 3379              	.LVL203:
 3380              	.LBE1855:
 3381              	.LBE1924:
 3382              	.LBB1925:
 3383              	.LBB1915:
 3384              	.LBB1901:
 3385              	.LBB1900:
 3386              	.LBB1899:
 3387              	.LBB1898:
 3388              		.loc 4 85 0
 3389 0b8e 28BF     		it	cs
 3390 0b90 9724     		movcs	r4, #151
 3391              	.LBE1898:
 3392              	.LBE1899:
 3393              		.loc 2 115 0
 3394 0b92 05EB8404 		add	r4, r5, r4, lsl #2
 3395              	.LBE1900:
 3396              	.LBE1901:
 3397              	.LBE1915:
 3398              	.LBE1925:
 3399              		.loc 1 147 0
 3400 0b96 83ED044A 		vstr.32	s8, [r3, #16]
 3401 0b9a 8DED024A 		vstr.32	s8, [sp, #8]
 3402              	.LVL204:
 3403              	.LBB1926:
 3404              	.LBB1916:
 3405              		.loc 2 128 0
 3406 0b9e B8EEC55A 		vcvt.f32.s32	s10, s10
 3407              	.LBB1902:
 3408              	.LBB1903:
 3409              		.loc 3 826 0
 3410 0ba2 94ED004A 		vldr.32	s8, [r4]
 3411              	.LBE1903:
 3412              	.LBE1902:
 3413              	.LBE1916:
 3414              	.LBE1926:
 3415              		.loc 1 150 0
 3416 0ba6 5C7B     		ldrb	r4, [r3, #13]	@ zero_extendqisi2
 3417              	.LBB1927:
 3418              	.LBB1917:
 3419              		.loc 2 128 0
 3420 0ba8 25EE225A 		vmul.f32	s10, s10, s5
ARM GAS  /tmp/ccJJl1OT.s 			page 61


 3421              	.LVL205:
 3422              	.LBB1906:
 3423              	.LBB1904:
 3424              		.loc 3 826 0
 3425 0bac 34EE464A 		vsub.f32	s8, s8, s12
 3426              	.LBE1904:
 3427              	.LBE1906:
 3428              	.LBE1917:
 3429              	.LBE1927:
 3430              		.loc 1 150 0
 3431 0bb0 3444     		add	r4, r4, r6
 3432              	.LBB1928:
 3433              	.LBB1918:
 3434              	.LBB1907:
 3435              	.LBB1905:
 3436              		.loc 3 826 0
 3437 0bb2 A5EE046A 		vfma.f32	s12, s10, s8
 3438              	.LVL206:
 3439              	.LBE1905:
 3440              	.LBE1907:
 3441              	.LBE1918:
 3442              	.LBE1928:
 3443              		.loc 1 150 0
 3444 0bb6 E4B2     		uxtb	r4, r4
 3445              	.LBB1929:
 3446              	.LBB1919:
 3447              	.LBB1908:
 3448              	.LBB1909:
 3449              	.LBB1910:
 3450              	.LBB1911:
 3451              		.loc 3 193 0
 3452 0bb8 B4EEC76A 		vcmpe.f32	s12, s14
 3453 0bbc F1EE10FA 		vmrs	APSR_nzcv, FPSCR
 3454 0bc0 A8BF     		it	ge
 3455 0bc2 B0EE476A 		vmovge.f32	s12, s14
 3456              	.LVL207:
 3457              	.LBE1911:
 3458              	.LBE1910:
 3459              	.LBE1909:
 3460              	.LBE1908:
 3461              	.LBE1919:
 3462              	.LBE1929:
 3463              	.LBB1930:
 3464              	.LBB1931:
 3465              	.LBB1932:
 3466              	.LBB1933:
 3467              	.LBB1934:
 3468              	.LBB1935:
 3469              		.loc 4 85 0
 3470 0bc6 962C     		cmp	r4, #150
 3471 0bc8 98BF     		it	ls
 3472 0bca A646     		movls	lr, r4
 3473              	.LBE1935:
 3474              	.LBE1934:
 3475              	.LBE1933:
 3476              	.LBE1932:
 3477              	.LBE1931:
ARM GAS  /tmp/ccJJl1OT.s 			page 62


 3478              	.LBE1930:
 3479              	.LBB1961:
 3480              	.LBB1920:
 3481              		.loc 2 130 0
 3482 0bcc 26EE266A 		vmul.f32	s12, s12, s13
 3483              	.LVL208:
 3484              	.LBE1920:
 3485              	.LBE1961:
 3486              	.LBB1962:
 3487              	.LBB1956:
 3488              	.LBB1940:
 3489              	.LBB1938:
 3490              	.LBB1937:
 3491              	.LBB1936:
 3492              		.loc 4 85 0
 3493 0bd0 88BF     		it	hi
 3494 0bd2 4FF0970E 		movhi	lr, #151
 3495              	.LVL209:
 3496              	.LBE1936:
 3497              	.LBE1937:
 3498              		.loc 2 115 0
 3499 0bd6 05EB8E0E 		add	lr, r5, lr, lsl #2
 3500              	.LBE1938:
 3501              	.LBE1940:
 3502              	.LBE1956:
 3503              	.LBE1962:
 3504              		.loc 1 149 0
 3505 0bda 83ED066A 		vstr.32	s12, [r3, #24]
 3506 0bde 8DED046A 		vstr.32	s12, [sp, #16]
 3507              	.LBB1963:
 3508              	.LBB1957:
 3509              	.LBB1941:
 3510              	.LBB1939:
 3511              		.loc 2 115 0
 3512 0be2 9EED006A 		vldr.32	s12, [lr]
 3513              	.LVL210:
 3514              	.LBE1939:
 3515              	.LBE1941:
 3516              		.loc 2 126 0
 3517 0be6 04F1010E 		add	lr, r4, #1
 3518 0bea 5FFA8EFE 		uxtb	lr, lr
 3519              	.LVL211:
 3520              	.LBB1942:
 3521              	.LBB1943:
 3522              	.LBB1944:
 3523              	.LBB1945:
 3524              		.loc 4 85 0
 3525 0bee BEF1960F 		cmp	lr, #150
 3526 0bf2 94BF     		ite	ls
 3527 0bf4 F446     		movls	ip, lr
 3528 0bf6 4FF0970C 		movhi	ip, #151
 3529              	.LVL212:
 3530              	.LBE1945:
 3531              	.LBE1944:
 3532              		.loc 2 115 0
 3533 0bfa 05EB8C0C 		add	ip, r5, ip, lsl #2
 3534              	.LBE1943:
ARM GAS  /tmp/ccJJl1OT.s 			page 63


 3535              	.LBE1942:
 3536              	.LBB1946:
 3537              	.LBB1947:
 3538              		.loc 3 826 0
 3539 0bfe DCED003A 		vldr.32	s7, [ip]
 3540 0c02 73EEC63A 		vsub.f32	s7, s7, s12
 3541 0c06 B0EE464A 		vmov.f32	s8, s12
 3542 0c0a A3EEA44A 		vfma.f32	s8, s7, s9
 3543              	.LVL213:
 3544              	.LBE1947:
 3545              	.LBE1946:
 3546              	.LBE1957:
 3547              	.LBE1963:
 3548              	.LBB1964:
 3549              	.LBB1965:
 3550              	.LBB1966:
 3551              	.LBB1967:
 3552 0c0e A3EEA56A 		vfma.f32	s12, s7, s11
 3553              	.LBE1967:
 3554              	.LBE1966:
 3555              	.LBE1965:
 3556              	.LBE1964:
 3557              	.LBB1979:
 3558              	.LBB1958:
 3559              	.LBB1948:
 3560              	.LBB1949:
 3561              	.LBB1950:
 3562              	.LBB1951:
 3563              		.loc 3 193 0
 3564 0c12 B4EEC74A 		vcmpe.f32	s8, s14
 3565 0c16 F1EE10FA 		vmrs	APSR_nzcv, FPSCR
 3566              	.LBE1951:
 3567              	.LBE1950:
 3568              	.LBE1949:
 3569              	.LBE1948:
 3570              	.LBE1958:
 3571              	.LBE1979:
 3572              	.LBB1980:
 3573              	.LBB1976:
 3574              	.LBB1968:
 3575              	.LBB1969:
 3576              	.LBB1970:
 3577              	.LBB1971:
 3578 0c1a B4EEC76A 		vcmpe.f32	s12, s14
 3579              	.LBE1971:
 3580              	.LBE1970:
 3581              	.LBE1969:
 3582              	.LBE1968:
 3583              	.LBE1976:
 3584              	.LBE1980:
 3585              	.LBB1981:
 3586              	.LBB1959:
 3587              	.LBB1955:
 3588              	.LBB1954:
 3589              	.LBB1953:
 3590              	.LBB1952:
 3591 0c1e A8BF     		it	ge
ARM GAS  /tmp/ccJJl1OT.s 			page 64


 3592 0c20 B0EE474A 		vmovge.f32	s8, s14
 3593              	.LVL214:
 3594              	.LBE1952:
 3595              	.LBE1953:
 3596              	.LBE1954:
 3597              	.LBE1955:
 3598              	.LBE1959:
 3599              	.LBE1981:
 3600              	.LBB1982:
 3601              	.LBB1977:
 3602              	.LBB1975:
 3603              	.LBB1974:
 3604              	.LBB1973:
 3605              	.LBB1972:
 3606 0c24 F1EE10FA 		vmrs	APSR_nzcv, FPSCR
 3607 0c28 A8BF     		it	ge
 3608 0c2a B0EE476A 		vmovge.f32	s12, s14
 3609              	.LBE1972:
 3610              	.LBE1973:
 3611              	.LBE1974:
 3612              	.LBE1975:
 3613              	.LBE1977:
 3614              	.LBE1982:
 3615              	.LBB1983:
 3616              	.LBB1984:
 3617              	.LBB1985:
 3618              	.LBB1986:
 3619              	.LBB1987:
 3620              	.LBB1988:
 3621              		.loc 4 85 0
 3622 0c2e 972C     		cmp	r4, #151
 3623 0c30 28BF     		it	cs
 3624 0c32 9724     		movcs	r4, #151
 3625              	.LVL215:
 3626              	.LBE1988:
 3627              	.LBE1987:
 3628              	.LBE1986:
 3629              	.LBE1985:
 3630              	.LBB1991:
 3631              	.LBB1992:
 3632              	.LBB1993:
 3633              	.LBB1994:
 3634 0c34 BEF1970F 		cmp	lr, #151
 3635              	.LBE1994:
 3636              	.LBE1993:
 3637              	.LBE1992:
 3638              	.LBE1991:
 3639              	.LBE1984:
 3640              	.LBE1983:
 3641              	.LBB2018:
 3642              	.LBB1960:
 3643              		.loc 2 130 0
 3644 0c38 24EE264A 		vmul.f32	s8, s8, s13
 3645              	.LVL216:
 3646              	.LBE1960:
 3647              	.LBE2018:
 3648              	.LBB2019:
ARM GAS  /tmp/ccJJl1OT.s 			page 65


 3649              	.LBB1978:
 3650 0c3c 26EE266A 		vmul.f32	s12, s12, s13
 3651              	.LBE1978:
 3652              	.LBE2019:
 3653              	.LBB2020:
 3654              	.LBB2011:
 3655              	.LBB1998:
 3656              	.LBB1997:
 3657              	.LBB1996:
 3658              	.LBB1995:
 3659              		.loc 4 85 0
 3660 0c40 28BF     		it	cs
 3661 0c42 4FF0970E 		movcs	lr, #151
 3662              	.LBE1995:
 3663              	.LBE1996:
 3664              		.loc 2 115 0
 3665 0c46 05EB8E0E 		add	lr, r5, lr, lsl #2
 3666              	.LBE1997:
 3667              	.LBE1998:
 3668              	.LBB1999:
 3669              	.LBB1989:
 3670 0c4a 05EB8404 		add	r4, r5, r4, lsl #2
 3671              	.LBE1989:
 3672              	.LBE1999:
 3673              	.LBE2011:
 3674              	.LBE2020:
 3675              		.loc 1 150 0
 3676 0c4e 83ED074A 		vstr.32	s8, [r3, #28]
 3677 0c52 8DED054A 		vstr.32	s8, [sp, #20]
 3678              	.LVL217:
 3679              		.loc 1 151 0
 3680 0c56 83ED086A 		vstr.32	s12, [r3, #32]
 3681              	.LBB2021:
 3682              	.LBB2012:
 3683              	.LBB2000:
 3684              	.LBB2001:
 3685              		.loc 3 826 0
 3686 0c5a 9EED004A 		vldr.32	s8, [lr]
 3687              	.LBE2001:
 3688              	.LBE2000:
 3689              	.LBE2012:
 3690              	.LBE2021:
 3691              		.loc 1 151 0
 3692 0c5e 8DED066A 		vstr.32	s12, [sp, #24]
 3693              	.LVL218:
 3694              	.LBB2022:
 3695              	.LBB2013:
 3696              	.LBB2004:
 3697              	.LBB1990:
 3698              		.loc 2 115 0
 3699 0c62 94ED006A 		vldr.32	s12, [r4]
 3700              	.LVL219:
 3701              	.LBE1990:
 3702              	.LBE2004:
 3703              	.LBE2013:
 3704              	.LBE2022:
 3705              		.loc 1 153 0
ARM GAS  /tmp/ccJJl1OT.s 			page 66


 3706 0c66 9C7B     		ldrb	r4, [r3, #14]	@ zero_extendqisi2
 3707              	.LBB2023:
 3708              	.LBB2014:
 3709              	.LBB2005:
 3710              	.LBB2002:
 3711              		.loc 3 826 0
 3712 0c68 34EE464A 		vsub.f32	s8, s8, s12
 3713              	.LBE2002:
 3714              	.LBE2005:
 3715              	.LBE2014:
 3716              	.LBE2023:
 3717              		.loc 1 153 0
 3718 0c6c 3444     		add	r4, r4, r6
 3719              	.LBB2024:
 3720              	.LBB2015:
 3721              	.LBB2006:
 3722              	.LBB2003:
 3723              		.loc 3 826 0
 3724 0c6e A4EE056A 		vfma.f32	s12, s8, s10
 3725              	.LVL220:
 3726              	.LBE2003:
 3727              	.LBE2006:
 3728              	.LBE2015:
 3729              	.LBE2024:
 3730              		.loc 1 153 0
 3731 0c72 E4B2     		uxtb	r4, r4
 3732              	.LBB2025:
 3733              	.LBB2016:
 3734              	.LBB2007:
 3735              	.LBB2008:
 3736              	.LBB2009:
 3737              	.LBB2010:
 3738              		.loc 3 193 0
 3739 0c74 B4EEC76A 		vcmpe.f32	s12, s14
 3740 0c78 F1EE10FA 		vmrs	APSR_nzcv, FPSCR
 3741 0c7c A8BF     		it	ge
 3742 0c7e B0EE476A 		vmovge.f32	s12, s14
 3743              	.LVL221:
 3744              	.LBE2010:
 3745              	.LBE2009:
 3746              	.LBE2008:
 3747              	.LBE2007:
 3748              	.LBE2016:
 3749              	.LBE2025:
 3750              	.LBB2026:
 3751              	.LBB2027:
 3752              	.LBB2028:
 3753              	.LBB2029:
 3754              	.LBB2030:
 3755              	.LBB2031:
 3756              		.loc 4 85 0
 3757 0c82 962C     		cmp	r4, #150
 3758 0c84 98BF     		it	ls
 3759 0c86 A646     		movls	lr, r4
 3760              	.LBE2031:
 3761              	.LBE2030:
 3762              	.LBE2029:
ARM GAS  /tmp/ccJJl1OT.s 			page 67


 3763              	.LBE2028:
 3764              	.LBE2027:
 3765              	.LBE2026:
 3766              	.LBB2057:
 3767              	.LBB2017:
 3768              		.loc 2 130 0
 3769 0c88 26EE266A 		vmul.f32	s12, s12, s13
 3770              	.LVL222:
 3771              	.LBE2017:
 3772              	.LBE2057:
 3773              	.LBB2058:
 3774              	.LBB2052:
 3775              	.LBB2036:
 3776              	.LBB2034:
 3777              	.LBB2033:
 3778              	.LBB2032:
 3779              		.loc 4 85 0
 3780 0c8c 88BF     		it	hi
 3781 0c8e 4FF0970E 		movhi	lr, #151
 3782              	.LVL223:
 3783              	.LBE2032:
 3784              	.LBE2033:
 3785              		.loc 2 115 0
 3786 0c92 05EB8E0E 		add	lr, r5, lr, lsl #2
 3787              	.LBE2034:
 3788              	.LBE2036:
 3789              	.LBE2052:
 3790              	.LBE2058:
 3791              		.loc 1 152 0
 3792 0c96 83ED096A 		vstr.32	s12, [r3, #36]
 3793 0c9a 8DED076A 		vstr.32	s12, [sp, #28]
 3794              	.LBB2059:
 3795              	.LBB2053:
 3796              	.LBB2037:
 3797              	.LBB2035:
 3798              		.loc 2 115 0
 3799 0c9e 9EED006A 		vldr.32	s12, [lr]
 3800              	.LVL224:
 3801              	.LBE2035:
 3802              	.LBE2037:
 3803              		.loc 2 126 0
 3804 0ca2 04F1010E 		add	lr, r4, #1
 3805 0ca6 5FFA8EFE 		uxtb	lr, lr
 3806              	.LVL225:
 3807              	.LBB2038:
 3808              	.LBB2039:
 3809              	.LBB2040:
 3810              	.LBB2041:
 3811              		.loc 4 85 0
 3812 0caa BEF1960F 		cmp	lr, #150
 3813 0cae 94BF     		ite	ls
 3814 0cb0 F446     		movls	ip, lr
 3815 0cb2 4FF0970C 		movhi	ip, #151
 3816              	.LVL226:
 3817              	.LBE2041:
 3818              	.LBE2040:
 3819              		.loc 2 115 0
ARM GAS  /tmp/ccJJl1OT.s 			page 68


 3820 0cb6 05EB8C0C 		add	ip, r5, ip, lsl #2
 3821              	.LBE2039:
 3822              	.LBE2038:
 3823              	.LBB2042:
 3824              	.LBB2043:
 3825              		.loc 3 826 0
 3826 0cba DCED003A 		vldr.32	s7, [ip]
 3827 0cbe 73EEC63A 		vsub.f32	s7, s7, s12
 3828 0cc2 B0EE464A 		vmov.f32	s8, s12
 3829 0cc6 A3EEA44A 		vfma.f32	s8, s7, s9
 3830              	.LVL227:
 3831              	.LBE2043:
 3832              	.LBE2042:
 3833              	.LBE2053:
 3834              	.LBE2059:
 3835              	.LBB2060:
 3836              	.LBB2061:
 3837              	.LBB2062:
 3838              	.LBB2063:
 3839 0cca A3EEA56A 		vfma.f32	s12, s7, s11
 3840              	.LBE2063:
 3841              	.LBE2062:
 3842              	.LBE2061:
 3843              	.LBE2060:
 3844              	.LBB2075:
 3845              	.LBB2054:
 3846              	.LBB2044:
 3847              	.LBB2045:
 3848              	.LBB2046:
 3849              	.LBB2047:
 3850              		.loc 3 193 0
 3851 0cce B4EEC74A 		vcmpe.f32	s8, s14
 3852 0cd2 F1EE10FA 		vmrs	APSR_nzcv, FPSCR
 3853              	.LBE2047:
 3854              	.LBE2046:
 3855              	.LBE2045:
 3856              	.LBE2044:
 3857              	.LBE2054:
 3858              	.LBE2075:
 3859              	.LBB2076:
 3860              	.LBB2072:
 3861              	.LBB2064:
 3862              	.LBB2065:
 3863              	.LBB2066:
 3864              	.LBB2067:
 3865 0cd6 B4EEC76A 		vcmpe.f32	s12, s14
 3866              	.LBE2067:
 3867              	.LBE2066:
 3868              	.LBE2065:
 3869              	.LBE2064:
 3870              	.LBE2072:
 3871              	.LBE2076:
 3872              	.LBB2077:
 3873              	.LBB2055:
 3874              	.LBB2051:
 3875              	.LBB2050:
 3876              	.LBB2049:
ARM GAS  /tmp/ccJJl1OT.s 			page 69


 3877              	.LBB2048:
 3878 0cda A8BF     		it	ge
 3879 0cdc B0EE474A 		vmovge.f32	s8, s14
 3880              	.LVL228:
 3881              	.LBE2048:
 3882              	.LBE2049:
 3883              	.LBE2050:
 3884              	.LBE2051:
 3885              	.LBE2055:
 3886              	.LBE2077:
 3887              	.LBB2078:
 3888              	.LBB2073:
 3889              	.LBB2071:
 3890              	.LBB2070:
 3891              	.LBB2069:
 3892              	.LBB2068:
 3893 0ce0 F1EE10FA 		vmrs	APSR_nzcv, FPSCR
 3894 0ce4 A8BF     		it	ge
 3895 0ce6 B0EE476A 		vmovge.f32	s12, s14
 3896              	.LBE2068:
 3897              	.LBE2069:
 3898              	.LBE2070:
 3899              	.LBE2071:
 3900              	.LBE2073:
 3901              	.LBE2078:
 3902              	.LBB2079:
 3903              	.LBB2080:
 3904              	.LBB2081:
 3905              	.LBB2082:
 3906              	.LBB2083:
 3907              	.LBB2084:
 3908              		.loc 4 85 0
 3909 0cea 972C     		cmp	r4, #151
 3910 0cec 28BF     		it	cs
 3911 0cee 9724     		movcs	r4, #151
 3912              	.LVL229:
 3913              	.LBE2084:
 3914              	.LBE2083:
 3915              	.LBE2082:
 3916              	.LBE2081:
 3917              	.LBB2087:
 3918              	.LBB2088:
 3919              	.LBB2089:
 3920              	.LBB2090:
 3921 0cf0 BEF1970F 		cmp	lr, #151
 3922              	.LBE2090:
 3923              	.LBE2089:
 3924              	.LBE2088:
 3925              	.LBE2087:
 3926              	.LBE2080:
 3927              	.LBE2079:
 3928              	.LBB2114:
 3929              	.LBB2056:
 3930              		.loc 2 130 0
 3931 0cf4 24EE264A 		vmul.f32	s8, s8, s13
 3932              	.LVL230:
 3933              	.LBE2056:
ARM GAS  /tmp/ccJJl1OT.s 			page 70


 3934              	.LBE2114:
 3935              	.LBB2115:
 3936              	.LBB2074:
 3937 0cf8 26EE266A 		vmul.f32	s12, s12, s13
 3938              	.LBE2074:
 3939              	.LBE2115:
 3940              	.LBB2116:
 3941              	.LBB2107:
 3942              	.LBB2094:
 3943              	.LBB2093:
 3944              	.LBB2092:
 3945              	.LBB2091:
 3946              		.loc 4 85 0
 3947 0cfc 28BF     		it	cs
 3948 0cfe 4FF0970E 		movcs	lr, #151
 3949              	.LBE2091:
 3950              	.LBE2092:
 3951              		.loc 2 115 0
 3952 0d02 05EB8E0E 		add	lr, r5, lr, lsl #2
 3953              	.LBE2093:
 3954              	.LBE2094:
 3955              	.LBB2095:
 3956              	.LBB2085:
 3957 0d06 05EB8404 		add	r4, r5, r4, lsl #2
 3958              	.LBE2085:
 3959              	.LBE2095:
 3960              	.LBE2107:
 3961              	.LBE2116:
 3962              		.loc 1 153 0
 3963 0d0a 83ED0A4A 		vstr.32	s8, [r3, #40]
 3964 0d0e 8DED084A 		vstr.32	s8, [sp, #32]
 3965              	.LVL231:
 3966              	.LBB2117:
 3967              	.LBB2108:
 3968              	.LBB2096:
 3969              	.LBB2097:
 3970              		.loc 3 826 0
 3971 0d12 9EED004A 		vldr.32	s8, [lr]
 3972              	.LBE2097:
 3973              	.LBE2096:
 3974              	.LBE2108:
 3975              	.LBE2117:
 3976              		.loc 1 154 0
 3977 0d16 83ED0B6A 		vstr.32	s12, [r3, #44]
 3978 0d1a 8DED096A 		vstr.32	s12, [sp, #36]
 3979              	.LVL232:
 3980              	.LBB2118:
 3981              	.LBB2109:
 3982              	.LBB2100:
 3983              	.LBB2086:
 3984              		.loc 2 115 0
 3985 0d1e 94ED006A 		vldr.32	s12, [r4]
 3986              	.LVL233:
 3987              	.LBE2086:
 3988              	.LBE2100:
 3989              	.LBE2109:
 3990              	.LBE2118:
ARM GAS  /tmp/ccJJl1OT.s 			page 71


 3991              		.loc 1 156 0
 3992 0d22 DC7B     		ldrb	r4, [r3, #15]	@ zero_extendqisi2
 3993              	.LBB2119:
 3994              	.LBB2110:
 3995              	.LBB2101:
 3996              	.LBB2098:
 3997              		.loc 3 826 0
 3998 0d24 34EE464A 		vsub.f32	s8, s8, s12
 3999              	.LBE2098:
 4000              	.LBE2101:
 4001              	.LBE2110:
 4002              	.LBE2119:
 4003              		.loc 1 156 0
 4004 0d28 2644     		add	r6, r6, r4
 4005              	.LBB2120:
 4006              	.LBB2111:
 4007              	.LBB2102:
 4008              	.LBB2099:
 4009              		.loc 3 826 0
 4010 0d2a A4EE056A 		vfma.f32	s12, s8, s10
 4011              	.LVL234:
 4012              	.LBE2099:
 4013              	.LBE2102:
 4014              	.LBE2111:
 4015              	.LBE2120:
 4016              		.loc 1 156 0
 4017 0d2e F6B2     		uxtb	r6, r6
 4018              	.LBB2121:
 4019              	.LBB2112:
 4020              	.LBB2103:
 4021              	.LBB2104:
 4022              	.LBB2105:
 4023              	.LBB2106:
 4024              		.loc 3 193 0
 4025 0d30 B4EEC76A 		vcmpe.f32	s12, s14
 4026 0d34 F1EE10FA 		vmrs	APSR_nzcv, FPSCR
 4027 0d38 A8BF     		it	ge
 4028 0d3a B0EE476A 		vmovge.f32	s12, s14
 4029              	.LVL235:
 4030              	.LBE2106:
 4031              	.LBE2105:
 4032              	.LBE2104:
 4033              	.LBE2103:
 4034              	.LBE2112:
 4035              	.LBE2121:
 4036              	.LBB2122:
 4037              	.LBB2123:
 4038              	.LBB2124:
 4039              	.LBB2125:
 4040              	.LBB2126:
 4041              	.LBB2127:
 4042              		.loc 4 85 0
 4043 0d3e 962E     		cmp	r6, #150
 4044 0d40 98BF     		it	ls
 4045 0d42 3446     		movls	r4, r6
 4046              	.LBE2127:
 4047              	.LBE2126:
ARM GAS  /tmp/ccJJl1OT.s 			page 72


 4048              	.LBE2125:
 4049              	.LBE2124:
 4050              	.LBE2123:
 4051              	.LBE2122:
 4052              	.LBB2158:
 4053              	.LBB2113:
 4054              		.loc 2 130 0
 4055 0d44 26EE266A 		vmul.f32	s12, s12, s13
 4056              	.LVL236:
 4057              	.LBE2113:
 4058              	.LBE2158:
 4059              	.LBB2159:
 4060              	.LBB2152:
 4061              	.LBB2132:
 4062              	.LBB2130:
 4063              	.LBB2129:
 4064              	.LBB2128:
 4065              		.loc 4 85 0
 4066 0d48 88BF     		it	hi
 4067 0d4a 9724     		movhi	r4, #151
 4068              	.LVL237:
 4069              	.LBE2128:
 4070              	.LBE2129:
 4071              		.loc 2 115 0
 4072 0d4c 05EB8404 		add	r4, r5, r4, lsl #2
 4073              	.LBE2130:
 4074              	.LBE2132:
 4075              	.LBE2152:
 4076              	.LBE2159:
 4077              		.loc 1 155 0
 4078 0d50 83ED0C6A 		vstr.32	s12, [r3, #48]
 4079 0d54 8DED0A6A 		vstr.32	s12, [sp, #40]
 4080              	.LBB2160:
 4081              	.LBB2153:
 4082              	.LBB2133:
 4083              	.LBB2131:
 4084              		.loc 2 115 0
 4085 0d58 94ED006A 		vldr.32	s12, [r4]
 4086              	.LVL238:
 4087              	.LBE2131:
 4088              	.LBE2133:
 4089              		.loc 2 126 0
 4090 0d5c 741C     		adds	r4, r6, #1
 4091 0d5e E4B2     		uxtb	r4, r4
 4092              	.LVL239:
 4093              	.LBB2134:
 4094              	.LBB2135:
 4095              	.LBB2136:
 4096              	.LBB2137:
 4097              		.loc 4 85 0
 4098 0d60 962C     		cmp	r4, #150
 4099 0d62 94BF     		ite	ls
 4100 0d64 A646     		movls	lr, r4
 4101 0d66 4FF0970E 		movhi	lr, #151
 4102              	.LVL240:
 4103              	.LBE2137:
 4104              	.LBE2136:
ARM GAS  /tmp/ccJJl1OT.s 			page 73


 4105              		.loc 2 115 0
 4106 0d6a 05EB8E0E 		add	lr, r5, lr, lsl #2
 4107              	.LBE2135:
 4108              	.LBE2134:
 4109              	.LBB2138:
 4110              	.LBB2139:
 4111              		.loc 3 826 0
 4112 0d6e 9EED004A 		vldr.32	s8, [lr]
 4113              	.LBE2139:
 4114              	.LBE2138:
 4115              	.LBE2153:
 4116              	.LBE2160:
 4117              		.loc 1 156 0
 4118 0d72 DFF820E1 		ldr	lr, .L411+8
 4119              	.LBB2161:
 4120              	.LBB2154:
 4121              	.LBB2142:
 4122              	.LBB2140:
 4123              		.loc 3 826 0
 4124 0d76 34EE464A 		vsub.f32	s8, s8, s12
 4125 0d7a F0EE463A 		vmov.f32	s7, s12
 4126 0d7e E4EE243A 		vfma.f32	s7, s8, s9
 4127              	.LBE2140:
 4128              	.LBE2142:
 4129              	.LBE2154:
 4130              	.LBE2161:
 4131              	.LBB2162:
 4132              	.LBB2163:
 4133              	.LBB2164:
 4134              	.LBB2165:
 4135 0d82 A4EE256A 		vfma.f32	s12, s8, s11
 4136              	.LBE2165:
 4137              	.LBE2164:
 4138              	.LBE2163:
 4139              	.LBE2162:
 4140              	.LBB2177:
 4141              	.LBB2155:
 4142              	.LBB2143:
 4143              	.LBB2144:
 4144              	.LBB2145:
 4145              	.LBB2146:
 4146              		.loc 3 193 0
 4147 0d86 F4EEC73A 		vcmpe.f32	s7, s14
 4148 0d8a F1EE10FA 		vmrs	APSR_nzcv, FPSCR
 4149              	.LBE2146:
 4150              	.LBE2145:
 4151              	.LBE2144:
 4152              	.LBE2143:
 4153              	.LBB2150:
 4154              	.LBB2141:
 4155              		.loc 3 826 0
 4156 0d8e F0EE634A 		vmov.f32	s9, s7
 4157              	.LVL241:
 4158              	.LBE2141:
 4159              	.LBE2150:
 4160              	.LBE2155:
 4161              	.LBE2177:
ARM GAS  /tmp/ccJJl1OT.s 			page 74


 4162              	.LBB2178:
 4163              	.LBB2174:
 4164              	.LBB2166:
 4165              	.LBB2167:
 4166              	.LBB2168:
 4167              	.LBB2169:
 4168              		.loc 3 193 0
 4169 0d92 B4EEC76A 		vcmpe.f32	s12, s14
 4170              	.LBE2169:
 4171              	.LBE2168:
 4172              	.LBE2167:
 4173              	.LBE2166:
 4174              	.LBE2174:
 4175              	.LBE2178:
 4176              	.LBB2179:
 4177              	.LBB2156:
 4178              	.LBB2151:
 4179              	.LBB2149:
 4180              	.LBB2148:
 4181              	.LBB2147:
 4182 0d96 A8BF     		it	ge
 4183 0d98 F0EE474A 		vmovge.f32	s9, s14
 4184              	.LVL242:
 4185              	.LBE2147:
 4186              	.LBE2148:
 4187              	.LBE2149:
 4188              	.LBE2151:
 4189              	.LBE2156:
 4190              	.LBE2179:
 4191              	.LBB2180:
 4192              	.LBB2175:
 4193              	.LBB2173:
 4194              	.LBB2172:
 4195              	.LBB2171:
 4196              	.LBB2170:
 4197 0d9c F1EE10FA 		vmrs	APSR_nzcv, FPSCR
 4198 0da0 A8BF     		it	ge
 4199 0da2 B0EE476A 		vmovge.f32	s12, s14
 4200              	.LBE2170:
 4201              	.LBE2171:
 4202              	.LBE2172:
 4203              	.LBE2173:
 4204              	.LBE2175:
 4205              	.LBE2180:
 4206              	.LBB2181:
 4207              	.LBB2182:
 4208              	.LBB2183:
 4209              	.LBB2184:
 4210              	.LBB2185:
 4211              	.LBB2186:
 4212              		.loc 4 85 0
 4213 0da6 972E     		cmp	r6, #151
 4214 0da8 28BF     		it	cs
 4215 0daa 9726     		movcs	r6, #151
 4216              	.LVL243:
 4217              	.LBE2186:
 4218              	.LBE2185:
ARM GAS  /tmp/ccJJl1OT.s 			page 75


 4219              	.LBE2184:
 4220              	.LBE2183:
 4221              	.LBB2189:
 4222              	.LBB2190:
 4223              	.LBB2191:
 4224              	.LBB2192:
 4225 0dac 972C     		cmp	r4, #151
 4226              	.LBE2192:
 4227              	.LBE2191:
 4228              	.LBE2190:
 4229              	.LBE2189:
 4230              	.LBE2182:
 4231              	.LBE2181:
 4232              	.LBB2220:
 4233              	.LBB2176:
 4234              		.loc 2 130 0
 4235 0dae 26EE266A 		vmul.f32	s12, s12, s13
 4236              	.LBE2176:
 4237              	.LBE2220:
 4238              	.LBB2221:
 4239              	.LBB2215:
 4240              	.LBB2197:
 4241              	.LBB2195:
 4242              	.LBB2194:
 4243              	.LBB2193:
 4244              		.loc 4 85 0
 4245 0db2 28BF     		it	cs
 4246 0db4 9724     		movcs	r4, #151
 4247              	.LBE2193:
 4248              	.LBE2194:
 4249              	.LBE2195:
 4250              	.LBE2197:
 4251              	.LBB2198:
 4252              	.LBB2187:
 4253              		.loc 2 115 0
 4254 0db6 05EB8606 		add	r6, r5, r6, lsl #2
 4255              	.LBE2187:
 4256              	.LBE2198:
 4257              	.LBB2199:
 4258              	.LBB2196:
 4259 0dba 05EB8404 		add	r4, r5, r4, lsl #2
 4260              	.LBE2196:
 4261              	.LBE2199:
 4262              	.LBE2215:
 4263              	.LBE2221:
 4264              		.loc 1 157 0
 4265 0dbe 8EED0E6A 		vstr.32	s12, [lr, #56]
 4266 0dc2 8DED0C6A 		vstr.32	s12, [sp, #48]
 4267              	.LBB2222:
 4268              	.LBB2216:
 4269              	.LBB2200:
 4270              	.LBB2201:
 4271              		.loc 3 826 0
 4272 0dc6 D4ED005A 		vldr.32	s11, [r4]
 4273              	.LBE2201:
 4274              	.LBE2200:
 4275              	.LBB2204:
ARM GAS  /tmp/ccJJl1OT.s 			page 76


 4276              	.LBB2188:
 4277              		.loc 2 115 0
 4278 0dca 96ED006A 		vldr.32	s12, [r6]
 4279              	.LBE2188:
 4280              	.LBE2204:
 4281              	.LBB2205:
 4282              	.LBB2202:
 4283              		.loc 3 826 0
 4284 0dce 75EEC65A 		vsub.f32	s11, s11, s12
 4285              	.LBE2202:
 4286              	.LBE2205:
 4287              	.LBE2216:
 4288              	.LBE2222:
 4289              	.LBB2223:
 4290              	.LBB2157:
 4291              		.loc 2 130 0
 4292 0dd2 64EEA64A 		vmul.f32	s9, s9, s13
 4293              	.LVL244:
 4294              	.LBE2157:
 4295              	.LBE2223:
 4296              	.LBB2224:
 4297              	.LBB2217:
 4298              	.LBB2206:
 4299              	.LBB2203:
 4300              		.loc 3 826 0
 4301 0dd6 A5EE856A 		vfma.f32	s12, s11, s10
 4302              	.LBE2203:
 4303              	.LBE2206:
 4304              	.LBE2217:
 4305              	.LBE2224:
 4306              		.loc 1 156 0
 4307 0dda CEED0D4A 		vstr.32	s9, [lr, #52]
 4308              	.LBB2225:
 4309              	.LBB2218:
 4310              	.LBB2207:
 4311              	.LBB2208:
 4312              	.LBB2209:
 4313              	.LBB2210:
 4314              		.loc 3 193 0
 4315 0dde B4EEC76A 		vcmpe.f32	s12, s14
 4316 0de2 F1EE10FA 		vmrs	APSR_nzcv, FPSCR
 4317 0de6 B8BF     		it	lt
 4318 0de8 B0EE467A 		vmovlt.f32	s14, s12
 4319              	.LBE2210:
 4320              	.LBE2209:
 4321              	.LBE2208:
 4322              	.LBE2207:
 4323              		.loc 2 130 0
 4324 0dec 27EE267A 		vmul.f32	s14, s14, s13
 4325              	.LBE2218:
 4326              	.LBE2225:
 4327              		.loc 1 156 0
 4328 0df0 CDED0B4A 		vstr.32	s9, [sp, #44]
 4329              	.LVL245:
 4330              		.loc 1 158 0
 4331 0df4 8EED0F7A 		vstr.32	s14, [lr, #60]
 4332 0df8 8DED0D7A 		vstr.32	s14, [sp, #52]
ARM GAS  /tmp/ccJJl1OT.s 			page 77


 4333              	.L9:
 4334              	.LVL246:
 4335 0dfc 244D     		ldr	r5, .L411+4
 4336 0dfe 0EAE     		add	r6, sp, #56
 4337 0e00 05F13009 		add	r9, r5, #48
 4338              	.LBB2226:
 4339              	.LBB2219:
 4340              	.LBB2214:
 4341              	.LBB2213:
 4342              	.LBB2212:
 4343              	.LBB2211:
 4344              		.loc 3 193 0 discriminator 2
 4345 0e04 2C46     		mov	r4, r5
 4346 0e06 B646     		mov	lr, r6
 4347 0e08 07F00107 		and	r7, r7, #1
 4348              	.LVL247:
 4349              	.L160:
 4350              	.LBE2211:
 4351              	.LBE2212:
 4352              	.LBE2213:
 4353              	.LBE2214:
 4354              	.LBE2219:
 4355              	.LBE2226:
 4356              	.LBB2227:
 4357              		.loc 1 163 0
 4358 0e0c 17B9     		cbnz	r7, .L380
 4359              		.loc 1 163 0 is_stmt 0 discriminator 1
 4360 0e0e D4F800C0 		ldr	ip, [r4]	@ float
 4361 0e12 01E0     		b	.L159
 4362              	.L380:
 4363              		.loc 1 163 0
 4364 0e14 4FF0000C 		mov	ip, #0
 4365              	.L159:
 4366 0e18 0434     		adds	r4, r4, #4
 4367              		.loc 1 162 0 is_stmt 1 discriminator 4
 4368 0e1a A145     		cmp	r9, r4
 4369              		.loc 1 163 0 discriminator 4
 4370 0e1c 4EF804CB 		str	ip, [lr], #4	@ float
 4371              		.loc 1 162 0 discriminator 4
 4372 0e20 F4D1     		bne	.L160
 4373              	.LBE2227:
 4374              		.loc 1 166 0
 4375 0e22 90ED007A 		vldr.32	s14, [r0]	@ int
 4376 0e26 BAEEE07A 		vcvt.f32.s32	s14, s14, #31
 4377 0e2a 83ED007A 		vstr.32	s14, [r3]
 4378              	.LVL248:
 4379              		.loc 1 168 0
 4380 0e2e 1FB9     		cbnz	r7, .L381
 4381              		.loc 1 168 0 is_stmt 0 discriminator 1
 4382 0e30 1848     		ldr	r0, .L411+8
 4383              	.LVL249:
 4384 0e32 90ED014A 		vldr.32	s8, [r0, #4]
 4385 0e36 01E0     		b	.L161
 4386              	.LVL250:
 4387              	.L381:
 4388              		.loc 1 168 0
 4389 0e38 B0EE474A 		vmov.f32	s8, s14
ARM GAS  /tmp/ccJJl1OT.s 			page 78


 4390              	.LVL251:
 4391              	.L161:
 4392              		.loc 1 170 0 is_stmt 1 discriminator 4
 4393 0e3c 06EE902A 		vmov	s13, r2	@ int
 4394 0e40 37EE447A 		vsub.f32	s14, s14, s8
 4395              	.LVL252:
 4396 0e44 F8EE666A 		vcvt.f32.u32	s13, s13
 4397              	.LBB2228:
 4398              	.LBB2229:
 4399              	.LBB2230:
 4400              	.LBB2231:
 4401              		.loc 2 160 0 discriminator 4
 4402 0e48 DFED133A 		vldr.32	s7, .L411+12
 4403              		.loc 2 166 0 discriminator 4
 4404 0e4c DFF850E0 		ldr	lr, .L411+20
 4405              	.LBE2231:
 4406              	.LBE2230:
 4407              	.LBB2240:
 4408              	.LBB2241:
 4409              		.loc 2 335 0 discriminator 4
 4410 0e50 DFF850C0 		ldr	ip, .L411+24
 4411              	.LBE2241:
 4412              	.LBE2240:
 4413              	.LBB2245:
 4414              	.LBB2246:
 4415              		.loc 2 222 0 discriminator 4
 4416 0e54 DFF85080 		ldr	r8, .L411+28
 4417              	.LBE2246:
 4418              	.LBE2245:
 4419              		.loc 1 213 0 discriminator 4
 4420 0e58 9FED103A 		vldr.32	s6, .L411+16
 4421              	.LBE2229:
 4422              	.LBE2228:
 4423              		.loc 1 174 0 discriminator 4
 4424 0e5c 01EB8202 		add	r2, r1, r2, lsl #2
 4425              	.LVL253:
 4426              		.loc 1 170 0 discriminator 4
 4427 0e60 C7EE262A 		vdiv.f32	s5, s14, s13
 4428              	.LVL254:
 4429              		.loc 1 174 0 discriminator 4
 4430 0e64 0192     		str	r2, [sp, #4]
 4431              	.LVL255:
 4432 0e66 6046     		mov	r0, ip
 4433 0e68 7246     		mov	r2, lr
 4434              	.LVL256:
 4435 0e6a 4446     		mov	r4, r8
 4436 0e6c B0EE637A 		vmov.f32	s14, s7
 4437              	.LVL257:
 4438              	.L235:
 4439              	.LBB2664:
 4440              		.loc 1 176 0
 4441 0e70 019F     		ldr	r7, [sp, #4]
 4442 0e72 B942     		cmp	r1, r7
 4443 0e74 80F02C87 		bcs	.L391
 4444              	.LBB2663:
 4445              		.loc 1 178 0
 4446 0e78 1F7A     		ldrb	r7, [r3, #8]	@ zero_extendqisi2
ARM GAS  /tmp/ccJJl1OT.s 			page 79


 4447 0e7a 032F     		cmp	r7, #3
 4448 0e7c 00F20987 		bhi	.L163
 4449 0e80 DFE817F0 		tbh	[pc, r7, lsl #1]
 4450              	.L165:
 4451 0e84 1400     		.2byte	(.L164-.L165)/2
 4452 0e86 7402     		.2byte	(.L166-.L165)/2
 4453 0e88 EF04     		.2byte	(.L167-.L165)/2
 4454 0e8a EF04     		.2byte	(.L167-.L165)/2
 4455              		.p2align 1
 4456              	.L412:
 4457              		.align	2
 4458              	.L411:
 4459 0e8c 00000000 		.word	midi_to_hz_lut_f
 4460 0e90 40000000 		.word	.LANCHOR0+64
 4461 0e94 00000000 		.word	.LANCHOR0
 4462 0e98 00008043 		.word	1132462080
 4463 0e9c CDCCCC3D 		.word	1036831949
 4464 0ea0 00000000 		.word	wt_sine_lut_f
 4465 0ea4 00000000 		.word	wt_sqr_lut_f
 4466 0ea8 00000000 		.word	wt_saw_lut_f
 4467              	.L164:
 4468              		.loc 1 181 0
 4469 0eac DDED0E7A 		vldr.32	s15, [sp, #56]
 4470              	.LVL258:
 4471              	.LBB2250:
 4472              	.LBB2247:
 4473              		.loc 2 211 0
 4474 0eb0 FCEEE76A 		vcvt.u32.f32	s13, s15
 4475 0eb4 FFEE005A 		vmov.f32	s11, #-1.0e+0
 4476 0eb8 F8EE666A 		vcvt.f32.u32	s13, s13
 4477 0ebc 77EEE66A 		vsub.f32	s13, s15, s13
 4478 0ec0 66EEA36A 		vmul.f32	s13, s13, s7
 4479              	.LVL259:
 4480              		.loc 2 212 0
 4481 0ec4 FCEEE67A 		vcvt.u32.f32	s15, s13
 4482              	.LVL260:
 4483 0ec8 17EE90BA 		vmov	fp, s15	@ int
 4484              	.LVL261:
 4485              		.loc 2 216 0
 4486 0ecc BBF17F0F 		cmp	fp, #127
 4487              		.loc 2 223 0
 4488 0ed0 06EE10BA 		vmov	s12, fp	@ int
 4489              		.loc 2 217 0
 4490 0ed4 87BF     		ittee	hi
 4491 0ed6 0BF07F07 		andhi	r7, fp, #127
 4492 0eda C7F1800A 		rsbhi	r10, r7, #128
 4493              		.loc 2 214 0
 4494 0ede 0BF10107 		addls	r7, fp, #1
 4495 0ee2 DA46     		movls	r10, fp
 4496              	.LVL262:
 4497              		.loc 2 218 0
 4498 0ee4 88BF     		it	hi
 4499 0ee6 C7F17F07 		rsbhi	r7, r7, #127
 4500              	.LVL263:
 4501              		.loc 2 223 0
 4502 0eea B8EE466A 		vcvt.f32.u32	s12, s12
 4503              		.loc 2 222 0
ARM GAS  /tmp/ccJJl1OT.s 			page 80


 4504 0eee 08EB8707 		add	r7, r8, r7, lsl #2
 4505              	.LVL264:
 4506 0ef2 08EB8A0A 		add	r10, r8, r10, lsl #2
 4507              	.LVL265:
 4508 0ef6 DAED007A 		vldr.32	s15, [r10]
 4509              		.loc 2 223 0
 4510 0efa 76EEC66A 		vsub.f32	s13, s13, s12
 4511              	.LVL266:
 4512 0efe 97ED006A 		vldr.32	s12, [r7]
 4513 0f02 36EE676A 		vsub.f32	s12, s12, s15
 4514              		.loc 2 215 0
 4515 0f06 98BF     		it	ls
 4516 0f08 B7EE005A 		vmovls.f32	s10, #1.0e+0
 4517              		.loc 2 223 0
 4518 0f0c E6EE867A 		vfma.f32	s15, s13, s12
 4519              	.LBE2247:
 4520              	.LBE2250:
 4521              		.loc 1 182 0
 4522 0f10 9DED0F6A 		vldr.32	s12, [sp, #60]
 4523              	.LBB2251:
 4524              	.LBB2252:
 4525              		.loc 2 211 0
 4526 0f14 FCEEC66A 		vcvt.u32.f32	s13, s12
 4527              	.LBE2252:
 4528              	.LBE2251:
 4529              	.LBB2258:
 4530              	.LBB2248:
 4531              		.loc 2 219 0
 4532 0f18 88BF     		it	hi
 4533 0f1a B0EE655A 		vmovhi.f32	s10, s11
 4534              	.LVL267:
 4535              	.LBE2248:
 4536              	.LBE2258:
 4537              	.LBB2259:
 4538              	.LBB2253:
 4539              		.loc 2 211 0
 4540 0f1e F8EE666A 		vcvt.f32.u32	s13, s13
 4541              	.LBE2253:
 4542              	.LBE2259:
 4543              	.LBB2260:
 4544              	.LBB2249:
 4545              		.loc 2 223 0
 4546 0f22 67EE857A 		vmul.f32	s15, s15, s10
 4547              	.LVL268:
 4548              	.LBE2249:
 4549              	.LBE2260:
 4550              	.LBB2261:
 4551              	.LBB2254:
 4552              		.loc 2 211 0
 4553 0f26 76EE666A 		vsub.f32	s13, s12, s13
 4554 0f2a 66EE876A 		vmul.f32	s13, s13, s14
 4555              	.LVL269:
 4556              		.loc 2 212 0
 4557 0f2e BCEEE66A 		vcvt.u32.f32	s12, s13
 4558              	.LVL270:
 4559 0f32 16EE10BA 		vmov	fp, s12	@ int
 4560              	.LVL271:
ARM GAS  /tmp/ccJJl1OT.s 			page 81


 4561              		.loc 2 216 0
 4562 0f36 BBF17F0F 		cmp	fp, #127
 4563              		.loc 2 217 0
 4564 0f3a 87BF     		ittee	hi
 4565 0f3c 0BF07F07 		andhi	r7, fp, #127
 4566 0f40 C7F1800A 		rsbhi	r10, r7, #128
 4567              		.loc 2 214 0
 4568 0f44 0BF10107 		addls	r7, fp, #1
 4569 0f48 DA46     		movls	r10, fp
 4570              	.LVL272:
 4571              		.loc 2 218 0
 4572 0f4a 88BF     		it	hi
 4573 0f4c C7F17F07 		rsbhi	r7, r7, #127
 4574              	.LVL273:
 4575              	.LBE2254:
 4576              	.LBE2261:
 4577              		.loc 1 181 0
 4578 0f50 B8EE466A 		vcvt.f32.u32	s12, s12
 4579              	.LBB2262:
 4580              	.LBB2255:
 4581              		.loc 2 222 0
 4582 0f54 04EB8707 		add	r7, r4, r7, lsl #2
 4583              	.LVL274:
 4584 0f58 04EB8A0A 		add	r10, r4, r10, lsl #2
 4585              	.LVL275:
 4586 0f5c 9AED005A 		vldr.32	s10, [r10]
 4587              	.LBE2255:
 4588              	.LBE2262:
 4589              		.loc 1 181 0
 4590 0f60 76EEC66A 		vsub.f32	s13, s13, s12
 4591              	.LVL276:
 4592 0f64 97ED006A 		vldr.32	s12, [r7]
 4593 0f68 36EE456A 		vsub.f32	s12, s12, s10
 4594              	.LBB2263:
 4595              	.LBB2256:
 4596              		.loc 2 215 0
 4597 0f6c 98BF     		it	ls
 4598 0f6e F7EE004A 		vmovls.f32	s9, #1.0e+0
 4599              	.LBE2256:
 4600              	.LBE2263:
 4601              		.loc 1 181 0
 4602 0f72 A6EE865A 		vfma.f32	s10, s13, s12
 4603              		.loc 1 183 0
 4604 0f76 9DED106A 		vldr.32	s12, [sp, #64]
 4605              	.LBB2264:
 4606              	.LBB2265:
 4607              		.loc 2 211 0
 4608 0f7a FCEEC66A 		vcvt.u32.f32	s13, s12
 4609              	.LBE2265:
 4610              	.LBE2264:
 4611              	.LBB2271:
 4612              	.LBB2257:
 4613              		.loc 2 219 0
 4614 0f7e 88BF     		it	hi
 4615 0f80 FFEE004A 		vmovhi.f32	s9, #-1.0e+0
 4616              	.LVL277:
 4617              	.LBE2257:
ARM GAS  /tmp/ccJJl1OT.s 			page 82


 4618              	.LBE2271:
 4619              	.LBB2272:
 4620              	.LBB2266:
 4621              		.loc 2 211 0
 4622 0f84 F8EE666A 		vcvt.f32.u32	s13, s13
 4623              	.LBE2266:
 4624              	.LBE2272:
 4625              		.loc 1 181 0
 4626 0f88 E5EE247A 		vfma.f32	s15, s10, s9
 4627              	.LBB2273:
 4628              	.LBB2267:
 4629              		.loc 2 211 0
 4630 0f8c 76EE666A 		vsub.f32	s13, s12, s13
 4631 0f90 66EE876A 		vmul.f32	s13, s13, s14
 4632              	.LVL278:
 4633              		.loc 2 212 0
 4634 0f94 BCEEE66A 		vcvt.u32.f32	s12, s13
 4635              	.LVL279:
 4636 0f98 16EE10BA 		vmov	fp, s12	@ int
 4637              	.LVL280:
 4638              		.loc 2 216 0
 4639 0f9c BBF17F0F 		cmp	fp, #127
 4640              		.loc 2 217 0
 4641 0fa0 87BF     		ittee	hi
 4642 0fa2 0BF07F07 		andhi	r7, fp, #127
 4643 0fa6 C7F1800A 		rsbhi	r10, r7, #128
 4644              		.loc 2 214 0
 4645 0faa 0BF10107 		addls	r7, fp, #1
 4646 0fae DA46     		movls	r10, fp
 4647              	.LVL281:
 4648              		.loc 2 218 0
 4649 0fb0 88BF     		it	hi
 4650 0fb2 C7F17F07 		rsbhi	r7, r7, #127
 4651              	.LVL282:
 4652              	.LBE2267:
 4653              	.LBE2273:
 4654              		.loc 1 182 0
 4655 0fb6 B8EE466A 		vcvt.f32.u32	s12, s12
 4656              	.LBB2274:
 4657              	.LBB2268:
 4658              		.loc 2 222 0
 4659 0fba 04EB8707 		add	r7, r4, r7, lsl #2
 4660              	.LVL283:
 4661 0fbe 04EB8A0A 		add	r10, r4, r10, lsl #2
 4662              	.LVL284:
 4663 0fc2 9AED005A 		vldr.32	s10, [r10]
 4664              	.LBE2268:
 4665              	.LBE2274:
 4666              		.loc 1 182 0
 4667 0fc6 76EEC66A 		vsub.f32	s13, s13, s12
 4668              	.LVL285:
 4669 0fca 97ED006A 		vldr.32	s12, [r7]
 4670 0fce 36EE456A 		vsub.f32	s12, s12, s10
 4671              	.LBB2275:
 4672              	.LBB2269:
 4673              		.loc 2 215 0
 4674 0fd2 98BF     		it	ls
ARM GAS  /tmp/ccJJl1OT.s 			page 83


 4675 0fd4 F7EE004A 		vmovls.f32	s9, #1.0e+0
 4676              	.LBE2269:
 4677              	.LBE2275:
 4678              		.loc 1 182 0
 4679 0fd8 A6EE865A 		vfma.f32	s10, s13, s12
 4680              		.loc 1 184 0
 4681 0fdc 9DED116A 		vldr.32	s12, [sp, #68]
 4682              	.LBB2276:
 4683              	.LBB2277:
 4684              		.loc 2 211 0
 4685 0fe0 FCEEC66A 		vcvt.u32.f32	s13, s12
 4686              	.LBE2277:
 4687              	.LBE2276:
 4688              	.LBB2283:
 4689              	.LBB2270:
 4690              		.loc 2 219 0
 4691 0fe4 88BF     		it	hi
 4692 0fe6 FFEE004A 		vmovhi.f32	s9, #-1.0e+0
 4693              	.LVL286:
 4694              	.LBE2270:
 4695              	.LBE2283:
 4696              	.LBB2284:
 4697              	.LBB2278:
 4698              		.loc 2 211 0
 4699 0fea F8EE666A 		vcvt.f32.u32	s13, s13
 4700              	.LBE2278:
 4701              	.LBE2284:
 4702              		.loc 1 182 0
 4703 0fee E5EE247A 		vfma.f32	s15, s10, s9
 4704              	.LBB2285:
 4705              	.LBB2279:
 4706              		.loc 2 211 0
 4707 0ff2 76EE666A 		vsub.f32	s13, s12, s13
 4708 0ff6 66EE876A 		vmul.f32	s13, s13, s14
 4709              	.LVL287:
 4710              		.loc 2 212 0
 4711 0ffa BCEEE66A 		vcvt.u32.f32	s12, s13
 4712              	.LVL288:
 4713 0ffe 16EE10BA 		vmov	fp, s12	@ int
 4714              	.LVL289:
 4715              		.loc 2 216 0
 4716 1002 BBF17F0F 		cmp	fp, #127
 4717              		.loc 2 217 0
 4718 1006 87BF     		ittee	hi
 4719 1008 0BF07F07 		andhi	r7, fp, #127
 4720 100c C7F1800A 		rsbhi	r10, r7, #128
 4721              		.loc 2 214 0
 4722 1010 0BF10107 		addls	r7, fp, #1
 4723 1014 DA46     		movls	r10, fp
 4724              	.LVL290:
 4725              		.loc 2 218 0
 4726 1016 88BF     		it	hi
 4727 1018 C7F17F07 		rsbhi	r7, r7, #127
 4728              	.LVL291:
 4729              	.LBE2279:
 4730              	.LBE2285:
 4731              		.loc 1 183 0
ARM GAS  /tmp/ccJJl1OT.s 			page 84


 4732 101c B8EE466A 		vcvt.f32.u32	s12, s12
 4733              	.LBB2286:
 4734              	.LBB2280:
 4735              		.loc 2 222 0
 4736 1020 04EB8707 		add	r7, r4, r7, lsl #2
 4737              	.LVL292:
 4738 1024 04EB8A0A 		add	r10, r4, r10, lsl #2
 4739              	.LVL293:
 4740 1028 9AED005A 		vldr.32	s10, [r10]
 4741              	.LBE2280:
 4742              	.LBE2286:
 4743              		.loc 1 183 0
 4744 102c 76EEC66A 		vsub.f32	s13, s13, s12
 4745              	.LVL294:
 4746 1030 97ED006A 		vldr.32	s12, [r7]
 4747 1034 36EE456A 		vsub.f32	s12, s12, s10
 4748              	.LBB2287:
 4749              	.LBB2281:
 4750              		.loc 2 215 0
 4751 1038 98BF     		it	ls
 4752 103a F7EE004A 		vmovls.f32	s9, #1.0e+0
 4753              	.LBE2281:
 4754              	.LBE2287:
 4755              		.loc 1 183 0
 4756 103e A6EE865A 		vfma.f32	s10, s13, s12
 4757              		.loc 1 185 0
 4758 1042 9DED126A 		vldr.32	s12, [sp, #72]
 4759              	.LBB2288:
 4760              	.LBB2289:
 4761              		.loc 2 211 0
 4762 1046 FCEEC66A 		vcvt.u32.f32	s13, s12
 4763              	.LBE2289:
 4764              	.LBE2288:
 4765              	.LBB2295:
 4766              	.LBB2282:
 4767              		.loc 2 219 0
 4768 104a 88BF     		it	hi
 4769 104c FFEE004A 		vmovhi.f32	s9, #-1.0e+0
 4770              	.LVL295:
 4771              	.LBE2282:
 4772              	.LBE2295:
 4773              	.LBB2296:
 4774              	.LBB2290:
 4775              		.loc 2 211 0
 4776 1050 F8EE666A 		vcvt.f32.u32	s13, s13
 4777              	.LBE2290:
 4778              	.LBE2296:
 4779              		.loc 1 183 0
 4780 1054 E5EE247A 		vfma.f32	s15, s10, s9
 4781              	.LBB2297:
 4782              	.LBB2291:
 4783              		.loc 2 211 0
 4784 1058 76EE666A 		vsub.f32	s13, s12, s13
 4785 105c 66EE876A 		vmul.f32	s13, s13, s14
 4786              	.LVL296:
 4787              		.loc 2 212 0
 4788 1060 BCEEE66A 		vcvt.u32.f32	s12, s13
ARM GAS  /tmp/ccJJl1OT.s 			page 85


 4789              	.LVL297:
 4790 1064 16EE10BA 		vmov	fp, s12	@ int
 4791              	.LVL298:
 4792              		.loc 2 216 0
 4793 1068 BBF17F0F 		cmp	fp, #127
 4794              		.loc 2 217 0
 4795 106c 87BF     		ittee	hi
 4796 106e 0BF07F07 		andhi	r7, fp, #127
 4797 1072 C7F1800A 		rsbhi	r10, r7, #128
 4798              		.loc 2 214 0
 4799 1076 0BF10107 		addls	r7, fp, #1
 4800 107a DA46     		movls	r10, fp
 4801              	.LVL299:
 4802              		.loc 2 218 0
 4803 107c 88BF     		it	hi
 4804 107e C7F17F07 		rsbhi	r7, r7, #127
 4805              	.LVL300:
 4806              	.LBE2291:
 4807              	.LBE2297:
 4808              		.loc 1 184 0
 4809 1082 B8EE466A 		vcvt.f32.u32	s12, s12
 4810              	.LBB2298:
 4811              	.LBB2292:
 4812              		.loc 2 222 0
 4813 1086 04EB8707 		add	r7, r4, r7, lsl #2
 4814              	.LVL301:
 4815 108a 04EB8A0A 		add	r10, r4, r10, lsl #2
 4816              	.LVL302:
 4817 108e 9AED005A 		vldr.32	s10, [r10]
 4818              	.LBE2292:
 4819              	.LBE2298:
 4820              		.loc 1 184 0
 4821 1092 76EEC66A 		vsub.f32	s13, s13, s12
 4822              	.LVL303:
 4823 1096 97ED006A 		vldr.32	s12, [r7]
 4824 109a 36EE456A 		vsub.f32	s12, s12, s10
 4825              	.LBB2299:
 4826              	.LBB2293:
 4827              		.loc 2 215 0
 4828 109e 98BF     		it	ls
 4829 10a0 F7EE004A 		vmovls.f32	s9, #1.0e+0
 4830              	.LBE2293:
 4831              	.LBE2299:
 4832              		.loc 1 184 0
 4833 10a4 A6EE865A 		vfma.f32	s10, s13, s12
 4834              		.loc 1 186 0
 4835 10a8 9DED136A 		vldr.32	s12, [sp, #76]
 4836              	.LBB2300:
 4837              	.LBB2301:
 4838              		.loc 2 211 0
 4839 10ac FCEEC66A 		vcvt.u32.f32	s13, s12
 4840              	.LBE2301:
 4841              	.LBE2300:
 4842              	.LBB2307:
 4843              	.LBB2294:
 4844              		.loc 2 219 0
 4845 10b0 88BF     		it	hi
ARM GAS  /tmp/ccJJl1OT.s 			page 86


 4846 10b2 FFEE004A 		vmovhi.f32	s9, #-1.0e+0
 4847              	.LVL304:
 4848              	.LBE2294:
 4849              	.LBE2307:
 4850              	.LBB2308:
 4851              	.LBB2302:
 4852              		.loc 2 211 0
 4853 10b6 F8EE666A 		vcvt.f32.u32	s13, s13
 4854              	.LBE2302:
 4855              	.LBE2308:
 4856              		.loc 1 184 0
 4857 10ba E5EE247A 		vfma.f32	s15, s10, s9
 4858              	.LBB2309:
 4859              	.LBB2303:
 4860              		.loc 2 211 0
 4861 10be 76EE666A 		vsub.f32	s13, s12, s13
 4862 10c2 66EE876A 		vmul.f32	s13, s13, s14
 4863              	.LVL305:
 4864              		.loc 2 212 0
 4865 10c6 BCEEE66A 		vcvt.u32.f32	s12, s13
 4866              	.LVL306:
 4867 10ca 16EE10BA 		vmov	fp, s12	@ int
 4868              	.LVL307:
 4869              		.loc 2 216 0
 4870 10ce BBF17F0F 		cmp	fp, #127
 4871              		.loc 2 217 0
 4872 10d2 87BF     		ittee	hi
 4873 10d4 0BF07F07 		andhi	r7, fp, #127
 4874 10d8 C7F1800A 		rsbhi	r10, r7, #128
 4875              		.loc 2 214 0
 4876 10dc 0BF10107 		addls	r7, fp, #1
 4877 10e0 DA46     		movls	r10, fp
 4878              	.LVL308:
 4879              		.loc 2 218 0
 4880 10e2 88BF     		it	hi
 4881 10e4 C7F17F07 		rsbhi	r7, r7, #127
 4882              	.LVL309:
 4883              	.LBE2303:
 4884              	.LBE2309:
 4885              		.loc 1 185 0
 4886 10e8 B8EE466A 		vcvt.f32.u32	s12, s12
 4887              	.LBB2310:
 4888              	.LBB2304:
 4889              		.loc 2 222 0
 4890 10ec 04EB8707 		add	r7, r4, r7, lsl #2
 4891              	.LVL310:
 4892 10f0 04EB8A0A 		add	r10, r4, r10, lsl #2
 4893              	.LVL311:
 4894 10f4 9AED005A 		vldr.32	s10, [r10]
 4895              	.LBE2304:
 4896              	.LBE2310:
 4897              		.loc 1 185 0
 4898 10f8 76EEC66A 		vsub.f32	s13, s13, s12
 4899              	.LVL312:
 4900 10fc 97ED006A 		vldr.32	s12, [r7]
 4901 1100 36EE456A 		vsub.f32	s12, s12, s10
 4902              	.LBB2311:
ARM GAS  /tmp/ccJJl1OT.s 			page 87


 4903              	.LBB2305:
 4904              		.loc 2 215 0
 4905 1104 98BF     		it	ls
 4906 1106 F7EE004A 		vmovls.f32	s9, #1.0e+0
 4907              	.LBE2305:
 4908              	.LBE2311:
 4909              		.loc 1 185 0
 4910 110a A6EE865A 		vfma.f32	s10, s13, s12
 4911              		.loc 1 187 0
 4912 110e 9DED146A 		vldr.32	s12, [sp, #80]
 4913              	.LBB2312:
 4914              	.LBB2313:
 4915              		.loc 2 211 0
 4916 1112 FCEEC66A 		vcvt.u32.f32	s13, s12
 4917              	.LBE2313:
 4918              	.LBE2312:
 4919              	.LBB2319:
 4920              	.LBB2306:
 4921              		.loc 2 219 0
 4922 1116 88BF     		it	hi
 4923 1118 FFEE004A 		vmovhi.f32	s9, #-1.0e+0
 4924              	.LVL313:
 4925              	.LBE2306:
 4926              	.LBE2319:
 4927              	.LBB2320:
 4928              	.LBB2314:
 4929              		.loc 2 211 0
 4930 111c F8EE666A 		vcvt.f32.u32	s13, s13
 4931              	.LBE2314:
 4932              	.LBE2320:
 4933              		.loc 1 185 0
 4934 1120 E5EE247A 		vfma.f32	s15, s10, s9
 4935              	.LBB2321:
 4936              	.LBB2315:
 4937              		.loc 2 211 0
 4938 1124 76EE666A 		vsub.f32	s13, s12, s13
 4939 1128 66EE876A 		vmul.f32	s13, s13, s14
 4940              	.LVL314:
 4941              		.loc 2 212 0
 4942 112c BCEEE66A 		vcvt.u32.f32	s12, s13
 4943              	.LVL315:
 4944 1130 16EE10BA 		vmov	fp, s12	@ int
 4945              	.LVL316:
 4946              		.loc 2 216 0
 4947 1134 BBF17F0F 		cmp	fp, #127
 4948              		.loc 2 217 0
 4949 1138 87BF     		ittee	hi
 4950 113a 0BF07F07 		andhi	r7, fp, #127
 4951 113e C7F1800A 		rsbhi	r10, r7, #128
 4952              		.loc 2 214 0
 4953 1142 0BF10107 		addls	r7, fp, #1
 4954 1146 DA46     		movls	r10, fp
 4955              	.LVL317:
 4956              		.loc 2 218 0
 4957 1148 88BF     		it	hi
 4958 114a C7F17F07 		rsbhi	r7, r7, #127
 4959              	.LVL318:
ARM GAS  /tmp/ccJJl1OT.s 			page 88


 4960              	.LBE2315:
 4961              	.LBE2321:
 4962              		.loc 1 186 0
 4963 114e B8EE466A 		vcvt.f32.u32	s12, s12
 4964              	.LBB2322:
 4965              	.LBB2316:
 4966              		.loc 2 222 0
 4967 1152 04EB8707 		add	r7, r4, r7, lsl #2
 4968              	.LVL319:
 4969 1156 04EB8A0A 		add	r10, r4, r10, lsl #2
 4970              	.LVL320:
 4971 115a 9AED005A 		vldr.32	s10, [r10]
 4972              	.LBE2316:
 4973              	.LBE2322:
 4974              		.loc 1 186 0
 4975 115e 76EEC66A 		vsub.f32	s13, s13, s12
 4976              	.LVL321:
 4977 1162 97ED006A 		vldr.32	s12, [r7]
 4978 1166 36EE456A 		vsub.f32	s12, s12, s10
 4979              	.LBB2323:
 4980              	.LBB2317:
 4981              		.loc 2 215 0
 4982 116a 98BF     		it	ls
 4983 116c F7EE004A 		vmovls.f32	s9, #1.0e+0
 4984              	.LBE2317:
 4985              	.LBE2323:
 4986              		.loc 1 186 0
 4987 1170 A6EE865A 		vfma.f32	s10, s13, s12
 4988              		.loc 1 188 0
 4989 1174 9DED156A 		vldr.32	s12, [sp, #84]
 4990              	.LBB2324:
 4991              	.LBB2325:
 4992              		.loc 2 211 0
 4993 1178 FCEEC66A 		vcvt.u32.f32	s13, s12
 4994              	.LBE2325:
 4995              	.LBE2324:
 4996              	.LBB2331:
 4997              	.LBB2318:
 4998              		.loc 2 219 0
 4999 117c 88BF     		it	hi
 5000 117e FFEE004A 		vmovhi.f32	s9, #-1.0e+0
 5001              	.LVL322:
 5002              	.LBE2318:
 5003              	.LBE2331:
 5004              	.LBB2332:
 5005              	.LBB2326:
 5006              		.loc 2 211 0
 5007 1182 F8EE666A 		vcvt.f32.u32	s13, s13
 5008              	.LBE2326:
 5009              	.LBE2332:
 5010              		.loc 1 186 0
 5011 1186 E5EE247A 		vfma.f32	s15, s10, s9
 5012              	.LBB2333:
 5013              	.LBB2327:
 5014              		.loc 2 211 0
 5015 118a 76EE666A 		vsub.f32	s13, s12, s13
 5016 118e 66EE876A 		vmul.f32	s13, s13, s14
ARM GAS  /tmp/ccJJl1OT.s 			page 89


 5017              	.LVL323:
 5018              		.loc 2 212 0
 5019 1192 BCEEE66A 		vcvt.u32.f32	s12, s13
 5020              	.LVL324:
 5021 1196 16EE10BA 		vmov	fp, s12	@ int
 5022              	.LVL325:
 5023              		.loc 2 216 0
 5024 119a BBF17F0F 		cmp	fp, #127
 5025              		.loc 2 217 0
 5026 119e 87BF     		ittee	hi
 5027 11a0 0BF07F07 		andhi	r7, fp, #127
 5028 11a4 C7F1800A 		rsbhi	r10, r7, #128
 5029              		.loc 2 214 0
 5030 11a8 0BF10107 		addls	r7, fp, #1
 5031 11ac DA46     		movls	r10, fp
 5032              	.LVL326:
 5033              		.loc 2 218 0
 5034 11ae 88BF     		it	hi
 5035 11b0 C7F17F07 		rsbhi	r7, r7, #127
 5036              	.LVL327:
 5037              	.LBE2327:
 5038              	.LBE2333:
 5039              		.loc 1 187 0
 5040 11b4 B8EE466A 		vcvt.f32.u32	s12, s12
 5041              	.LBB2334:
 5042              	.LBB2328:
 5043              		.loc 2 222 0
 5044 11b8 04EB8707 		add	r7, r4, r7, lsl #2
 5045              	.LVL328:
 5046 11bc 04EB8A0A 		add	r10, r4, r10, lsl #2
 5047              	.LVL329:
 5048 11c0 9AED005A 		vldr.32	s10, [r10]
 5049              	.LBE2328:
 5050              	.LBE2334:
 5051              		.loc 1 187 0
 5052 11c4 76EEC66A 		vsub.f32	s13, s13, s12
 5053              	.LVL330:
 5054 11c8 97ED006A 		vldr.32	s12, [r7]
 5055 11cc 36EE456A 		vsub.f32	s12, s12, s10
 5056              	.LBB2335:
 5057              	.LBB2329:
 5058              		.loc 2 215 0
 5059 11d0 98BF     		it	ls
 5060 11d2 F7EE004A 		vmovls.f32	s9, #1.0e+0
 5061              	.LBE2329:
 5062              	.LBE2335:
 5063              		.loc 1 187 0
 5064 11d6 A6EE865A 		vfma.f32	s10, s13, s12
 5065              		.loc 1 189 0
 5066 11da 9DED166A 		vldr.32	s12, [sp, #88]
 5067              	.LBB2336:
 5068              	.LBB2337:
 5069              		.loc 2 211 0
 5070 11de FCEEC66A 		vcvt.u32.f32	s13, s12
 5071              	.LBE2337:
 5072              	.LBE2336:
 5073              	.LBB2343:
ARM GAS  /tmp/ccJJl1OT.s 			page 90


 5074              	.LBB2330:
 5075              		.loc 2 219 0
 5076 11e2 88BF     		it	hi
 5077 11e4 FFEE004A 		vmovhi.f32	s9, #-1.0e+0
 5078              	.LVL331:
 5079              	.LBE2330:
 5080              	.LBE2343:
 5081              	.LBB2344:
 5082              	.LBB2338:
 5083              		.loc 2 211 0
 5084 11e8 F8EE666A 		vcvt.f32.u32	s13, s13
 5085              	.LBE2338:
 5086              	.LBE2344:
 5087              		.loc 1 187 0
 5088 11ec E5EE247A 		vfma.f32	s15, s10, s9
 5089              	.LBB2345:
 5090              	.LBB2339:
 5091              		.loc 2 211 0
 5092 11f0 76EE666A 		vsub.f32	s13, s12, s13
 5093 11f4 66EE876A 		vmul.f32	s13, s13, s14
 5094              	.LVL332:
 5095              		.loc 2 212 0
 5096 11f8 BCEEE66A 		vcvt.u32.f32	s12, s13
 5097              	.LVL333:
 5098 11fc 16EE10BA 		vmov	fp, s12	@ int
 5099              	.LVL334:
 5100              		.loc 2 216 0
 5101 1200 BBF17F0F 		cmp	fp, #127
 5102              		.loc 2 217 0
 5103 1204 87BF     		ittee	hi
 5104 1206 0BF07F07 		andhi	r7, fp, #127
 5105 120a C7F1800A 		rsbhi	r10, r7, #128
 5106              		.loc 2 214 0
 5107 120e 0BF10107 		addls	r7, fp, #1
 5108 1212 DA46     		movls	r10, fp
 5109              	.LVL335:
 5110              		.loc 2 218 0
 5111 1214 88BF     		it	hi
 5112 1216 C7F17F07 		rsbhi	r7, r7, #127
 5113              	.LVL336:
 5114              	.LBE2339:
 5115              	.LBE2345:
 5116              		.loc 1 188 0
 5117 121a B8EE466A 		vcvt.f32.u32	s12, s12
 5118              	.LBB2346:
 5119              	.LBB2340:
 5120              		.loc 2 222 0
 5121 121e 04EB8707 		add	r7, r4, r7, lsl #2
 5122              	.LVL337:
 5123 1222 04EB8A0A 		add	r10, r4, r10, lsl #2
 5124              	.LVL338:
 5125 1226 9AED005A 		vldr.32	s10, [r10]
 5126              	.LBE2340:
 5127              	.LBE2346:
 5128              		.loc 1 188 0
 5129 122a 76EEC66A 		vsub.f32	s13, s13, s12
 5130              	.LVL339:
ARM GAS  /tmp/ccJJl1OT.s 			page 91


 5131 122e 97ED006A 		vldr.32	s12, [r7]
 5132 1232 36EE456A 		vsub.f32	s12, s12, s10
 5133              	.LBB2347:
 5134              	.LBB2341:
 5135              		.loc 2 215 0
 5136 1236 98BF     		it	ls
 5137 1238 F7EE004A 		vmovls.f32	s9, #1.0e+0
 5138              	.LBE2341:
 5139              	.LBE2347:
 5140              		.loc 1 188 0
 5141 123c A6EE865A 		vfma.f32	s10, s13, s12
 5142              		.loc 1 190 0
 5143 1240 9DED176A 		vldr.32	s12, [sp, #92]
 5144              	.LBB2348:
 5145              	.LBB2349:
 5146              		.loc 2 211 0
 5147 1244 FCEEC66A 		vcvt.u32.f32	s13, s12
 5148              	.LBE2349:
 5149              	.LBE2348:
 5150              	.LBB2355:
 5151              	.LBB2342:
 5152              		.loc 2 219 0
 5153 1248 88BF     		it	hi
 5154 124a FFEE004A 		vmovhi.f32	s9, #-1.0e+0
 5155              	.LVL340:
 5156              	.LBE2342:
 5157              	.LBE2355:
 5158              	.LBB2356:
 5159              	.LBB2350:
 5160              		.loc 2 211 0
 5161 124e F8EE666A 		vcvt.f32.u32	s13, s13
 5162              	.LBE2350:
 5163              	.LBE2356:
 5164              		.loc 1 188 0
 5165 1252 E5EE247A 		vfma.f32	s15, s10, s9
 5166              	.LBB2357:
 5167              	.LBB2351:
 5168              		.loc 2 211 0
 5169 1256 76EE666A 		vsub.f32	s13, s12, s13
 5170 125a 66EE876A 		vmul.f32	s13, s13, s14
 5171              	.LVL341:
 5172              		.loc 2 212 0
 5173 125e BCEEE66A 		vcvt.u32.f32	s12, s13
 5174              	.LVL342:
 5175 1262 16EE10BA 		vmov	fp, s12	@ int
 5176              	.LVL343:
 5177              		.loc 2 216 0
 5178 1266 BBF17F0F 		cmp	fp, #127
 5179              		.loc 2 217 0
 5180 126a 87BF     		ittee	hi
 5181 126c 0BF07F07 		andhi	r7, fp, #127
 5182 1270 C7F1800A 		rsbhi	r10, r7, #128
 5183              		.loc 2 214 0
 5184 1274 0BF10107 		addls	r7, fp, #1
 5185 1278 DA46     		movls	r10, fp
 5186              	.LVL344:
 5187              		.loc 2 218 0
ARM GAS  /tmp/ccJJl1OT.s 			page 92


 5188 127a 88BF     		it	hi
 5189 127c C7F17F07 		rsbhi	r7, r7, #127
 5190              	.LVL345:
 5191              	.LBE2351:
 5192              	.LBE2357:
 5193              		.loc 1 189 0
 5194 1280 B8EE466A 		vcvt.f32.u32	s12, s12
 5195              	.LBB2358:
 5196              	.LBB2352:
 5197              		.loc 2 222 0
 5198 1284 04EB8707 		add	r7, r4, r7, lsl #2
 5199              	.LVL346:
 5200 1288 04EB8A0A 		add	r10, r4, r10, lsl #2
 5201              	.LVL347:
 5202 128c 9AED005A 		vldr.32	s10, [r10]
 5203              	.LBE2352:
 5204              	.LBE2358:
 5205              		.loc 1 189 0
 5206 1290 76EEC66A 		vsub.f32	s13, s13, s12
 5207              	.LVL348:
 5208 1294 97ED006A 		vldr.32	s12, [r7]
 5209 1298 36EE456A 		vsub.f32	s12, s12, s10
 5210              	.LBB2359:
 5211              	.LBB2353:
 5212              		.loc 2 215 0
 5213 129c 98BF     		it	ls
 5214 129e F7EE004A 		vmovls.f32	s9, #1.0e+0
 5215              	.LBE2353:
 5216              	.LBE2359:
 5217              		.loc 1 189 0
 5218 12a2 A6EE865A 		vfma.f32	s10, s13, s12
 5219              		.loc 1 191 0
 5220 12a6 9DED186A 		vldr.32	s12, [sp, #96]
 5221              	.LBB2360:
 5222              	.LBB2361:
 5223              		.loc 2 211 0
 5224 12aa FCEEC66A 		vcvt.u32.f32	s13, s12
 5225              	.LBE2361:
 5226              	.LBE2360:
 5227              	.LBB2367:
 5228              	.LBB2354:
 5229              		.loc 2 219 0
 5230 12ae 88BF     		it	hi
 5231 12b0 FFEE004A 		vmovhi.f32	s9, #-1.0e+0
 5232              	.LVL349:
 5233              	.LBE2354:
 5234              	.LBE2367:
 5235              	.LBB2368:
 5236              	.LBB2362:
 5237              		.loc 2 211 0
 5238 12b4 F8EE666A 		vcvt.f32.u32	s13, s13
 5239              	.LBE2362:
 5240              	.LBE2368:
 5241              		.loc 1 189 0
 5242 12b8 E5EE247A 		vfma.f32	s15, s10, s9
 5243              	.LBB2369:
 5244              	.LBB2363:
ARM GAS  /tmp/ccJJl1OT.s 			page 93


 5245              		.loc 2 211 0
 5246 12bc 76EE666A 		vsub.f32	s13, s12, s13
 5247 12c0 66EE876A 		vmul.f32	s13, s13, s14
 5248              	.LVL350:
 5249              		.loc 2 212 0
 5250 12c4 BCEEE66A 		vcvt.u32.f32	s12, s13
 5251              	.LVL351:
 5252 12c8 16EE10BA 		vmov	fp, s12	@ int
 5253              	.LVL352:
 5254              		.loc 2 216 0
 5255 12cc BBF17F0F 		cmp	fp, #127
 5256              		.loc 2 217 0
 5257 12d0 87BF     		ittee	hi
 5258 12d2 0BF07F07 		andhi	r7, fp, #127
 5259 12d6 C7F1800A 		rsbhi	r10, r7, #128
 5260              		.loc 2 214 0
 5261 12da 0BF10107 		addls	r7, fp, #1
 5262 12de DA46     		movls	r10, fp
 5263              	.LVL353:
 5264              		.loc 2 218 0
 5265 12e0 88BF     		it	hi
 5266 12e2 C7F17F07 		rsbhi	r7, r7, #127
 5267              	.LVL354:
 5268              	.LBE2363:
 5269              	.LBE2369:
 5270              		.loc 1 190 0
 5271 12e6 B8EE466A 		vcvt.f32.u32	s12, s12
 5272              	.LBB2370:
 5273              	.LBB2364:
 5274              		.loc 2 222 0
 5275 12ea 04EB8707 		add	r7, r4, r7, lsl #2
 5276              	.LVL355:
 5277 12ee 04EB8A0A 		add	r10, r4, r10, lsl #2
 5278              	.LVL356:
 5279 12f2 9AED005A 		vldr.32	s10, [r10]
 5280              	.LBE2364:
 5281              	.LBE2370:
 5282              		.loc 1 190 0
 5283 12f6 76EEC66A 		vsub.f32	s13, s13, s12
 5284              	.LVL357:
 5285 12fa 97ED006A 		vldr.32	s12, [r7]
 5286 12fe 36EE456A 		vsub.f32	s12, s12, s10
 5287              	.LBB2371:
 5288              	.LBB2365:
 5289              		.loc 2 215 0
 5290 1302 98BF     		it	ls
 5291 1304 F7EE004A 		vmovls.f32	s9, #1.0e+0
 5292              	.LBE2365:
 5293              	.LBE2371:
 5294              		.loc 1 190 0
 5295 1308 A6EE865A 		vfma.f32	s10, s13, s12
 5296              		.loc 1 192 0
 5297 130c 9DED196A 		vldr.32	s12, [sp, #100]
 5298              	.LBB2372:
 5299              	.LBB2373:
 5300              		.loc 2 211 0
 5301 1310 FCEEC66A 		vcvt.u32.f32	s13, s12
ARM GAS  /tmp/ccJJl1OT.s 			page 94


 5302              	.LBE2373:
 5303              	.LBE2372:
 5304              	.LBB2378:
 5305              	.LBB2366:
 5306              		.loc 2 219 0
 5307 1314 88BF     		it	hi
 5308 1316 FFEE004A 		vmovhi.f32	s9, #-1.0e+0
 5309              	.LVL358:
 5310              	.LBE2366:
 5311              	.LBE2378:
 5312              	.LBB2379:
 5313              	.LBB2374:
 5314              		.loc 2 211 0
 5315 131a F8EE666A 		vcvt.f32.u32	s13, s13
 5316              	.LBE2374:
 5317              	.LBE2379:
 5318              		.loc 1 190 0
 5319 131e E5EE247A 		vfma.f32	s15, s10, s9
 5320              	.LBB2380:
 5321              	.LBB2375:
 5322              		.loc 2 211 0
 5323 1322 76EE666A 		vsub.f32	s13, s12, s13
 5324 1326 66EE876A 		vmul.f32	s13, s13, s14
 5325              	.LVL359:
 5326              		.loc 2 212 0
 5327 132a BCEEE66A 		vcvt.u32.f32	s12, s13
 5328              	.LVL360:
 5329 132e 16EE10BA 		vmov	fp, s12	@ int
 5330              	.LVL361:
 5331              		.loc 2 216 0
 5332 1332 BBF17F0F 		cmp	fp, #127
 5333              		.loc 2 217 0
 5334 1336 86BF     		itte	hi
 5335 1338 0BF07F07 		andhi	r7, fp, #127
 5336 133c C7F1800A 		rsbhi	r10, r7, #128
 5337              		.loc 2 214 0
 5338 1340 DA46     		movls	r10, fp
 5339              	.LVL362:
 5340              	.LBE2375:
 5341              	.LBE2380:
 5342              		.loc 1 180 0
 5343 1342 B8EE466A 		vcvt.f32.u32	s12, s12
 5344              	.LBB2381:
 5345              	.LBB2376:
 5346              		.loc 2 214 0
 5347 1346 94BF     		ite	ls
 5348 1348 0BF10107 		addls	r7, fp, #1
 5349              		.loc 2 218 0
 5350 134c C7F17F07 		rsbhi	r7, r7, #127
 5351              	.LVL363:
 5352              		.loc 2 222 0
 5353 1350 04EB8A0A 		add	r10, r4, r10, lsl #2
 5354              	.LVL364:
 5355              		.loc 2 215 0
 5356 1354 94BF     		ite	ls
 5357 1356 F7EE004A 		vmovls.f32	s9, #1.0e+0
 5358              		.loc 2 219 0
ARM GAS  /tmp/ccJJl1OT.s 			page 95


 5359 135a FFEE004A 		vmovhi.f32	s9, #-1.0e+0
 5360              	.LVL365:
 5361              		.loc 2 222 0
 5362 135e 9AED005A 		vldr.32	s10, [r10]
 5363              	.LVL366:
 5364              	.LBE2376:
 5365              	.LBE2381:
 5366              		.loc 1 180 0
 5367 1362 76EEC66A 		vsub.f32	s13, s13, s12
 5368              	.LBB2382:
 5369              	.LBB2377:
 5370              		.loc 2 222 0
 5371 1366 04EB8707 		add	r7, r4, r7, lsl #2
 5372 136a 5EE2     		b	.L402
 5373              	.LVL367:
 5374              	.L166:
 5375              	.LBE2377:
 5376              	.LBE2382:
 5377              		.loc 1 197 0
 5378 136c DDED0E7A 		vldr.32	s15, [sp, #56]
 5379              	.LVL368:
 5380              	.LBB2383:
 5381              	.LBB2242:
 5382              		.loc 2 324 0
 5383 1370 FCEEE76A 		vcvt.u32.f32	s13, s15
 5384 1374 FFEE005A 		vmov.f32	s11, #-1.0e+0
 5385 1378 F8EE666A 		vcvt.f32.u32	s13, s13
 5386 137c 77EEE66A 		vsub.f32	s13, s15, s13
 5387 1380 66EEA36A 		vmul.f32	s13, s13, s7
 5388              	.LVL369:
 5389              		.loc 2 325 0
 5390 1384 FCEEE67A 		vcvt.u32.f32	s15, s13
 5391              	.LVL370:
 5392 1388 17EE90BA 		vmov	fp, s15	@ int
 5393              	.LVL371:
 5394              		.loc 2 329 0
 5395 138c BBF17F0F 		cmp	fp, #127
 5396              		.loc 2 336 0
 5397 1390 06EE10BA 		vmov	s12, fp	@ int
 5398              		.loc 2 330 0
 5399 1394 87BF     		ittee	hi
 5400 1396 0BF07F07 		andhi	r7, fp, #127
 5401 139a C7F1800A 		rsbhi	r10, r7, #128
 5402              		.loc 2 327 0
 5403 139e 0BF10107 		addls	r7, fp, #1
 5404 13a2 DA46     		movls	r10, fp
 5405              	.LVL372:
 5406              		.loc 2 331 0
 5407 13a4 88BF     		it	hi
 5408 13a6 C7F17F07 		rsbhi	r7, r7, #127
 5409              	.LVL373:
 5410              		.loc 2 336 0
 5411 13aa B8EE466A 		vcvt.f32.u32	s12, s12
 5412              		.loc 2 335 0
 5413 13ae 0CEB8707 		add	r7, ip, r7, lsl #2
 5414              	.LVL374:
 5415 13b2 0CEB8A0A 		add	r10, ip, r10, lsl #2
ARM GAS  /tmp/ccJJl1OT.s 			page 96


 5416              	.LVL375:
 5417 13b6 DAED007A 		vldr.32	s15, [r10]
 5418              		.loc 2 336 0
 5419 13ba 76EEC66A 		vsub.f32	s13, s13, s12
 5420              	.LVL376:
 5421 13be 97ED006A 		vldr.32	s12, [r7]
 5422 13c2 36EE676A 		vsub.f32	s12, s12, s15
 5423              		.loc 2 328 0
 5424 13c6 98BF     		it	ls
 5425 13c8 B7EE005A 		vmovls.f32	s10, #1.0e+0
 5426              		.loc 2 336 0
 5427 13cc E6EE867A 		vfma.f32	s15, s13, s12
 5428              	.LBE2242:
 5429              	.LBE2383:
 5430              		.loc 1 198 0
 5431 13d0 9DED0F6A 		vldr.32	s12, [sp, #60]
 5432              	.LBB2384:
 5433              	.LBB2385:
 5434              		.loc 2 324 0
 5435 13d4 FCEEC66A 		vcvt.u32.f32	s13, s12
 5436              	.LBE2385:
 5437              	.LBE2384:
 5438              	.LBB2391:
 5439              	.LBB2243:
 5440              		.loc 2 332 0
 5441 13d8 88BF     		it	hi
 5442 13da B0EE655A 		vmovhi.f32	s10, s11
 5443              	.LVL377:
 5444              	.LBE2243:
 5445              	.LBE2391:
 5446              	.LBB2392:
 5447              	.LBB2386:
 5448              		.loc 2 324 0
 5449 13de F8EE666A 		vcvt.f32.u32	s13, s13
 5450              	.LBE2386:
 5451              	.LBE2392:
 5452              	.LBB2393:
 5453              	.LBB2244:
 5454              		.loc 2 336 0
 5455 13e2 67EE857A 		vmul.f32	s15, s15, s10
 5456              	.LVL378:
 5457              	.LBE2244:
 5458              	.LBE2393:
 5459              	.LBB2394:
 5460              	.LBB2387:
 5461              		.loc 2 324 0
 5462 13e6 76EE666A 		vsub.f32	s13, s12, s13
 5463 13ea 66EE876A 		vmul.f32	s13, s13, s14
 5464              	.LVL379:
 5465              		.loc 2 325 0
 5466 13ee BCEEE66A 		vcvt.u32.f32	s12, s13
 5467              	.LVL380:
 5468 13f2 16EE10BA 		vmov	fp, s12	@ int
 5469              	.LVL381:
 5470              		.loc 2 329 0
 5471 13f6 BBF17F0F 		cmp	fp, #127
 5472              		.loc 2 330 0
ARM GAS  /tmp/ccJJl1OT.s 			page 97


 5473 13fa 87BF     		ittee	hi
 5474 13fc 0BF07F07 		andhi	r7, fp, #127
 5475 1400 C7F1800A 		rsbhi	r10, r7, #128
 5476              		.loc 2 327 0
 5477 1404 0BF10107 		addls	r7, fp, #1
 5478 1408 DA46     		movls	r10, fp
 5479              	.LVL382:
 5480              		.loc 2 331 0
 5481 140a 88BF     		it	hi
 5482 140c C7F17F07 		rsbhi	r7, r7, #127
 5483              	.LVL383:
 5484              	.LBE2387:
 5485              	.LBE2394:
 5486              		.loc 1 197 0
 5487 1410 B8EE466A 		vcvt.f32.u32	s12, s12
 5488              	.LBB2395:
 5489              	.LBB2388:
 5490              		.loc 2 335 0
 5491 1414 00EB8707 		add	r7, r0, r7, lsl #2
 5492              	.LVL384:
 5493 1418 00EB8A0A 		add	r10, r0, r10, lsl #2
 5494              	.LVL385:
 5495 141c 9AED005A 		vldr.32	s10, [r10]
 5496              	.LBE2388:
 5497              	.LBE2395:
 5498              		.loc 1 197 0
 5499 1420 76EEC66A 		vsub.f32	s13, s13, s12
 5500              	.LVL386:
 5501 1424 97ED006A 		vldr.32	s12, [r7]
 5502 1428 36EE456A 		vsub.f32	s12, s12, s10
 5503              	.LBB2396:
 5504              	.LBB2389:
 5505              		.loc 2 328 0
 5506 142c 98BF     		it	ls
 5507 142e F7EE004A 		vmovls.f32	s9, #1.0e+0
 5508              	.LBE2389:
 5509              	.LBE2396:
 5510              		.loc 1 197 0
 5511 1432 A6EE865A 		vfma.f32	s10, s13, s12
 5512              		.loc 1 199 0
 5513 1436 9DED106A 		vldr.32	s12, [sp, #64]
 5514              	.LBB2397:
 5515              	.LBB2398:
 5516              		.loc 2 324 0
 5517 143a FCEEC66A 		vcvt.u32.f32	s13, s12
 5518              	.LBE2398:
 5519              	.LBE2397:
 5520              	.LBB2404:
 5521              	.LBB2390:
 5522              		.loc 2 332 0
 5523 143e 88BF     		it	hi
 5524 1440 FFEE004A 		vmovhi.f32	s9, #-1.0e+0
 5525              	.LVL387:
 5526              	.LBE2390:
 5527              	.LBE2404:
 5528              	.LBB2405:
 5529              	.LBB2399:
ARM GAS  /tmp/ccJJl1OT.s 			page 98


 5530              		.loc 2 324 0
 5531 1444 F8EE666A 		vcvt.f32.u32	s13, s13
 5532              	.LBE2399:
 5533              	.LBE2405:
 5534              		.loc 1 197 0
 5535 1448 E5EE247A 		vfma.f32	s15, s10, s9
 5536              	.LBB2406:
 5537              	.LBB2400:
 5538              		.loc 2 324 0
 5539 144c 76EE666A 		vsub.f32	s13, s12, s13
 5540 1450 66EE876A 		vmul.f32	s13, s13, s14
 5541              	.LVL388:
 5542              		.loc 2 325 0
 5543 1454 BCEEE66A 		vcvt.u32.f32	s12, s13
 5544              	.LVL389:
 5545 1458 16EE10BA 		vmov	fp, s12	@ int
 5546              	.LVL390:
 5547              		.loc 2 329 0
 5548 145c BBF17F0F 		cmp	fp, #127
 5549              		.loc 2 330 0
 5550 1460 87BF     		ittee	hi
 5551 1462 0BF07F07 		andhi	r7, fp, #127
 5552 1466 C7F1800A 		rsbhi	r10, r7, #128
 5553              		.loc 2 327 0
 5554 146a 0BF10107 		addls	r7, fp, #1
 5555 146e DA46     		movls	r10, fp
 5556              	.LVL391:
 5557              		.loc 2 331 0
 5558 1470 88BF     		it	hi
 5559 1472 C7F17F07 		rsbhi	r7, r7, #127
 5560              	.LVL392:
 5561              	.LBE2400:
 5562              	.LBE2406:
 5563              		.loc 1 198 0
 5564 1476 B8EE466A 		vcvt.f32.u32	s12, s12
 5565              	.LBB2407:
 5566              	.LBB2401:
 5567              		.loc 2 335 0
 5568 147a 00EB8707 		add	r7, r0, r7, lsl #2
 5569              	.LVL393:
 5570 147e 00EB8A0A 		add	r10, r0, r10, lsl #2
 5571              	.LVL394:
 5572 1482 9AED005A 		vldr.32	s10, [r10]
 5573              	.LBE2401:
 5574              	.LBE2407:
 5575              		.loc 1 198 0
 5576 1486 76EEC66A 		vsub.f32	s13, s13, s12
 5577              	.LVL395:
 5578 148a 97ED006A 		vldr.32	s12, [r7]
 5579 148e 36EE456A 		vsub.f32	s12, s12, s10
 5580              	.LBB2408:
 5581              	.LBB2402:
 5582              		.loc 2 328 0
 5583 1492 98BF     		it	ls
 5584 1494 F7EE004A 		vmovls.f32	s9, #1.0e+0
 5585              	.LBE2402:
 5586              	.LBE2408:
ARM GAS  /tmp/ccJJl1OT.s 			page 99


 5587              		.loc 1 198 0
 5588 1498 A6EE865A 		vfma.f32	s10, s13, s12
 5589              		.loc 1 200 0
 5590 149c 9DED116A 		vldr.32	s12, [sp, #68]
 5591              	.LBB2409:
 5592              	.LBB2410:
 5593              		.loc 2 324 0
 5594 14a0 FCEEC66A 		vcvt.u32.f32	s13, s12
 5595              	.LBE2410:
 5596              	.LBE2409:
 5597              	.LBB2416:
 5598              	.LBB2403:
 5599              		.loc 2 332 0
 5600 14a4 88BF     		it	hi
 5601 14a6 FFEE004A 		vmovhi.f32	s9, #-1.0e+0
 5602              	.LVL396:
 5603              	.LBE2403:
 5604              	.LBE2416:
 5605              	.LBB2417:
 5606              	.LBB2411:
 5607              		.loc 2 324 0
 5608 14aa F8EE666A 		vcvt.f32.u32	s13, s13
 5609              	.LBE2411:
 5610              	.LBE2417:
 5611              		.loc 1 198 0
 5612 14ae E5EE247A 		vfma.f32	s15, s10, s9
 5613              	.LBB2418:
 5614              	.LBB2412:
 5615              		.loc 2 324 0
 5616 14b2 76EE666A 		vsub.f32	s13, s12, s13
 5617 14b6 66EE876A 		vmul.f32	s13, s13, s14
 5618              	.LVL397:
 5619              		.loc 2 325 0
 5620 14ba BCEEE66A 		vcvt.u32.f32	s12, s13
 5621              	.LVL398:
 5622 14be 16EE10BA 		vmov	fp, s12	@ int
 5623              	.LVL399:
 5624              		.loc 2 329 0
 5625 14c2 BBF17F0F 		cmp	fp, #127
 5626              		.loc 2 330 0
 5627 14c6 87BF     		ittee	hi
 5628 14c8 0BF07F07 		andhi	r7, fp, #127
 5629 14cc C7F1800A 		rsbhi	r10, r7, #128
 5630              		.loc 2 327 0
 5631 14d0 0BF10107 		addls	r7, fp, #1
 5632 14d4 DA46     		movls	r10, fp
 5633              	.LVL400:
 5634              		.loc 2 331 0
 5635 14d6 88BF     		it	hi
 5636 14d8 C7F17F07 		rsbhi	r7, r7, #127
 5637              	.LVL401:
 5638              	.LBE2412:
 5639              	.LBE2418:
 5640              		.loc 1 199 0
 5641 14dc B8EE466A 		vcvt.f32.u32	s12, s12
 5642              	.LBB2419:
 5643              	.LBB2413:
ARM GAS  /tmp/ccJJl1OT.s 			page 100


 5644              		.loc 2 335 0
 5645 14e0 00EB8707 		add	r7, r0, r7, lsl #2
 5646              	.LVL402:
 5647 14e4 00EB8A0A 		add	r10, r0, r10, lsl #2
 5648              	.LVL403:
 5649 14e8 9AED005A 		vldr.32	s10, [r10]
 5650              	.LBE2413:
 5651              	.LBE2419:
 5652              		.loc 1 199 0
 5653 14ec 76EEC66A 		vsub.f32	s13, s13, s12
 5654              	.LVL404:
 5655 14f0 97ED006A 		vldr.32	s12, [r7]
 5656 14f4 36EE456A 		vsub.f32	s12, s12, s10
 5657              	.LBB2420:
 5658              	.LBB2414:
 5659              		.loc 2 328 0
 5660 14f8 98BF     		it	ls
 5661 14fa F7EE004A 		vmovls.f32	s9, #1.0e+0
 5662              	.LBE2414:
 5663              	.LBE2420:
 5664              		.loc 1 199 0
 5665 14fe A6EE865A 		vfma.f32	s10, s13, s12
 5666              		.loc 1 201 0
 5667 1502 9DED126A 		vldr.32	s12, [sp, #72]
 5668              	.LBB2421:
 5669              	.LBB2422:
 5670              		.loc 2 324 0
 5671 1506 FCEEC66A 		vcvt.u32.f32	s13, s12
 5672              	.LBE2422:
 5673              	.LBE2421:
 5674              	.LBB2428:
 5675              	.LBB2415:
 5676              		.loc 2 332 0
 5677 150a 88BF     		it	hi
 5678 150c FFEE004A 		vmovhi.f32	s9, #-1.0e+0
 5679              	.LVL405:
 5680              	.LBE2415:
 5681              	.LBE2428:
 5682              	.LBB2429:
 5683              	.LBB2423:
 5684              		.loc 2 324 0
 5685 1510 F8EE666A 		vcvt.f32.u32	s13, s13
 5686              	.LBE2423:
 5687              	.LBE2429:
 5688              		.loc 1 199 0
 5689 1514 E5EE247A 		vfma.f32	s15, s10, s9
 5690              	.LBB2430:
 5691              	.LBB2424:
 5692              		.loc 2 324 0
 5693 1518 76EE666A 		vsub.f32	s13, s12, s13
 5694 151c 66EE876A 		vmul.f32	s13, s13, s14
 5695              	.LVL406:
 5696              		.loc 2 325 0
 5697 1520 BCEEE66A 		vcvt.u32.f32	s12, s13
 5698              	.LVL407:
 5699 1524 16EE10BA 		vmov	fp, s12	@ int
 5700              	.LVL408:
ARM GAS  /tmp/ccJJl1OT.s 			page 101


 5701              		.loc 2 329 0
 5702 1528 BBF17F0F 		cmp	fp, #127
 5703              		.loc 2 330 0
 5704 152c 87BF     		ittee	hi
 5705 152e 0BF07F07 		andhi	r7, fp, #127
 5706 1532 C7F1800A 		rsbhi	r10, r7, #128
 5707              		.loc 2 327 0
 5708 1536 0BF10107 		addls	r7, fp, #1
 5709 153a DA46     		movls	r10, fp
 5710              	.LVL409:
 5711              		.loc 2 331 0
 5712 153c 88BF     		it	hi
 5713 153e C7F17F07 		rsbhi	r7, r7, #127
 5714              	.LVL410:
 5715              	.LBE2424:
 5716              	.LBE2430:
 5717              		.loc 1 200 0
 5718 1542 B8EE466A 		vcvt.f32.u32	s12, s12
 5719              	.LBB2431:
 5720              	.LBB2425:
 5721              		.loc 2 335 0
 5722 1546 00EB8707 		add	r7, r0, r7, lsl #2
 5723              	.LVL411:
 5724 154a 00EB8A0A 		add	r10, r0, r10, lsl #2
 5725              	.LVL412:
 5726 154e 9AED005A 		vldr.32	s10, [r10]
 5727              	.LBE2425:
 5728              	.LBE2431:
 5729              		.loc 1 200 0
 5730 1552 76EEC66A 		vsub.f32	s13, s13, s12
 5731              	.LVL413:
 5732 1556 97ED006A 		vldr.32	s12, [r7]
 5733 155a 36EE456A 		vsub.f32	s12, s12, s10
 5734              	.LBB2432:
 5735              	.LBB2426:
 5736              		.loc 2 328 0
 5737 155e 98BF     		it	ls
 5738 1560 F7EE004A 		vmovls.f32	s9, #1.0e+0
 5739              	.LBE2426:
 5740              	.LBE2432:
 5741              		.loc 1 200 0
 5742 1564 A6EE865A 		vfma.f32	s10, s13, s12
 5743              		.loc 1 202 0
 5744 1568 9DED136A 		vldr.32	s12, [sp, #76]
 5745              	.LBB2433:
 5746              	.LBB2434:
 5747              		.loc 2 324 0
 5748 156c FCEEC66A 		vcvt.u32.f32	s13, s12
 5749              	.LBE2434:
 5750              	.LBE2433:
 5751              	.LBB2440:
 5752              	.LBB2427:
 5753              		.loc 2 332 0
 5754 1570 88BF     		it	hi
 5755 1572 FFEE004A 		vmovhi.f32	s9, #-1.0e+0
 5756              	.LVL414:
 5757              	.LBE2427:
ARM GAS  /tmp/ccJJl1OT.s 			page 102


 5758              	.LBE2440:
 5759              	.LBB2441:
 5760              	.LBB2435:
 5761              		.loc 2 324 0
 5762 1576 F8EE666A 		vcvt.f32.u32	s13, s13
 5763              	.LBE2435:
 5764              	.LBE2441:
 5765              		.loc 1 200 0
 5766 157a E5EE247A 		vfma.f32	s15, s10, s9
 5767              	.LBB2442:
 5768              	.LBB2436:
 5769              		.loc 2 324 0
 5770 157e 76EE666A 		vsub.f32	s13, s12, s13
 5771 1582 66EE876A 		vmul.f32	s13, s13, s14
 5772              	.LVL415:
 5773              		.loc 2 325 0
 5774 1586 BCEEE66A 		vcvt.u32.f32	s12, s13
 5775              	.LVL416:
 5776 158a 16EE10BA 		vmov	fp, s12	@ int
 5777              	.LVL417:
 5778              		.loc 2 329 0
 5779 158e BBF17F0F 		cmp	fp, #127
 5780              		.loc 2 330 0
 5781 1592 87BF     		ittee	hi
 5782 1594 0BF07F07 		andhi	r7, fp, #127
 5783 1598 C7F1800A 		rsbhi	r10, r7, #128
 5784              		.loc 2 327 0
 5785 159c 0BF10107 		addls	r7, fp, #1
 5786 15a0 DA46     		movls	r10, fp
 5787              	.LVL418:
 5788              		.loc 2 331 0
 5789 15a2 88BF     		it	hi
 5790 15a4 C7F17F07 		rsbhi	r7, r7, #127
 5791              	.LVL419:
 5792              	.LBE2436:
 5793              	.LBE2442:
 5794              		.loc 1 201 0
 5795 15a8 B8EE466A 		vcvt.f32.u32	s12, s12
 5796              	.LBB2443:
 5797              	.LBB2437:
 5798              		.loc 2 335 0
 5799 15ac 00EB8707 		add	r7, r0, r7, lsl #2
 5800              	.LVL420:
 5801 15b0 00EB8A0A 		add	r10, r0, r10, lsl #2
 5802              	.LVL421:
 5803 15b4 9AED005A 		vldr.32	s10, [r10]
 5804              	.LBE2437:
 5805              	.LBE2443:
 5806              		.loc 1 201 0
 5807 15b8 76EEC66A 		vsub.f32	s13, s13, s12
 5808              	.LVL422:
 5809 15bc 97ED006A 		vldr.32	s12, [r7]
 5810 15c0 36EE456A 		vsub.f32	s12, s12, s10
 5811              	.LBB2444:
 5812              	.LBB2438:
 5813              		.loc 2 328 0
 5814 15c4 98BF     		it	ls
ARM GAS  /tmp/ccJJl1OT.s 			page 103


 5815 15c6 F7EE004A 		vmovls.f32	s9, #1.0e+0
 5816              	.LBE2438:
 5817              	.LBE2444:
 5818              		.loc 1 201 0
 5819 15ca A6EE865A 		vfma.f32	s10, s13, s12
 5820              		.loc 1 203 0
 5821 15ce 9DED146A 		vldr.32	s12, [sp, #80]
 5822              	.LBB2445:
 5823              	.LBB2446:
 5824              		.loc 2 324 0
 5825 15d2 FCEEC66A 		vcvt.u32.f32	s13, s12
 5826              	.LBE2446:
 5827              	.LBE2445:
 5828              	.LBB2452:
 5829              	.LBB2439:
 5830              		.loc 2 332 0
 5831 15d6 88BF     		it	hi
 5832 15d8 FFEE004A 		vmovhi.f32	s9, #-1.0e+0
 5833              	.LVL423:
 5834              	.LBE2439:
 5835              	.LBE2452:
 5836              	.LBB2453:
 5837              	.LBB2447:
 5838              		.loc 2 324 0
 5839 15dc F8EE666A 		vcvt.f32.u32	s13, s13
 5840              	.LBE2447:
 5841              	.LBE2453:
 5842              		.loc 1 201 0
 5843 15e0 E5EE247A 		vfma.f32	s15, s10, s9
 5844              	.LBB2454:
 5845              	.LBB2448:
 5846              		.loc 2 324 0
 5847 15e4 76EE666A 		vsub.f32	s13, s12, s13
 5848 15e8 66EE876A 		vmul.f32	s13, s13, s14
 5849              	.LVL424:
 5850              		.loc 2 325 0
 5851 15ec BCEEE66A 		vcvt.u32.f32	s12, s13
 5852              	.LVL425:
 5853 15f0 16EE10BA 		vmov	fp, s12	@ int
 5854              	.LVL426:
 5855              		.loc 2 329 0
 5856 15f4 BBF17F0F 		cmp	fp, #127
 5857              		.loc 2 330 0
 5858 15f8 87BF     		ittee	hi
 5859 15fa 0BF07F07 		andhi	r7, fp, #127
 5860 15fe C7F1800A 		rsbhi	r10, r7, #128
 5861              		.loc 2 327 0
 5862 1602 0BF10107 		addls	r7, fp, #1
 5863 1606 DA46     		movls	r10, fp
 5864              	.LVL427:
 5865              		.loc 2 331 0
 5866 1608 88BF     		it	hi
 5867 160a C7F17F07 		rsbhi	r7, r7, #127
 5868              	.LVL428:
 5869              	.LBE2448:
 5870              	.LBE2454:
 5871              		.loc 1 202 0
ARM GAS  /tmp/ccJJl1OT.s 			page 104


 5872 160e B8EE466A 		vcvt.f32.u32	s12, s12
 5873              	.LBB2455:
 5874              	.LBB2449:
 5875              		.loc 2 335 0
 5876 1612 00EB8707 		add	r7, r0, r7, lsl #2
 5877              	.LVL429:
 5878 1616 00EB8A0A 		add	r10, r0, r10, lsl #2
 5879              	.LVL430:
 5880 161a 9AED005A 		vldr.32	s10, [r10]
 5881              	.LBE2449:
 5882              	.LBE2455:
 5883              		.loc 1 202 0
 5884 161e 76EEC66A 		vsub.f32	s13, s13, s12
 5885              	.LVL431:
 5886 1622 97ED006A 		vldr.32	s12, [r7]
 5887 1626 36EE456A 		vsub.f32	s12, s12, s10
 5888              	.LBB2456:
 5889              	.LBB2450:
 5890              		.loc 2 328 0
 5891 162a 98BF     		it	ls
 5892 162c F7EE004A 		vmovls.f32	s9, #1.0e+0
 5893              	.LBE2450:
 5894              	.LBE2456:
 5895              		.loc 1 202 0
 5896 1630 A6EE865A 		vfma.f32	s10, s13, s12
 5897              		.loc 1 204 0
 5898 1634 9DED156A 		vldr.32	s12, [sp, #84]
 5899              	.LBB2457:
 5900              	.LBB2458:
 5901              		.loc 2 324 0
 5902 1638 FCEEC66A 		vcvt.u32.f32	s13, s12
 5903              	.LBE2458:
 5904              	.LBE2457:
 5905              	.LBB2464:
 5906              	.LBB2451:
 5907              		.loc 2 332 0
 5908 163c 88BF     		it	hi
 5909 163e FFEE004A 		vmovhi.f32	s9, #-1.0e+0
 5910              	.LVL432:
 5911              	.LBE2451:
 5912              	.LBE2464:
 5913              	.LBB2465:
 5914              	.LBB2459:
 5915              		.loc 2 324 0
 5916 1642 F8EE666A 		vcvt.f32.u32	s13, s13
 5917              	.LBE2459:
 5918              	.LBE2465:
 5919              		.loc 1 202 0
 5920 1646 E5EE247A 		vfma.f32	s15, s10, s9
 5921              	.LBB2466:
 5922              	.LBB2460:
 5923              		.loc 2 324 0
 5924 164a 76EE666A 		vsub.f32	s13, s12, s13
 5925 164e 66EE876A 		vmul.f32	s13, s13, s14
 5926              	.LVL433:
 5927              		.loc 2 325 0
 5928 1652 BCEEE66A 		vcvt.u32.f32	s12, s13
ARM GAS  /tmp/ccJJl1OT.s 			page 105


 5929              	.LVL434:
 5930 1656 16EE10BA 		vmov	fp, s12	@ int
 5931              	.LVL435:
 5932              		.loc 2 329 0
 5933 165a BBF17F0F 		cmp	fp, #127
 5934              		.loc 2 330 0
 5935 165e 87BF     		ittee	hi
 5936 1660 0BF07F07 		andhi	r7, fp, #127
 5937 1664 C7F1800A 		rsbhi	r10, r7, #128
 5938              		.loc 2 327 0
 5939 1668 0BF10107 		addls	r7, fp, #1
 5940 166c DA46     		movls	r10, fp
 5941              	.LVL436:
 5942              		.loc 2 331 0
 5943 166e 88BF     		it	hi
 5944 1670 C7F17F07 		rsbhi	r7, r7, #127
 5945              	.LVL437:
 5946              	.LBE2460:
 5947              	.LBE2466:
 5948              		.loc 1 203 0
 5949 1674 B8EE466A 		vcvt.f32.u32	s12, s12
 5950              	.LBB2467:
 5951              	.LBB2461:
 5952              		.loc 2 335 0
 5953 1678 00EB8707 		add	r7, r0, r7, lsl #2
 5954              	.LVL438:
 5955 167c 00EB8A0A 		add	r10, r0, r10, lsl #2
 5956              	.LVL439:
 5957 1680 9AED005A 		vldr.32	s10, [r10]
 5958              	.LBE2461:
 5959              	.LBE2467:
 5960              		.loc 1 203 0
 5961 1684 76EEC66A 		vsub.f32	s13, s13, s12
 5962              	.LVL440:
 5963 1688 97ED006A 		vldr.32	s12, [r7]
 5964 168c 36EE456A 		vsub.f32	s12, s12, s10
 5965              	.LBB2468:
 5966              	.LBB2462:
 5967              		.loc 2 328 0
 5968 1690 98BF     		it	ls
 5969 1692 F7EE004A 		vmovls.f32	s9, #1.0e+0
 5970              	.LBE2462:
 5971              	.LBE2468:
 5972              		.loc 1 203 0
 5973 1696 A6EE865A 		vfma.f32	s10, s13, s12
 5974              		.loc 1 205 0
 5975 169a 9DED166A 		vldr.32	s12, [sp, #88]
 5976              	.LBB2469:
 5977              	.LBB2470:
 5978              		.loc 2 324 0
 5979 169e FCEEC66A 		vcvt.u32.f32	s13, s12
 5980              	.LBE2470:
 5981              	.LBE2469:
 5982              	.LBB2476:
 5983              	.LBB2463:
 5984              		.loc 2 332 0
 5985 16a2 88BF     		it	hi
ARM GAS  /tmp/ccJJl1OT.s 			page 106


 5986 16a4 FFEE004A 		vmovhi.f32	s9, #-1.0e+0
 5987              	.LVL441:
 5988              	.LBE2463:
 5989              	.LBE2476:
 5990              	.LBB2477:
 5991              	.LBB2471:
 5992              		.loc 2 324 0
 5993 16a8 F8EE666A 		vcvt.f32.u32	s13, s13
 5994              	.LBE2471:
 5995              	.LBE2477:
 5996              		.loc 1 203 0
 5997 16ac E5EE247A 		vfma.f32	s15, s10, s9
 5998              	.LBB2478:
 5999              	.LBB2472:
 6000              		.loc 2 324 0
 6001 16b0 76EE666A 		vsub.f32	s13, s12, s13
 6002 16b4 66EE876A 		vmul.f32	s13, s13, s14
 6003              	.LVL442:
 6004              		.loc 2 325 0
 6005 16b8 BCEEE66A 		vcvt.u32.f32	s12, s13
 6006              	.LVL443:
 6007 16bc 16EE10BA 		vmov	fp, s12	@ int
 6008              	.LVL444:
 6009              		.loc 2 329 0
 6010 16c0 BBF17F0F 		cmp	fp, #127
 6011              		.loc 2 330 0
 6012 16c4 87BF     		ittee	hi
 6013 16c6 0BF07F07 		andhi	r7, fp, #127
 6014 16ca C7F1800A 		rsbhi	r10, r7, #128
 6015              		.loc 2 327 0
 6016 16ce 0BF10107 		addls	r7, fp, #1
 6017 16d2 DA46     		movls	r10, fp
 6018              	.LVL445:
 6019              		.loc 2 331 0
 6020 16d4 88BF     		it	hi
 6021 16d6 C7F17F07 		rsbhi	r7, r7, #127
 6022              	.LVL446:
 6023              	.LBE2472:
 6024              	.LBE2478:
 6025              		.loc 1 204 0
 6026 16da B8EE466A 		vcvt.f32.u32	s12, s12
 6027              	.LBB2479:
 6028              	.LBB2473:
 6029              		.loc 2 335 0
 6030 16de 00EB8707 		add	r7, r0, r7, lsl #2
 6031              	.LVL447:
 6032 16e2 00EB8A0A 		add	r10, r0, r10, lsl #2
 6033              	.LVL448:
 6034 16e6 9AED005A 		vldr.32	s10, [r10]
 6035              	.LBE2473:
 6036              	.LBE2479:
 6037              		.loc 1 204 0
 6038 16ea 76EEC66A 		vsub.f32	s13, s13, s12
 6039              	.LVL449:
 6040 16ee 97ED006A 		vldr.32	s12, [r7]
 6041 16f2 36EE456A 		vsub.f32	s12, s12, s10
 6042              	.LBB2480:
ARM GAS  /tmp/ccJJl1OT.s 			page 107


 6043              	.LBB2474:
 6044              		.loc 2 328 0
 6045 16f6 98BF     		it	ls
 6046 16f8 F7EE004A 		vmovls.f32	s9, #1.0e+0
 6047              	.LBE2474:
 6048              	.LBE2480:
 6049              		.loc 1 204 0
 6050 16fc A6EE865A 		vfma.f32	s10, s13, s12
 6051              		.loc 1 206 0
 6052 1700 9DED176A 		vldr.32	s12, [sp, #92]
 6053              	.LBB2481:
 6054              	.LBB2482:
 6055              		.loc 2 324 0
 6056 1704 FCEEC66A 		vcvt.u32.f32	s13, s12
 6057              	.LBE2482:
 6058              	.LBE2481:
 6059              	.LBB2488:
 6060              	.LBB2475:
 6061              		.loc 2 332 0
 6062 1708 88BF     		it	hi
 6063 170a FFEE004A 		vmovhi.f32	s9, #-1.0e+0
 6064              	.LVL450:
 6065              	.LBE2475:
 6066              	.LBE2488:
 6067              	.LBB2489:
 6068              	.LBB2483:
 6069              		.loc 2 324 0
 6070 170e F8EE666A 		vcvt.f32.u32	s13, s13
 6071              	.LBE2483:
 6072              	.LBE2489:
 6073              		.loc 1 204 0
 6074 1712 E5EE247A 		vfma.f32	s15, s10, s9
 6075              	.LBB2490:
 6076              	.LBB2484:
 6077              		.loc 2 324 0
 6078 1716 76EE666A 		vsub.f32	s13, s12, s13
 6079 171a 66EE876A 		vmul.f32	s13, s13, s14
 6080              	.LVL451:
 6081              		.loc 2 325 0
 6082 171e BCEEE66A 		vcvt.u32.f32	s12, s13
 6083              	.LVL452:
 6084 1722 16EE10BA 		vmov	fp, s12	@ int
 6085              	.LVL453:
 6086              		.loc 2 329 0
 6087 1726 BBF17F0F 		cmp	fp, #127
 6088              		.loc 2 330 0
 6089 172a 87BF     		ittee	hi
 6090 172c 0BF07F07 		andhi	r7, fp, #127
 6091 1730 C7F1800A 		rsbhi	r10, r7, #128
 6092              		.loc 2 327 0
 6093 1734 0BF10107 		addls	r7, fp, #1
 6094 1738 DA46     		movls	r10, fp
 6095              	.LVL454:
 6096              		.loc 2 331 0
 6097 173a 88BF     		it	hi
 6098 173c C7F17F07 		rsbhi	r7, r7, #127
 6099              	.LVL455:
ARM GAS  /tmp/ccJJl1OT.s 			page 108


 6100              	.LBE2484:
 6101              	.LBE2490:
 6102              		.loc 1 205 0
 6103 1740 B8EE466A 		vcvt.f32.u32	s12, s12
 6104              	.LBB2491:
 6105              	.LBB2485:
 6106              		.loc 2 335 0
 6107 1744 00EB8707 		add	r7, r0, r7, lsl #2
 6108              	.LVL456:
 6109 1748 00EB8A0A 		add	r10, r0, r10, lsl #2
 6110              	.LVL457:
 6111 174c 9AED005A 		vldr.32	s10, [r10]
 6112              	.LBE2485:
 6113              	.LBE2491:
 6114              		.loc 1 205 0
 6115 1750 76EEC66A 		vsub.f32	s13, s13, s12
 6116              	.LVL458:
 6117 1754 97ED006A 		vldr.32	s12, [r7]
 6118 1758 36EE456A 		vsub.f32	s12, s12, s10
 6119              	.LBB2492:
 6120              	.LBB2486:
 6121              		.loc 2 328 0
 6122 175c 98BF     		it	ls
 6123 175e F7EE004A 		vmovls.f32	s9, #1.0e+0
 6124              	.LBE2486:
 6125              	.LBE2492:
 6126              		.loc 1 205 0
 6127 1762 A6EE865A 		vfma.f32	s10, s13, s12
 6128              		.loc 1 207 0
 6129 1766 9DED186A 		vldr.32	s12, [sp, #96]
 6130              	.LBB2493:
 6131              	.LBB2494:
 6132              		.loc 2 324 0
 6133 176a FCEEC66A 		vcvt.u32.f32	s13, s12
 6134              	.LBE2494:
 6135              	.LBE2493:
 6136              	.LBB2500:
 6137              	.LBB2487:
 6138              		.loc 2 332 0
 6139 176e 88BF     		it	hi
 6140 1770 FFEE004A 		vmovhi.f32	s9, #-1.0e+0
 6141              	.LVL459:
 6142              	.LBE2487:
 6143              	.LBE2500:
 6144              	.LBB2501:
 6145              	.LBB2495:
 6146              		.loc 2 324 0
 6147 1774 F8EE666A 		vcvt.f32.u32	s13, s13
 6148              	.LBE2495:
 6149              	.LBE2501:
 6150              		.loc 1 205 0
 6151 1778 E5EE247A 		vfma.f32	s15, s10, s9
 6152              	.LBB2502:
 6153              	.LBB2496:
 6154              		.loc 2 324 0
 6155 177c 76EE666A 		vsub.f32	s13, s12, s13
 6156 1780 66EE876A 		vmul.f32	s13, s13, s14
ARM GAS  /tmp/ccJJl1OT.s 			page 109


 6157              	.LVL460:
 6158              		.loc 2 325 0
 6159 1784 BCEEE66A 		vcvt.u32.f32	s12, s13
 6160              	.LVL461:
 6161 1788 16EE10BA 		vmov	fp, s12	@ int
 6162              	.LVL462:
 6163              		.loc 2 329 0
 6164 178c BBF17F0F 		cmp	fp, #127
 6165              		.loc 2 330 0
 6166 1790 87BF     		ittee	hi
 6167 1792 0BF07F07 		andhi	r7, fp, #127
 6168 1796 C7F1800A 		rsbhi	r10, r7, #128
 6169              		.loc 2 327 0
 6170 179a 0BF10107 		addls	r7, fp, #1
 6171 179e DA46     		movls	r10, fp
 6172              	.LVL463:
 6173              		.loc 2 331 0
 6174 17a0 88BF     		it	hi
 6175 17a2 C7F17F07 		rsbhi	r7, r7, #127
 6176              	.LVL464:
 6177              	.LBE2496:
 6178              	.LBE2502:
 6179              		.loc 1 206 0
 6180 17a6 B8EE466A 		vcvt.f32.u32	s12, s12
 6181              	.LBB2503:
 6182              	.LBB2497:
 6183              		.loc 2 335 0
 6184 17aa 00EB8707 		add	r7, r0, r7, lsl #2
 6185              	.LVL465:
 6186 17ae 00EB8A0A 		add	r10, r0, r10, lsl #2
 6187              	.LVL466:
 6188 17b2 9AED005A 		vldr.32	s10, [r10]
 6189              	.LBE2497:
 6190              	.LBE2503:
 6191              		.loc 1 206 0
 6192 17b6 76EEC66A 		vsub.f32	s13, s13, s12
 6193              	.LVL467:
 6194 17ba 97ED006A 		vldr.32	s12, [r7]
 6195 17be 36EE456A 		vsub.f32	s12, s12, s10
 6196              	.LBB2504:
 6197              	.LBB2498:
 6198              		.loc 2 328 0
 6199 17c2 98BF     		it	ls
 6200 17c4 F7EE004A 		vmovls.f32	s9, #1.0e+0
 6201              	.LBE2498:
 6202              	.LBE2504:
 6203              		.loc 1 206 0
 6204 17c8 A6EE865A 		vfma.f32	s10, s13, s12
 6205              		.loc 1 208 0
 6206 17cc 9DED196A 		vldr.32	s12, [sp, #100]
 6207              	.LBB2505:
 6208              	.LBB2506:
 6209              		.loc 2 324 0
 6210 17d0 FCEEC66A 		vcvt.u32.f32	s13, s12
 6211              	.LBE2506:
 6212              	.LBE2505:
 6213              	.LBB2511:
ARM GAS  /tmp/ccJJl1OT.s 			page 110


 6214              	.LBB2499:
 6215              		.loc 2 332 0
 6216 17d4 88BF     		it	hi
 6217 17d6 FFEE004A 		vmovhi.f32	s9, #-1.0e+0
 6218              	.LVL468:
 6219              	.LBE2499:
 6220              	.LBE2511:
 6221              	.LBB2512:
 6222              	.LBB2507:
 6223              		.loc 2 324 0
 6224 17da F8EE666A 		vcvt.f32.u32	s13, s13
 6225              	.LBE2507:
 6226              	.LBE2512:
 6227              		.loc 1 206 0
 6228 17de E5EE247A 		vfma.f32	s15, s10, s9
 6229              	.LBB2513:
 6230              	.LBB2508:
 6231              		.loc 2 324 0
 6232 17e2 76EE666A 		vsub.f32	s13, s12, s13
 6233 17e6 66EE876A 		vmul.f32	s13, s13, s14
 6234              	.LVL469:
 6235              		.loc 2 325 0
 6236 17ea BCEEE66A 		vcvt.u32.f32	s12, s13
 6237              	.LVL470:
 6238 17ee 16EE10BA 		vmov	fp, s12	@ int
 6239              	.LVL471:
 6240              		.loc 2 329 0
 6241 17f2 BBF17F0F 		cmp	fp, #127
 6242              		.loc 2 330 0
 6243 17f6 86BF     		itte	hi
 6244 17f8 0BF07F07 		andhi	r7, fp, #127
 6245 17fc C7F1800A 		rsbhi	r10, r7, #128
 6246              		.loc 2 327 0
 6247 1800 DA46     		movls	r10, fp
 6248              	.LVL472:
 6249              	.LBE2508:
 6250              	.LBE2513:
 6251              		.loc 1 196 0
 6252 1802 B8EE466A 		vcvt.f32.u32	s12, s12
 6253              	.LBB2514:
 6254              	.LBB2509:
 6255              		.loc 2 335 0
 6256 1806 00EB8A0A 		add	r10, r0, r10, lsl #2
 6257              	.LVL473:
 6258              		.loc 2 327 0
 6259 180a 94BF     		ite	ls
 6260 180c 0BF10107 		addls	r7, fp, #1
 6261              		.loc 2 331 0
 6262 1810 C7F17F07 		rsbhi	r7, r7, #127
 6263              	.LVL474:
 6264              		.loc 2 335 0
 6265 1814 9AED005A 		vldr.32	s10, [r10]
 6266              	.LBE2509:
 6267              	.LBE2514:
 6268              		.loc 1 196 0
 6269 1818 76EEC66A 		vsub.f32	s13, s13, s12
 6270              	.LVL475:
ARM GAS  /tmp/ccJJl1OT.s 			page 111


 6271              	.LBB2515:
 6272              	.LBB2510:
 6273              		.loc 2 328 0
 6274 181c 94BF     		ite	ls
 6275 181e F7EE004A 		vmovls.f32	s9, #1.0e+0
 6276              		.loc 2 332 0
 6277 1822 FFEE004A 		vmovhi.f32	s9, #-1.0e+0
 6278              	.LVL476:
 6279              		.loc 2 335 0
 6280 1826 00EB8707 		add	r7, r0, r7, lsl #2
 6281              	.LVL477:
 6282              	.L402:
 6283              	.LBE2510:
 6284              	.LBE2515:
 6285              		.loc 1 196 0
 6286 182a 97ED006A 		vldr.32	s12, [r7]
 6287 182e 36EE456A 		vsub.f32	s12, s12, s10
 6288 1832 A6EE865A 		vfma.f32	s10, s13, s12
 6289 1836 E5EE247A 		vfma.f32	s15, s10, s9
 6290 183a 67EE837A 		vmul.f32	s15, s15, s6
 6291              	.LVL478:
 6292              	.LBB2516:
 6293              	.LBB2517:
 6294              	.LBB2518:
 6295              	.LBB2519:
 6296              	.LBB2520:
 6297              	.LBB2521:
 6298              		.loc 3 193 0
 6299 183e F4EEE57A 		vcmpe.f32	s15, s11
 6300 1842 F1EE10FA 		vmrs	APSR_nzcv, FPSCR
 6301 1846 09DB     		blt	.L397
 6302              	.LVL479:
 6303              	.LBE2521:
 6304              	.LBE2520:
 6305              	.LBB2523:
 6306              	.LBB2524:
 6307 1848 F7EE006A 		vmov.f32	s13, #1.0e+0
 6308              	.LBE2524:
 6309              	.LBE2523:
 6310              	.LBB2525:
 6311              	.LBB2522:
 6312 184c F4EEE67A 		vcmpe.f32	s15, s13
 6313 1850 F1EE10FA 		vmrs	APSR_nzcv, FPSCR
 6314 1854 A8BF     		it	ge
 6315 1856 F0EE667A 		vmovge.f32	s15, s13
 6316              	.LVL480:
 6317 185a 12E2     		b	.L232
 6318              	.LVL481:
 6319              	.L397:
 6320 185c FFEE007A 		vmov.f32	s15, #-1.0e+0
 6321              	.LVL482:
 6322 1860 0FE2     		b	.L232
 6323              	.LVL483:
 6324              	.L167:
 6325              	.LBE2522:
 6326              	.LBE2525:
 6327              	.LBE2519:
ARM GAS  /tmp/ccJJl1OT.s 			page 112


 6328              	.LBE2518:
 6329              	.LBE2517:
 6330              	.LBE2516:
 6331              		.loc 1 214 0
 6332 1862 DDED0E7A 		vldr.32	s15, [sp, #56]
 6333              	.LVL484:
 6334              		.loc 1 215 0
 6335 1866 9DED0F2A 		vldr.32	s4, [sp, #60]
 6336              	.LBB2526:
 6337              	.LBB2238:
 6338              		.loc 2 160 0
 6339 186a FCEEE74A 		vcvt.u32.f32	s9, s15
 6340 186e F8EE644A 		vcvt.f32.u32	s9, s9
 6341 1872 77EEE44A 		vsub.f32	s9, s15, s9
 6342 1876 64EEA34A 		vmul.f32	s9, s9, s7
 6343              	.LVL485:
 6344              		.loc 2 161 0
 6345 187a FCEEE47A 		vcvt.u32.f32	s15, s9
 6346              	.LVL486:
 6347 187e 17EE90BA 		vmov	fp, s15	@ int
 6348              	.LVL487:
 6349              		.loc 2 163 0
 6350 1882 0BF07F07 		and	r7, fp, #127
 6351              	.LVL488:
 6352              		.loc 2 166 0
 6353 1886 0EEB870A 		add	r10, lr, r7, lsl #2
 6354 188a 0137     		adds	r7, r7, #1
 6355              	.LVL489:
 6356              	.LBB2232:
 6357              	.LBB2233:
 6358              		.loc 3 826 0
 6359 188c F8EE677A 		vcvt.f32.u32	s15, s15
 6360              	.LBE2233:
 6361              	.LBE2232:
 6362              		.loc 2 166 0
 6363 1890 07F07F07 		and	r7, r7, #127
 6364              	.LVL490:
 6365 1894 0EEB8707 		add	r7, lr, r7, lsl #2
 6366              	.LVL491:
 6367 1898 DAED005A 		vldr.32	s11, [r10]
 6368              	.LVL492:
 6369              	.LBB2236:
 6370              	.LBB2234:
 6371              		.loc 3 826 0
 6372 189c 74EEE74A 		vsub.f32	s9, s9, s15
 6373              	.LVL493:
 6374 18a0 D7ED007A 		vldr.32	s15, [r7]
 6375 18a4 77EEE57A 		vsub.f32	s15, s15, s11
 6376              	.LBE2234:
 6377              	.LBE2236:
 6378              		.loc 2 167 0
 6379 18a8 BBF17F0F 		cmp	fp, #127
 6380              	.LBB2237:
 6381              	.LBB2235:
 6382              		.loc 3 826 0
 6383 18ac E4EEA75A 		vfma.f32	s11, s9, s15
 6384              	.LVL494:
ARM GAS  /tmp/ccJJl1OT.s 			page 113


 6385              	.LBE2235:
 6386              	.LBE2237:
 6387              	.LBE2238:
 6388              	.LBE2526:
 6389              	.LBB2527:
 6390              	.LBB2528:
 6391              		.loc 2 160 0
 6392 18b0 FCEEC24A 		vcvt.u32.f32	s9, s4
 6393              	.LBE2528:
 6394              	.LBE2527:
 6395              	.LBB2538:
 6396              	.LBB2239:
 6397              		.loc 2 167 0
 6398 18b4 88BF     		it	hi
 6399 18b6 F1EE655A 		vneghi.f32	s11, s11
 6400              	.LVL495:
 6401              	.LBE2239:
 6402              	.LBE2538:
 6403              	.LBB2539:
 6404              	.LBB2537:
 6405              		.loc 2 160 0
 6406 18ba F8EE644A 		vcvt.f32.u32	s9, s9
 6407 18be 72EE644A 		vsub.f32	s9, s4, s9
 6408 18c2 64EE874A 		vmul.f32	s9, s9, s14
 6409              	.LVL496:
 6410              		.loc 2 161 0
 6411 18c6 FCEEE47A 		vcvt.u32.f32	s15, s9
 6412 18ca 17EE90BA 		vmov	fp, s15	@ int
 6413              	.LVL497:
 6414              		.loc 2 163 0
 6415 18ce 0BF07F07 		and	r7, fp, #127
 6416              	.LVL498:
 6417              	.LBB2529:
 6418              	.LBB2530:
 6419              		.loc 3 826 0
 6420 18d2 06EE90BA 		vmov	s13, fp	@ int
 6421              	.LBE2530:
 6422              	.LBE2529:
 6423              		.loc 2 166 0
 6424 18d6 02EB870A 		add	r10, r2, r7, lsl #2
 6425 18da 0137     		adds	r7, r7, #1
 6426              	.LVL499:
 6427              	.LBB2534:
 6428              	.LBB2531:
 6429              		.loc 3 826 0
 6430 18dc F8EE666A 		vcvt.f32.u32	s13, s13
 6431              	.LBE2531:
 6432              	.LBE2534:
 6433              		.loc 2 166 0
 6434 18e0 07F07F07 		and	r7, r7, #127
 6435              	.LVL500:
 6436 18e4 02EB8707 		add	r7, r2, r7, lsl #2
 6437              	.LVL501:
 6438 18e8 DAED007A 		vldr.32	s15, [r10]
 6439              	.LVL502:
 6440              	.LBB2535:
 6441              	.LBB2532:
ARM GAS  /tmp/ccJJl1OT.s 			page 114


 6442              		.loc 3 826 0
 6443 18ec 74EEE64A 		vsub.f32	s9, s9, s13
 6444              	.LVL503:
 6445 18f0 D7ED006A 		vldr.32	s13, [r7]
 6446 18f4 76EEE76A 		vsub.f32	s13, s13, s15
 6447              	.LBE2532:
 6448              	.LBE2535:
 6449              		.loc 2 167 0
 6450 18f8 BBF17F0F 		cmp	fp, #127
 6451              	.LBB2536:
 6452              	.LBB2533:
 6453              		.loc 3 826 0
 6454 18fc E4EEA67A 		vfma.f32	s15, s9, s13
 6455              	.LVL504:
 6456              	.LBE2533:
 6457              	.LBE2536:
 6458              		.loc 2 167 0
 6459 1900 88BF     		it	hi
 6460 1902 F1EE677A 		vneghi.f32	s15, s15
 6461              	.LVL505:
 6462              	.LBE2537:
 6463              	.LBE2539:
 6464              		.loc 1 214 0
 6465 1906 37EEA55A 		vadd.f32	s10, s15, s11
 6466              		.loc 1 216 0
 6467 190a DDED107A 		vldr.32	s15, [sp, #64]
 6468              	.LVL506:
 6469              	.LBB2540:
 6470              	.LBB2541:
 6471              		.loc 2 160 0
 6472 190e BCEEE72A 		vcvt.u32.f32	s4, s15
 6473 1912 B8EE422A 		vcvt.f32.u32	s4, s4
 6474 1916 37EEC22A 		vsub.f32	s4, s15, s4
 6475 191a 22EE072A 		vmul.f32	s4, s4, s14
 6476              	.LVL507:
 6477              		.loc 2 161 0
 6478 191e FCEEC27A 		vcvt.u32.f32	s15, s4
 6479              	.LVL508:
 6480 1922 17EE90BA 		vmov	fp, s15	@ int
 6481              	.LVL509:
 6482              		.loc 2 163 0
 6483 1926 0BF07F07 		and	r7, fp, #127
 6484              	.LVL510:
 6485              	.LBB2542:
 6486              	.LBB2543:
 6487              		.loc 3 826 0
 6488 192a 06EE90BA 		vmov	s13, fp	@ int
 6489              	.LBE2543:
 6490              	.LBE2542:
 6491              		.loc 2 166 0
 6492 192e 02EB870A 		add	r10, r2, r7, lsl #2
 6493 1932 0137     		adds	r7, r7, #1
 6494              	.LVL511:
 6495              	.LBB2547:
 6496              	.LBB2544:
 6497              		.loc 3 826 0
 6498 1934 F8EE666A 		vcvt.f32.u32	s13, s13
ARM GAS  /tmp/ccJJl1OT.s 			page 115


 6499              	.LBE2544:
 6500              	.LBE2547:
 6501              		.loc 2 166 0
 6502 1938 07F07F07 		and	r7, r7, #127
 6503              	.LVL512:
 6504 193c 02EB8707 		add	r7, r2, r7, lsl #2
 6505              	.LVL513:
 6506 1940 DAED007A 		vldr.32	s15, [r10]
 6507              	.LVL514:
 6508              	.LBB2548:
 6509              	.LBB2545:
 6510              		.loc 3 826 0
 6511 1944 32EE662A 		vsub.f32	s4, s4, s13
 6512              	.LVL515:
 6513 1948 D7ED006A 		vldr.32	s13, [r7]
 6514 194c 76EEE76A 		vsub.f32	s13, s13, s15
 6515              	.LBE2545:
 6516              	.LBE2548:
 6517              		.loc 2 167 0
 6518 1950 BBF17F0F 		cmp	fp, #127
 6519              	.LBB2549:
 6520              	.LBB2546:
 6521              		.loc 3 826 0
 6522 1954 E2EE267A 		vfma.f32	s15, s4, s13
 6523              	.LVL516:
 6524              	.LBE2546:
 6525              	.LBE2549:
 6526              	.LBE2541:
 6527              	.LBE2540:
 6528              		.loc 1 218 0
 6529 1958 DDED126A 		vldr.32	s13, [sp, #72]
 6530              	.LBB2551:
 6531              	.LBB2550:
 6532              		.loc 2 167 0
 6533 195c 88BF     		it	hi
 6534 195e F1EE677A 		vneghi.f32	s15, s15
 6535              	.LVL517:
 6536              	.LBE2550:
 6537              	.LBE2551:
 6538              		.loc 1 215 0
 6539 1962 75EE275A 		vadd.f32	s11, s10, s15
 6540              		.loc 1 217 0
 6541 1966 DDED117A 		vldr.32	s15, [sp, #68]
 6542              	.LVL518:
 6543              	.LBB2552:
 6544              	.LBB2553:
 6545              		.loc 2 160 0
 6546 196a BCEEE72A 		vcvt.u32.f32	s4, s15
 6547 196e B8EE422A 		vcvt.f32.u32	s4, s4
 6548 1972 37EEC22A 		vsub.f32	s4, s15, s4
 6549 1976 22EE072A 		vmul.f32	s4, s4, s14
 6550              	.LVL519:
 6551              		.loc 2 161 0
 6552 197a FCEEC27A 		vcvt.u32.f32	s15, s4
 6553              	.LVL520:
 6554 197e 17EE90BA 		vmov	fp, s15	@ int
 6555              	.LVL521:
ARM GAS  /tmp/ccJJl1OT.s 			page 116


 6556              		.loc 2 163 0
 6557 1982 0BF07F07 		and	r7, fp, #127
 6558              	.LVL522:
 6559              		.loc 2 166 0
 6560 1986 02EB870A 		add	r10, r2, r7, lsl #2
 6561 198a 0137     		adds	r7, r7, #1
 6562              	.LVL523:
 6563              	.LBB2554:
 6564              	.LBB2555:
 6565              		.loc 3 826 0
 6566 198c F8EE677A 		vcvt.f32.u32	s15, s15
 6567              	.LBE2555:
 6568              	.LBE2554:
 6569              		.loc 2 166 0
 6570 1990 07F07F07 		and	r7, r7, #127
 6571              	.LVL524:
 6572 1994 02EB8707 		add	r7, r2, r7, lsl #2
 6573              	.LVL525:
 6574 1998 9AED006A 		vldr.32	s12, [r10]
 6575              	.LVL526:
 6576              	.LBB2558:
 6577              	.LBB2556:
 6578              		.loc 3 826 0
 6579 199c 32EE672A 		vsub.f32	s4, s4, s15
 6580              	.LVL527:
 6581 19a0 D7ED007A 		vldr.32	s15, [r7]
 6582 19a4 77EEC67A 		vsub.f32	s15, s15, s12
 6583              	.LBE2556:
 6584              	.LBE2558:
 6585              		.loc 2 167 0
 6586 19a8 BBF17F0F 		cmp	fp, #127
 6587              	.LBB2559:
 6588              	.LBB2557:
 6589              		.loc 3 826 0
 6590 19ac A2EE276A 		vfma.f32	s12, s4, s15
 6591              	.LVL528:
 6592              	.LBE2557:
 6593              	.LBE2559:
 6594              		.loc 2 167 0
 6595 19b0 88BF     		it	hi
 6596 19b2 B1EE466A 		vneghi.f32	s12, s12
 6597              	.LVL529:
 6598              	.LBE2553:
 6599              	.LBE2552:
 6600              		.loc 1 216 0
 6601 19b6 75EE867A 		vadd.f32	s15, s11, s12
 6602              	.LBB2560:
 6603              	.LBB2561:
 6604              		.loc 2 160 0
 6605 19ba FCEEE65A 		vcvt.u32.f32	s11, s13
 6606 19be F8EE655A 		vcvt.f32.u32	s11, s11
 6607 19c2 76EEE55A 		vsub.f32	s11, s13, s11
 6608 19c6 65EE875A 		vmul.f32	s11, s11, s14
 6609              	.LVL530:
 6610              		.loc 2 161 0
 6611 19ca FCEEE56A 		vcvt.u32.f32	s13, s11
 6612              	.LVL531:
ARM GAS  /tmp/ccJJl1OT.s 			page 117


 6613 19ce 16EE90BA 		vmov	fp, s13	@ int
 6614              	.LVL532:
 6615              		.loc 2 163 0
 6616 19d2 0BF07F07 		and	r7, fp, #127
 6617              	.LVL533:
 6618              	.LBB2562:
 6619              	.LBB2563:
 6620              		.loc 3 826 0
 6621 19d6 06EE10BA 		vmov	s12, fp	@ int
 6622              	.LBE2563:
 6623              	.LBE2562:
 6624              		.loc 2 166 0
 6625 19da 02EB870A 		add	r10, r2, r7, lsl #2
 6626 19de 0137     		adds	r7, r7, #1
 6627              	.LVL534:
 6628              	.LBB2567:
 6629              	.LBB2564:
 6630              		.loc 3 826 0
 6631 19e0 B8EE466A 		vcvt.f32.u32	s12, s12
 6632              	.LBE2564:
 6633              	.LBE2567:
 6634              		.loc 2 166 0
 6635 19e4 07F07F07 		and	r7, r7, #127
 6636              	.LVL535:
 6637 19e8 02EB8707 		add	r7, r2, r7, lsl #2
 6638              	.LVL536:
 6639 19ec DAED006A 		vldr.32	s13, [r10]
 6640              	.LVL537:
 6641              	.LBB2568:
 6642              	.LBB2565:
 6643              		.loc 3 826 0
 6644 19f0 75EEC65A 		vsub.f32	s11, s11, s12
 6645              	.LVL538:
 6646 19f4 97ED006A 		vldr.32	s12, [r7]
 6647 19f8 36EE666A 		vsub.f32	s12, s12, s13
 6648              	.LBE2565:
 6649              	.LBE2568:
 6650              		.loc 2 167 0
 6651 19fc BBF17F0F 		cmp	fp, #127
 6652              	.LBB2569:
 6653              	.LBB2566:
 6654              		.loc 3 826 0
 6655 1a00 E5EE866A 		vfma.f32	s13, s11, s12
 6656              	.LVL539:
 6657              	.LBE2566:
 6658              	.LBE2569:
 6659              		.loc 2 167 0
 6660 1a04 88BF     		it	hi
 6661 1a06 F1EE666A 		vneghi.f32	s13, s13
 6662              	.LVL540:
 6663              	.LBE2561:
 6664              	.LBE2560:
 6665              		.loc 1 217 0
 6666 1a0a 37EEA66A 		vadd.f32	s12, s15, s13
 6667              		.loc 1 219 0
 6668 1a0e DDED137A 		vldr.32	s15, [sp, #76]
 6669              	.LVL541:
ARM GAS  /tmp/ccJJl1OT.s 			page 118


 6670              	.LBB2570:
 6671              	.LBB2571:
 6672              		.loc 2 160 0
 6673 1a12 BCEEE72A 		vcvt.u32.f32	s4, s15
 6674 1a16 B8EE422A 		vcvt.f32.u32	s4, s4
 6675 1a1a 37EEC22A 		vsub.f32	s4, s15, s4
 6676 1a1e 22EE072A 		vmul.f32	s4, s4, s14
 6677              	.LVL542:
 6678              		.loc 2 161 0
 6679 1a22 FCEEC27A 		vcvt.u32.f32	s15, s4
 6680              	.LVL543:
 6681 1a26 17EE90BA 		vmov	fp, s15	@ int
 6682              	.LVL544:
 6683              		.loc 2 163 0
 6684 1a2a 0BF07F07 		and	r7, fp, #127
 6685              	.LVL545:
 6686              		.loc 2 166 0
 6687 1a2e 02EB870A 		add	r10, r2, r7, lsl #2
 6688 1a32 0137     		adds	r7, r7, #1
 6689              	.LVL546:
 6690              	.LBB2572:
 6691              	.LBB2573:
 6692              		.loc 3 826 0
 6693 1a34 F8EE677A 		vcvt.f32.u32	s15, s15
 6694              	.LBE2573:
 6695              	.LBE2572:
 6696              		.loc 2 166 0
 6697 1a38 07F07F07 		and	r7, r7, #127
 6698              	.LVL547:
 6699 1a3c 02EB8707 		add	r7, r2, r7, lsl #2
 6700              	.LVL548:
 6701 1a40 DAED004A 		vldr.32	s9, [r10]
 6702              	.LVL549:
 6703              	.LBB2576:
 6704              	.LBB2574:
 6705              		.loc 3 826 0
 6706 1a44 32EE672A 		vsub.f32	s4, s4, s15
 6707              	.LVL550:
 6708 1a48 D7ED007A 		vldr.32	s15, [r7]
 6709 1a4c 77EEE47A 		vsub.f32	s15, s15, s9
 6710              	.LBE2574:
 6711              	.LBE2576:
 6712              		.loc 2 167 0
 6713 1a50 BBF17F0F 		cmp	fp, #127
 6714              	.LBB2577:
 6715              	.LBB2575:
 6716              		.loc 3 826 0
 6717 1a54 E2EE274A 		vfma.f32	s9, s4, s15
 6718              	.LVL551:
 6719              	.LBE2575:
 6720              	.LBE2577:
 6721              	.LBE2571:
 6722              	.LBE2570:
 6723              		.loc 1 220 0
 6724 1a58 DDED147A 		vldr.32	s15, [sp, #80]
 6725              	.LBB2579:
 6726              	.LBB2580:
ARM GAS  /tmp/ccJJl1OT.s 			page 119


 6727              		.loc 2 160 0
 6728 1a5c BCEEE72A 		vcvt.u32.f32	s4, s15
 6729              	.LBE2580:
 6730              	.LBE2579:
 6731              	.LBB2590:
 6732              	.LBB2578:
 6733              		.loc 2 167 0
 6734 1a60 88BF     		it	hi
 6735 1a62 F1EE644A 		vneghi.f32	s9, s9
 6736              	.LVL552:
 6737              	.LBE2578:
 6738              	.LBE2590:
 6739              	.LBB2591:
 6740              	.LBB2587:
 6741              		.loc 2 160 0
 6742 1a66 B8EE422A 		vcvt.f32.u32	s4, s4
 6743              	.LBE2587:
 6744              	.LBE2591:
 6745              		.loc 1 218 0
 6746 1a6a 76EE246A 		vadd.f32	s13, s12, s9
 6747              	.LBB2592:
 6748              	.LBB2588:
 6749              		.loc 2 160 0
 6750 1a6e 37EEC22A 		vsub.f32	s4, s15, s4
 6751 1a72 22EE072A 		vmul.f32	s4, s4, s14
 6752              	.LVL553:
 6753              		.loc 2 161 0
 6754 1a76 FCEEC27A 		vcvt.u32.f32	s15, s4
 6755              	.LVL554:
 6756 1a7a 17EE90BA 		vmov	fp, s15	@ int
 6757              	.LVL555:
 6758              		.loc 2 163 0
 6759 1a7e 0BF07F07 		and	r7, fp, #127
 6760              	.LVL556:
 6761              		.loc 2 166 0
 6762 1a82 02EB870A 		add	r10, r2, r7, lsl #2
 6763 1a86 0137     		adds	r7, r7, #1
 6764              	.LVL557:
 6765              	.LBB2581:
 6766              	.LBB2582:
 6767              		.loc 3 826 0
 6768 1a88 F8EE677A 		vcvt.f32.u32	s15, s15
 6769              	.LBE2582:
 6770              	.LBE2581:
 6771              		.loc 2 166 0
 6772 1a8c 07F07F07 		and	r7, r7, #127
 6773              	.LVL558:
 6774 1a90 02EB8707 		add	r7, r2, r7, lsl #2
 6775              	.LVL559:
 6776 1a94 9AED005A 		vldr.32	s10, [r10]
 6777              	.LVL560:
 6778              	.LBB2585:
 6779              	.LBB2583:
 6780              		.loc 3 826 0
 6781 1a98 32EE672A 		vsub.f32	s4, s4, s15
 6782              	.LVL561:
 6783 1a9c D7ED007A 		vldr.32	s15, [r7]
ARM GAS  /tmp/ccJJl1OT.s 			page 120


 6784 1aa0 77EEC57A 		vsub.f32	s15, s15, s10
 6785              	.LBE2583:
 6786              	.LBE2585:
 6787              		.loc 2 167 0
 6788 1aa4 BBF17F0F 		cmp	fp, #127
 6789              	.LBB2586:
 6790              	.LBB2584:
 6791              		.loc 3 826 0
 6792 1aa8 A2EE275A 		vfma.f32	s10, s4, s15
 6793              	.LVL562:
 6794              	.LBE2584:
 6795              	.LBE2586:
 6796              	.LBE2588:
 6797              	.LBE2592:
 6798              		.loc 1 221 0
 6799 1aac DDED157A 		vldr.32	s15, [sp, #84]
 6800              	.LBB2593:
 6801              	.LBB2594:
 6802              		.loc 2 160 0
 6803 1ab0 BCEEE72A 		vcvt.u32.f32	s4, s15
 6804              	.LBE2594:
 6805              	.LBE2593:
 6806              	.LBB2606:
 6807              	.LBB2589:
 6808              		.loc 2 167 0
 6809 1ab4 88BF     		it	hi
 6810 1ab6 B1EE455A 		vneghi.f32	s10, s10
 6811              	.LVL563:
 6812              	.LBE2589:
 6813              	.LBE2606:
 6814              	.LBB2607:
 6815              	.LBB2603:
 6816              		.loc 2 160 0
 6817 1aba B8EE422A 		vcvt.f32.u32	s4, s4
 6818              	.LBE2603:
 6819              	.LBE2607:
 6820              		.loc 1 219 0
 6821 1abe 76EE854A 		vadd.f32	s9, s13, s10
 6822              	.LBB2608:
 6823              	.LBB2604:
 6824              		.loc 2 160 0
 6825 1ac2 37EEC22A 		vsub.f32	s4, s15, s4
 6826 1ac6 22EE072A 		vmul.f32	s4, s4, s14
 6827              	.LVL564:
 6828              		.loc 2 161 0
 6829 1aca FCEEC27A 		vcvt.u32.f32	s15, s4
 6830              	.LVL565:
 6831 1ace 17EE90BA 		vmov	fp, s15	@ int
 6832              	.LVL566:
 6833              		.loc 2 163 0
 6834 1ad2 0BF07F07 		and	r7, fp, #127
 6835              	.LVL567:
 6836              	.LBB2595:
 6837              	.LBB2596:
 6838              		.loc 3 826 0
 6839 1ad6 06EE90BA 		vmov	s13, fp	@ int
 6840              	.LBE2596:
ARM GAS  /tmp/ccJJl1OT.s 			page 121


 6841              	.LBE2595:
 6842              		.loc 2 166 0
 6843 1ada 02EB870A 		add	r10, r2, r7, lsl #2
 6844 1ade 0137     		adds	r7, r7, #1
 6845              	.LVL568:
 6846              	.LBB2600:
 6847              	.LBB2597:
 6848              		.loc 3 826 0
 6849 1ae0 F8EE666A 		vcvt.f32.u32	s13, s13
 6850              	.LBE2597:
 6851              	.LBE2600:
 6852              		.loc 2 166 0
 6853 1ae4 07F07F07 		and	r7, r7, #127
 6854              	.LVL569:
 6855 1ae8 02EB8707 		add	r7, r2, r7, lsl #2
 6856              	.LVL570:
 6857 1aec DAED007A 		vldr.32	s15, [r10]
 6858              	.LVL571:
 6859              	.LBB2601:
 6860              	.LBB2598:
 6861              		.loc 3 826 0
 6862 1af0 32EE662A 		vsub.f32	s4, s4, s13
 6863              	.LVL572:
 6864 1af4 D7ED006A 		vldr.32	s13, [r7]
 6865 1af8 76EEE76A 		vsub.f32	s13, s13, s15
 6866              	.LBE2598:
 6867              	.LBE2601:
 6868              		.loc 2 167 0
 6869 1afc BBF17F0F 		cmp	fp, #127
 6870              	.LBB2602:
 6871              	.LBB2599:
 6872              		.loc 3 826 0
 6873 1b00 E2EE267A 		vfma.f32	s15, s4, s13
 6874              	.LVL573:
 6875              	.LBE2599:
 6876              	.LBE2602:
 6877              	.LBE2604:
 6878              	.LBE2608:
 6879              		.loc 1 223 0
 6880 1b04 DDED176A 		vldr.32	s13, [sp, #92]
 6881              	.LBB2609:
 6882              	.LBB2605:
 6883              		.loc 2 167 0
 6884 1b08 88BF     		it	hi
 6885 1b0a F1EE677A 		vneghi.f32	s15, s15
 6886              	.LVL574:
 6887              	.LBE2605:
 6888              	.LBE2609:
 6889              		.loc 1 220 0
 6890 1b0e 34EEA75A 		vadd.f32	s10, s9, s15
 6891              		.loc 1 222 0
 6892 1b12 DDED167A 		vldr.32	s15, [sp, #88]
 6893              	.LVL575:
 6894              	.LBB2610:
 6895              	.LBB2611:
 6896              		.loc 2 160 0
 6897 1b16 FCEEE74A 		vcvt.u32.f32	s9, s15
ARM GAS  /tmp/ccJJl1OT.s 			page 122


 6898 1b1a F8EE644A 		vcvt.f32.u32	s9, s9
 6899 1b1e 77EEE44A 		vsub.f32	s9, s15, s9
 6900 1b22 64EE874A 		vmul.f32	s9, s9, s14
 6901              	.LVL576:
 6902              		.loc 2 161 0
 6903 1b26 FCEEE47A 		vcvt.u32.f32	s15, s9
 6904              	.LVL577:
 6905 1b2a 17EE90BA 		vmov	fp, s15	@ int
 6906              	.LVL578:
 6907              		.loc 2 163 0
 6908 1b2e 0BF07F07 		and	r7, fp, #127
 6909              	.LVL579:
 6910              		.loc 2 166 0
 6911 1b32 02EB870A 		add	r10, r2, r7, lsl #2
 6912 1b36 0137     		adds	r7, r7, #1
 6913              	.LVL580:
 6914              	.LBB2612:
 6915              	.LBB2613:
 6916              		.loc 3 826 0
 6917 1b38 F8EE677A 		vcvt.f32.u32	s15, s15
 6918              	.LBE2613:
 6919              	.LBE2612:
 6920              		.loc 2 166 0
 6921 1b3c 07F07F07 		and	r7, r7, #127
 6922              	.LVL581:
 6923 1b40 02EB8707 		add	r7, r2, r7, lsl #2
 6924              	.LVL582:
 6925 1b44 DAED005A 		vldr.32	s11, [r10]
 6926              	.LVL583:
 6927              	.LBB2616:
 6928              	.LBB2614:
 6929              		.loc 3 826 0
 6930 1b48 74EEE74A 		vsub.f32	s9, s9, s15
 6931              	.LVL584:
 6932 1b4c D7ED007A 		vldr.32	s15, [r7]
 6933 1b50 77EEE57A 		vsub.f32	s15, s15, s11
 6934              	.LBE2614:
 6935              	.LBE2616:
 6936              		.loc 2 167 0
 6937 1b54 BBF17F0F 		cmp	fp, #127
 6938              	.LBB2617:
 6939              	.LBB2615:
 6940              		.loc 3 826 0
 6941 1b58 E4EEA75A 		vfma.f32	s11, s9, s15
 6942              	.LVL585:
 6943              	.LBE2615:
 6944              	.LBE2617:
 6945              		.loc 2 167 0
 6946 1b5c 88BF     		it	hi
 6947 1b5e F1EE655A 		vneghi.f32	s11, s11
 6948              	.LVL586:
 6949              	.LBE2611:
 6950              	.LBE2610:
 6951              		.loc 1 221 0
 6952 1b62 75EE257A 		vadd.f32	s15, s10, s11
 6953              	.LBB2618:
 6954              	.LBB2619:
ARM GAS  /tmp/ccJJl1OT.s 			page 123


 6955              		.loc 2 160 0
 6956 1b66 BCEEE65A 		vcvt.u32.f32	s10, s13
 6957 1b6a B8EE455A 		vcvt.f32.u32	s10, s10
 6958 1b6e 36EEC55A 		vsub.f32	s10, s13, s10
 6959 1b72 25EE075A 		vmul.f32	s10, s10, s14
 6960              	.LVL587:
 6961              		.loc 2 161 0
 6962 1b76 FCEEC56A 		vcvt.u32.f32	s13, s10
 6963              	.LVL588:
 6964 1b7a 16EE90BA 		vmov	fp, s13	@ int
 6965              	.LVL589:
 6966              		.loc 2 163 0
 6967 1b7e 0BF07F07 		and	r7, fp, #127
 6968              	.LVL590:
 6969              		.loc 2 166 0
 6970 1b82 02EB870A 		add	r10, r2, r7, lsl #2
 6971 1b86 0137     		adds	r7, r7, #1
 6972              	.LVL591:
 6973              	.LBB2620:
 6974              	.LBB2621:
 6975              		.loc 3 826 0
 6976 1b88 F8EE666A 		vcvt.f32.u32	s13, s13
 6977              	.LBE2621:
 6978              	.LBE2620:
 6979              		.loc 2 166 0
 6980 1b8c 07F07F07 		and	r7, r7, #127
 6981              	.LVL592:
 6982 1b90 02EB8707 		add	r7, r2, r7, lsl #2
 6983              	.LVL593:
 6984 1b94 9AED006A 		vldr.32	s12, [r10]
 6985              	.LVL594:
 6986              	.LBB2624:
 6987              	.LBB2622:
 6988              		.loc 3 826 0
 6989 1b98 35EE665A 		vsub.f32	s10, s10, s13
 6990              	.LVL595:
 6991 1b9c D7ED006A 		vldr.32	s13, [r7]
 6992 1ba0 76EEC66A 		vsub.f32	s13, s13, s12
 6993              	.LBE2622:
 6994              	.LBE2624:
 6995              		.loc 2 167 0
 6996 1ba4 BBF17F0F 		cmp	fp, #127
 6997              	.LBB2625:
 6998              	.LBB2623:
 6999              		.loc 3 826 0
 7000 1ba8 A5EE266A 		vfma.f32	s12, s10, s13
 7001              	.LVL596:
 7002              	.LBE2623:
 7003              	.LBE2625:
 7004              		.loc 2 167 0
 7005 1bac 88BF     		it	hi
 7006 1bae B1EE466A 		vneghi.f32	s12, s12
 7007              	.LVL597:
 7008              	.LBE2619:
 7009              	.LBE2618:
 7010              		.loc 1 222 0
 7011 1bb2 77EE865A 		vadd.f32	s11, s15, s12
ARM GAS  /tmp/ccJJl1OT.s 			page 124


 7012              		.loc 1 224 0
 7013 1bb6 DDED187A 		vldr.32	s15, [sp, #96]
 7014              	.LVL598:
 7015              	.LBB2626:
 7016              	.LBB2627:
 7017              		.loc 2 160 0
 7018 1bba BCEEE75A 		vcvt.u32.f32	s10, s15
 7019 1bbe B8EE455A 		vcvt.f32.u32	s10, s10
 7020 1bc2 37EEC55A 		vsub.f32	s10, s15, s10
 7021 1bc6 25EE075A 		vmul.f32	s10, s10, s14
 7022              	.LVL599:
 7023              		.loc 2 161 0
 7024 1bca FCEEC57A 		vcvt.u32.f32	s15, s10
 7025              	.LVL600:
 7026 1bce 17EE90BA 		vmov	fp, s15	@ int
 7027              	.LVL601:
 7028              		.loc 2 163 0
 7029 1bd2 0BF07F07 		and	r7, fp, #127
 7030              	.LVL602:
 7031              		.loc 2 166 0
 7032 1bd6 02EB870A 		add	r10, r2, r7, lsl #2
 7033 1bda 0137     		adds	r7, r7, #1
 7034              	.LVL603:
 7035              	.LBB2628:
 7036              	.LBB2629:
 7037              		.loc 3 826 0
 7038 1bdc F8EE677A 		vcvt.f32.u32	s15, s15
 7039              	.LBE2629:
 7040              	.LBE2628:
 7041              		.loc 2 166 0
 7042 1be0 07F07F07 		and	r7, r7, #127
 7043              	.LVL604:
 7044 1be4 02EB8707 		add	r7, r2, r7, lsl #2
 7045              	.LVL605:
 7046 1be8 DAED006A 		vldr.32	s13, [r10]
 7047              	.LVL606:
 7048              	.LBB2632:
 7049              	.LBB2630:
 7050              		.loc 3 826 0
 7051 1bec 35EE675A 		vsub.f32	s10, s10, s15
 7052              	.LVL607:
 7053 1bf0 D7ED007A 		vldr.32	s15, [r7]
 7054 1bf4 77EEE67A 		vsub.f32	s15, s15, s13
 7055              	.LBE2630:
 7056              	.LBE2632:
 7057              		.loc 2 167 0
 7058 1bf8 BBF17F0F 		cmp	fp, #127
 7059              	.LBB2633:
 7060              	.LBB2631:
 7061              		.loc 3 826 0
 7062 1bfc E5EE276A 		vfma.f32	s13, s10, s15
 7063              	.LVL608:
 7064              	.LBE2631:
 7065              	.LBE2633:
 7066              	.LBE2627:
 7067              	.LBE2626:
 7068              		.loc 1 225 0
ARM GAS  /tmp/ccJJl1OT.s 			page 125


 7069 1c00 DDED197A 		vldr.32	s15, [sp, #100]
 7070              	.LBB2635:
 7071              	.LBB2634:
 7072              		.loc 2 167 0
 7073 1c04 88BF     		it	hi
 7074 1c06 F1EE666A 		vneghi.f32	s13, s13
 7075              	.LVL609:
 7076              	.LBE2634:
 7077              	.LBE2635:
 7078              		.loc 1 223 0
 7079 1c0a 35EEA66A 		vadd.f32	s12, s11, s13
 7080              	.LBB2636:
 7081              	.LBB2637:
 7082              		.loc 2 160 0
 7083 1c0e FCEEE75A 		vcvt.u32.f32	s11, s15
 7084 1c12 F8EE655A 		vcvt.f32.u32	s11, s11
 7085 1c16 77EEE55A 		vsub.f32	s11, s15, s11
 7086 1c1a 65EE875A 		vmul.f32	s11, s11, s14
 7087              	.LVL610:
 7088              		.loc 2 161 0
 7089 1c1e FCEEE57A 		vcvt.u32.f32	s15, s11
 7090              	.LVL611:
 7091 1c22 17EE90BA 		vmov	fp, s15	@ int
 7092              	.LVL612:
 7093              		.loc 2 163 0
 7094 1c26 0BF07F07 		and	r7, fp, #127
 7095              	.LVL613:
 7096              		.loc 2 166 0
 7097 1c2a 02EB870A 		add	r10, r2, r7, lsl #2
 7098 1c2e 0137     		adds	r7, r7, #1
 7099              	.LVL614:
 7100              	.LBB2638:
 7101              	.LBB2639:
 7102              		.loc 3 826 0
 7103 1c30 F8EE677A 		vcvt.f32.u32	s15, s15
 7104              	.LBE2639:
 7105              	.LBE2638:
 7106              		.loc 2 166 0
 7107 1c34 07F07F07 		and	r7, r7, #127
 7108              	.LVL615:
 7109 1c38 02EB8707 		add	r7, r2, r7, lsl #2
 7110              	.LVL616:
 7111 1c3c DAED006A 		vldr.32	s13, [r10]
 7112              	.LVL617:
 7113              	.LBB2642:
 7114              	.LBB2640:
 7115              		.loc 3 826 0
 7116 1c40 75EEE75A 		vsub.f32	s11, s11, s15
 7117              	.LVL618:
 7118 1c44 D7ED007A 		vldr.32	s15, [r7]
 7119 1c48 77EEE67A 		vsub.f32	s15, s15, s13
 7120              	.LBE2640:
 7121              	.LBE2642:
 7122              		.loc 2 167 0
 7123 1c4c BBF17F0F 		cmp	fp, #127
 7124              	.LBB2643:
 7125              	.LBB2641:
ARM GAS  /tmp/ccJJl1OT.s 			page 126


 7126              		.loc 3 826 0
 7127 1c50 E5EEA76A 		vfma.f32	s13, s11, s15
 7128              	.LVL619:
 7129              	.LBE2641:
 7130              	.LBE2643:
 7131              	.LBE2637:
 7132              	.LBE2636:
 7133              	.LBB2645:
 7134              	.LBB2646:
 7135              	.LBB2647:
 7136              	.LBB2648:
 7137              	.LBB2649:
 7138              	.LBB2650:
 7139              		.loc 3 193 0
 7140 1c54 FFEE007A 		vmov.f32	s15, #-1.0e+0
 7141              	.LBE2650:
 7142              	.LBE2649:
 7143              	.LBE2648:
 7144              	.LBE2647:
 7145              	.LBE2646:
 7146              	.LBE2645:
 7147              	.LBB2660:
 7148              	.LBB2644:
 7149              		.loc 2 167 0
 7150 1c58 88BF     		it	hi
 7151 1c5a F1EE666A 		vneghi.f32	s13, s13
 7152              	.LVL620:
 7153              	.LBE2644:
 7154              	.LBE2660:
 7155              		.loc 1 213 0
 7156 1c5e 76EE266A 		vadd.f32	s13, s12, s13
 7157 1c62 66EE836A 		vmul.f32	s13, s13, s6
 7158              	.LVL621:
 7159              	.LBB2661:
 7160              	.LBB2659:
 7161              	.LBB2658:
 7162              	.LBB2657:
 7163              	.LBB2653:
 7164              	.LBB2651:
 7165              		.loc 3 193 0
 7166 1c66 F4EEE76A 		vcmpe.f32	s13, s15
 7167 1c6a F1EE10FA 		vmrs	APSR_nzcv, FPSCR
 7168 1c6e 08DB     		blt	.L232
 7169              	.LVL622:
 7170              	.LBE2651:
 7171              	.LBE2653:
 7172              	.LBB2654:
 7173              	.LBB2655:
 7174 1c70 F7EE007A 		vmov.f32	s15, #1.0e+0
 7175              	.LBE2655:
 7176              	.LBE2654:
 7177              	.LBB2656:
 7178              	.LBB2652:
 7179 1c74 F4EEE76A 		vcmpe.f32	s13, s15
 7180 1c78 F1EE10FA 		vmrs	APSR_nzcv, FPSCR
 7181 1c7c B8BF     		it	lt
 7182 1c7e F0EE667A 		vmovlt.f32	s15, s13
ARM GAS  /tmp/ccJJl1OT.s 			page 127


 7183              	.LVL623:
 7184              	.L232:
 7185              	.LBE2652:
 7186              	.LBE2656:
 7187              	.LBE2657:
 7188              	.LBE2658:
 7189              		.loc 2 674 0
 7190 1c82 67EEA76A 		vmul.f32	s13, s15, s15
 7191 1c86 9FED186A 		vldr.32	s12, .L413
 7192 1c8a 67EEE66A 		vnmul.f32	s13, s15, s13
 7193 1c8e E6EE867A 		vfma.f32	s15, s13, s12
 7194              	.L163:
 7195              	.LVL624:
 7196 1c92 0DF1080A 		add	r10, sp, #8
 7197 1c96 0DF1680B 		add	fp, sp, #104
 7198              	.LBE2659:
 7199              	.LBE2661:
 7200              		.loc 1 229 0
 7201 1c9a F0EE676A 		vmov.f32	s13, s15
 7202 1c9e FEEEE06A 		vcvt.s32.f32	s13, s13, #31
 7203 1ca2 3746     		mov	r7, r6
 7204 1ca4 E1EC016A 		vstmia.32	r1!, {s13}	@ int
 7205              	.LVL625:
 7206              	.L234:
 7207              	.LBB2662:
 7208              		.loc 1 231 0 discriminator 2
 7209 1ca8 97ED006A 		vldr.32	s12, [r7]
 7210 1cac FAEC016A 		vldmia.32	r10!, {s13}
 7211 1cb0 76EE866A 		vadd.f32	s13, s13, s12
 7212              		.loc 1 232 0 discriminator 2
 7213 1cb4 BCEEE66A 		vcvt.u32.f32	s12, s13
 7214 1cb8 B8EE466A 		vcvt.f32.u32	s12, s12
 7215 1cbc 76EEC66A 		vsub.f32	s13, s13, s12
 7216 1cc0 E7EC016A 		vstmia.32	r7!, {s13}
 7217              		.loc 1 230 0 discriminator 2
 7218 1cc4 BB45     		cmp	fp, r7
 7219 1cc6 EFD1     		bne	.L234
 7220              	.LBE2662:
 7221              		.loc 1 234 0
 7222 1cc8 34EE224A 		vadd.f32	s8, s8, s5
 7223              	.LVL626:
 7224              	.LBE2663:
 7225              		.loc 1 176 0
 7226 1ccc FFF7D0B8 		b	.L235
 7227              	.LVL627:
 7228              	.L391:
 7229              	.LBE2664:
 7230              	.LBB2665:
 7231              		.loc 1 237 0 discriminator 2
 7232 1cd0 56F8042B 		ldr	r2, [r6], #4	@ float
 7233 1cd4 45F8042B 		str	r2, [r5], #4	@ float
 7234              	.LVL628:
 7235              		.loc 1 236 0 discriminator 2
 7236 1cd8 A945     		cmp	r9, r5
 7237 1cda F9D1     		bne	.L391
 7238              	.LBE2665:
 7239              		.loc 1 239 0
ARM GAS  /tmp/ccJJl1OT.s 			page 128


 7240 1cdc 83ED014A 		vstr.32	s8, [r3, #4]
 7241              		.loc 1 240 0
 7242 1ce0 1BB0     		add	sp, sp, #108
 7243              		.cfi_def_cfa_offset 36
 7244              		@ sp needed
 7245 1ce2 BDE8F08F 		pop	{r4, r5, r6, r7, r8, r9, r10, fp, pc}
 7246              	.LVL629:
 7247              	.L414:
 7248 1ce6 00BF     		.align	2
 7249              	.L413:
 7250 1ce8 CDCC4C3D 		.word	1028443341
 7251              		.cfi_endproc
 7252              	.LFE240:
 7253              		.size	_hook_cycle, .-_hook_cycle
 7254              		.align	1
 7255              		.global	_hook_on
 7256              		.thumb
 7257              		.thumb_func
 7258              		.type	_hook_on, %function
 7259              	_hook_on:
 7260              	.LFB245:
 7261              		.cfi_startproc
 7262              		@ args = 0, pretend = 0, frame = 0
 7263              		@ frame_needed = 0, uses_anonymous_args = 0
 7264              		@ link register save eliminated.
 7265 1cec 7047     		bx	lr
 7266              		.cfi_endproc
 7267              	.LFE245:
 7268              		.size	_hook_on, .-_hook_on
 7269              		.align	1
 7270              		.global	_hook_off
 7271              		.thumb
 7272              		.thumb_func
 7273              		.type	_hook_off, %function
 7274              	_hook_off:
 7275              	.LFB242:
 7276              		.loc 1 248 0
 7277              		.cfi_startproc
 7278              		@ args = 0, pretend = 0, frame = 0
 7279              		@ frame_needed = 0, uses_anonymous_args = 0
 7280              		@ link register save eliminated.
 7281              	.LVL630:
 7282 1cee 7047     		bx	lr
 7283              		.cfi_endproc
 7284              	.LFE242:
 7285              		.size	_hook_off, .-_hook_off
 7286              		.align	1
 7287              		.global	_hook_param
 7288              		.thumb
 7289              		.thumb_func
 7290              		.type	_hook_param, %function
 7291              	_hook_param:
 7292              	.LFB243:
 7293              		.loc 1 253 0
 7294              		.cfi_startproc
 7295              		@ args = 0, pretend = 0, frame = 0
 7296              		@ frame_needed = 0, uses_anonymous_args = 0
ARM GAS  /tmp/ccJJl1OT.s 			page 129


 7297              		@ link register save eliminated.
 7298              	.LVL631:
 7299              		.loc 1 254 0
 7300 1cf0 07EE901A 		vmov	s15, r1	@ int
 7301 1cf4 B8EEE77A 		vcvt.f32.s32	s14, s15
 7302 1cf8 DFED1C7A 		vldr.32	s15, .L424
 7303 1cfc 67EE277A 		vmul.f32	s15, s14, s15
 7304              	.LVL632:
 7305              		.loc 1 256 0
 7306 1d00 0728     		cmp	r0, #7
 7307 1d02 31D8     		bhi	.L417
 7308 1d04 DFE800F0 		tbb	[pc, r0]
 7309              	.L420:
 7310 1d08 04       		.byte	(.L419-.L420)/2
 7311 1d09 13       		.byte	(.L421-.L420)/2
 7312 1d0a 30       		.byte	(.L417-.L420)/2
 7313 1d0b 30       		.byte	(.L417-.L420)/2
 7314 1d0c 30       		.byte	(.L417-.L420)/2
 7315 1d0d 30       		.byte	(.L417-.L420)/2
 7316 1d0e 1B       		.byte	(.L422-.L420)/2
 7317 1d0f 26       		.byte	(.L423-.L420)/2
 7318              		.p2align 1
 7319              	.L419:
 7320              		.loc 1 258 0
 7321 1d10 DFED176A 		vldr.32	s13, .L424+4
 7322 1d14 174A     		ldr	r2, .L424+8
 7323 1d16 C7EE267A 		vdiv.f32	s15, s14, s13
 7324              	.LVL633:
 7325 1d1a B0EE087A 		vmov.f32	s14, #3.0e+0
 7326              	.LVL634:
 7327 1d1e 67EE877A 		vmul.f32	s15, s15, s14
 7328 1d22 FCEEE77A 		vcvt.u32.f32	s15, s15
 7329 1d26 17EE903A 		vmov	r3, s15	@ int
 7330 1d2a 1372     		strb	r3, [r2, #8]
 7331              		.loc 1 259 0
 7332 1d2c 7047     		bx	lr
 7333              	.LVL635:
 7334              	.L421:
 7335              		.loc 1 261 0
 7336 1d2e 9FED127A 		vldr.32	s14, .L424+12
 7337 1d32 104B     		ldr	r3, .L424+8
 7338 1d34 67EE877A 		vmul.f32	s15, s15, s14
 7339              	.LVL636:
 7340 1d38 C3ED1C7A 		vstr.32	s15, [r3, #112]
 7341              		.loc 1 262 0
 7342 1d3c 7047     		bx	lr
 7343              	.LVL637:
 7344              	.L422:
 7345              		.loc 1 272 0
 7346 1d3e B2EE067A 		vmov.f32	s14, #1.1e+1
 7347 1d42 67EE877A 		vmul.f32	s15, s15, s14
 7348              	.LVL638:
 7349 1d46 0B4A     		ldr	r2, .L424+8
 7350 1d48 FCEEE77A 		vcvt.u32.f32	s15, s15
 7351 1d4c 17EE903A 		vmov	r3, s15	@ int
 7352 1d50 9372     		strb	r3, [r2, #10]
 7353              		.loc 1 273 0
ARM GAS  /tmp/ccJJl1OT.s 			page 130


 7354 1d52 7047     		bx	lr
 7355              	.LVL639:
 7356              	.L423:
 7357              		.loc 1 275 0
 7358 1d54 B1EE007A 		vmov.f32	s14, #4.0e+0
 7359 1d58 67EE877A 		vmul.f32	s15, s15, s14
 7360              	.LVL640:
 7361 1d5c 054A     		ldr	r2, .L424+8
 7362 1d5e FCEEE77A 		vcvt.u32.f32	s15, s15
 7363 1d62 17EE903A 		vmov	r3, s15	@ int
 7364 1d66 D372     		strb	r3, [r2, #11]
 7365              	.L417:
 7366 1d68 7047     		bx	lr
 7367              	.L425:
 7368 1d6a 00BF     		.align	2
 7369              	.L424:
 7370 1d6c 0820803A 		.word	981475336
 7371 1d70 0000C842 		.word	1120403456
 7372 1d74 00000000 		.word	.LANCHOR0
 7373 1d78 00C07F44 		.word	1149222912
 7374              		.cfi_endproc
 7375              	.LFE243:
 7376              		.size	_hook_param, .-_hook_param
 7377              		.section	.rodata
 7378              		.align	2
 7379              		.set	.LANCHOR1,. + 0
 7380              		.type	_ZL10extensions, %object
 7381              		.size	_ZL10extensions, 192
 7382              	_ZL10extensions:
 7383 0000 00000000 		.word	0
 7384 0004 07000000 		.word	7
 7385 0008 04000000 		.word	4
 7386 000c 0B000000 		.word	11
 7387 0010 FFFFFFFF 		.word	-1
 7388 0014 06000000 		.word	6
 7389 0018 04000000 		.word	4
 7390 001c 0A000000 		.word	10
 7391 0020 00000000 		.word	0
 7392 0024 07000000 		.word	7
 7393 0028 03000000 		.word	3
 7394 002c 0A000000 		.word	10
 7395 0030 FFFFFFFF 		.word	-1
 7396 0034 06000000 		.word	6
 7397 0038 04000000 		.word	4
 7398 003c 09000000 		.word	9
 7399 0040 00000000 		.word	0
 7400 0044 07000000 		.word	7
 7401 0048 03000000 		.word	3
 7402 004c 0A000000 		.word	10
 7403 0050 00000000 		.word	0
 7404 0054 07000000 		.word	7
 7405 0058 04000000 		.word	4
 7406 005c 0B000000 		.word	11
 7407 0060 FFFFFFFF 		.word	-1
 7408 0064 06000000 		.word	6
 7409 0068 05000000 		.word	5
 7410 006c 0A000000 		.word	10
ARM GAS  /tmp/ccJJl1OT.s 			page 131


 7411 0070 00000000 		.word	0
 7412 0074 07000000 		.word	7
 7413 0078 04000000 		.word	4
 7414 007c 0A000000 		.word	10
 7415 0080 FFFFFFFF 		.word	-1
 7416 0084 06000000 		.word	6
 7417 0088 04000000 		.word	4
 7418 008c 09000000 		.word	9
 7419 0090 00000000 		.word	0
 7420 0094 07000000 		.word	7
 7421 0098 03000000 		.word	3
 7422 009c 0A000000 		.word	10
 7423 00a0 FFFFFFFF 		.word	-1
 7424 00a4 06000000 		.word	6
 7425 00a8 04000000 		.word	4
 7426 00ac 09000000 		.word	9
 7427 00b0 00000000 		.word	0
 7428 00b4 06000000 		.word	6
 7429 00b8 03000000 		.word	3
 7430 00bc 0A000000 		.word	10
 7431              		.bss
 7432              		.align	2
 7433              		.set	.LANCHOR0,. + 0
 7434              		.type	_ZL7s_state, %object
 7435              		.size	_ZL7s_state, 116
 7436              	_ZL7s_state:
 7437 0000 00000000 		.space	116
 7437      00000000 
 7437      00000000 
 7437      00000000 
 7437      00000000 
 7438              		.text
 7439              	.Letext0:
 7440              		.file 5 "/home/joshua/logue-sdk/tools/gcc/gcc-arm-none-eabi-5_4-2016q3/arm-none-eabi/include/machi
 7441              		.file 6 "/home/joshua/logue-sdk/tools/gcc/gcc-arm-none-eabi-5_4-2016q3/arm-none-eabi/include/sys/_
 7442              		.file 7 "../../logue-sdk/platform/nutekt-digital/../ext/CMSIS/CMSIS/Include/arm_math.h"
 7443              		.file 8 "../../logue-sdk/platform/nutekt-digital/inc/userosc.h"
 7444              		.file 9 "../../logue-sdk/platform/nutekt-digital/inc/userprg.h"
 7445              		.section	.debug_info,"",%progbits
 7446              	.Ldebug_info0:
 7447 0000 C1450000 		.4byte	0x45c1
 7448 0004 0400     		.2byte	0x4
 7449 0006 00000000 		.4byte	.Ldebug_abbrev0
 7450 000a 04       		.byte	0x4
 7451 000b 01       		.uleb128 0x1
 7452 000c 2E000000 		.4byte	.LASF96
 7453 0010 04       		.byte	0x4
 7454 0011 8D020000 		.4byte	.LASF97
 7455 0015 61020000 		.4byte	.LASF98
 7456 0019 00000000 		.4byte	.Ltext0
 7457 001d 7C1D0000 		.4byte	.Letext0-.Ltext0
 7458 0021 00000000 		.4byte	.Ldebug_line0
 7459 0025 02       		.uleb128 0x2
 7460 0026 04       		.byte	0x4
 7461 0027 04       		.byte	0x4
 7462 0028 A9020000 		.4byte	.LASF0
 7463 002c 02       		.uleb128 0x2
ARM GAS  /tmp/ccJJl1OT.s 			page 132


 7464 002d 04       		.byte	0x4
 7465 002e 07       		.byte	0x7
 7466 002f 46010000 		.4byte	.LASF1
 7467 0033 03       		.uleb128 0x3
 7468 0034 04       		.byte	0x4
 7469 0035 05       		.byte	0x5
 7470 0036 696E7400 		.ascii	"int\000"
 7471 003a 02       		.uleb128 0x2
 7472 003b 01       		.byte	0x1
 7473 003c 06       		.byte	0x6
 7474 003d 98050000 		.4byte	.LASF2
 7475 0041 04       		.uleb128 0x4
 7476 0042 F3040000 		.4byte	.LASF5
 7477 0046 05       		.byte	0x5
 7478 0047 1D       		.byte	0x1d
 7479 0048 4C000000 		.4byte	0x4c
 7480 004c 02       		.uleb128 0x2
 7481 004d 01       		.byte	0x1
 7482 004e 08       		.byte	0x8
 7483 004f 58050000 		.4byte	.LASF3
 7484 0053 02       		.uleb128 0x2
 7485 0054 02       		.byte	0x2
 7486 0055 05       		.byte	0x5
 7487 0056 5F040000 		.4byte	.LASF4
 7488 005a 04       		.uleb128 0x4
 7489 005b E0020000 		.4byte	.LASF6
 7490 005f 05       		.byte	0x5
 7491 0060 2B       		.byte	0x2b
 7492 0061 65000000 		.4byte	0x65
 7493 0065 02       		.uleb128 0x2
 7494 0066 02       		.byte	0x2
 7495 0067 07       		.byte	0x7
 7496 0068 A4050000 		.4byte	.LASF7
 7497 006c 04       		.uleb128 0x4
 7498 006d 60010000 		.4byte	.LASF8
 7499 0071 05       		.byte	0x5
 7500 0072 3F       		.byte	0x3f
 7501 0073 77000000 		.4byte	0x77
 7502 0077 02       		.uleb128 0x2
 7503 0078 04       		.byte	0x4
 7504 0079 05       		.byte	0x5
 7505 007a 95040000 		.4byte	.LASF9
 7506 007e 04       		.uleb128 0x4
 7507 007f 66050000 		.4byte	.LASF10
 7508 0083 05       		.byte	0x5
 7509 0084 41       		.byte	0x41
 7510 0085 89000000 		.4byte	0x89
 7511 0089 02       		.uleb128 0x2
 7512 008a 04       		.byte	0x4
 7513 008b 07       		.byte	0x7
 7514 008c 28050000 		.4byte	.LASF11
 7515 0090 02       		.uleb128 0x2
 7516 0091 08       		.byte	0x8
 7517 0092 05       		.byte	0x5
 7518 0093 96030000 		.4byte	.LASF12
 7519 0097 02       		.uleb128 0x2
 7520 0098 08       		.byte	0x8
ARM GAS  /tmp/ccJJl1OT.s 			page 133


 7521 0099 07       		.byte	0x7
 7522 009a C9020000 		.4byte	.LASF13
 7523 009e 04       		.uleb128 0x4
 7524 009f 6F030000 		.4byte	.LASF14
 7525 00a3 06       		.byte	0x6
 7526 00a4 18       		.byte	0x18
 7527 00a5 41000000 		.4byte	0x41
 7528 00a9 04       		.uleb128 0x4
 7529 00aa 28040000 		.4byte	.LASF15
 7530 00ae 06       		.byte	0x6
 7531 00af 24       		.byte	0x24
 7532 00b0 5A000000 		.4byte	0x5a
 7533 00b4 04       		.uleb128 0x4
 7534 00b5 48050000 		.4byte	.LASF16
 7535 00b9 06       		.byte	0x6
 7536 00ba 2C       		.byte	0x2c
 7537 00bb 6C000000 		.4byte	0x6c
 7538 00bf 04       		.uleb128 0x4
 7539 00c0 7F020000 		.4byte	.LASF17
 7540 00c4 06       		.byte	0x6
 7541 00c5 30       		.byte	0x30
 7542 00c6 7E000000 		.4byte	0x7e
 7543 00ca 02       		.uleb128 0x2
 7544 00cb 08       		.byte	0x8
 7545 00cc 04       		.byte	0x4
 7546 00cd 1C040000 		.4byte	.LASF18
 7547 00d1 05       		.uleb128 0x5
 7548 00d2 86050000 		.4byte	.LASF99
 7549 00d6 02       		.uleb128 0x2
 7550 00d7 04       		.byte	0x4
 7551 00d8 07       		.byte	0x7
 7552 00d9 1F050000 		.4byte	.LASF19
 7553 00dd 02       		.uleb128 0x2
 7554 00de 01       		.byte	0x1
 7555 00df 08       		.byte	0x8
 7556 00e0 21030000 		.4byte	.LASF20
 7557 00e4 02       		.uleb128 0x2
 7558 00e5 08       		.byte	0x8
 7559 00e6 04       		.byte	0x4
 7560 00e7 D9050000 		.4byte	.LASF21
 7561 00eb 06       		.uleb128 0x6
 7562 00ec 19050000 		.4byte	.LASF22
 7563 00f0 07       		.byte	0x7
 7564 00f1 8D01     		.2byte	0x18d
 7565 00f3 B4000000 		.4byte	0xb4
 7566 00f7 07       		.uleb128 0x7
 7567 00f8 04       		.byte	0x4
 7568 00f9 EB000000 		.4byte	0xeb
 7569 00fd 07       		.uleb128 0x7
 7570 00fe 04       		.byte	0x4
 7571 00ff 03010000 		.4byte	0x103
 7572 0103 08       		.uleb128 0x8
 7573 0104 EB000000 		.4byte	0xeb
 7574 0108 07       		.uleb128 0x7
 7575 0109 04       		.byte	0x4
 7576 010a B4000000 		.4byte	0xb4
 7577 010e 09       		.uleb128 0x9
ARM GAS  /tmp/ccJJl1OT.s 			page 134


 7578 010f 01       		.byte	0x1
 7579 0110 4C000000 		.4byte	0x4c
 7580 0114 09       		.byte	0x9
 7581 0115 35       		.byte	0x35
 7582 0116 3F010000 		.4byte	0x13f
 7583 011a 0A       		.uleb128 0xa
 7584 011b 71050000 		.4byte	.LASF23
 7585 011f 00       		.byte	0
 7586 0120 0A       		.uleb128 0xa
 7587 0121 9E040000 		.4byte	.LASF24
 7588 0125 01       		.byte	0x1
 7589 0126 0A       		.uleb128 0xa
 7590 0127 B5020000 		.4byte	.LASF25
 7591 012b 02       		.byte	0x2
 7592 012c 0A       		.uleb128 0xa
 7593 012d 00030000 		.4byte	.LASF26
 7594 0131 03       		.byte	0x3
 7595 0132 0A       		.uleb128 0xa
 7596 0133 0A040000 		.4byte	.LASF27
 7597 0137 04       		.byte	0x4
 7598 0138 0A       		.uleb128 0xa
 7599 0139 D5030000 		.4byte	.LASF28
 7600 013d 05       		.byte	0x5
 7601 013e 00       		.byte	0
 7602 013f 0B       		.uleb128 0xb
 7603 0140 EB020000 		.4byte	.LASF45
 7604 0144 10       		.byte	0x10
 7605 0145 08       		.byte	0x8
 7606 0146 3C       		.byte	0x3c
 7607 0147 88010000 		.4byte	0x188
 7608 014b 0C       		.uleb128 0xc
 7609 014c E0050000 		.4byte	.LASF29
 7610 0150 08       		.byte	0x8
 7611 0151 3E       		.byte	0x3e
 7612 0152 B4000000 		.4byte	0xb4
 7613 0156 00       		.byte	0
 7614 0157 0C       		.uleb128 0xc
 7615 0158 73010000 		.4byte	.LASF30
 7616 015c 08       		.byte	0x8
 7617 015d 40       		.byte	0x40
 7618 015e A9000000 		.4byte	0xa9
 7619 0162 04       		.byte	0x4
 7620 0163 0C       		.uleb128 0xc
 7621 0164 14030000 		.4byte	.LASF31
 7622 0168 08       		.byte	0x8
 7623 0169 42       		.byte	0x42
 7624 016a A9000000 		.4byte	0xa9
 7625 016e 06       		.byte	0x6
 7626 016f 0C       		.uleb128 0xc
 7627 0170 CB030000 		.4byte	.LASF32
 7628 0174 08       		.byte	0x8
 7629 0175 44       		.byte	0x44
 7630 0176 A9000000 		.4byte	0xa9
 7631 017a 08       		.byte	0x8
 7632 017b 0C       		.uleb128 0xc
 7633 017c E9040000 		.4byte	.LASF33
 7634 0180 08       		.byte	0x8
ARM GAS  /tmp/ccJJl1OT.s 			page 135


 7635 0181 45       		.byte	0x45
 7636 0182 88010000 		.4byte	0x188
 7637 0186 0A       		.byte	0xa
 7638 0187 00       		.byte	0
 7639 0188 0D       		.uleb128 0xd
 7640 0189 A9000000 		.4byte	0xa9
 7641 018d 98010000 		.4byte	0x198
 7642 0191 0E       		.uleb128 0xe
 7643 0192 D6000000 		.4byte	0xd6
 7644 0196 02       		.byte	0x2
 7645 0197 00       		.byte	0
 7646 0198 04       		.uleb128 0x4
 7647 0199 C8050000 		.4byte	.LASF34
 7648 019d 08       		.byte	0x8
 7649 019e 46       		.byte	0x46
 7650 019f 3F010000 		.4byte	0x13f
 7651 01a3 0F       		.uleb128 0xf
 7652 01a4 01       		.byte	0x1
 7653 01a5 4C000000 		.4byte	0x4c
 7654 01a9 08       		.byte	0x8
 7655 01aa 4B       		.byte	0x4b
 7656 01ab C9040000 		.4byte	.LASF100
 7657 01af EA010000 		.4byte	0x1ea
 7658 01b3 0A       		.uleb128 0xa
 7659 01b4 93010000 		.4byte	.LASF35
 7660 01b8 00       		.byte	0
 7661 01b9 0A       		.uleb128 0xa
 7662 01ba A8010000 		.4byte	.LASF36
 7663 01be 01       		.byte	0x1
 7664 01bf 0A       		.uleb128 0xa
 7665 01c0 BD010000 		.4byte	.LASF37
 7666 01c4 02       		.byte	0x2
 7667 01c5 0A       		.uleb128 0xa
 7668 01c6 D2010000 		.4byte	.LASF38
 7669 01ca 03       		.byte	0x3
 7670 01cb 0A       		.uleb128 0xa
 7671 01cc E7010000 		.4byte	.LASF39
 7672 01d0 04       		.byte	0x4
 7673 01d1 0A       		.uleb128 0xa
 7674 01d2 FC010000 		.4byte	.LASF40
 7675 01d6 05       		.byte	0x5
 7676 01d7 0A       		.uleb128 0xa
 7677 01d8 B2040000 		.4byte	.LASF41
 7678 01dc 06       		.byte	0x6
 7679 01dd 0A       		.uleb128 0xa
 7680 01de 31040000 		.4byte	.LASF42
 7681 01e2 07       		.byte	0x7
 7682 01e3 0A       		.uleb128 0xa
 7683 01e4 19020000 		.4byte	.LASF43
 7684 01e8 08       		.byte	0x8
 7685 01e9 00       		.byte	0
 7686 01ea 04       		.uleb128 0x4
 7687 01eb 79010000 		.4byte	.LASF44
 7688 01ef 08       		.byte	0x8
 7689 01f0 5D       		.byte	0x5d
 7690 01f1 A3010000 		.4byte	0x1a3
 7691 01f5 07       		.uleb128 0x7
ARM GAS  /tmp/ccJJl1OT.s 			page 136


 7692 01f6 04       		.byte	0x4
 7693 01f7 FB010000 		.4byte	0x1fb
 7694 01fb 08       		.uleb128 0x8
 7695 01fc 98010000 		.4byte	0x198
 7696 0200 0D       		.uleb128 0xd
 7697 0201 9E000000 		.4byte	0x9e
 7698 0205 10020000 		.4byte	0x210
 7699 0209 0E       		.uleb128 0xe
 7700 020a D6000000 		.4byte	0xd6
 7701 020e 03       		.byte	0x3
 7702 020f 00       		.byte	0
 7703 0210 0B       		.uleb128 0xb
 7704 0211 8D010000 		.4byte	.LASF46
 7705 0215 74       		.byte	0x74
 7706 0216 01       		.byte	0x1
 7707 0217 2B       		.byte	0x2b
 7708 0218 94020000 		.4byte	0x294
 7709 021c 10       		.uleb128 0x10
 7710 021d 6C666F00 		.ascii	"lfo\000"
 7711 0221 01       		.byte	0x1
 7712 0222 2C       		.byte	0x2c
 7713 0223 25000000 		.4byte	0x25
 7714 0227 00       		.byte	0
 7715 0228 0C       		.uleb128 0xc
 7716 0229 E4040000 		.4byte	.LASF47
 7717 022d 01       		.byte	0x1
 7718 022e 2C       		.byte	0x2c
 7719 022f 25000000 		.4byte	0x25
 7720 0233 04       		.byte	0x4
 7721 0234 0C       		.uleb128 0xc
 7722 0235 00040000 		.4byte	.LASF48
 7723 0239 01       		.byte	0x1
 7724 023a 2D       		.byte	0x2d
 7725 023b 9E000000 		.4byte	0x9e
 7726 023f 08       		.byte	0x8
 7727 0240 0C       		.uleb128 0xc
 7728 0241 28000000 		.4byte	.LASF49
 7729 0245 01       		.byte	0x1
 7730 0246 2E       		.byte	0x2e
 7731 0247 9E000000 		.4byte	0x9e
 7732 024b 09       		.byte	0x9
 7733 024c 10       		.uleb128 0x10
 7734 024d 6B657900 		.ascii	"key\000"
 7735 0251 01       		.byte	0x1
 7736 0252 2F       		.byte	0x2f
 7737 0253 9E000000 		.4byte	0x9e
 7738 0257 0A       		.byte	0xa
 7739 0258 0C       		.uleb128 0xc
 7740 0259 26030000 		.4byte	.LASF50
 7741 025d 01       		.byte	0x1
 7742 025e 30       		.byte	0x30
 7743 025f 9E000000 		.4byte	0x9e
 7744 0263 0B       		.byte	0xb
 7745 0264 0C       		.uleb128 0xc
 7746 0265 1B030000 		.4byte	.LASF51
 7747 0269 01       		.byte	0x1
 7748 026a 32       		.byte	0x32
ARM GAS  /tmp/ccJJl1OT.s 			page 137


 7749 026b 00020000 		.4byte	0x200
 7750 026f 0C       		.byte	0xc
 7751 0270 10       		.uleb128 0x10
 7752 0271 773000   		.ascii	"w0\000"
 7753 0274 01       		.byte	0x1
 7754 0275 33       		.byte	0x33
 7755 0276 94020000 		.4byte	0x294
 7756 027a 10       		.byte	0x10
 7757 027b 0C       		.uleb128 0xc
 7758 027c 22000000 		.4byte	.LASF52
 7759 0280 01       		.byte	0x1
 7760 0281 34       		.byte	0x34
 7761 0282 94020000 		.4byte	0x294
 7762 0286 40       		.byte	0x40
 7763 0287 0C       		.uleb128 0xc
 7764 0288 B9030000 		.4byte	.LASF53
 7765 028c 01       		.byte	0x1
 7766 028d 35       		.byte	0x35
 7767 028e 25000000 		.4byte	0x25
 7768 0292 70       		.byte	0x70
 7769 0293 00       		.byte	0
 7770 0294 0D       		.uleb128 0xd
 7771 0295 25000000 		.4byte	0x25
 7772 0299 A4020000 		.4byte	0x2a4
 7773 029d 0E       		.uleb128 0xe
 7774 029e D6000000 		.4byte	0xd6
 7775 02a2 0B       		.byte	0xb
 7776 02a3 00       		.byte	0
 7777 02a4 04       		.uleb128 0x4
 7778 02a5 8D010000 		.4byte	.LASF46
 7779 02a9 01       		.byte	0x1
 7780 02aa 36       		.byte	0x36
 7781 02ab 10020000 		.4byte	0x210
 7782 02af 09       		.uleb128 0x9
 7783 02b0 01       		.byte	0x1
 7784 02b1 4C000000 		.4byte	0x4c
 7785 02b5 01       		.byte	0x1
 7786 02b6 47       		.byte	0x47
 7787 02b7 C8020000 		.4byte	0x2c8
 7788 02bb 0A       		.uleb128 0xa
 7789 02bc 39030000 		.4byte	.LASF54
 7790 02c0 00       		.byte	0
 7791 02c1 0A       		.uleb128 0xa
 7792 02c2 A4030000 		.4byte	.LASF55
 7793 02c6 01       		.byte	0x1
 7794 02c7 00       		.byte	0
 7795 02c8 11       		.uleb128 0x11
 7796 02c9 0F050000 		.4byte	.LASF56
 7797 02cd 03       		.byte	0x3
 7798 02ce C0       		.byte	0xc0
 7799 02cf 25000000 		.4byte	0x25
 7800 02d3 03       		.byte	0x3
 7801 02d4 F4020000 		.4byte	0x2f4
 7802 02d8 12       		.uleb128 0x12
 7803 02d9 6100     		.ascii	"a\000"
 7804 02db 03       		.byte	0x3
 7805 02dc C0       		.byte	0xc0
ARM GAS  /tmp/ccJJl1OT.s 			page 138


 7806 02dd F4020000 		.4byte	0x2f4
 7807 02e1 12       		.uleb128 0x12
 7808 02e2 6200     		.ascii	"b\000"
 7809 02e4 03       		.byte	0x3
 7810 02e5 C0       		.byte	0xc0
 7811 02e6 F4020000 		.4byte	0x2f4
 7812 02ea 12       		.uleb128 0x12
 7813 02eb 6300     		.ascii	"c\000"
 7814 02ed 03       		.byte	0x3
 7815 02ee C0       		.byte	0xc0
 7816 02ef F4020000 		.4byte	0x2f4
 7817 02f3 00       		.byte	0
 7818 02f4 08       		.uleb128 0x8
 7819 02f5 25000000 		.4byte	0x25
 7820 02f9 13       		.uleb128 0x13
 7821 02fa F3050000 		.4byte	.LASF57
 7822 02fe 03       		.byte	0x3
 7823 02ff 4901     		.2byte	0x149
 7824 0301 25000000 		.4byte	0x25
 7825 0305 03       		.byte	0x3
 7826 0306 21030000 		.4byte	0x321
 7827 030a 14       		.uleb128 0x14
 7828 030b 7800     		.ascii	"x\000"
 7829 030d 03       		.byte	0x3
 7830 030e 4901     		.2byte	0x149
 7831 0310 F4020000 		.4byte	0x2f4
 7832 0314 14       		.uleb128 0x14
 7833 0315 6D617800 		.ascii	"max\000"
 7834 0319 03       		.byte	0x3
 7835 031a 4901     		.2byte	0x149
 7836 031c F4020000 		.4byte	0x2f4
 7837 0320 00       		.byte	0
 7838 0321 13       		.uleb128 0x13
 7839 0322 57020000 		.4byte	.LASF58
 7840 0326 03       		.byte	0x3
 7841 0327 3C01     		.2byte	0x13c
 7842 0329 25000000 		.4byte	0x25
 7843 032d 03       		.byte	0x3
 7844 032e 55030000 		.4byte	0x355
 7845 0332 14       		.uleb128 0x14
 7846 0333 6D696E00 		.ascii	"min\000"
 7847 0337 03       		.byte	0x3
 7848 0338 3C01     		.2byte	0x13c
 7849 033a F4020000 		.4byte	0x2f4
 7850 033e 14       		.uleb128 0x14
 7851 033f 7800     		.ascii	"x\000"
 7852 0341 03       		.byte	0x3
 7853 0342 3C01     		.2byte	0x13c
 7854 0344 25000000 		.4byte	0x25
 7855 0348 14       		.uleb128 0x14
 7856 0349 6D617800 		.ascii	"max\000"
 7857 034d 03       		.byte	0x3
 7858 034e 3C01     		.2byte	0x13c
 7859 0350 F4020000 		.4byte	0x2f4
 7860 0354 00       		.byte	0
 7861 0355 11       		.uleb128 0x11
 7862 0356 E8030000 		.4byte	.LASF59
ARM GAS  /tmp/ccJJl1OT.s 			page 139


 7863 035a 04       		.byte	0x4
 7864 035b 54       		.byte	0x54
 7865 035c BF000000 		.4byte	0xbf
 7866 0360 03       		.byte	0x3
 7867 0361 78030000 		.4byte	0x378
 7868 0365 12       		.uleb128 0x12
 7869 0366 7800     		.ascii	"x\000"
 7870 0368 04       		.byte	0x4
 7871 0369 54       		.byte	0x54
 7872 036a 78030000 		.4byte	0x378
 7873 036e 12       		.uleb128 0x12
 7874 036f 6D00     		.ascii	"m\000"
 7875 0371 04       		.byte	0x4
 7876 0372 54       		.byte	0x54
 7877 0373 78030000 		.4byte	0x378
 7878 0377 00       		.byte	0
 7879 0378 08       		.uleb128 0x8
 7880 0379 BF000000 		.4byte	0xbf
 7881 037d 13       		.uleb128 0x13
 7882 037e 8D030000 		.4byte	.LASF60
 7883 0382 03       		.byte	0x3
 7884 0383 8501     		.2byte	0x185
 7885 0385 25000000 		.4byte	0x25
 7886 0389 03       		.byte	0x3
 7887 038a A3030000 		.4byte	0x3a3
 7888 038e 14       		.uleb128 0x14
 7889 038f 7800     		.ascii	"x\000"
 7890 0391 03       		.byte	0x3
 7891 0392 8501     		.2byte	0x185
 7892 0394 F4020000 		.4byte	0x2f4
 7893 0398 14       		.uleb128 0x14
 7894 0399 6D00     		.ascii	"m\000"
 7895 039b 03       		.byte	0x3
 7896 039c 8501     		.2byte	0x185
 7897 039e F4020000 		.4byte	0x2f4
 7898 03a2 00       		.byte	0
 7899 03a3 13       		.uleb128 0x13
 7900 03a4 50050000 		.4byte	.LASF61
 7901 03a8 03       		.byte	0x3
 7902 03a9 3903     		.2byte	0x339
 7903 03ab 25000000 		.4byte	0x25
 7904 03af 03       		.byte	0x3
 7905 03b0 D6030000 		.4byte	0x3d6
 7906 03b4 14       		.uleb128 0x14
 7907 03b5 667200   		.ascii	"fr\000"
 7908 03b8 03       		.byte	0x3
 7909 03b9 3903     		.2byte	0x339
 7910 03bb F4020000 		.4byte	0x2f4
 7911 03bf 14       		.uleb128 0x14
 7912 03c0 783000   		.ascii	"x0\000"
 7913 03c3 03       		.byte	0x3
 7914 03c4 3903     		.2byte	0x339
 7915 03c6 F4020000 		.4byte	0x2f4
 7916 03ca 14       		.uleb128 0x14
 7917 03cb 783100   		.ascii	"x1\000"
 7918 03ce 03       		.byte	0x3
 7919 03cf 3903     		.2byte	0x339
ARM GAS  /tmp/ccJJl1OT.s 			page 140


 7920 03d1 F4020000 		.4byte	0x2f4
 7921 03d5 00       		.byte	0
 7922 03d6 11       		.uleb128 0x11
 7923 03d7 77030000 		.4byte	.LASF62
 7924 03db 02       		.byte	0x2
 7925 03dc 72       		.byte	0x72
 7926 03dd 25000000 		.4byte	0x25
 7927 03e1 03       		.byte	0x3
 7928 03e2 F2030000 		.4byte	0x3f2
 7929 03e6 15       		.uleb128 0x15
 7930 03e7 14050000 		.4byte	.LASF63
 7931 03eb 02       		.byte	0x2
 7932 03ec 72       		.byte	0x72
 7933 03ed 9E000000 		.4byte	0x9e
 7934 03f1 00       		.byte	0
 7935 03f2 13       		.uleb128 0x13
 7936 03f3 EA050000 		.4byte	.LASF64
 7937 03f7 03       		.byte	0x3
 7938 03f8 AF01     		.2byte	0x1af
 7939 03fa 25000000 		.4byte	0x25
 7940 03fe 03       		.byte	0x3
 7941 03ff 0E040000 		.4byte	0x40e
 7942 0403 14       		.uleb128 0x14
 7943 0404 7800     		.ascii	"x\000"
 7944 0406 03       		.byte	0x3
 7945 0407 AF01     		.2byte	0x1af
 7946 0409 F4020000 		.4byte	0x2f4
 7947 040d 00       		.byte	0
 7948 040e 11       		.uleb128 0x11
 7949 040f B7050000 		.4byte	.LASF65
 7950 0413 02       		.byte	0x2
 7951 0414 7C       		.byte	0x7c
 7952 0415 25000000 		.4byte	0x25
 7953 0419 03       		.byte	0x3
 7954 041a 52040000 		.4byte	0x452
 7955 041e 15       		.uleb128 0x15
 7956 041f 14050000 		.4byte	.LASF63
 7957 0423 02       		.byte	0x2
 7958 0424 7C       		.byte	0x7c
 7959 0425 9E000000 		.4byte	0x9e
 7960 0429 12       		.uleb128 0x12
 7961 042a 6D6F6400 		.ascii	"mod\000"
 7962 042e 02       		.byte	0x2
 7963 042f 7C       		.byte	0x7c
 7964 0430 9E000000 		.4byte	0x9e
 7965 0434 16       		.uleb128 0x16
 7966 0435 663000   		.ascii	"f0\000"
 7967 0438 02       		.byte	0x2
 7968 0439 7D       		.byte	0x7d
 7969 043a F4020000 		.4byte	0x2f4
 7970 043e 16       		.uleb128 0x16
 7971 043f 663100   		.ascii	"f1\000"
 7972 0442 02       		.byte	0x2
 7973 0443 7E       		.byte	0x7e
 7974 0444 F4020000 		.4byte	0x2f4
 7975 0448 16       		.uleb128 0x16
 7976 0449 6600     		.ascii	"f\000"
ARM GAS  /tmp/ccJJl1OT.s 			page 141


 7977 044b 02       		.byte	0x2
 7978 044c 80       		.byte	0x80
 7979 044d F4020000 		.4byte	0x2f4
 7980 0451 00       		.byte	0
 7981 0452 13       		.uleb128 0x13
 7982 0453 49020000 		.4byte	.LASF66
 7983 0457 02       		.byte	0x2
 7984 0458 9F02     		.2byte	0x29f
 7985 045a 25000000 		.4byte	0x25
 7986 045e 03       		.byte	0x3
 7987 045f 78040000 		.4byte	0x478
 7988 0463 14       		.uleb128 0x14
 7989 0464 6300     		.ascii	"c\000"
 7990 0466 02       		.byte	0x2
 7991 0467 9F02     		.2byte	0x29f
 7992 0469 F4020000 		.4byte	0x2f4
 7993 046d 14       		.uleb128 0x14
 7994 046e 7800     		.ascii	"x\000"
 7995 0470 02       		.byte	0x2
 7996 0471 9F02     		.2byte	0x29f
 7997 0473 25000000 		.4byte	0x25
 7998 0477 00       		.byte	0
 7999 0478 11       		.uleb128 0x11
 8000 0479 30030000 		.4byte	.LASF67
 8001 047d 02       		.byte	0x2
 8002 047e D0       		.byte	0xd0
 8003 047f 25000000 		.4byte	0x25
 8004 0483 03       		.byte	0x3
 8005 0484 DA040000 		.4byte	0x4da
 8006 0488 12       		.uleb128 0x12
 8007 0489 7800     		.ascii	"x\000"
 8008 048b 02       		.byte	0x2
 8009 048c D0       		.byte	0xd0
 8010 048d 25000000 		.4byte	0x25
 8011 0491 16       		.uleb128 0x16
 8012 0492 7000     		.ascii	"p\000"
 8013 0494 02       		.byte	0x2
 8014 0495 D1       		.byte	0xd1
 8015 0496 F4020000 		.4byte	0x2f4
 8016 049a 16       		.uleb128 0x16
 8017 049b 78306600 		.ascii	"x0f\000"
 8018 049f 02       		.byte	0x2
 8019 04a0 D3       		.byte	0xd3
 8020 04a1 F4020000 		.4byte	0x2f4
 8021 04a5 16       		.uleb128 0x16
 8022 04a6 78307000 		.ascii	"x0p\000"
 8023 04aa 02       		.byte	0x2
 8024 04ab D4       		.byte	0xd4
 8025 04ac 78030000 		.4byte	0x378
 8026 04b0 16       		.uleb128 0x16
 8027 04b1 783000   		.ascii	"x0\000"
 8028 04b4 02       		.byte	0x2
 8029 04b5 D6       		.byte	0xd6
 8030 04b6 BF000000 		.4byte	0xbf
 8031 04ba 16       		.uleb128 0x16
 8032 04bb 783100   		.ascii	"x1\000"
 8033 04be 02       		.byte	0x2
ARM GAS  /tmp/ccJJl1OT.s 			page 142


 8034 04bf D6       		.byte	0xd6
 8035 04c0 BF000000 		.4byte	0xbf
 8036 04c4 17       		.uleb128 0x17
 8037 04c5 DF040000 		.4byte	.LASF68
 8038 04c9 02       		.byte	0x2
 8039 04ca D7       		.byte	0xd7
 8040 04cb 25000000 		.4byte	0x25
 8041 04cf 16       		.uleb128 0x16
 8042 04d0 793000   		.ascii	"y0\000"
 8043 04d3 02       		.byte	0x2
 8044 04d4 DE       		.byte	0xde
 8045 04d5 F4020000 		.4byte	0x2f4
 8046 04d9 00       		.byte	0
 8047 04da 13       		.uleb128 0x13
 8048 04db 66030000 		.4byte	.LASF69
 8049 04df 02       		.byte	0x2
 8050 04e0 4101     		.2byte	0x141
 8051 04e2 25000000 		.4byte	0x25
 8052 04e6 03       		.byte	0x3
 8053 04e7 45050000 		.4byte	0x545
 8054 04eb 14       		.uleb128 0x14
 8055 04ec 7800     		.ascii	"x\000"
 8056 04ee 02       		.byte	0x2
 8057 04ef 4101     		.2byte	0x141
 8058 04f1 25000000 		.4byte	0x25
 8059 04f5 18       		.uleb128 0x18
 8060 04f6 7000     		.ascii	"p\000"
 8061 04f8 02       		.byte	0x2
 8062 04f9 4201     		.2byte	0x142
 8063 04fb F4020000 		.4byte	0x2f4
 8064 04ff 18       		.uleb128 0x18
 8065 0500 78306600 		.ascii	"x0f\000"
 8066 0504 02       		.byte	0x2
 8067 0505 4401     		.2byte	0x144
 8068 0507 F4020000 		.4byte	0x2f4
 8069 050b 18       		.uleb128 0x18
 8070 050c 78307000 		.ascii	"x0p\000"
 8071 0510 02       		.byte	0x2
 8072 0511 4501     		.2byte	0x145
 8073 0513 78030000 		.4byte	0x378
 8074 0517 18       		.uleb128 0x18
 8075 0518 783000   		.ascii	"x0\000"
 8076 051b 02       		.byte	0x2
 8077 051c 4701     		.2byte	0x147
 8078 051e BF000000 		.4byte	0xbf
 8079 0522 18       		.uleb128 0x18
 8080 0523 783100   		.ascii	"x1\000"
 8081 0526 02       		.byte	0x2
 8082 0527 4701     		.2byte	0x147
 8083 0529 BF000000 		.4byte	0xbf
 8084 052d 19       		.uleb128 0x19
 8085 052e DF040000 		.4byte	.LASF68
 8086 0532 02       		.byte	0x2
 8087 0533 4801     		.2byte	0x148
 8088 0535 25000000 		.4byte	0x25
 8089 0539 18       		.uleb128 0x18
 8090 053a 793000   		.ascii	"y0\000"
ARM GAS  /tmp/ccJJl1OT.s 			page 143


 8091 053d 02       		.byte	0x2
 8092 053e 4F01     		.2byte	0x14f
 8093 0540 F4020000 		.4byte	0x2f4
 8094 0544 00       		.byte	0
 8095 0545 11       		.uleb128 0x11
 8096 0546 00000000 		.4byte	.LASF70
 8097 054a 02       		.byte	0x2
 8098 054b 9C       		.byte	0x9c
 8099 054c 25000000 		.4byte	0x25
 8100 0550 03       		.byte	0x3
 8101 0551 9C050000 		.4byte	0x59c
 8102 0555 12       		.uleb128 0x12
 8103 0556 7800     		.ascii	"x\000"
 8104 0558 02       		.byte	0x2
 8105 0559 9C       		.byte	0x9c
 8106 055a 25000000 		.4byte	0x25
 8107 055e 16       		.uleb128 0x16
 8108 055f 7000     		.ascii	"p\000"
 8109 0561 02       		.byte	0x2
 8110 0562 9D       		.byte	0x9d
 8111 0563 F4020000 		.4byte	0x2f4
 8112 0567 16       		.uleb128 0x16
 8113 0568 78306600 		.ascii	"x0f\000"
 8114 056c 02       		.byte	0x2
 8115 056d A0       		.byte	0xa0
 8116 056e F4020000 		.4byte	0x2f4
 8117 0572 16       		.uleb128 0x16
 8118 0573 78307000 		.ascii	"x0p\000"
 8119 0577 02       		.byte	0x2
 8120 0578 A1       		.byte	0xa1
 8121 0579 78030000 		.4byte	0x378
 8122 057d 16       		.uleb128 0x16
 8123 057e 783000   		.ascii	"x0\000"
 8124 0581 02       		.byte	0x2
 8125 0582 A3       		.byte	0xa3
 8126 0583 78030000 		.4byte	0x378
 8127 0587 16       		.uleb128 0x16
 8128 0588 783100   		.ascii	"x1\000"
 8129 058b 02       		.byte	0x2
 8130 058c A4       		.byte	0xa4
 8131 058d 78030000 		.4byte	0x378
 8132 0591 16       		.uleb128 0x16
 8133 0592 793000   		.ascii	"y0\000"
 8134 0595 02       		.byte	0x2
 8135 0596 A6       		.byte	0xa6
 8136 0597 F4020000 		.4byte	0x2f4
 8137 059b 00       		.byte	0
 8138 059c 1A       		.uleb128 0x1a
 8139 059d 54040000 		.4byte	.LASF72
 8140 05a1 01       		.byte	0x1
 8141 05a2 4E       		.byte	0x4e
 8142 05a3 00000000 		.4byte	.LFB239
 8143 05a7 24000000 		.4byte	.LFE239-.LFB239
 8144 05ab 01       		.uleb128 0x1
 8145 05ac 9C       		.byte	0x9c
 8146 05ad E5050000 		.4byte	0x5e5
 8147 05b1 1B       		.uleb128 0x1b
ARM GAS  /tmp/ccJJl1OT.s 			page 144


 8148 05b2 6A010000 		.4byte	.LASF71
 8149 05b6 01       		.byte	0x1
 8150 05b7 4E       		.byte	0x4e
 8151 05b8 BF000000 		.4byte	0xbf
 8152 05bc 01       		.uleb128 0x1
 8153 05bd 50       		.byte	0x50
 8154 05be 1C       		.uleb128 0x1c
 8155 05bf 61706900 		.ascii	"api\000"
 8156 05c3 01       		.byte	0x1
 8157 05c4 4E       		.byte	0x4e
 8158 05c5 BF000000 		.4byte	0xbf
 8159 05c9 00000000 		.4byte	.LLST0
 8160 05cd 1D       		.uleb128 0x1d
 8161 05ce 02000000 		.4byte	.LBB992
 8162 05d2 10000000 		.4byte	.LBE992-.LBB992
 8163 05d6 1E       		.uleb128 0x1e
 8164 05d7 6900     		.ascii	"i\000"
 8165 05d9 01       		.byte	0x1
 8166 05da 51       		.byte	0x51
 8167 05db 33000000 		.4byte	0x33
 8168 05df 21000000 		.4byte	.LLST1
 8169 05e3 00       		.byte	0
 8170 05e4 00       		.byte	0
 8171 05e5 1A       		.uleb128 0x1a
 8172 05e6 31020000 		.4byte	.LASF73
 8173 05ea 01       		.byte	0x1
 8174 05eb 59       		.byte	0x59
 8175 05ec 24000000 		.4byte	.LFB240
 8176 05f0 C81C0000 		.4byte	.LFE240-.LFB240
 8177 05f4 01       		.uleb128 0x1
 8178 05f5 9C       		.byte	0x9c
 8179 05f6 F6430000 		.4byte	0x43f6
 8180 05fa 1F       		.uleb128 0x1f
 8181 05fb 4D040000 		.4byte	.LASF74
 8182 05ff 01       		.byte	0x1
 8183 0600 59       		.byte	0x59
 8184 0601 F6430000 		.4byte	0x43f6
 8185 0605 35000000 		.4byte	.LLST2
 8186 0609 1C       		.uleb128 0x1c
 8187 060a 796E00   		.ascii	"yn\000"
 8188 060d 01       		.byte	0x1
 8189 060e 5A       		.byte	0x5a
 8190 060f 08010000 		.4byte	0x108
 8191 0613 6F000000 		.4byte	.LLST3
 8192 0617 1F       		.uleb128 0x1f
 8193 0618 50030000 		.4byte	.LASF75
 8194 061c 01       		.byte	0x1
 8195 061d 5B       		.byte	0x5b
 8196 061e 78030000 		.4byte	0x378
 8197 0622 90000000 		.4byte	.LLST4
 8198 0626 20       		.uleb128 0x20
 8199 0627 28000000 		.4byte	.LASF49
 8200 062b 01       		.byte	0x1
 8201 062c 61       		.byte	0x61
 8202 062d FB430000 		.4byte	0x43fb
 8203 0631 B1000000 		.4byte	.LLST5
 8204 0635 21       		.uleb128 0x21
ARM GAS  /tmp/ccJJl1OT.s 			page 145


 8205 0636 773000   		.ascii	"w0\000"
 8206 0639 01       		.byte	0x1
 8207 063a 64       		.byte	0x64
 8208 063b 94020000 		.4byte	0x294
 8209 063f 03       		.uleb128 0x3
 8210 0640 91       		.byte	0x91
 8211 0641 F87E     		.sleb128 -136
 8212 0643 22       		.uleb128 0x22
 8213 0644 22000000 		.4byte	.LASF52
 8214 0648 01       		.byte	0x1
 8215 0649 65       		.byte	0x65
 8216 064a 94020000 		.4byte	0x294
 8217 064e 03       		.uleb128 0x3
 8218 064f 91       		.byte	0x91
 8219 0650 A87F     		.sleb128 -88
 8220 0652 1E       		.uleb128 0x1e
 8221 0653 6C666F00 		.ascii	"lfo\000"
 8222 0657 01       		.byte	0x1
 8223 0658 A6       		.byte	0xa6
 8224 0659 F4020000 		.4byte	0x2f4
 8225 065d D3000000 		.4byte	.LLST6
 8226 0661 22       		.uleb128 0x22
 8227 0662 E4040000 		.4byte	.LASF47
 8228 0666 01       		.byte	0x1
 8229 0667 A8       		.byte	0xa8
 8230 0668 25000000 		.4byte	0x25
 8231 066c 02       		.uleb128 0x2
 8232 066d 90       		.byte	0x90
 8233 066e 48       		.uleb128 0x48
 8234 066f 22       		.uleb128 0x22
 8235 0670 B1030000 		.4byte	.LASF76
 8236 0674 01       		.byte	0x1
 8237 0675 AA       		.byte	0xaa
 8238 0676 F4020000 		.4byte	0x2f4
 8239 067a 02       		.uleb128 0x2
 8240 067b 90       		.byte	0x90
 8241 067c 45       		.uleb128 0x45
 8242 067d 1E       		.uleb128 0x1e
 8243 067e 7900     		.ascii	"y\000"
 8244 0680 01       		.byte	0x1
 8245 0681 AD       		.byte	0xad
 8246 0682 F7000000 		.4byte	0xf7
 8247 0686 F6000000 		.4byte	.LLST7
 8248 068a 1E       		.uleb128 0x1e
 8249 068b 795F6500 		.ascii	"y_e\000"
 8250 068f 01       		.byte	0x1
 8251 0690 AE       		.byte	0xae
 8252 0691 FD000000 		.4byte	0xfd
 8253 0695 21010000 		.4byte	.LLST8
 8254 0699 23       		.uleb128 0x23
 8255 069a 00000000 		.4byte	.Ldebug_ranges0+0
 8256 069e B0060000 		.4byte	0x6b0
 8257 06a2 1E       		.uleb128 0x1e
 8258 06a3 6900     		.ascii	"i\000"
 8259 06a5 01       		.byte	0x1
 8260 06a6 5D       		.byte	0x5d
 8261 06a7 33000000 		.4byte	0x33
ARM GAS  /tmp/ccJJl1OT.s 			page 146


 8262 06ab 4E010000 		.4byte	.LLST9
 8263 06af 00       		.byte	0
 8264 06b0 24       		.uleb128 0x24
 8265 06b1 0E040000 		.4byte	0x40e
 8266 06b5 94000000 		.4byte	.LBB995
 8267 06b9 18000000 		.4byte	.Ldebug_ranges0+0x18
 8268 06bd 01       		.byte	0x1
 8269 06be 68       		.byte	0x68
 8270 06bf F5070000 		.4byte	0x7f5
 8271 06c3 25       		.uleb128 0x25
 8272 06c4 29040000 		.4byte	0x429
 8273 06c8 8E010000 		.4byte	.LLST10
 8274 06cc 25       		.uleb128 0x25
 8275 06cd 1E040000 		.4byte	0x41e
 8276 06d1 A3010000 		.4byte	.LLST11
 8277 06d5 26       		.uleb128 0x26
 8278 06d6 18000000 		.4byte	.Ldebug_ranges0+0x18
 8279 06da 27       		.uleb128 0x27
 8280 06db 34040000 		.4byte	0x434
 8281 06df 27       		.uleb128 0x27
 8282 06e0 3E040000 		.4byte	0x43e
 8283 06e4 27       		.uleb128 0x27
 8284 06e5 48040000 		.4byte	0x448
 8285 06e9 24       		.uleb128 0x24
 8286 06ea D6030000 		.4byte	0x3d6
 8287 06ee 94000000 		.4byte	.LBB997
 8288 06f2 38000000 		.4byte	.Ldebug_ranges0+0x38
 8289 06f6 02       		.byte	0x2
 8290 06f7 7D       		.byte	0x7d
 8291 06f8 28070000 		.4byte	0x728
 8292 06fc 25       		.uleb128 0x25
 8293 06fd E6030000 		.4byte	0x3e6
 8294 0701 B6010000 		.4byte	.LLST12
 8295 0705 28       		.uleb128 0x28
 8296 0706 55030000 		.4byte	0x355
 8297 070a B6000000 		.4byte	.LBB999
 8298 070e 58000000 		.4byte	.Ldebug_ranges0+0x58
 8299 0712 02       		.byte	0x2
 8300 0713 73       		.byte	0x73
 8301 0714 25       		.uleb128 0x25
 8302 0715 6E030000 		.4byte	0x36e
 8303 0719 C9010000 		.4byte	.LLST13
 8304 071d 25       		.uleb128 0x25
 8305 071e 65030000 		.4byte	0x365
 8306 0722 DE010000 		.4byte	.LLST14
 8307 0726 00       		.byte	0
 8308 0727 00       		.byte	0
 8309 0728 24       		.uleb128 0x24
 8310 0729 A3030000 		.4byte	0x3a3
 8311 072d 96000000 		.4byte	.LBB1005
 8312 0731 70000000 		.4byte	.Ldebug_ranges0+0x70
 8313 0735 02       		.byte	0x2
 8314 0736 80       		.byte	0x80
 8315 0737 4F070000 		.4byte	0x74f
 8316 073b 29       		.uleb128 0x29
 8317 073c CA030000 		.4byte	0x3ca
 8318 0740 29       		.uleb128 0x29
ARM GAS  /tmp/ccJJl1OT.s 			page 147


 8319 0741 BF030000 		.4byte	0x3bf
 8320 0745 25       		.uleb128 0x25
 8321 0746 B4030000 		.4byte	0x3b4
 8322 074a F1010000 		.4byte	.LLST15
 8323 074e 00       		.byte	0
 8324 074f 2A       		.uleb128 0x2a
 8325 0750 D6030000 		.4byte	0x3d6
 8326 0754 DE000000 		.4byte	.LBB1010
 8327 0758 0E000000 		.4byte	.LBE1010-.LBB1010
 8328 075c 02       		.byte	0x2
 8329 075d 7E       		.byte	0x7e
 8330 075e 8E070000 		.4byte	0x78e
 8331 0762 25       		.uleb128 0x25
 8332 0763 E6030000 		.4byte	0x3e6
 8333 0767 35020000 		.4byte	.LLST16
 8334 076b 2B       		.uleb128 0x2b
 8335 076c 55030000 		.4byte	0x355
 8336 0770 DE000000 		.4byte	.LBB1012
 8337 0774 0A000000 		.4byte	.LBE1012-.LBB1012
 8338 0778 02       		.byte	0x2
 8339 0779 73       		.byte	0x73
 8340 077a 25       		.uleb128 0x25
 8341 077b 6E030000 		.4byte	0x36e
 8342 077f 48020000 		.4byte	.LLST17
 8343 0783 25       		.uleb128 0x25
 8344 0784 65030000 		.4byte	0x365
 8345 0788 35020000 		.4byte	.LLST16
 8346 078c 00       		.byte	0
 8347 078d 00       		.byte	0
 8348 078e 2B       		.uleb128 0x2b
 8349 078f 7D030000 		.4byte	0x37d
 8350 0793 04010000 		.4byte	.LBB1015
 8351 0797 12000000 		.4byte	.LBE1015-.LBB1015
 8352 079b 02       		.byte	0x2
 8353 079c 80       		.byte	0x80
 8354 079d 25       		.uleb128 0x25
 8355 079e 98030000 		.4byte	0x398
 8356 07a2 5D020000 		.4byte	.LLST19
 8357 07a6 29       		.uleb128 0x29
 8358 07a7 8E030000 		.4byte	0x38e
 8359 07ab 2C       		.uleb128 0x2c
 8360 07ac F9020000 		.4byte	0x2f9
 8361 07b0 04010000 		.4byte	.LBB1016
 8362 07b4 12000000 		.4byte	.LBE1016-.LBB1016
 8363 07b8 03       		.byte	0x3
 8364 07b9 8601     		.2byte	0x186
 8365 07bb 25       		.uleb128 0x25
 8366 07bc 14030000 		.4byte	0x314
 8367 07c0 5D020000 		.4byte	.LLST19
 8368 07c4 29       		.uleb128 0x29
 8369 07c5 0A030000 		.4byte	0x30a
 8370 07c9 2C       		.uleb128 0x2c
 8371 07ca C8020000 		.4byte	0x2c8
 8372 07ce 04010000 		.4byte	.LBB1017
 8373 07d2 12000000 		.4byte	.LBE1017-.LBB1017
 8374 07d6 03       		.byte	0x3
 8375 07d7 4B01     		.2byte	0x14b
ARM GAS  /tmp/ccJJl1OT.s 			page 148


 8376 07d9 29       		.uleb128 0x29
 8377 07da EA020000 		.4byte	0x2ea
 8378 07de 25       		.uleb128 0x25
 8379 07df E1020000 		.4byte	0x2e1
 8380 07e3 5D020000 		.4byte	.LLST19
 8381 07e7 25       		.uleb128 0x25
 8382 07e8 D8020000 		.4byte	0x2d8
 8383 07ec 75020000 		.4byte	.LLST22
 8384 07f0 00       		.byte	0
 8385 07f1 00       		.byte	0
 8386 07f2 00       		.byte	0
 8387 07f3 00       		.byte	0
 8388 07f4 00       		.byte	0
 8389 07f5 24       		.uleb128 0x24
 8390 07f6 0E040000 		.4byte	0x40e
 8391 07fa 1A010000 		.4byte	.LBB1023
 8392 07fe 88000000 		.4byte	.Ldebug_ranges0+0x88
 8393 0802 01       		.byte	0x1
 8394 0803 69       		.byte	0x69
 8395 0804 BC080000 		.4byte	0x8bc
 8396 0808 25       		.uleb128 0x25
 8397 0809 29040000 		.4byte	0x429
 8398 080d 93020000 		.4byte	.LLST23
 8399 0811 25       		.uleb128 0x25
 8400 0812 1E040000 		.4byte	0x41e
 8401 0816 A8020000 		.4byte	.LLST24
 8402 081a 26       		.uleb128 0x26
 8403 081b 88000000 		.4byte	.Ldebug_ranges0+0x88
 8404 081f 27       		.uleb128 0x27
 8405 0820 34040000 		.4byte	0x434
 8406 0824 27       		.uleb128 0x27
 8407 0825 3E040000 		.4byte	0x43e
 8408 0829 27       		.uleb128 0x27
 8409 082a 48040000 		.4byte	0x448
 8410 082e 24       		.uleb128 0x24
 8411 082f A3030000 		.4byte	0x3a3
 8412 0833 1A010000 		.4byte	.LBB1025
 8413 0837 C0000000 		.4byte	.Ldebug_ranges0+0xc0
 8414 083b 02       		.byte	0x2
 8415 083c 80       		.byte	0x80
 8416 083d 55080000 		.4byte	0x855
 8417 0841 29       		.uleb128 0x29
 8418 0842 CA030000 		.4byte	0x3ca
 8419 0846 29       		.uleb128 0x29
 8420 0847 BF030000 		.4byte	0x3bf
 8421 084b 25       		.uleb128 0x25
 8422 084c B4030000 		.4byte	0x3b4
 8423 0850 BB020000 		.4byte	.LLST25
 8424 0854 00       		.byte	0
 8425 0855 28       		.uleb128 0x28
 8426 0856 7D030000 		.4byte	0x37d
 8427 085a 5A010000 		.4byte	.LBB1034
 8428 085e F0000000 		.4byte	.Ldebug_ranges0+0xf0
 8429 0862 02       		.byte	0x2
 8430 0863 80       		.byte	0x80
 8431 0864 25       		.uleb128 0x25
 8432 0865 98030000 		.4byte	0x398
ARM GAS  /tmp/ccJJl1OT.s 			page 149


 8433 0869 DF020000 		.4byte	.LLST26
 8434 086d 29       		.uleb128 0x29
 8435 086e 8E030000 		.4byte	0x38e
 8436 0872 2D       		.uleb128 0x2d
 8437 0873 F9020000 		.4byte	0x2f9
 8438 0877 5A010000 		.4byte	.LBB1035
 8439 087b F0000000 		.4byte	.Ldebug_ranges0+0xf0
 8440 087f 03       		.byte	0x3
 8441 0880 8601     		.2byte	0x186
 8442 0882 25       		.uleb128 0x25
 8443 0883 14030000 		.4byte	0x314
 8444 0887 DF020000 		.4byte	.LLST26
 8445 088b 29       		.uleb128 0x29
 8446 088c 0A030000 		.4byte	0x30a
 8447 0890 2D       		.uleb128 0x2d
 8448 0891 C8020000 		.4byte	0x2c8
 8449 0895 5A010000 		.4byte	.LBB1036
 8450 0899 F0000000 		.4byte	.Ldebug_ranges0+0xf0
 8451 089d 03       		.byte	0x3
 8452 089e 4B01     		.2byte	0x14b
 8453 08a0 29       		.uleb128 0x29
 8454 08a1 EA020000 		.4byte	0x2ea
 8455 08a5 25       		.uleb128 0x25
 8456 08a6 E1020000 		.4byte	0x2e1
 8457 08aa DF020000 		.4byte	.LLST26
 8458 08ae 25       		.uleb128 0x25
 8459 08af D8020000 		.4byte	0x2d8
 8460 08b3 F7020000 		.4byte	.LLST29
 8461 08b7 00       		.byte	0
 8462 08b8 00       		.byte	0
 8463 08b9 00       		.byte	0
 8464 08ba 00       		.byte	0
 8465 08bb 00       		.byte	0
 8466 08bc 24       		.uleb128 0x24
 8467 08bd 0E040000 		.4byte	0x40e
 8468 08c1 2A010000 		.4byte	.LBB1048
 8469 08c5 08010000 		.4byte	.Ldebug_ranges0+0x108
 8470 08c9 01       		.byte	0x1
 8471 08ca 6A       		.byte	0x6a
 8472 08cb 83090000 		.4byte	0x983
 8473 08cf 25       		.uleb128 0x25
 8474 08d0 29040000 		.4byte	0x429
 8475 08d4 2B030000 		.4byte	.LLST30
 8476 08d8 25       		.uleb128 0x25
 8477 08d9 1E040000 		.4byte	0x41e
 8478 08dd 40030000 		.4byte	.LLST31
 8479 08e1 26       		.uleb128 0x26
 8480 08e2 08010000 		.4byte	.Ldebug_ranges0+0x108
 8481 08e6 27       		.uleb128 0x27
 8482 08e7 34040000 		.4byte	0x434
 8483 08eb 27       		.uleb128 0x27
 8484 08ec 3E040000 		.4byte	0x43e
 8485 08f0 27       		.uleb128 0x27
 8486 08f1 48040000 		.4byte	0x448
 8487 08f5 24       		.uleb128 0x24
 8488 08f6 A3030000 		.4byte	0x3a3
 8489 08fa 2A010000 		.4byte	.LBB1050
ARM GAS  /tmp/ccJJl1OT.s 			page 150


 8490 08fe 28010000 		.4byte	.Ldebug_ranges0+0x128
 8491 0902 02       		.byte	0x2
 8492 0903 80       		.byte	0x80
 8493 0904 1C090000 		.4byte	0x91c
 8494 0908 29       		.uleb128 0x29
 8495 0909 CA030000 		.4byte	0x3ca
 8496 090d 29       		.uleb128 0x29
 8497 090e BF030000 		.4byte	0x3bf
 8498 0912 25       		.uleb128 0x25
 8499 0913 B4030000 		.4byte	0x3b4
 8500 0917 53030000 		.4byte	.LLST32
 8501 091b 00       		.byte	0
 8502 091c 28       		.uleb128 0x28
 8503 091d 7D030000 		.4byte	0x37d
 8504 0921 A4010000 		.4byte	.LBB1055
 8505 0925 48010000 		.4byte	.Ldebug_ranges0+0x148
 8506 0929 02       		.byte	0x2
 8507 092a 80       		.byte	0x80
 8508 092b 25       		.uleb128 0x25
 8509 092c 98030000 		.4byte	0x398
 8510 0930 77030000 		.4byte	.LLST33
 8511 0934 29       		.uleb128 0x29
 8512 0935 8E030000 		.4byte	0x38e
 8513 0939 2D       		.uleb128 0x2d
 8514 093a F9020000 		.4byte	0x2f9
 8515 093e A4010000 		.4byte	.LBB1056
 8516 0942 48010000 		.4byte	.Ldebug_ranges0+0x148
 8517 0946 03       		.byte	0x3
 8518 0947 8601     		.2byte	0x186
 8519 0949 25       		.uleb128 0x25
 8520 094a 14030000 		.4byte	0x314
 8521 094e 77030000 		.4byte	.LLST33
 8522 0952 29       		.uleb128 0x29
 8523 0953 0A030000 		.4byte	0x30a
 8524 0957 2D       		.uleb128 0x2d
 8525 0958 C8020000 		.4byte	0x2c8
 8526 095c A4010000 		.4byte	.LBB1057
 8527 0960 48010000 		.4byte	.Ldebug_ranges0+0x148
 8528 0964 03       		.byte	0x3
 8529 0965 4B01     		.2byte	0x14b
 8530 0967 29       		.uleb128 0x29
 8531 0968 EA020000 		.4byte	0x2ea
 8532 096c 25       		.uleb128 0x25
 8533 096d E1020000 		.4byte	0x2e1
 8534 0971 77030000 		.4byte	.LLST33
 8535 0975 25       		.uleb128 0x25
 8536 0976 D8020000 		.4byte	0x2d8
 8537 097a 8F030000 		.4byte	.LLST36
 8538 097e 00       		.byte	0
 8539 097f 00       		.byte	0
 8540 0980 00       		.byte	0
 8541 0981 00       		.byte	0
 8542 0982 00       		.byte	0
 8543 0983 24       		.uleb128 0x24
 8544 0984 0E040000 		.4byte	0x40e
 8545 0988 32010000 		.4byte	.LBB1066
 8546 098c 60010000 		.4byte	.Ldebug_ranges0+0x160
ARM GAS  /tmp/ccJJl1OT.s 			page 151


 8547 0990 01       		.byte	0x1
 8548 0991 6B       		.byte	0x6b
 8549 0992 4A0A0000 		.4byte	0xa4a
 8550 0996 25       		.uleb128 0x25
 8551 0997 29040000 		.4byte	0x429
 8552 099b C3030000 		.4byte	.LLST37
 8553 099f 25       		.uleb128 0x25
 8554 09a0 1E040000 		.4byte	0x41e
 8555 09a4 D8030000 		.4byte	.LLST38
 8556 09a8 26       		.uleb128 0x26
 8557 09a9 60010000 		.4byte	.Ldebug_ranges0+0x160
 8558 09ad 27       		.uleb128 0x27
 8559 09ae 34040000 		.4byte	0x434
 8560 09b2 27       		.uleb128 0x27
 8561 09b3 3E040000 		.4byte	0x43e
 8562 09b7 27       		.uleb128 0x27
 8563 09b8 48040000 		.4byte	0x448
 8564 09bc 24       		.uleb128 0x24
 8565 09bd A3030000 		.4byte	0x3a3
 8566 09c1 32010000 		.4byte	.LBB1068
 8567 09c5 80010000 		.4byte	.Ldebug_ranges0+0x180
 8568 09c9 02       		.byte	0x2
 8569 09ca 80       		.byte	0x80
 8570 09cb E3090000 		.4byte	0x9e3
 8571 09cf 29       		.uleb128 0x29
 8572 09d0 CA030000 		.4byte	0x3ca
 8573 09d4 29       		.uleb128 0x29
 8574 09d5 BF030000 		.4byte	0x3bf
 8575 09d9 25       		.uleb128 0x25
 8576 09da B4030000 		.4byte	0x3b4
 8577 09de EB030000 		.4byte	.LLST39
 8578 09e2 00       		.byte	0
 8579 09e3 28       		.uleb128 0x28
 8580 09e4 7D030000 		.4byte	0x37d
 8581 09e8 EE010000 		.4byte	.LBB1073
 8582 09ec A0010000 		.4byte	.Ldebug_ranges0+0x1a0
 8583 09f0 02       		.byte	0x2
 8584 09f1 80       		.byte	0x80
 8585 09f2 25       		.uleb128 0x25
 8586 09f3 98030000 		.4byte	0x398
 8587 09f7 0F040000 		.4byte	.LLST40
 8588 09fb 29       		.uleb128 0x29
 8589 09fc 8E030000 		.4byte	0x38e
 8590 0a00 2D       		.uleb128 0x2d
 8591 0a01 F9020000 		.4byte	0x2f9
 8592 0a05 EE010000 		.4byte	.LBB1074
 8593 0a09 A0010000 		.4byte	.Ldebug_ranges0+0x1a0
 8594 0a0d 03       		.byte	0x3
 8595 0a0e 8601     		.2byte	0x186
 8596 0a10 25       		.uleb128 0x25
 8597 0a11 14030000 		.4byte	0x314
 8598 0a15 0F040000 		.4byte	.LLST40
 8599 0a19 29       		.uleb128 0x29
 8600 0a1a 0A030000 		.4byte	0x30a
 8601 0a1e 2D       		.uleb128 0x2d
 8602 0a1f C8020000 		.4byte	0x2c8
 8603 0a23 EE010000 		.4byte	.LBB1075
ARM GAS  /tmp/ccJJl1OT.s 			page 152


 8604 0a27 A0010000 		.4byte	.Ldebug_ranges0+0x1a0
 8605 0a2b 03       		.byte	0x3
 8606 0a2c 4B01     		.2byte	0x14b
 8607 0a2e 29       		.uleb128 0x29
 8608 0a2f EA020000 		.4byte	0x2ea
 8609 0a33 25       		.uleb128 0x25
 8610 0a34 E1020000 		.4byte	0x2e1
 8611 0a38 0F040000 		.4byte	.LLST40
 8612 0a3c 25       		.uleb128 0x25
 8613 0a3d D8020000 		.4byte	0x2d8
 8614 0a41 27040000 		.4byte	.LLST43
 8615 0a45 00       		.byte	0
 8616 0a46 00       		.byte	0
 8617 0a47 00       		.byte	0
 8618 0a48 00       		.byte	0
 8619 0a49 00       		.byte	0
 8620 0a4a 24       		.uleb128 0x24
 8621 0a4b 0E040000 		.4byte	0x40e
 8622 0a4f 46010000 		.4byte	.LBB1085
 8623 0a53 B8010000 		.4byte	.Ldebug_ranges0+0x1b8
 8624 0a57 01       		.byte	0x1
 8625 0a58 6C       		.byte	0x6c
 8626 0a59 110B0000 		.4byte	0xb11
 8627 0a5d 25       		.uleb128 0x25
 8628 0a5e 29040000 		.4byte	0x429
 8629 0a62 5B040000 		.4byte	.LLST44
 8630 0a66 25       		.uleb128 0x25
 8631 0a67 1E040000 		.4byte	0x41e
 8632 0a6b 70040000 		.4byte	.LLST45
 8633 0a6f 26       		.uleb128 0x26
 8634 0a70 B8010000 		.4byte	.Ldebug_ranges0+0x1b8
 8635 0a74 27       		.uleb128 0x27
 8636 0a75 34040000 		.4byte	0x434
 8637 0a79 27       		.uleb128 0x27
 8638 0a7a 3E040000 		.4byte	0x43e
 8639 0a7e 27       		.uleb128 0x27
 8640 0a7f 48040000 		.4byte	0x448
 8641 0a83 24       		.uleb128 0x24
 8642 0a84 A3030000 		.4byte	0x3a3
 8643 0a88 46010000 		.4byte	.LBB1087
 8644 0a8c D8010000 		.4byte	.Ldebug_ranges0+0x1d8
 8645 0a90 02       		.byte	0x2
 8646 0a91 80       		.byte	0x80
 8647 0a92 AA0A0000 		.4byte	0xaaa
 8648 0a96 29       		.uleb128 0x29
 8649 0a97 CA030000 		.4byte	0x3ca
 8650 0a9b 29       		.uleb128 0x29
 8651 0a9c BF030000 		.4byte	0x3bf
 8652 0aa0 25       		.uleb128 0x25
 8653 0aa1 B4030000 		.4byte	0x3b4
 8654 0aa5 83040000 		.4byte	.LLST46
 8655 0aa9 00       		.byte	0
 8656 0aaa 28       		.uleb128 0x28
 8657 0aab 7D030000 		.4byte	0x37d
 8658 0aaf 38020000 		.4byte	.LBB1092
 8659 0ab3 F8010000 		.4byte	.Ldebug_ranges0+0x1f8
 8660 0ab7 02       		.byte	0x2
ARM GAS  /tmp/ccJJl1OT.s 			page 153


 8661 0ab8 80       		.byte	0x80
 8662 0ab9 25       		.uleb128 0x25
 8663 0aba 98030000 		.4byte	0x398
 8664 0abe A7040000 		.4byte	.LLST47
 8665 0ac2 29       		.uleb128 0x29
 8666 0ac3 8E030000 		.4byte	0x38e
 8667 0ac7 2D       		.uleb128 0x2d
 8668 0ac8 F9020000 		.4byte	0x2f9
 8669 0acc 38020000 		.4byte	.LBB1093
 8670 0ad0 F8010000 		.4byte	.Ldebug_ranges0+0x1f8
 8671 0ad4 03       		.byte	0x3
 8672 0ad5 8601     		.2byte	0x186
 8673 0ad7 25       		.uleb128 0x25
 8674 0ad8 14030000 		.4byte	0x314
 8675 0adc A7040000 		.4byte	.LLST47
 8676 0ae0 29       		.uleb128 0x29
 8677 0ae1 0A030000 		.4byte	0x30a
 8678 0ae5 2D       		.uleb128 0x2d
 8679 0ae6 C8020000 		.4byte	0x2c8
 8680 0aea 38020000 		.4byte	.LBB1094
 8681 0aee F8010000 		.4byte	.Ldebug_ranges0+0x1f8
 8682 0af2 03       		.byte	0x3
 8683 0af3 4B01     		.2byte	0x14b
 8684 0af5 29       		.uleb128 0x29
 8685 0af6 EA020000 		.4byte	0x2ea
 8686 0afa 25       		.uleb128 0x25
 8687 0afb E1020000 		.4byte	0x2e1
 8688 0aff A7040000 		.4byte	.LLST47
 8689 0b03 25       		.uleb128 0x25
 8690 0b04 D8020000 		.4byte	0x2d8
 8691 0b08 BF040000 		.4byte	.LLST50
 8692 0b0c 00       		.byte	0
 8693 0b0d 00       		.byte	0
 8694 0b0e 00       		.byte	0
 8695 0b0f 00       		.byte	0
 8696 0b10 00       		.byte	0
 8697 0b11 24       		.uleb128 0x24
 8698 0b12 0E040000 		.4byte	0x40e
 8699 0b16 4E010000 		.4byte	.LBB1104
 8700 0b1a 10020000 		.4byte	.Ldebug_ranges0+0x210
 8701 0b1e 01       		.byte	0x1
 8702 0b1f 6D       		.byte	0x6d
 8703 0b20 D80B0000 		.4byte	0xbd8
 8704 0b24 25       		.uleb128 0x25
 8705 0b25 29040000 		.4byte	0x429
 8706 0b29 F3040000 		.4byte	.LLST51
 8707 0b2d 25       		.uleb128 0x25
 8708 0b2e 1E040000 		.4byte	0x41e
 8709 0b32 08050000 		.4byte	.LLST52
 8710 0b36 26       		.uleb128 0x26
 8711 0b37 10020000 		.4byte	.Ldebug_ranges0+0x210
 8712 0b3b 27       		.uleb128 0x27
 8713 0b3c 34040000 		.4byte	0x434
 8714 0b40 27       		.uleb128 0x27
 8715 0b41 3E040000 		.4byte	0x43e
 8716 0b45 27       		.uleb128 0x27
 8717 0b46 48040000 		.4byte	0x448
ARM GAS  /tmp/ccJJl1OT.s 			page 154


 8718 0b4a 24       		.uleb128 0x24
 8719 0b4b A3030000 		.4byte	0x3a3
 8720 0b4f 4E010000 		.4byte	.LBB1106
 8721 0b53 28020000 		.4byte	.Ldebug_ranges0+0x228
 8722 0b57 02       		.byte	0x2
 8723 0b58 80       		.byte	0x80
 8724 0b59 710B0000 		.4byte	0xb71
 8725 0b5d 29       		.uleb128 0x29
 8726 0b5e CA030000 		.4byte	0x3ca
 8727 0b62 29       		.uleb128 0x29
 8728 0b63 BF030000 		.4byte	0x3bf
 8729 0b67 25       		.uleb128 0x25
 8730 0b68 B4030000 		.4byte	0x3b4
 8731 0b6c 1B050000 		.4byte	.LLST53
 8732 0b70 00       		.byte	0
 8733 0b71 28       		.uleb128 0x28
 8734 0b72 7D030000 		.4byte	0x37d
 8735 0b76 86020000 		.4byte	.LBB1111
 8736 0b7a 48020000 		.4byte	.Ldebug_ranges0+0x248
 8737 0b7e 02       		.byte	0x2
 8738 0b7f 80       		.byte	0x80
 8739 0b80 25       		.uleb128 0x25
 8740 0b81 98030000 		.4byte	0x398
 8741 0b85 3F050000 		.4byte	.LLST54
 8742 0b89 29       		.uleb128 0x29
 8743 0b8a 8E030000 		.4byte	0x38e
 8744 0b8e 2D       		.uleb128 0x2d
 8745 0b8f F9020000 		.4byte	0x2f9
 8746 0b93 86020000 		.4byte	.LBB1112
 8747 0b97 48020000 		.4byte	.Ldebug_ranges0+0x248
 8748 0b9b 03       		.byte	0x3
 8749 0b9c 8601     		.2byte	0x186
 8750 0b9e 25       		.uleb128 0x25
 8751 0b9f 14030000 		.4byte	0x314
 8752 0ba3 3F050000 		.4byte	.LLST54
 8753 0ba7 29       		.uleb128 0x29
 8754 0ba8 0A030000 		.4byte	0x30a
 8755 0bac 2D       		.uleb128 0x2d
 8756 0bad C8020000 		.4byte	0x2c8
 8757 0bb1 86020000 		.4byte	.LBB1113
 8758 0bb5 48020000 		.4byte	.Ldebug_ranges0+0x248
 8759 0bb9 03       		.byte	0x3
 8760 0bba 4B01     		.2byte	0x14b
 8761 0bbc 29       		.uleb128 0x29
 8762 0bbd EA020000 		.4byte	0x2ea
 8763 0bc1 25       		.uleb128 0x25
 8764 0bc2 E1020000 		.4byte	0x2e1
 8765 0bc6 3F050000 		.4byte	.LLST54
 8766 0bca 25       		.uleb128 0x25
 8767 0bcb D8020000 		.4byte	0x2d8
 8768 0bcf 57050000 		.4byte	.LLST57
 8769 0bd3 00       		.byte	0
 8770 0bd4 00       		.byte	0
 8771 0bd5 00       		.byte	0
 8772 0bd6 00       		.byte	0
 8773 0bd7 00       		.byte	0
 8774 0bd8 24       		.uleb128 0x24
ARM GAS  /tmp/ccJJl1OT.s 			page 155


 8775 0bd9 0E040000 		.4byte	0x40e
 8776 0bdd A8020000 		.4byte	.LBB1131
 8777 0be1 60020000 		.4byte	.Ldebug_ranges0+0x260
 8778 0be5 01       		.byte	0x1
 8779 0be6 6E       		.byte	0x6e
 8780 0be7 9F0C0000 		.4byte	0xc9f
 8781 0beb 25       		.uleb128 0x25
 8782 0bec 29040000 		.4byte	0x429
 8783 0bf0 75050000 		.4byte	.LLST58
 8784 0bf4 25       		.uleb128 0x25
 8785 0bf5 1E040000 		.4byte	0x41e
 8786 0bf9 8A050000 		.4byte	.LLST59
 8787 0bfd 26       		.uleb128 0x26
 8788 0bfe 60020000 		.4byte	.Ldebug_ranges0+0x260
 8789 0c02 27       		.uleb128 0x27
 8790 0c03 34040000 		.4byte	0x434
 8791 0c07 27       		.uleb128 0x27
 8792 0c08 3E040000 		.4byte	0x43e
 8793 0c0c 27       		.uleb128 0x27
 8794 0c0d 48040000 		.4byte	0x448
 8795 0c11 24       		.uleb128 0x24
 8796 0c12 A3030000 		.4byte	0x3a3
 8797 0c16 A8020000 		.4byte	.LBB1133
 8798 0c1a 78020000 		.4byte	.Ldebug_ranges0+0x278
 8799 0c1e 02       		.byte	0x2
 8800 0c1f 80       		.byte	0x80
 8801 0c20 380C0000 		.4byte	0xc38
 8802 0c24 29       		.uleb128 0x29
 8803 0c25 CA030000 		.4byte	0x3ca
 8804 0c29 29       		.uleb128 0x29
 8805 0c2a BF030000 		.4byte	0x3bf
 8806 0c2e 25       		.uleb128 0x25
 8807 0c2f B4030000 		.4byte	0x3b4
 8808 0c33 9D050000 		.4byte	.LLST60
 8809 0c37 00       		.byte	0
 8810 0c38 28       		.uleb128 0x28
 8811 0c39 7D030000 		.4byte	0x37d
 8812 0c3d C4020000 		.4byte	.LBB1138
 8813 0c41 98020000 		.4byte	.Ldebug_ranges0+0x298
 8814 0c45 02       		.byte	0x2
 8815 0c46 80       		.byte	0x80
 8816 0c47 25       		.uleb128 0x25
 8817 0c48 98030000 		.4byte	0x398
 8818 0c4c C1050000 		.4byte	.LLST61
 8819 0c50 29       		.uleb128 0x29
 8820 0c51 8E030000 		.4byte	0x38e
 8821 0c55 2D       		.uleb128 0x2d
 8822 0c56 F9020000 		.4byte	0x2f9
 8823 0c5a C4020000 		.4byte	.LBB1139
 8824 0c5e 98020000 		.4byte	.Ldebug_ranges0+0x298
 8825 0c62 03       		.byte	0x3
 8826 0c63 8601     		.2byte	0x186
 8827 0c65 25       		.uleb128 0x25
 8828 0c66 14030000 		.4byte	0x314
 8829 0c6a C1050000 		.4byte	.LLST61
 8830 0c6e 29       		.uleb128 0x29
 8831 0c6f 0A030000 		.4byte	0x30a
ARM GAS  /tmp/ccJJl1OT.s 			page 156


 8832 0c73 2D       		.uleb128 0x2d
 8833 0c74 C8020000 		.4byte	0x2c8
 8834 0c78 C4020000 		.4byte	.LBB1140
 8835 0c7c 98020000 		.4byte	.Ldebug_ranges0+0x298
 8836 0c80 03       		.byte	0x3
 8837 0c81 4B01     		.2byte	0x14b
 8838 0c83 29       		.uleb128 0x29
 8839 0c84 EA020000 		.4byte	0x2ea
 8840 0c88 25       		.uleb128 0x25
 8841 0c89 E1020000 		.4byte	0x2e1
 8842 0c8d C1050000 		.4byte	.LLST61
 8843 0c91 25       		.uleb128 0x25
 8844 0c92 D8020000 		.4byte	0x2d8
 8845 0c96 D9050000 		.4byte	.LLST64
 8846 0c9a 00       		.byte	0
 8847 0c9b 00       		.byte	0
 8848 0c9c 00       		.byte	0
 8849 0c9d 00       		.byte	0
 8850 0c9e 00       		.byte	0
 8851 0c9f 24       		.uleb128 0x24
 8852 0ca0 0E040000 		.4byte	0x40e
 8853 0ca4 E6020000 		.4byte	.LBB1149
 8854 0ca8 B0020000 		.4byte	.Ldebug_ranges0+0x2b0
 8855 0cac 01       		.byte	0x1
 8856 0cad 6F       		.byte	0x6f
 8857 0cae 660D0000 		.4byte	0xd66
 8858 0cb2 25       		.uleb128 0x25
 8859 0cb3 29040000 		.4byte	0x429
 8860 0cb7 F7050000 		.4byte	.LLST65
 8861 0cbb 25       		.uleb128 0x25
 8862 0cbc 1E040000 		.4byte	0x41e
 8863 0cc0 0C060000 		.4byte	.LLST66
 8864 0cc4 26       		.uleb128 0x26
 8865 0cc5 B0020000 		.4byte	.Ldebug_ranges0+0x2b0
 8866 0cc9 27       		.uleb128 0x27
 8867 0cca 34040000 		.4byte	0x434
 8868 0cce 27       		.uleb128 0x27
 8869 0ccf 3E040000 		.4byte	0x43e
 8870 0cd3 27       		.uleb128 0x27
 8871 0cd4 48040000 		.4byte	0x448
 8872 0cd8 24       		.uleb128 0x24
 8873 0cd9 A3030000 		.4byte	0x3a3
 8874 0cdd E6020000 		.4byte	.LBB1151
 8875 0ce1 C8020000 		.4byte	.Ldebug_ranges0+0x2c8
 8876 0ce5 02       		.byte	0x2
 8877 0ce6 80       		.byte	0x80
 8878 0ce7 FF0C0000 		.4byte	0xcff
 8879 0ceb 29       		.uleb128 0x29
 8880 0cec CA030000 		.4byte	0x3ca
 8881 0cf0 29       		.uleb128 0x29
 8882 0cf1 BF030000 		.4byte	0x3bf
 8883 0cf5 25       		.uleb128 0x25
 8884 0cf6 B4030000 		.4byte	0x3b4
 8885 0cfa 1F060000 		.4byte	.LLST67
 8886 0cfe 00       		.byte	0
 8887 0cff 28       		.uleb128 0x28
 8888 0d00 7D030000 		.4byte	0x37d
ARM GAS  /tmp/ccJJl1OT.s 			page 157


 8889 0d04 02030000 		.4byte	.LBB1156
 8890 0d08 E8020000 		.4byte	.Ldebug_ranges0+0x2e8
 8891 0d0c 02       		.byte	0x2
 8892 0d0d 80       		.byte	0x80
 8893 0d0e 25       		.uleb128 0x25
 8894 0d0f 98030000 		.4byte	0x398
 8895 0d13 43060000 		.4byte	.LLST68
 8896 0d17 29       		.uleb128 0x29
 8897 0d18 8E030000 		.4byte	0x38e
 8898 0d1c 2D       		.uleb128 0x2d
 8899 0d1d F9020000 		.4byte	0x2f9
 8900 0d21 02030000 		.4byte	.LBB1157
 8901 0d25 E8020000 		.4byte	.Ldebug_ranges0+0x2e8
 8902 0d29 03       		.byte	0x3
 8903 0d2a 8601     		.2byte	0x186
 8904 0d2c 25       		.uleb128 0x25
 8905 0d2d 14030000 		.4byte	0x314
 8906 0d31 43060000 		.4byte	.LLST68
 8907 0d35 29       		.uleb128 0x29
 8908 0d36 0A030000 		.4byte	0x30a
 8909 0d3a 2D       		.uleb128 0x2d
 8910 0d3b C8020000 		.4byte	0x2c8
 8911 0d3f 02030000 		.4byte	.LBB1158
 8912 0d43 E8020000 		.4byte	.Ldebug_ranges0+0x2e8
 8913 0d47 03       		.byte	0x3
 8914 0d48 4B01     		.2byte	0x14b
 8915 0d4a 29       		.uleb128 0x29
 8916 0d4b EA020000 		.4byte	0x2ea
 8917 0d4f 25       		.uleb128 0x25
 8918 0d50 E1020000 		.4byte	0x2e1
 8919 0d54 43060000 		.4byte	.LLST68
 8920 0d58 25       		.uleb128 0x25
 8921 0d59 D8020000 		.4byte	0x2d8
 8922 0d5d 5B060000 		.4byte	.LLST71
 8923 0d61 00       		.byte	0
 8924 0d62 00       		.byte	0
 8925 0d63 00       		.byte	0
 8926 0d64 00       		.byte	0
 8927 0d65 00       		.byte	0
 8928 0d66 24       		.uleb128 0x24
 8929 0d67 0E040000 		.4byte	0x40e
 8930 0d6b 24030000 		.4byte	.LBB1167
 8931 0d6f 00030000 		.4byte	.Ldebug_ranges0+0x300
 8932 0d73 01       		.byte	0x1
 8933 0d74 70       		.byte	0x70
 8934 0d75 2D0E0000 		.4byte	0xe2d
 8935 0d79 25       		.uleb128 0x25
 8936 0d7a 29040000 		.4byte	0x429
 8937 0d7e 79060000 		.4byte	.LLST72
 8938 0d82 25       		.uleb128 0x25
 8939 0d83 1E040000 		.4byte	0x41e
 8940 0d87 8E060000 		.4byte	.LLST73
 8941 0d8b 26       		.uleb128 0x26
 8942 0d8c 00030000 		.4byte	.Ldebug_ranges0+0x300
 8943 0d90 27       		.uleb128 0x27
 8944 0d91 34040000 		.4byte	0x434
 8945 0d95 27       		.uleb128 0x27
ARM GAS  /tmp/ccJJl1OT.s 			page 158


 8946 0d96 3E040000 		.4byte	0x43e
 8947 0d9a 27       		.uleb128 0x27
 8948 0d9b 48040000 		.4byte	0x448
 8949 0d9f 24       		.uleb128 0x24
 8950 0da0 A3030000 		.4byte	0x3a3
 8951 0da4 24030000 		.4byte	.LBB1169
 8952 0da8 18030000 		.4byte	.Ldebug_ranges0+0x318
 8953 0dac 02       		.byte	0x2
 8954 0dad 80       		.byte	0x80
 8955 0dae C60D0000 		.4byte	0xdc6
 8956 0db2 29       		.uleb128 0x29
 8957 0db3 CA030000 		.4byte	0x3ca
 8958 0db7 29       		.uleb128 0x29
 8959 0db8 BF030000 		.4byte	0x3bf
 8960 0dbc 25       		.uleb128 0x25
 8961 0dbd B4030000 		.4byte	0x3b4
 8962 0dc1 A1060000 		.4byte	.LLST74
 8963 0dc5 00       		.byte	0
 8964 0dc6 28       		.uleb128 0x28
 8965 0dc7 7D030000 		.4byte	0x37d
 8966 0dcb 40030000 		.4byte	.LBB1174
 8967 0dcf 38030000 		.4byte	.Ldebug_ranges0+0x338
 8968 0dd3 02       		.byte	0x2
 8969 0dd4 80       		.byte	0x80
 8970 0dd5 25       		.uleb128 0x25
 8971 0dd6 98030000 		.4byte	0x398
 8972 0dda C5060000 		.4byte	.LLST75
 8973 0dde 29       		.uleb128 0x29
 8974 0ddf 8E030000 		.4byte	0x38e
 8975 0de3 2D       		.uleb128 0x2d
 8976 0de4 F9020000 		.4byte	0x2f9
 8977 0de8 40030000 		.4byte	.LBB1175
 8978 0dec 38030000 		.4byte	.Ldebug_ranges0+0x338
 8979 0df0 03       		.byte	0x3
 8980 0df1 8601     		.2byte	0x186
 8981 0df3 25       		.uleb128 0x25
 8982 0df4 14030000 		.4byte	0x314
 8983 0df8 C5060000 		.4byte	.LLST75
 8984 0dfc 29       		.uleb128 0x29
 8985 0dfd 0A030000 		.4byte	0x30a
 8986 0e01 2D       		.uleb128 0x2d
 8987 0e02 C8020000 		.4byte	0x2c8
 8988 0e06 40030000 		.4byte	.LBB1176
 8989 0e0a 38030000 		.4byte	.Ldebug_ranges0+0x338
 8990 0e0e 03       		.byte	0x3
 8991 0e0f 4B01     		.2byte	0x14b
 8992 0e11 29       		.uleb128 0x29
 8993 0e12 EA020000 		.4byte	0x2ea
 8994 0e16 25       		.uleb128 0x25
 8995 0e17 E1020000 		.4byte	0x2e1
 8996 0e1b C5060000 		.4byte	.LLST75
 8997 0e1f 25       		.uleb128 0x25
 8998 0e20 D8020000 		.4byte	0x2d8
 8999 0e24 DD060000 		.4byte	.LLST78
 9000 0e28 00       		.byte	0
 9001 0e29 00       		.byte	0
 9002 0e2a 00       		.byte	0
ARM GAS  /tmp/ccJJl1OT.s 			page 159


 9003 0e2b 00       		.byte	0
 9004 0e2c 00       		.byte	0
 9005 0e2d 24       		.uleb128 0x24
 9006 0e2e 0E040000 		.4byte	0x40e
 9007 0e32 62030000 		.4byte	.LBB1185
 9008 0e36 50030000 		.4byte	.Ldebug_ranges0+0x350
 9009 0e3a 01       		.byte	0x1
 9010 0e3b 71       		.byte	0x71
 9011 0e3c F40E0000 		.4byte	0xef4
 9012 0e40 25       		.uleb128 0x25
 9013 0e41 29040000 		.4byte	0x429
 9014 0e45 FB060000 		.4byte	.LLST79
 9015 0e49 25       		.uleb128 0x25
 9016 0e4a 1E040000 		.4byte	0x41e
 9017 0e4e 10070000 		.4byte	.LLST80
 9018 0e52 26       		.uleb128 0x26
 9019 0e53 50030000 		.4byte	.Ldebug_ranges0+0x350
 9020 0e57 27       		.uleb128 0x27
 9021 0e58 34040000 		.4byte	0x434
 9022 0e5c 27       		.uleb128 0x27
 9023 0e5d 3E040000 		.4byte	0x43e
 9024 0e61 27       		.uleb128 0x27
 9025 0e62 48040000 		.4byte	0x448
 9026 0e66 24       		.uleb128 0x24
 9027 0e67 A3030000 		.4byte	0x3a3
 9028 0e6b 62030000 		.4byte	.LBB1187
 9029 0e6f 70030000 		.4byte	.Ldebug_ranges0+0x370
 9030 0e73 02       		.byte	0x2
 9031 0e74 80       		.byte	0x80
 9032 0e75 8D0E0000 		.4byte	0xe8d
 9033 0e79 29       		.uleb128 0x29
 9034 0e7a CA030000 		.4byte	0x3ca
 9035 0e7e 29       		.uleb128 0x29
 9036 0e7f BF030000 		.4byte	0x3bf
 9037 0e83 25       		.uleb128 0x25
 9038 0e84 B4030000 		.4byte	0x3b4
 9039 0e88 23070000 		.4byte	.LLST81
 9040 0e8c 00       		.byte	0
 9041 0e8d 28       		.uleb128 0x28
 9042 0e8e 7D030000 		.4byte	0x37d
 9043 0e92 82030000 		.4byte	.LBB1194
 9044 0e96 98030000 		.4byte	.Ldebug_ranges0+0x398
 9045 0e9a 02       		.byte	0x2
 9046 0e9b 80       		.byte	0x80
 9047 0e9c 25       		.uleb128 0x25
 9048 0e9d 98030000 		.4byte	0x398
 9049 0ea1 66070000 		.4byte	.LLST82
 9050 0ea5 29       		.uleb128 0x29
 9051 0ea6 8E030000 		.4byte	0x38e
 9052 0eaa 2D       		.uleb128 0x2d
 9053 0eab F9020000 		.4byte	0x2f9
 9054 0eaf 82030000 		.4byte	.LBB1195
 9055 0eb3 98030000 		.4byte	.Ldebug_ranges0+0x398
 9056 0eb7 03       		.byte	0x3
 9057 0eb8 8601     		.2byte	0x186
 9058 0eba 25       		.uleb128 0x25
 9059 0ebb 14030000 		.4byte	0x314
ARM GAS  /tmp/ccJJl1OT.s 			page 160


 9060 0ebf 66070000 		.4byte	.LLST82
 9061 0ec3 29       		.uleb128 0x29
 9062 0ec4 0A030000 		.4byte	0x30a
 9063 0ec8 2D       		.uleb128 0x2d
 9064 0ec9 C8020000 		.4byte	0x2c8
 9065 0ecd 82030000 		.4byte	.LBB1196
 9066 0ed1 98030000 		.4byte	.Ldebug_ranges0+0x398
 9067 0ed5 03       		.byte	0x3
 9068 0ed6 4B01     		.2byte	0x14b
 9069 0ed8 29       		.uleb128 0x29
 9070 0ed9 EA020000 		.4byte	0x2ea
 9071 0edd 25       		.uleb128 0x25
 9072 0ede E1020000 		.4byte	0x2e1
 9073 0ee2 66070000 		.4byte	.LLST82
 9074 0ee6 25       		.uleb128 0x25
 9075 0ee7 D8020000 		.4byte	0x2d8
 9076 0eeb 7E070000 		.4byte	.LLST85
 9077 0eef 00       		.byte	0
 9078 0ef0 00       		.byte	0
 9079 0ef1 00       		.byte	0
 9080 0ef2 00       		.byte	0
 9081 0ef3 00       		.byte	0
 9082 0ef4 2A       		.uleb128 0x2a
 9083 0ef5 0E040000 		.4byte	0x40e
 9084 0ef9 B0030000 		.4byte	.LBB1207
 9085 0efd 1E000000 		.4byte	.LBE1207-.LBB1207
 9086 0f01 01       		.byte	0x1
 9087 0f02 72       		.byte	0x72
 9088 0f03 BF0F0000 		.4byte	0xfbf
 9089 0f07 25       		.uleb128 0x25
 9090 0f08 29040000 		.4byte	0x429
 9091 0f0c 9C070000 		.4byte	.LLST86
 9092 0f10 25       		.uleb128 0x25
 9093 0f11 1E040000 		.4byte	0x41e
 9094 0f15 B1070000 		.4byte	.LLST87
 9095 0f19 1D       		.uleb128 0x1d
 9096 0f1a B0030000 		.4byte	.LBB1208
 9097 0f1e 1E000000 		.4byte	.LBE1208-.LBB1208
 9098 0f22 27       		.uleb128 0x27
 9099 0f23 34040000 		.4byte	0x434
 9100 0f27 27       		.uleb128 0x27
 9101 0f28 3E040000 		.4byte	0x43e
 9102 0f2c 27       		.uleb128 0x27
 9103 0f2d 48040000 		.4byte	0x448
 9104 0f31 2A       		.uleb128 0x2a
 9105 0f32 A3030000 		.4byte	0x3a3
 9106 0f36 B0030000 		.4byte	.LBB1209
 9107 0f3a 0C000000 		.4byte	.LBE1209-.LBB1209
 9108 0f3e 02       		.byte	0x2
 9109 0f3f 80       		.byte	0x80
 9110 0f40 580F0000 		.4byte	0xf58
 9111 0f44 29       		.uleb128 0x29
 9112 0f45 CA030000 		.4byte	0x3ca
 9113 0f49 29       		.uleb128 0x29
 9114 0f4a BF030000 		.4byte	0x3bf
 9115 0f4e 25       		.uleb128 0x25
 9116 0f4f B4030000 		.4byte	0x3b4
ARM GAS  /tmp/ccJJl1OT.s 			page 161


 9117 0f53 C4070000 		.4byte	.LLST88
 9118 0f57 00       		.byte	0
 9119 0f58 2B       		.uleb128 0x2b
 9120 0f59 7D030000 		.4byte	0x37d
 9121 0f5d BC030000 		.4byte	.LBB1211
 9122 0f61 0E000000 		.4byte	.LBE1211-.LBB1211
 9123 0f65 02       		.byte	0x2
 9124 0f66 80       		.byte	0x80
 9125 0f67 25       		.uleb128 0x25
 9126 0f68 98030000 		.4byte	0x398
 9127 0f6c E8070000 		.4byte	.LLST89
 9128 0f70 29       		.uleb128 0x29
 9129 0f71 8E030000 		.4byte	0x38e
 9130 0f75 2C       		.uleb128 0x2c
 9131 0f76 F9020000 		.4byte	0x2f9
 9132 0f7a BC030000 		.4byte	.LBB1212
 9133 0f7e 0E000000 		.4byte	.LBE1212-.LBB1212
 9134 0f82 03       		.byte	0x3
 9135 0f83 8601     		.2byte	0x186
 9136 0f85 25       		.uleb128 0x25
 9137 0f86 14030000 		.4byte	0x314
 9138 0f8a E8070000 		.4byte	.LLST89
 9139 0f8e 29       		.uleb128 0x29
 9140 0f8f 0A030000 		.4byte	0x30a
 9141 0f93 2C       		.uleb128 0x2c
 9142 0f94 C8020000 		.4byte	0x2c8
 9143 0f98 BC030000 		.4byte	.LBB1213
 9144 0f9c 0E000000 		.4byte	.LBE1213-.LBB1213
 9145 0fa0 03       		.byte	0x3
 9146 0fa1 4B01     		.2byte	0x14b
 9147 0fa3 29       		.uleb128 0x29
 9148 0fa4 EA020000 		.4byte	0x2ea
 9149 0fa8 25       		.uleb128 0x25
 9150 0fa9 E1020000 		.4byte	0x2e1
 9151 0fad E8070000 		.4byte	.LLST89
 9152 0fb1 25       		.uleb128 0x25
 9153 0fb2 D8020000 		.4byte	0x2d8
 9154 0fb6 00080000 		.4byte	.LLST92
 9155 0fba 00       		.byte	0
 9156 0fbb 00       		.byte	0
 9157 0fbc 00       		.byte	0
 9158 0fbd 00       		.byte	0
 9159 0fbe 00       		.byte	0
 9160 0fbf 24       		.uleb128 0x24
 9161 0fc0 0E040000 		.4byte	0x40e
 9162 0fc4 CE030000 		.4byte	.LBB1215
 9163 0fc8 B0030000 		.4byte	.Ldebug_ranges0+0x3b0
 9164 0fcc 01       		.byte	0x1
 9165 0fcd 73       		.byte	0x73
 9166 0fce E8100000 		.4byte	0x10e8
 9167 0fd2 25       		.uleb128 0x25
 9168 0fd3 29040000 		.4byte	0x429
 9169 0fd7 1E080000 		.4byte	.LLST93
 9170 0fdb 29       		.uleb128 0x29
 9171 0fdc 1E040000 		.4byte	0x41e
 9172 0fe0 26       		.uleb128 0x26
 9173 0fe1 B0030000 		.4byte	.Ldebug_ranges0+0x3b0
ARM GAS  /tmp/ccJJl1OT.s 			page 162


 9174 0fe5 27       		.uleb128 0x27
 9175 0fe6 34040000 		.4byte	0x434
 9176 0fea 27       		.uleb128 0x27
 9177 0feb 3E040000 		.4byte	0x43e
 9178 0fef 27       		.uleb128 0x27
 9179 0ff0 48040000 		.4byte	0x448
 9180 0ff4 24       		.uleb128 0x24
 9181 0ff5 D6030000 		.4byte	0x3d6
 9182 0ff9 CE030000 		.4byte	.LBB1217
 9183 0ffd D8030000 		.4byte	.Ldebug_ranges0+0x3d8
 9184 1001 02       		.byte	0x2
 9185 1002 7D       		.byte	0x7d
 9186 1003 27100000 		.4byte	0x1027
 9187 1007 29       		.uleb128 0x29
 9188 1008 E6030000 		.4byte	0x3e6
 9189 100c 28       		.uleb128 0x28
 9190 100d 55030000 		.4byte	0x355
 9191 1011 CE030000 		.4byte	.LBB1219
 9192 1015 00040000 		.4byte	.Ldebug_ranges0+0x400
 9193 1019 02       		.byte	0x2
 9194 101a 73       		.byte	0x73
 9195 101b 29       		.uleb128 0x29
 9196 101c 6E030000 		.4byte	0x36e
 9197 1020 29       		.uleb128 0x29
 9198 1021 65030000 		.4byte	0x365
 9199 1025 00       		.byte	0
 9200 1026 00       		.byte	0
 9201 1027 24       		.uleb128 0x24
 9202 1028 D6030000 		.4byte	0x3d6
 9203 102c E8030000 		.4byte	.LBB1227
 9204 1030 18040000 		.4byte	.Ldebug_ranges0+0x418
 9205 1034 02       		.byte	0x2
 9206 1035 7E       		.byte	0x7e
 9207 1036 5A100000 		.4byte	0x105a
 9208 103a 29       		.uleb128 0x29
 9209 103b E6030000 		.4byte	0x3e6
 9210 103f 2B       		.uleb128 0x2b
 9211 1040 55030000 		.4byte	0x355
 9212 1044 E8030000 		.4byte	.LBB1229
 9213 1048 06000000 		.4byte	.LBE1229-.LBB1229
 9214 104c 02       		.byte	0x2
 9215 104d 73       		.byte	0x73
 9216 104e 29       		.uleb128 0x29
 9217 104f 6E030000 		.4byte	0x36e
 9218 1053 29       		.uleb128 0x29
 9219 1054 65030000 		.4byte	0x365
 9220 1058 00       		.byte	0
 9221 1059 00       		.byte	0
 9222 105a 2A       		.uleb128 0x2a
 9223 105b A3030000 		.4byte	0x3a3
 9224 105f FE030000 		.4byte	.LBB1235
 9225 1063 18000000 		.4byte	.LBE1235-.LBB1235
 9226 1067 02       		.byte	0x2
 9227 1068 80       		.byte	0x80
 9228 1069 81100000 		.4byte	0x1081
 9229 106d 29       		.uleb128 0x29
 9230 106e CA030000 		.4byte	0x3ca
ARM GAS  /tmp/ccJJl1OT.s 			page 163


 9231 1072 29       		.uleb128 0x29
 9232 1073 BF030000 		.4byte	0x3bf
 9233 1077 25       		.uleb128 0x25
 9234 1078 B4030000 		.4byte	0x3b4
 9235 107c 33080000 		.4byte	.LLST94
 9236 1080 00       		.byte	0
 9237 1081 2B       		.uleb128 0x2b
 9238 1082 7D030000 		.4byte	0x37d
 9239 1086 16040000 		.4byte	.LBB1237
 9240 108a 0E000000 		.4byte	.LBE1237-.LBB1237
 9241 108e 02       		.byte	0x2
 9242 108f 80       		.byte	0x80
 9243 1090 25       		.uleb128 0x25
 9244 1091 98030000 		.4byte	0x398
 9245 1095 57080000 		.4byte	.LLST95
 9246 1099 29       		.uleb128 0x29
 9247 109a 8E030000 		.4byte	0x38e
 9248 109e 2C       		.uleb128 0x2c
 9249 109f F9020000 		.4byte	0x2f9
 9250 10a3 16040000 		.4byte	.LBB1238
 9251 10a7 0E000000 		.4byte	.LBE1238-.LBB1238
 9252 10ab 03       		.byte	0x3
 9253 10ac 8601     		.2byte	0x186
 9254 10ae 25       		.uleb128 0x25
 9255 10af 14030000 		.4byte	0x314
 9256 10b3 57080000 		.4byte	.LLST95
 9257 10b7 29       		.uleb128 0x29
 9258 10b8 0A030000 		.4byte	0x30a
 9259 10bc 2C       		.uleb128 0x2c
 9260 10bd C8020000 		.4byte	0x2c8
 9261 10c1 16040000 		.4byte	.LBB1239
 9262 10c5 0E000000 		.4byte	.LBE1239-.LBB1239
 9263 10c9 03       		.byte	0x3
 9264 10ca 4B01     		.2byte	0x14b
 9265 10cc 29       		.uleb128 0x29
 9266 10cd EA020000 		.4byte	0x2ea
 9267 10d1 25       		.uleb128 0x25
 9268 10d2 E1020000 		.4byte	0x2e1
 9269 10d6 57080000 		.4byte	.LLST95
 9270 10da 25       		.uleb128 0x25
 9271 10db D8020000 		.4byte	0x2d8
 9272 10df 6F080000 		.4byte	.LLST98
 9273 10e3 00       		.byte	0
 9274 10e4 00       		.byte	0
 9275 10e5 00       		.byte	0
 9276 10e6 00       		.byte	0
 9277 10e7 00       		.byte	0
 9278 10e8 24       		.uleb128 0x24
 9279 10e9 0E040000 		.4byte	0x40e
 9280 10ed 64040000 		.4byte	.LBB1247
 9281 10f1 30040000 		.4byte	.Ldebug_ranges0+0x430
 9282 10f5 01       		.byte	0x1
 9283 10f6 76       		.byte	0x76
 9284 10f7 2D120000 		.4byte	0x122d
 9285 10fb 25       		.uleb128 0x25
 9286 10fc 29040000 		.4byte	0x429
 9287 1100 8D080000 		.4byte	.LLST99
ARM GAS  /tmp/ccJJl1OT.s 			page 164


 9288 1104 25       		.uleb128 0x25
 9289 1105 1E040000 		.4byte	0x41e
 9290 1109 B9080000 		.4byte	.LLST100
 9291 110d 26       		.uleb128 0x26
 9292 110e 30040000 		.4byte	.Ldebug_ranges0+0x430
 9293 1112 27       		.uleb128 0x27
 9294 1113 34040000 		.4byte	0x434
 9295 1117 27       		.uleb128 0x27
 9296 1118 3E040000 		.4byte	0x43e
 9297 111c 27       		.uleb128 0x27
 9298 111d 48040000 		.4byte	0x448
 9299 1121 24       		.uleb128 0x24
 9300 1122 D6030000 		.4byte	0x3d6
 9301 1126 64040000 		.4byte	.LBB1249
 9302 112a 60040000 		.4byte	.Ldebug_ranges0+0x460
 9303 112e 02       		.byte	0x2
 9304 112f 7D       		.byte	0x7d
 9305 1130 60110000 		.4byte	0x1160
 9306 1134 25       		.uleb128 0x25
 9307 1135 E6030000 		.4byte	0x3e6
 9308 1139 CC080000 		.4byte	.LLST101
 9309 113d 28       		.uleb128 0x28
 9310 113e 55030000 		.4byte	0x355
 9311 1142 90040000 		.4byte	.LBB1251
 9312 1146 88040000 		.4byte	.Ldebug_ranges0+0x488
 9313 114a 02       		.byte	0x2
 9314 114b 73       		.byte	0x73
 9315 114c 25       		.uleb128 0x25
 9316 114d 6E030000 		.4byte	0x36e
 9317 1151 DF080000 		.4byte	.LLST102
 9318 1155 25       		.uleb128 0x25
 9319 1156 65030000 		.4byte	0x365
 9320 115a F4080000 		.4byte	.LLST103
 9321 115e 00       		.byte	0
 9322 115f 00       		.byte	0
 9323 1160 24       		.uleb128 0x24
 9324 1161 7D030000 		.4byte	0x37d
 9325 1165 9A040000 		.4byte	.LBB1259
 9326 1169 A0040000 		.4byte	.Ldebug_ranges0+0x4a0
 9327 116d 02       		.byte	0x2
 9328 116e 80       		.byte	0x80
 9329 116f C9110000 		.4byte	0x11c9
 9330 1173 25       		.uleb128 0x25
 9331 1174 98030000 		.4byte	0x398
 9332 1178 07090000 		.4byte	.LLST104
 9333 117c 29       		.uleb128 0x29
 9334 117d 8E030000 		.4byte	0x38e
 9335 1181 2D       		.uleb128 0x2d
 9336 1182 F9020000 		.4byte	0x2f9
 9337 1186 9A040000 		.4byte	.LBB1260
 9338 118a A0040000 		.4byte	.Ldebug_ranges0+0x4a0
 9339 118e 03       		.byte	0x3
 9340 118f 8601     		.2byte	0x186
 9341 1191 25       		.uleb128 0x25
 9342 1192 14030000 		.4byte	0x314
 9343 1196 07090000 		.4byte	.LLST104
 9344 119a 29       		.uleb128 0x29
ARM GAS  /tmp/ccJJl1OT.s 			page 165


 9345 119b 0A030000 		.4byte	0x30a
 9346 119f 2D       		.uleb128 0x2d
 9347 11a0 C8020000 		.4byte	0x2c8
 9348 11a4 9A040000 		.4byte	.LBB1261
 9349 11a8 A0040000 		.4byte	.Ldebug_ranges0+0x4a0
 9350 11ac 03       		.byte	0x3
 9351 11ad 4B01     		.2byte	0x14b
 9352 11af 29       		.uleb128 0x29
 9353 11b0 EA020000 		.4byte	0x2ea
 9354 11b4 25       		.uleb128 0x25
 9355 11b5 E1020000 		.4byte	0x2e1
 9356 11b9 07090000 		.4byte	.LLST104
 9357 11bd 25       		.uleb128 0x25
 9358 11be D8020000 		.4byte	0x2d8
 9359 11c2 1F090000 		.4byte	.LLST107
 9360 11c6 00       		.byte	0
 9361 11c7 00       		.byte	0
 9362 11c8 00       		.byte	0
 9363 11c9 24       		.uleb128 0x24
 9364 11ca D6030000 		.4byte	0x3d6
 9365 11ce B4040000 		.4byte	.LBB1267
 9366 11d2 B8040000 		.4byte	.Ldebug_ranges0+0x4b8
 9367 11d6 02       		.byte	0x2
 9368 11d7 7E       		.byte	0x7e
 9369 11d8 08120000 		.4byte	0x1208
 9370 11dc 25       		.uleb128 0x25
 9371 11dd E6030000 		.4byte	0x3e6
 9372 11e1 3D090000 		.4byte	.LLST108
 9373 11e5 28       		.uleb128 0x28
 9374 11e6 55030000 		.4byte	0x355
 9375 11ea B4040000 		.4byte	.LBB1269
 9376 11ee D0040000 		.4byte	.Ldebug_ranges0+0x4d0
 9377 11f2 02       		.byte	0x2
 9378 11f3 73       		.byte	0x73
 9379 11f4 25       		.uleb128 0x25
 9380 11f5 6E030000 		.4byte	0x36e
 9381 11f9 50090000 		.4byte	.LLST109
 9382 11fd 25       		.uleb128 0x25
 9383 11fe 65030000 		.4byte	0x365
 9384 1202 3D090000 		.4byte	.LLST108
 9385 1206 00       		.byte	0
 9386 1207 00       		.byte	0
 9387 1208 28       		.uleb128 0x28
 9388 1209 A3030000 		.4byte	0x3a3
 9389 120d C6040000 		.4byte	.LBB1276
 9390 1211 E8040000 		.4byte	.Ldebug_ranges0+0x4e8
 9391 1215 02       		.byte	0x2
 9392 1216 80       		.byte	0x80
 9393 1217 29       		.uleb128 0x29
 9394 1218 CA030000 		.4byte	0x3ca
 9395 121c 29       		.uleb128 0x29
 9396 121d BF030000 		.4byte	0x3bf
 9397 1221 25       		.uleb128 0x25
 9398 1222 B4030000 		.4byte	0x3b4
 9399 1226 65090000 		.4byte	.LLST111
 9400 122a 00       		.byte	0
 9401 122b 00       		.byte	0
ARM GAS  /tmp/ccJJl1OT.s 			page 166


 9402 122c 00       		.byte	0
 9403 122d 2A       		.uleb128 0x2a
 9404 122e 0E040000 		.4byte	0x40e
 9405 1232 18050000 		.4byte	.LBB1291
 9406 1236 22000000 		.4byte	.LBE1291-.LBB1291
 9407 123a 01       		.byte	0x1
 9408 123b 77       		.byte	0x77
 9409 123c F8120000 		.4byte	0x12f8
 9410 1240 25       		.uleb128 0x25
 9411 1241 29040000 		.4byte	0x429
 9412 1245 79090000 		.4byte	.LLST112
 9413 1249 25       		.uleb128 0x25
 9414 124a 1E040000 		.4byte	0x41e
 9415 124e 8C090000 		.4byte	.LLST113
 9416 1252 1D       		.uleb128 0x1d
 9417 1253 18050000 		.4byte	.LBB1292
 9418 1257 22000000 		.4byte	.LBE1292-.LBB1292
 9419 125b 27       		.uleb128 0x27
 9420 125c 34040000 		.4byte	0x434
 9421 1260 27       		.uleb128 0x27
 9422 1261 3E040000 		.4byte	0x43e
 9423 1265 27       		.uleb128 0x27
 9424 1266 48040000 		.4byte	0x448
 9425 126a 24       		.uleb128 0x24
 9426 126b A3030000 		.4byte	0x3a3
 9427 126f 1C050000 		.4byte	.LBB1293
 9428 1273 08050000 		.4byte	.Ldebug_ranges0+0x508
 9429 1277 02       		.byte	0x2
 9430 1278 80       		.byte	0x80
 9431 1279 91120000 		.4byte	0x1291
 9432 127d 29       		.uleb128 0x29
 9433 127e CA030000 		.4byte	0x3ca
 9434 1282 29       		.uleb128 0x29
 9435 1283 BF030000 		.4byte	0x3bf
 9436 1287 25       		.uleb128 0x25
 9437 1288 B4030000 		.4byte	0x3b4
 9438 128c 9F090000 		.4byte	.LLST114
 9439 1290 00       		.byte	0
 9440 1291 2B       		.uleb128 0x2b
 9441 1292 7D030000 		.4byte	0x37d
 9442 1296 28050000 		.4byte	.LBB1297
 9443 129a 0E000000 		.4byte	.LBE1297-.LBB1297
 9444 129e 02       		.byte	0x2
 9445 129f 80       		.byte	0x80
 9446 12a0 25       		.uleb128 0x25
 9447 12a1 98030000 		.4byte	0x398
 9448 12a5 B3090000 		.4byte	.LLST115
 9449 12a9 29       		.uleb128 0x29
 9450 12aa 8E030000 		.4byte	0x38e
 9451 12ae 2C       		.uleb128 0x2c
 9452 12af F9020000 		.4byte	0x2f9
 9453 12b3 28050000 		.4byte	.LBB1298
 9454 12b7 0E000000 		.4byte	.LBE1298-.LBB1298
 9455 12bb 03       		.byte	0x3
 9456 12bc 8601     		.2byte	0x186
 9457 12be 25       		.uleb128 0x25
 9458 12bf 14030000 		.4byte	0x314
ARM GAS  /tmp/ccJJl1OT.s 			page 167


 9459 12c3 B3090000 		.4byte	.LLST115
 9460 12c7 29       		.uleb128 0x29
 9461 12c8 0A030000 		.4byte	0x30a
 9462 12cc 2C       		.uleb128 0x2c
 9463 12cd C8020000 		.4byte	0x2c8
 9464 12d1 28050000 		.4byte	.LBB1299
 9465 12d5 0E000000 		.4byte	.LBE1299-.LBB1299
 9466 12d9 03       		.byte	0x3
 9467 12da 4B01     		.2byte	0x14b
 9468 12dc 29       		.uleb128 0x29
 9469 12dd EA020000 		.4byte	0x2ea
 9470 12e1 25       		.uleb128 0x25
 9471 12e2 E1020000 		.4byte	0x2e1
 9472 12e6 B3090000 		.4byte	.LLST115
 9473 12ea 25       		.uleb128 0x25
 9474 12eb D8020000 		.4byte	0x2d8
 9475 12ef CB090000 		.4byte	.LLST118
 9476 12f3 00       		.byte	0
 9477 12f4 00       		.byte	0
 9478 12f5 00       		.byte	0
 9479 12f6 00       		.byte	0
 9480 12f7 00       		.byte	0
 9481 12f8 2A       		.uleb128 0x2a
 9482 12f9 0E040000 		.4byte	0x40e
 9483 12fd 5E050000 		.4byte	.LBB1301
 9484 1301 22000000 		.4byte	.LBE1301-.LBB1301
 9485 1305 01       		.byte	0x1
 9486 1306 78       		.byte	0x78
 9487 1307 C3130000 		.4byte	0x13c3
 9488 130b 25       		.uleb128 0x25
 9489 130c 29040000 		.4byte	0x429
 9490 1310 E9090000 		.4byte	.LLST119
 9491 1314 25       		.uleb128 0x25
 9492 1315 1E040000 		.4byte	0x41e
 9493 1319 FC090000 		.4byte	.LLST120
 9494 131d 1D       		.uleb128 0x1d
 9495 131e 5E050000 		.4byte	.LBB1302
 9496 1322 22000000 		.4byte	.LBE1302-.LBB1302
 9497 1326 27       		.uleb128 0x27
 9498 1327 34040000 		.4byte	0x434
 9499 132b 27       		.uleb128 0x27
 9500 132c 3E040000 		.4byte	0x43e
 9501 1330 27       		.uleb128 0x27
 9502 1331 48040000 		.4byte	0x448
 9503 1335 24       		.uleb128 0x24
 9504 1336 A3030000 		.4byte	0x3a3
 9505 133a 62050000 		.4byte	.LBB1303
 9506 133e 20050000 		.4byte	.Ldebug_ranges0+0x520
 9507 1342 02       		.byte	0x2
 9508 1343 80       		.byte	0x80
 9509 1344 5C130000 		.4byte	0x135c
 9510 1348 29       		.uleb128 0x29
 9511 1349 CA030000 		.4byte	0x3ca
 9512 134d 29       		.uleb128 0x29
 9513 134e BF030000 		.4byte	0x3bf
 9514 1352 25       		.uleb128 0x25
 9515 1353 B4030000 		.4byte	0x3b4
ARM GAS  /tmp/ccJJl1OT.s 			page 168


 9516 1357 0F0A0000 		.4byte	.LLST121
 9517 135b 00       		.byte	0
 9518 135c 2B       		.uleb128 0x2b
 9519 135d 7D030000 		.4byte	0x37d
 9520 1361 6E050000 		.4byte	.LBB1307
 9521 1365 0E000000 		.4byte	.LBE1307-.LBB1307
 9522 1369 02       		.byte	0x2
 9523 136a 80       		.byte	0x80
 9524 136b 25       		.uleb128 0x25
 9525 136c 98030000 		.4byte	0x398
 9526 1370 230A0000 		.4byte	.LLST122
 9527 1374 29       		.uleb128 0x29
 9528 1375 8E030000 		.4byte	0x38e
 9529 1379 2C       		.uleb128 0x2c
 9530 137a F9020000 		.4byte	0x2f9
 9531 137e 6E050000 		.4byte	.LBB1308
 9532 1382 0E000000 		.4byte	.LBE1308-.LBB1308
 9533 1386 03       		.byte	0x3
 9534 1387 8601     		.2byte	0x186
 9535 1389 25       		.uleb128 0x25
 9536 138a 14030000 		.4byte	0x314
 9537 138e 230A0000 		.4byte	.LLST122
 9538 1392 29       		.uleb128 0x29
 9539 1393 0A030000 		.4byte	0x30a
 9540 1397 2C       		.uleb128 0x2c
 9541 1398 C8020000 		.4byte	0x2c8
 9542 139c 6E050000 		.4byte	.LBB1309
 9543 13a0 0E000000 		.4byte	.LBE1309-.LBB1309
 9544 13a4 03       		.byte	0x3
 9545 13a5 4B01     		.2byte	0x14b
 9546 13a7 29       		.uleb128 0x29
 9547 13a8 EA020000 		.4byte	0x2ea
 9548 13ac 25       		.uleb128 0x25
 9549 13ad E1020000 		.4byte	0x2e1
 9550 13b1 230A0000 		.4byte	.LLST122
 9551 13b5 25       		.uleb128 0x25
 9552 13b6 D8020000 		.4byte	0x2d8
 9553 13ba 3B0A0000 		.4byte	.LLST125
 9554 13be 00       		.byte	0
 9555 13bf 00       		.byte	0
 9556 13c0 00       		.byte	0
 9557 13c1 00       		.byte	0
 9558 13c2 00       		.byte	0
 9559 13c3 2A       		.uleb128 0x2a
 9560 13c4 0E040000 		.4byte	0x40e
 9561 13c8 98050000 		.4byte	.LBB1311
 9562 13cc 22000000 		.4byte	.LBE1311-.LBB1311
 9563 13d0 01       		.byte	0x1
 9564 13d1 79       		.byte	0x79
 9565 13d2 8E140000 		.4byte	0x148e
 9566 13d6 25       		.uleb128 0x25
 9567 13d7 29040000 		.4byte	0x429
 9568 13db 590A0000 		.4byte	.LLST126
 9569 13df 25       		.uleb128 0x25
 9570 13e0 1E040000 		.4byte	0x41e
 9571 13e4 6C0A0000 		.4byte	.LLST127
 9572 13e8 1D       		.uleb128 0x1d
ARM GAS  /tmp/ccJJl1OT.s 			page 169


 9573 13e9 98050000 		.4byte	.LBB1312
 9574 13ed 22000000 		.4byte	.LBE1312-.LBB1312
 9575 13f1 27       		.uleb128 0x27
 9576 13f2 34040000 		.4byte	0x434
 9577 13f6 27       		.uleb128 0x27
 9578 13f7 3E040000 		.4byte	0x43e
 9579 13fb 27       		.uleb128 0x27
 9580 13fc 48040000 		.4byte	0x448
 9581 1400 24       		.uleb128 0x24
 9582 1401 A3030000 		.4byte	0x3a3
 9583 1405 9C050000 		.4byte	.LBB1313
 9584 1409 38050000 		.4byte	.Ldebug_ranges0+0x538
 9585 140d 02       		.byte	0x2
 9586 140e 80       		.byte	0x80
 9587 140f 27140000 		.4byte	0x1427
 9588 1413 29       		.uleb128 0x29
 9589 1414 CA030000 		.4byte	0x3ca
 9590 1418 29       		.uleb128 0x29
 9591 1419 BF030000 		.4byte	0x3bf
 9592 141d 25       		.uleb128 0x25
 9593 141e B4030000 		.4byte	0x3b4
 9594 1422 7F0A0000 		.4byte	.LLST128
 9595 1426 00       		.byte	0
 9596 1427 2B       		.uleb128 0x2b
 9597 1428 7D030000 		.4byte	0x37d
 9598 142c A8050000 		.4byte	.LBB1317
 9599 1430 0E000000 		.4byte	.LBE1317-.LBB1317
 9600 1434 02       		.byte	0x2
 9601 1435 80       		.byte	0x80
 9602 1436 25       		.uleb128 0x25
 9603 1437 98030000 		.4byte	0x398
 9604 143b 930A0000 		.4byte	.LLST129
 9605 143f 29       		.uleb128 0x29
 9606 1440 8E030000 		.4byte	0x38e
 9607 1444 2C       		.uleb128 0x2c
 9608 1445 F9020000 		.4byte	0x2f9
 9609 1449 A8050000 		.4byte	.LBB1318
 9610 144d 0E000000 		.4byte	.LBE1318-.LBB1318
 9611 1451 03       		.byte	0x3
 9612 1452 8601     		.2byte	0x186
 9613 1454 25       		.uleb128 0x25
 9614 1455 14030000 		.4byte	0x314
 9615 1459 930A0000 		.4byte	.LLST129
 9616 145d 29       		.uleb128 0x29
 9617 145e 0A030000 		.4byte	0x30a
 9618 1462 2C       		.uleb128 0x2c
 9619 1463 C8020000 		.4byte	0x2c8
 9620 1467 A8050000 		.4byte	.LBB1319
 9621 146b 0E000000 		.4byte	.LBE1319-.LBB1319
 9622 146f 03       		.byte	0x3
 9623 1470 4B01     		.2byte	0x14b
 9624 1472 29       		.uleb128 0x29
 9625 1473 EA020000 		.4byte	0x2ea
 9626 1477 25       		.uleb128 0x25
 9627 1478 E1020000 		.4byte	0x2e1
 9628 147c 930A0000 		.4byte	.LLST129
 9629 1480 25       		.uleb128 0x25
ARM GAS  /tmp/ccJJl1OT.s 			page 170


 9630 1481 D8020000 		.4byte	0x2d8
 9631 1485 AB0A0000 		.4byte	.LLST132
 9632 1489 00       		.byte	0
 9633 148a 00       		.byte	0
 9634 148b 00       		.byte	0
 9635 148c 00       		.byte	0
 9636 148d 00       		.byte	0
 9637 148e 2A       		.uleb128 0x2a
 9638 148f 0E040000 		.4byte	0x40e
 9639 1493 D2050000 		.4byte	.LBB1321
 9640 1497 1E000000 		.4byte	.LBE1321-.LBB1321
 9641 149b 01       		.byte	0x1
 9642 149c 7A       		.byte	0x7a
 9643 149d 59150000 		.4byte	0x1559
 9644 14a1 25       		.uleb128 0x25
 9645 14a2 29040000 		.4byte	0x429
 9646 14a6 C90A0000 		.4byte	.LLST133
 9647 14aa 25       		.uleb128 0x25
 9648 14ab 1E040000 		.4byte	0x41e
 9649 14af DC0A0000 		.4byte	.LLST134
 9650 14b3 1D       		.uleb128 0x1d
 9651 14b4 D2050000 		.4byte	.LBB1322
 9652 14b8 1E000000 		.4byte	.LBE1322-.LBB1322
 9653 14bc 27       		.uleb128 0x27
 9654 14bd 34040000 		.4byte	0x434
 9655 14c1 27       		.uleb128 0x27
 9656 14c2 3E040000 		.4byte	0x43e
 9657 14c6 27       		.uleb128 0x27
 9658 14c7 48040000 		.4byte	0x448
 9659 14cb 2A       		.uleb128 0x2a
 9660 14cc A3030000 		.4byte	0x3a3
 9661 14d0 DA050000 		.4byte	.LBB1323
 9662 14d4 04000000 		.4byte	.LBE1323-.LBB1323
 9663 14d8 02       		.byte	0x2
 9664 14d9 80       		.byte	0x80
 9665 14da F2140000 		.4byte	0x14f2
 9666 14de 29       		.uleb128 0x29
 9667 14df CA030000 		.4byte	0x3ca
 9668 14e3 29       		.uleb128 0x29
 9669 14e4 BF030000 		.4byte	0x3bf
 9670 14e8 25       		.uleb128 0x25
 9671 14e9 B4030000 		.4byte	0x3b4
 9672 14ed EF0A0000 		.4byte	.LLST135
 9673 14f1 00       		.byte	0
 9674 14f2 2B       		.uleb128 0x2b
 9675 14f3 7D030000 		.4byte	0x37d
 9676 14f7 DE050000 		.4byte	.LBB1325
 9677 14fb 0E000000 		.4byte	.LBE1325-.LBB1325
 9678 14ff 02       		.byte	0x2
 9679 1500 80       		.byte	0x80
 9680 1501 25       		.uleb128 0x25
 9681 1502 98030000 		.4byte	0x398
 9682 1506 030B0000 		.4byte	.LLST136
 9683 150a 29       		.uleb128 0x29
 9684 150b 8E030000 		.4byte	0x38e
 9685 150f 2C       		.uleb128 0x2c
 9686 1510 F9020000 		.4byte	0x2f9
ARM GAS  /tmp/ccJJl1OT.s 			page 171


 9687 1514 DE050000 		.4byte	.LBB1326
 9688 1518 0E000000 		.4byte	.LBE1326-.LBB1326
 9689 151c 03       		.byte	0x3
 9690 151d 8601     		.2byte	0x186
 9691 151f 25       		.uleb128 0x25
 9692 1520 14030000 		.4byte	0x314
 9693 1524 030B0000 		.4byte	.LLST136
 9694 1528 29       		.uleb128 0x29
 9695 1529 0A030000 		.4byte	0x30a
 9696 152d 2C       		.uleb128 0x2c
 9697 152e C8020000 		.4byte	0x2c8
 9698 1532 DE050000 		.4byte	.LBB1327
 9699 1536 0E000000 		.4byte	.LBE1327-.LBB1327
 9700 153a 03       		.byte	0x3
 9701 153b 4B01     		.2byte	0x14b
 9702 153d 29       		.uleb128 0x29
 9703 153e EA020000 		.4byte	0x2ea
 9704 1542 25       		.uleb128 0x25
 9705 1543 E1020000 		.4byte	0x2e1
 9706 1547 030B0000 		.4byte	.LLST136
 9707 154b 25       		.uleb128 0x25
 9708 154c D8020000 		.4byte	0x2d8
 9709 1550 1B0B0000 		.4byte	.LLST139
 9710 1554 00       		.byte	0
 9711 1555 00       		.byte	0
 9712 1556 00       		.byte	0
 9713 1557 00       		.byte	0
 9714 1558 00       		.byte	0
 9715 1559 24       		.uleb128 0x24
 9716 155a 0E040000 		.4byte	0x40e
 9717 155e F0050000 		.4byte	.LBB1329
 9718 1562 50050000 		.4byte	.Ldebug_ranges0+0x550
 9719 1566 01       		.byte	0x1
 9720 1567 7B       		.byte	0x7b
 9721 1568 8E160000 		.4byte	0x168e
 9722 156c 25       		.uleb128 0x25
 9723 156d 29040000 		.4byte	0x429
 9724 1571 390B0000 		.4byte	.LLST140
 9725 1575 29       		.uleb128 0x29
 9726 1576 1E040000 		.4byte	0x41e
 9727 157a 26       		.uleb128 0x26
 9728 157b 50050000 		.4byte	.Ldebug_ranges0+0x550
 9729 157f 27       		.uleb128 0x27
 9730 1580 34040000 		.4byte	0x434
 9731 1584 27       		.uleb128 0x27
 9732 1585 3E040000 		.4byte	0x43e
 9733 1589 27       		.uleb128 0x27
 9734 158a 48040000 		.4byte	0x448
 9735 158e 24       		.uleb128 0x24
 9736 158f D6030000 		.4byte	0x3d6
 9737 1593 F0050000 		.4byte	.LBB1331
 9738 1597 A0050000 		.4byte	.Ldebug_ranges0+0x5a0
 9739 159b 02       		.byte	0x2
 9740 159c 7D       		.byte	0x7d
 9741 159d C1150000 		.4byte	0x15c1
 9742 15a1 29       		.uleb128 0x29
 9743 15a2 E6030000 		.4byte	0x3e6
ARM GAS  /tmp/ccJJl1OT.s 			page 172


 9744 15a6 28       		.uleb128 0x28
 9745 15a7 55030000 		.4byte	0x355
 9746 15ab F0050000 		.4byte	.LBB1333
 9747 15af C0050000 		.4byte	.Ldebug_ranges0+0x5c0
 9748 15b3 02       		.byte	0x2
 9749 15b4 73       		.byte	0x73
 9750 15b5 29       		.uleb128 0x29
 9751 15b6 6E030000 		.4byte	0x36e
 9752 15ba 29       		.uleb128 0x29
 9753 15bb 65030000 		.4byte	0x365
 9754 15bf 00       		.byte	0
 9755 15c0 00       		.byte	0
 9756 15c1 24       		.uleb128 0x24
 9757 15c2 D6030000 		.4byte	0x3d6
 9758 15c6 12060000 		.4byte	.LBB1341
 9759 15ca D8050000 		.4byte	.Ldebug_ranges0+0x5d8
 9760 15ce 02       		.byte	0x2
 9761 15cf 7E       		.byte	0x7e
 9762 15d0 00160000 		.4byte	0x1600
 9763 15d4 25       		.uleb128 0x25
 9764 15d5 E6030000 		.4byte	0x3e6
 9765 15d9 650B0000 		.4byte	.LLST141
 9766 15dd 28       		.uleb128 0x28
 9767 15de 55030000 		.4byte	0x355
 9768 15e2 12060000 		.4byte	.LBB1343
 9769 15e6 F0050000 		.4byte	.Ldebug_ranges0+0x5f0
 9770 15ea 02       		.byte	0x2
 9771 15eb 73       		.byte	0x73
 9772 15ec 25       		.uleb128 0x25
 9773 15ed 6E030000 		.4byte	0x36e
 9774 15f1 780B0000 		.4byte	.LLST142
 9775 15f5 25       		.uleb128 0x25
 9776 15f6 65030000 		.4byte	0x365
 9777 15fa 650B0000 		.4byte	.LLST141
 9778 15fe 00       		.byte	0
 9779 15ff 00       		.byte	0
 9780 1600 24       		.uleb128 0x24
 9781 1601 A3030000 		.4byte	0x3a3
 9782 1605 22060000 		.4byte	.LBB1349
 9783 1609 08060000 		.4byte	.Ldebug_ranges0+0x608
 9784 160d 02       		.byte	0x2
 9785 160e 80       		.byte	0x80
 9786 160f 27160000 		.4byte	0x1627
 9787 1613 29       		.uleb128 0x29
 9788 1614 CA030000 		.4byte	0x3ca
 9789 1618 29       		.uleb128 0x29
 9790 1619 BF030000 		.4byte	0x3bf
 9791 161d 25       		.uleb128 0x25
 9792 161e B4030000 		.4byte	0x3b4
 9793 1622 8D0B0000 		.4byte	.LLST144
 9794 1626 00       		.byte	0
 9795 1627 2B       		.uleb128 0x2b
 9796 1628 7D030000 		.4byte	0x37d
 9797 162c 3C060000 		.4byte	.LBB1355
 9798 1630 0E000000 		.4byte	.LBE1355-.LBB1355
 9799 1634 02       		.byte	0x2
 9800 1635 80       		.byte	0x80
ARM GAS  /tmp/ccJJl1OT.s 			page 173


 9801 1636 25       		.uleb128 0x25
 9802 1637 98030000 		.4byte	0x398
 9803 163b A10B0000 		.4byte	.LLST145
 9804 163f 29       		.uleb128 0x29
 9805 1640 8E030000 		.4byte	0x38e
 9806 1644 2C       		.uleb128 0x2c
 9807 1645 F9020000 		.4byte	0x2f9
 9808 1649 3C060000 		.4byte	.LBB1356
 9809 164d 0E000000 		.4byte	.LBE1356-.LBB1356
 9810 1651 03       		.byte	0x3
 9811 1652 8601     		.2byte	0x186
 9812 1654 25       		.uleb128 0x25
 9813 1655 14030000 		.4byte	0x314
 9814 1659 A10B0000 		.4byte	.LLST145
 9815 165d 29       		.uleb128 0x29
 9816 165e 0A030000 		.4byte	0x30a
 9817 1662 2C       		.uleb128 0x2c
 9818 1663 C8020000 		.4byte	0x2c8
 9819 1667 3C060000 		.4byte	.LBB1357
 9820 166b 0E000000 		.4byte	.LBE1357-.LBB1357
 9821 166f 03       		.byte	0x3
 9822 1670 4B01     		.2byte	0x14b
 9823 1672 29       		.uleb128 0x29
 9824 1673 EA020000 		.4byte	0x2ea
 9825 1677 25       		.uleb128 0x25
 9826 1678 E1020000 		.4byte	0x2e1
 9827 167c A10B0000 		.4byte	.LLST145
 9828 1680 25       		.uleb128 0x25
 9829 1681 D8020000 		.4byte	0x2d8
 9830 1685 B90B0000 		.4byte	.LLST148
 9831 1689 00       		.byte	0
 9832 168a 00       		.byte	0
 9833 168b 00       		.byte	0
 9834 168c 00       		.byte	0
 9835 168d 00       		.byte	0
 9836 168e 24       		.uleb128 0x24
 9837 168f 0E040000 		.4byte	0x40e
 9838 1693 4A060000 		.4byte	.LBB1374
 9839 1697 28060000 		.4byte	.Ldebug_ranges0+0x628
 9840 169b 01       		.byte	0x1
 9841 169c 7C       		.byte	0x7c
 9842 169d CF170000 		.4byte	0x17cf
 9843 16a1 29       		.uleb128 0x29
 9844 16a2 29040000 		.4byte	0x429
 9845 16a6 25       		.uleb128 0x25
 9846 16a7 1E040000 		.4byte	0x41e
 9847 16ab D70B0000 		.4byte	.LLST149
 9848 16af 26       		.uleb128 0x26
 9849 16b0 28060000 		.4byte	.Ldebug_ranges0+0x628
 9850 16b4 27       		.uleb128 0x27
 9851 16b5 34040000 		.4byte	0x434
 9852 16b9 27       		.uleb128 0x27
 9853 16ba 3E040000 		.4byte	0x43e
 9854 16be 27       		.uleb128 0x27
 9855 16bf 48040000 		.4byte	0x448
 9856 16c3 24       		.uleb128 0x24
 9857 16c4 D6030000 		.4byte	0x3d6
ARM GAS  /tmp/ccJJl1OT.s 			page 174


 9858 16c8 4A060000 		.4byte	.LBB1376
 9859 16cc 50060000 		.4byte	.Ldebug_ranges0+0x650
 9860 16d0 02       		.byte	0x2
 9861 16d1 7D       		.byte	0x7d
 9862 16d2 02170000 		.4byte	0x1702
 9863 16d6 25       		.uleb128 0x25
 9864 16d7 E6030000 		.4byte	0x3e6
 9865 16db EA0B0000 		.4byte	.LLST150
 9866 16df 28       		.uleb128 0x28
 9867 16e0 55030000 		.4byte	0x355
 9868 16e4 4A060000 		.4byte	.LBB1378
 9869 16e8 70060000 		.4byte	.Ldebug_ranges0+0x670
 9870 16ec 02       		.byte	0x2
 9871 16ed 73       		.byte	0x73
 9872 16ee 25       		.uleb128 0x25
 9873 16ef 6E030000 		.4byte	0x36e
 9874 16f3 FD0B0000 		.4byte	.LLST151
 9875 16f7 25       		.uleb128 0x25
 9876 16f8 65030000 		.4byte	0x365
 9877 16fc 120C0000 		.4byte	.LLST152
 9878 1700 00       		.byte	0
 9879 1701 00       		.byte	0
 9880 1702 2A       		.uleb128 0x2a
 9881 1703 D6030000 		.4byte	0x3d6
 9882 1707 6C060000 		.4byte	.LBB1386
 9883 170b 0E000000 		.4byte	.LBE1386-.LBB1386
 9884 170f 02       		.byte	0x2
 9885 1710 7E       		.byte	0x7e
 9886 1711 41170000 		.4byte	0x1741
 9887 1715 25       		.uleb128 0x25
 9888 1716 E6030000 		.4byte	0x3e6
 9889 171a 250C0000 		.4byte	.LLST153
 9890 171e 2B       		.uleb128 0x2b
 9891 171f 55030000 		.4byte	0x355
 9892 1723 6C060000 		.4byte	.LBB1388
 9893 1727 0A000000 		.4byte	.LBE1388-.LBB1388
 9894 172b 02       		.byte	0x2
 9895 172c 73       		.byte	0x73
 9896 172d 25       		.uleb128 0x25
 9897 172e 6E030000 		.4byte	0x36e
 9898 1732 380C0000 		.4byte	.LLST154
 9899 1736 25       		.uleb128 0x25
 9900 1737 65030000 		.4byte	0x365
 9901 173b 250C0000 		.4byte	.LLST153
 9902 173f 00       		.byte	0
 9903 1740 00       		.byte	0
 9904 1741 24       		.uleb128 0x24
 9905 1742 A3030000 		.4byte	0x3a3
 9906 1746 7A060000 		.4byte	.LBB1390
 9907 174a 88060000 		.4byte	.Ldebug_ranges0+0x688
 9908 174e 02       		.byte	0x2
 9909 174f 80       		.byte	0x80
 9910 1750 68170000 		.4byte	0x1768
 9911 1754 29       		.uleb128 0x29
 9912 1755 CA030000 		.4byte	0x3ca
 9913 1759 29       		.uleb128 0x29
 9914 175a BF030000 		.4byte	0x3bf
ARM GAS  /tmp/ccJJl1OT.s 			page 175


 9915 175e 25       		.uleb128 0x25
 9916 175f B4030000 		.4byte	0x3b4
 9917 1763 4D0C0000 		.4byte	.LLST156
 9918 1767 00       		.byte	0
 9919 1768 28       		.uleb128 0x28
 9920 1769 7D030000 		.4byte	0x37d
 9921 176d 8E060000 		.4byte	.LBB1395
 9922 1771 A8060000 		.4byte	.Ldebug_ranges0+0x6a8
 9923 1775 02       		.byte	0x2
 9924 1776 80       		.byte	0x80
 9925 1777 25       		.uleb128 0x25
 9926 1778 98030000 		.4byte	0x398
 9927 177c 610C0000 		.4byte	.LLST157
 9928 1780 29       		.uleb128 0x29
 9929 1781 8E030000 		.4byte	0x38e
 9930 1785 2D       		.uleb128 0x2d
 9931 1786 F9020000 		.4byte	0x2f9
 9932 178a 8E060000 		.4byte	.LBB1396
 9933 178e A8060000 		.4byte	.Ldebug_ranges0+0x6a8
 9934 1792 03       		.byte	0x3
 9935 1793 8601     		.2byte	0x186
 9936 1795 25       		.uleb128 0x25
 9937 1796 14030000 		.4byte	0x314
 9938 179a 610C0000 		.4byte	.LLST157
 9939 179e 29       		.uleb128 0x29
 9940 179f 0A030000 		.4byte	0x30a
 9941 17a3 2D       		.uleb128 0x2d
 9942 17a4 C8020000 		.4byte	0x2c8
 9943 17a8 8E060000 		.4byte	.LBB1397
 9944 17ac A8060000 		.4byte	.Ldebug_ranges0+0x6a8
 9945 17b0 03       		.byte	0x3
 9946 17b1 4B01     		.2byte	0x14b
 9947 17b3 29       		.uleb128 0x29
 9948 17b4 EA020000 		.4byte	0x2ea
 9949 17b8 25       		.uleb128 0x25
 9950 17b9 E1020000 		.4byte	0x2e1
 9951 17bd 610C0000 		.4byte	.LLST157
 9952 17c1 25       		.uleb128 0x25
 9953 17c2 D8020000 		.4byte	0x2d8
 9954 17c6 790C0000 		.4byte	.LLST160
 9955 17ca 00       		.byte	0
 9956 17cb 00       		.byte	0
 9957 17cc 00       		.byte	0
 9958 17cd 00       		.byte	0
 9959 17ce 00       		.byte	0
 9960 17cf 2A       		.uleb128 0x2a
 9961 17d0 0E040000 		.4byte	0x40e
 9962 17d4 AC060000 		.4byte	.LBB1411
 9963 17d8 1A000000 		.4byte	.LBE1411-.LBB1411
 9964 17dc 01       		.byte	0x1
 9965 17dd 7D       		.byte	0x7d
 9966 17de 96180000 		.4byte	0x1896
 9967 17e2 29       		.uleb128 0x29
 9968 17e3 29040000 		.4byte	0x429
 9969 17e7 25       		.uleb128 0x25
 9970 17e8 1E040000 		.4byte	0x41e
 9971 17ec 970C0000 		.4byte	.LLST161
ARM GAS  /tmp/ccJJl1OT.s 			page 176


 9972 17f0 1D       		.uleb128 0x1d
 9973 17f1 AC060000 		.4byte	.LBB1412
 9974 17f5 1A000000 		.4byte	.LBE1412-.LBB1412
 9975 17f9 27       		.uleb128 0x27
 9976 17fa 34040000 		.4byte	0x434
 9977 17fe 27       		.uleb128 0x27
 9978 17ff 3E040000 		.4byte	0x43e
 9979 1803 27       		.uleb128 0x27
 9980 1804 48040000 		.4byte	0x448
 9981 1808 2A       		.uleb128 0x2a
 9982 1809 A3030000 		.4byte	0x3a3
 9983 180d AC060000 		.4byte	.LBB1413
 9984 1811 08000000 		.4byte	.LBE1413-.LBB1413
 9985 1815 02       		.byte	0x2
 9986 1816 80       		.byte	0x80
 9987 1817 2F180000 		.4byte	0x182f
 9988 181b 29       		.uleb128 0x29
 9989 181c CA030000 		.4byte	0x3ca
 9990 1820 29       		.uleb128 0x29
 9991 1821 BF030000 		.4byte	0x3bf
 9992 1825 25       		.uleb128 0x25
 9993 1826 B4030000 		.4byte	0x3b4
 9994 182a AA0C0000 		.4byte	.LLST162
 9995 182e 00       		.byte	0
 9996 182f 2B       		.uleb128 0x2b
 9997 1830 7D030000 		.4byte	0x37d
 9998 1834 B4060000 		.4byte	.LBB1415
 9999 1838 0E000000 		.4byte	.LBE1415-.LBB1415
 10000 183c 02       		.byte	0x2
 10001 183d 80       		.byte	0x80
 10002 183e 25       		.uleb128 0x25
 10003 183f 98030000 		.4byte	0x398
 10004 1843 BE0C0000 		.4byte	.LLST163
 10005 1847 29       		.uleb128 0x29
 10006 1848 8E030000 		.4byte	0x38e
 10007 184c 2C       		.uleb128 0x2c
 10008 184d F9020000 		.4byte	0x2f9
 10009 1851 B4060000 		.4byte	.LBB1416
 10010 1855 0E000000 		.4byte	.LBE1416-.LBB1416
 10011 1859 03       		.byte	0x3
 10012 185a 8601     		.2byte	0x186
 10013 185c 25       		.uleb128 0x25
 10014 185d 14030000 		.4byte	0x314
 10015 1861 BE0C0000 		.4byte	.LLST163
 10016 1865 29       		.uleb128 0x29
 10017 1866 0A030000 		.4byte	0x30a
 10018 186a 2C       		.uleb128 0x2c
 10019 186b C8020000 		.4byte	0x2c8
 10020 186f B4060000 		.4byte	.LBB1417
 10021 1873 0E000000 		.4byte	.LBE1417-.LBB1417
 10022 1877 03       		.byte	0x3
 10023 1878 4B01     		.2byte	0x14b
 10024 187a 29       		.uleb128 0x29
 10025 187b EA020000 		.4byte	0x2ea
 10026 187f 25       		.uleb128 0x25
 10027 1880 E1020000 		.4byte	0x2e1
 10028 1884 BE0C0000 		.4byte	.LLST163
ARM GAS  /tmp/ccJJl1OT.s 			page 177


 10029 1888 25       		.uleb128 0x25
 10030 1889 D8020000 		.4byte	0x2d8
 10031 188d D60C0000 		.4byte	.LLST166
 10032 1891 00       		.byte	0
 10033 1892 00       		.byte	0
 10034 1893 00       		.byte	0
 10035 1894 00       		.byte	0
 10036 1895 00       		.byte	0
 10037 1896 2A       		.uleb128 0x2a
 10038 1897 0E040000 		.4byte	0x40e
 10039 189b CE060000 		.4byte	.LBB1419
 10040 189f 1A000000 		.4byte	.LBE1419-.LBB1419
 10041 18a3 01       		.byte	0x1
 10042 18a4 7E       		.byte	0x7e
 10043 18a5 5D190000 		.4byte	0x195d
 10044 18a9 29       		.uleb128 0x29
 10045 18aa 29040000 		.4byte	0x429
 10046 18ae 25       		.uleb128 0x25
 10047 18af 1E040000 		.4byte	0x41e
 10048 18b3 F40C0000 		.4byte	.LLST167
 10049 18b7 1D       		.uleb128 0x1d
 10050 18b8 CE060000 		.4byte	.LBB1420
 10051 18bc 1A000000 		.4byte	.LBE1420-.LBB1420
 10052 18c0 27       		.uleb128 0x27
 10053 18c1 34040000 		.4byte	0x434
 10054 18c5 27       		.uleb128 0x27
 10055 18c6 3E040000 		.4byte	0x43e
 10056 18ca 27       		.uleb128 0x27
 10057 18cb 48040000 		.4byte	0x448
 10058 18cf 2A       		.uleb128 0x2a
 10059 18d0 A3030000 		.4byte	0x3a3
 10060 18d4 CE060000 		.4byte	.LBB1421
 10061 18d8 08000000 		.4byte	.LBE1421-.LBB1421
 10062 18dc 02       		.byte	0x2
 10063 18dd 80       		.byte	0x80
 10064 18de F6180000 		.4byte	0x18f6
 10065 18e2 29       		.uleb128 0x29
 10066 18e3 CA030000 		.4byte	0x3ca
 10067 18e7 29       		.uleb128 0x29
 10068 18e8 BF030000 		.4byte	0x3bf
 10069 18ec 25       		.uleb128 0x25
 10070 18ed B4030000 		.4byte	0x3b4
 10071 18f1 070D0000 		.4byte	.LLST168
 10072 18f5 00       		.byte	0
 10073 18f6 2B       		.uleb128 0x2b
 10074 18f7 7D030000 		.4byte	0x37d
 10075 18fb D6060000 		.4byte	.LBB1423
 10076 18ff 0E000000 		.4byte	.LBE1423-.LBB1423
 10077 1903 02       		.byte	0x2
 10078 1904 80       		.byte	0x80
 10079 1905 25       		.uleb128 0x25
 10080 1906 98030000 		.4byte	0x398
 10081 190a 1B0D0000 		.4byte	.LLST169
 10082 190e 29       		.uleb128 0x29
 10083 190f 8E030000 		.4byte	0x38e
 10084 1913 2C       		.uleb128 0x2c
 10085 1914 F9020000 		.4byte	0x2f9
ARM GAS  /tmp/ccJJl1OT.s 			page 178


 10086 1918 D6060000 		.4byte	.LBB1424
 10087 191c 0E000000 		.4byte	.LBE1424-.LBB1424
 10088 1920 03       		.byte	0x3
 10089 1921 8601     		.2byte	0x186
 10090 1923 25       		.uleb128 0x25
 10091 1924 14030000 		.4byte	0x314
 10092 1928 1B0D0000 		.4byte	.LLST169
 10093 192c 29       		.uleb128 0x29
 10094 192d 0A030000 		.4byte	0x30a
 10095 1931 2C       		.uleb128 0x2c
 10096 1932 C8020000 		.4byte	0x2c8
 10097 1936 D6060000 		.4byte	.LBB1425
 10098 193a 0E000000 		.4byte	.LBE1425-.LBB1425
 10099 193e 03       		.byte	0x3
 10100 193f 4B01     		.2byte	0x14b
 10101 1941 29       		.uleb128 0x29
 10102 1942 EA020000 		.4byte	0x2ea
 10103 1946 25       		.uleb128 0x25
 10104 1947 E1020000 		.4byte	0x2e1
 10105 194b 1B0D0000 		.4byte	.LLST169
 10106 194f 25       		.uleb128 0x25
 10107 1950 D8020000 		.4byte	0x2d8
 10108 1954 330D0000 		.4byte	.LLST172
 10109 1958 00       		.byte	0
 10110 1959 00       		.byte	0
 10111 195a 00       		.byte	0
 10112 195b 00       		.byte	0
 10113 195c 00       		.byte	0
 10114 195d 24       		.uleb128 0x24
 10115 195e 0E040000 		.4byte	0x40e
 10116 1962 F0060000 		.4byte	.LBB1427
 10117 1966 C0060000 		.4byte	.Ldebug_ranges0+0x6c0
 10118 196a 01       		.byte	0x1
 10119 196b 7F       		.byte	0x7f
 10120 196c 201A0000 		.4byte	0x1a20
 10121 1970 29       		.uleb128 0x29
 10122 1971 29040000 		.4byte	0x429
 10123 1975 25       		.uleb128 0x25
 10124 1976 1E040000 		.4byte	0x41e
 10125 197a 510D0000 		.4byte	.LLST173
 10126 197e 26       		.uleb128 0x26
 10127 197f C0060000 		.4byte	.Ldebug_ranges0+0x6c0
 10128 1983 27       		.uleb128 0x27
 10129 1984 34040000 		.4byte	0x434
 10130 1988 27       		.uleb128 0x27
 10131 1989 3E040000 		.4byte	0x43e
 10132 198d 27       		.uleb128 0x27
 10133 198e 48040000 		.4byte	0x448
 10134 1992 2A       		.uleb128 0x2a
 10135 1993 A3030000 		.4byte	0x3a3
 10136 1997 F0060000 		.4byte	.LBB1429
 10137 199b 08000000 		.4byte	.LBE1429-.LBB1429
 10138 199f 02       		.byte	0x2
 10139 19a0 80       		.byte	0x80
 10140 19a1 B9190000 		.4byte	0x19b9
 10141 19a5 29       		.uleb128 0x29
 10142 19a6 CA030000 		.4byte	0x3ca
ARM GAS  /tmp/ccJJl1OT.s 			page 179


 10143 19aa 29       		.uleb128 0x29
 10144 19ab BF030000 		.4byte	0x3bf
 10145 19af 25       		.uleb128 0x25
 10146 19b0 B4030000 		.4byte	0x3b4
 10147 19b4 790D0000 		.4byte	.LLST174
 10148 19b8 00       		.byte	0
 10149 19b9 28       		.uleb128 0x28
 10150 19ba 7D030000 		.4byte	0x37d
 10151 19be FC060000 		.4byte	.LBB1431
 10152 19c2 E8060000 		.4byte	.Ldebug_ranges0+0x6e8
 10153 19c6 02       		.byte	0x2
 10154 19c7 80       		.byte	0x80
 10155 19c8 25       		.uleb128 0x25
 10156 19c9 98030000 		.4byte	0x398
 10157 19cd 8D0D0000 		.4byte	.LLST175
 10158 19d1 29       		.uleb128 0x29
 10159 19d2 8E030000 		.4byte	0x38e
 10160 19d6 2D       		.uleb128 0x2d
 10161 19d7 F9020000 		.4byte	0x2f9
 10162 19db FC060000 		.4byte	.LBB1432
 10163 19df E8060000 		.4byte	.Ldebug_ranges0+0x6e8
 10164 19e3 03       		.byte	0x3
 10165 19e4 8601     		.2byte	0x186
 10166 19e6 25       		.uleb128 0x25
 10167 19e7 14030000 		.4byte	0x314
 10168 19eb 8D0D0000 		.4byte	.LLST175
 10169 19ef 29       		.uleb128 0x29
 10170 19f0 0A030000 		.4byte	0x30a
 10171 19f4 2D       		.uleb128 0x2d
 10172 19f5 C8020000 		.4byte	0x2c8
 10173 19f9 FC060000 		.4byte	.LBB1433
 10174 19fd E8060000 		.4byte	.Ldebug_ranges0+0x6e8
 10175 1a01 03       		.byte	0x3
 10176 1a02 4B01     		.2byte	0x14b
 10177 1a04 29       		.uleb128 0x29
 10178 1a05 EA020000 		.4byte	0x2ea
 10179 1a09 25       		.uleb128 0x25
 10180 1a0a E1020000 		.4byte	0x2e1
 10181 1a0e 8D0D0000 		.4byte	.LLST175
 10182 1a12 25       		.uleb128 0x25
 10183 1a13 D8020000 		.4byte	0x2d8
 10184 1a17 A50D0000 		.4byte	.LLST178
 10185 1a1b 00       		.byte	0
 10186 1a1c 00       		.byte	0
 10187 1a1d 00       		.byte	0
 10188 1a1e 00       		.byte	0
 10189 1a1f 00       		.byte	0
 10190 1a20 24       		.uleb128 0x24
 10191 1a21 0E040000 		.4byte	0x40e
 10192 1a25 F8060000 		.4byte	.LBB1442
 10193 1a29 00070000 		.4byte	.Ldebug_ranges0+0x700
 10194 1a2d 01       		.byte	0x1
 10195 1a2e 80       		.byte	0x80
 10196 1a2f CB1A0000 		.4byte	0x1acb
 10197 1a33 29       		.uleb128 0x29
 10198 1a34 29040000 		.4byte	0x429
 10199 1a38 29       		.uleb128 0x29
ARM GAS  /tmp/ccJJl1OT.s 			page 180


 10200 1a39 1E040000 		.4byte	0x41e
 10201 1a3d 26       		.uleb128 0x26
 10202 1a3e 00070000 		.4byte	.Ldebug_ranges0+0x700
 10203 1a42 27       		.uleb128 0x27
 10204 1a43 34040000 		.4byte	0x434
 10205 1a47 27       		.uleb128 0x27
 10206 1a48 3E040000 		.4byte	0x43e
 10207 1a4c 27       		.uleb128 0x27
 10208 1a4d 48040000 		.4byte	0x448
 10209 1a51 2A       		.uleb128 0x2a
 10210 1a52 A3030000 		.4byte	0x3a3
 10211 1a56 F8060000 		.4byte	.LBB1444
 10212 1a5a 04000000 		.4byte	.LBE1444-.LBB1444
 10213 1a5e 02       		.byte	0x2
 10214 1a5f 80       		.byte	0x80
 10215 1a60 741A0000 		.4byte	0x1a74
 10216 1a64 29       		.uleb128 0x29
 10217 1a65 CA030000 		.4byte	0x3ca
 10218 1a69 29       		.uleb128 0x29
 10219 1a6a BF030000 		.4byte	0x3bf
 10220 1a6e 29       		.uleb128 0x29
 10221 1a6f B4030000 		.4byte	0x3b4
 10222 1a73 00       		.byte	0
 10223 1a74 28       		.uleb128 0x28
 10224 1a75 7D030000 		.4byte	0x37d
 10225 1a79 04070000 		.4byte	.LBB1446
 10226 1a7d 28070000 		.4byte	.Ldebug_ranges0+0x728
 10227 1a81 02       		.byte	0x2
 10228 1a82 80       		.byte	0x80
 10229 1a83 29       		.uleb128 0x29
 10230 1a84 98030000 		.4byte	0x398
 10231 1a88 29       		.uleb128 0x29
 10232 1a89 8E030000 		.4byte	0x38e
 10233 1a8d 2D       		.uleb128 0x2d
 10234 1a8e F9020000 		.4byte	0x2f9
 10235 1a92 04070000 		.4byte	.LBB1447
 10236 1a96 28070000 		.4byte	.Ldebug_ranges0+0x728
 10237 1a9a 03       		.byte	0x3
 10238 1a9b 8601     		.2byte	0x186
 10239 1a9d 29       		.uleb128 0x29
 10240 1a9e 14030000 		.4byte	0x314
 10241 1aa2 29       		.uleb128 0x29
 10242 1aa3 0A030000 		.4byte	0x30a
 10243 1aa7 2D       		.uleb128 0x2d
 10244 1aa8 C8020000 		.4byte	0x2c8
 10245 1aac 04070000 		.4byte	.LBB1448
 10246 1ab0 28070000 		.4byte	.Ldebug_ranges0+0x728
 10247 1ab4 03       		.byte	0x3
 10248 1ab5 4B01     		.2byte	0x14b
 10249 1ab7 29       		.uleb128 0x29
 10250 1ab8 EA020000 		.4byte	0x2ea
 10251 1abc 29       		.uleb128 0x29
 10252 1abd E1020000 		.4byte	0x2e1
 10253 1ac1 29       		.uleb128 0x29
 10254 1ac2 D8020000 		.4byte	0x2d8
 10255 1ac6 00       		.byte	0
 10256 1ac7 00       		.byte	0
ARM GAS  /tmp/ccJJl1OT.s 			page 181


 10257 1ac8 00       		.byte	0
 10258 1ac9 00       		.byte	0
 10259 1aca 00       		.byte	0
 10260 1acb 24       		.uleb128 0x24
 10261 1acc 0E040000 		.4byte	0x40e
 10262 1ad0 18070000 		.4byte	.LBB1461
 10263 1ad4 40070000 		.4byte	.Ldebug_ranges0+0x740
 10264 1ad8 01       		.byte	0x1
 10265 1ad9 81       		.byte	0x81
 10266 1ada 8B1B0000 		.4byte	0x1b8b
 10267 1ade 25       		.uleb128 0x25
 10268 1adf 29040000 		.4byte	0x429
 10269 1ae3 C30D0000 		.4byte	.LLST179
 10270 1ae7 29       		.uleb128 0x29
 10271 1ae8 1E040000 		.4byte	0x41e
 10272 1aec 26       		.uleb128 0x26
 10273 1aed 40070000 		.4byte	.Ldebug_ranges0+0x740
 10274 1af1 27       		.uleb128 0x27
 10275 1af2 34040000 		.4byte	0x434
 10276 1af6 27       		.uleb128 0x27
 10277 1af7 3E040000 		.4byte	0x43e
 10278 1afb 27       		.uleb128 0x27
 10279 1afc 48040000 		.4byte	0x448
 10280 1b00 24       		.uleb128 0x24
 10281 1b01 D6030000 		.4byte	0x3d6
 10282 1b05 18070000 		.4byte	.LBB1463
 10283 1b09 70070000 		.4byte	.Ldebug_ranges0+0x770
 10284 1b0d 02       		.byte	0x2
 10285 1b0e 7D       		.byte	0x7d
 10286 1b0f 331B0000 		.4byte	0x1b33
 10287 1b13 29       		.uleb128 0x29
 10288 1b14 E6030000 		.4byte	0x3e6
 10289 1b18 28       		.uleb128 0x28
 10290 1b19 55030000 		.4byte	0x355
 10291 1b1d 18070000 		.4byte	.LBB1465
 10292 1b21 98070000 		.4byte	.Ldebug_ranges0+0x798
 10293 1b25 02       		.byte	0x2
 10294 1b26 73       		.byte	0x73
 10295 1b27 29       		.uleb128 0x29
 10296 1b28 6E030000 		.4byte	0x36e
 10297 1b2c 29       		.uleb128 0x29
 10298 1b2d 65030000 		.4byte	0x365
 10299 1b31 00       		.byte	0
 10300 1b32 00       		.byte	0
 10301 1b33 24       		.uleb128 0x24
 10302 1b34 D6030000 		.4byte	0x3d6
 10303 1b38 22070000 		.4byte	.LBB1473
 10304 1b3c B0070000 		.4byte	.Ldebug_ranges0+0x7b0
 10305 1b40 02       		.byte	0x2
 10306 1b41 7E       		.byte	0x7e
 10307 1b42 661B0000 		.4byte	0x1b66
 10308 1b46 29       		.uleb128 0x29
 10309 1b47 E6030000 		.4byte	0x3e6
 10310 1b4b 28       		.uleb128 0x28
 10311 1b4c 55030000 		.4byte	0x355
 10312 1b50 22070000 		.4byte	.LBB1475
 10313 1b54 D0070000 		.4byte	.Ldebug_ranges0+0x7d0
ARM GAS  /tmp/ccJJl1OT.s 			page 182


 10314 1b58 02       		.byte	0x2
 10315 1b59 73       		.byte	0x73
 10316 1b5a 29       		.uleb128 0x29
 10317 1b5b 6E030000 		.4byte	0x36e
 10318 1b5f 29       		.uleb128 0x29
 10319 1b60 65030000 		.4byte	0x365
 10320 1b64 00       		.byte	0
 10321 1b65 00       		.byte	0
 10322 1b66 28       		.uleb128 0x28
 10323 1b67 A3030000 		.4byte	0x3a3
 10324 1b6b 3C070000 		.4byte	.LBB1485
 10325 1b6f E8070000 		.4byte	.Ldebug_ranges0+0x7e8
 10326 1b73 02       		.byte	0x2
 10327 1b74 80       		.byte	0x80
 10328 1b75 29       		.uleb128 0x29
 10329 1b76 CA030000 		.4byte	0x3ca
 10330 1b7a 29       		.uleb128 0x29
 10331 1b7b BF030000 		.4byte	0x3bf
 10332 1b7f 25       		.uleb128 0x25
 10333 1b80 B4030000 		.4byte	0x3b4
 10334 1b84 D80D0000 		.4byte	.LLST180
 10335 1b88 00       		.byte	0
 10336 1b89 00       		.byte	0
 10337 1b8a 00       		.byte	0
 10338 1b8b 24       		.uleb128 0x24
 10339 1b8c 0E040000 		.4byte	0x40e
 10340 1b90 7C070000 		.4byte	.LBB1501
 10341 1b94 08080000 		.4byte	.Ldebug_ranges0+0x808
 10342 1b98 01       		.byte	0x1
 10343 1b99 84       		.byte	0x84
 10344 1b9a D01C0000 		.4byte	0x1cd0
 10345 1b9e 25       		.uleb128 0x25
 10346 1b9f 29040000 		.4byte	0x429
 10347 1ba3 EC0D0000 		.4byte	.LLST181
 10348 1ba7 25       		.uleb128 0x25
 10349 1ba8 1E040000 		.4byte	0x41e
 10350 1bac 180E0000 		.4byte	.LLST182
 10351 1bb0 26       		.uleb128 0x26
 10352 1bb1 08080000 		.4byte	.Ldebug_ranges0+0x808
 10353 1bb5 27       		.uleb128 0x27
 10354 1bb6 34040000 		.4byte	0x434
 10355 1bba 27       		.uleb128 0x27
 10356 1bbb 3E040000 		.4byte	0x43e
 10357 1bbf 27       		.uleb128 0x27
 10358 1bc0 48040000 		.4byte	0x448
 10359 1bc4 24       		.uleb128 0x24
 10360 1bc5 D6030000 		.4byte	0x3d6
 10361 1bc9 9C070000 		.4byte	.LBB1503
 10362 1bcd 38080000 		.4byte	.Ldebug_ranges0+0x838
 10363 1bd1 02       		.byte	0x2
 10364 1bd2 7D       		.byte	0x7d
 10365 1bd3 031C0000 		.4byte	0x1c03
 10366 1bd7 25       		.uleb128 0x25
 10367 1bd8 E6030000 		.4byte	0x3e6
 10368 1bdc 2B0E0000 		.4byte	.LLST183
 10369 1be0 28       		.uleb128 0x28
 10370 1be1 55030000 		.4byte	0x355
ARM GAS  /tmp/ccJJl1OT.s 			page 183


 10371 1be5 9C070000 		.4byte	.LBB1505
 10372 1be9 50080000 		.4byte	.Ldebug_ranges0+0x850
 10373 1bed 02       		.byte	0x2
 10374 1bee 73       		.byte	0x73
 10375 1bef 25       		.uleb128 0x25
 10376 1bf0 6E030000 		.4byte	0x36e
 10377 1bf4 3E0E0000 		.4byte	.LLST184
 10378 1bf8 25       		.uleb128 0x25
 10379 1bf9 65030000 		.4byte	0x365
 10380 1bfd 530E0000 		.4byte	.LLST185
 10381 1c01 00       		.byte	0
 10382 1c02 00       		.byte	0
 10383 1c03 24       		.uleb128 0x24
 10384 1c04 7D030000 		.4byte	0x37d
 10385 1c08 A6070000 		.4byte	.LBB1510
 10386 1c0c 68080000 		.4byte	.Ldebug_ranges0+0x868
 10387 1c10 02       		.byte	0x2
 10388 1c11 80       		.byte	0x80
 10389 1c12 6C1C0000 		.4byte	0x1c6c
 10390 1c16 25       		.uleb128 0x25
 10391 1c17 98030000 		.4byte	0x398
 10392 1c1b 660E0000 		.4byte	.LLST186
 10393 1c1f 29       		.uleb128 0x29
 10394 1c20 8E030000 		.4byte	0x38e
 10395 1c24 2D       		.uleb128 0x2d
 10396 1c25 F9020000 		.4byte	0x2f9
 10397 1c29 A6070000 		.4byte	.LBB1511
 10398 1c2d 68080000 		.4byte	.Ldebug_ranges0+0x868
 10399 1c31 03       		.byte	0x3
 10400 1c32 8601     		.2byte	0x186
 10401 1c34 25       		.uleb128 0x25
 10402 1c35 14030000 		.4byte	0x314
 10403 1c39 660E0000 		.4byte	.LLST186
 10404 1c3d 29       		.uleb128 0x29
 10405 1c3e 0A030000 		.4byte	0x30a
 10406 1c42 2D       		.uleb128 0x2d
 10407 1c43 C8020000 		.4byte	0x2c8
 10408 1c47 A6070000 		.4byte	.LBB1512
 10409 1c4b 68080000 		.4byte	.Ldebug_ranges0+0x868
 10410 1c4f 03       		.byte	0x3
 10411 1c50 4B01     		.2byte	0x14b
 10412 1c52 29       		.uleb128 0x29
 10413 1c53 EA020000 		.4byte	0x2ea
 10414 1c57 25       		.uleb128 0x25
 10415 1c58 E1020000 		.4byte	0x2e1
 10416 1c5c 660E0000 		.4byte	.LLST186
 10417 1c60 25       		.uleb128 0x25
 10418 1c61 D8020000 		.4byte	0x2d8
 10419 1c65 7E0E0000 		.4byte	.LLST189
 10420 1c69 00       		.byte	0
 10421 1c6a 00       		.byte	0
 10422 1c6b 00       		.byte	0
 10423 1c6c 2A       		.uleb128 0x2a
 10424 1c6d D6030000 		.4byte	0x3d6
 10425 1c71 C8070000 		.4byte	.LBB1518
 10426 1c75 10000000 		.4byte	.LBE1518-.LBB1518
 10427 1c79 02       		.byte	0x2
ARM GAS  /tmp/ccJJl1OT.s 			page 184


 10428 1c7a 7E       		.byte	0x7e
 10429 1c7b AB1C0000 		.4byte	0x1cab
 10430 1c7f 25       		.uleb128 0x25
 10431 1c80 E6030000 		.4byte	0x3e6
 10432 1c84 9C0E0000 		.4byte	.LLST190
 10433 1c88 2B       		.uleb128 0x2b
 10434 1c89 55030000 		.4byte	0x355
 10435 1c8d C8070000 		.4byte	.LBB1520
 10436 1c91 0C000000 		.4byte	.LBE1520-.LBB1520
 10437 1c95 02       		.byte	0x2
 10438 1c96 73       		.byte	0x73
 10439 1c97 25       		.uleb128 0x25
 10440 1c98 6E030000 		.4byte	0x36e
 10441 1c9c AF0E0000 		.4byte	.LLST191
 10442 1ca0 25       		.uleb128 0x25
 10443 1ca1 65030000 		.4byte	0x365
 10444 1ca5 9C0E0000 		.4byte	.LLST190
 10445 1ca9 00       		.byte	0
 10446 1caa 00       		.byte	0
 10447 1cab 28       		.uleb128 0x28
 10448 1cac A3030000 		.4byte	0x3a3
 10449 1cb0 D8070000 		.4byte	.LBB1522
 10450 1cb4 80080000 		.4byte	.Ldebug_ranges0+0x880
 10451 1cb8 02       		.byte	0x2
 10452 1cb9 80       		.byte	0x80
 10453 1cba 29       		.uleb128 0x29
 10454 1cbb CA030000 		.4byte	0x3ca
 10455 1cbf 29       		.uleb128 0x29
 10456 1cc0 BF030000 		.4byte	0x3bf
 10457 1cc4 25       		.uleb128 0x25
 10458 1cc5 B4030000 		.4byte	0x3b4
 10459 1cc9 C40E0000 		.4byte	.LLST193
 10460 1ccd 00       		.byte	0
 10461 1cce 00       		.byte	0
 10462 1ccf 00       		.byte	0
 10463 1cd0 2A       		.uleb128 0x2a
 10464 1cd1 0E040000 		.4byte	0x40e
 10465 1cd5 2A080000 		.4byte	.LBB1537
 10466 1cd9 22000000 		.4byte	.LBE1537-.LBB1537
 10467 1cdd 01       		.byte	0x1
 10468 1cde 85       		.byte	0x85
 10469 1cdf 9B1D0000 		.4byte	0x1d9b
 10470 1ce3 25       		.uleb128 0x25
 10471 1ce4 29040000 		.4byte	0x429
 10472 1ce8 D80E0000 		.4byte	.LLST194
 10473 1cec 25       		.uleb128 0x25
 10474 1ced 1E040000 		.4byte	0x41e
 10475 1cf1 EB0E0000 		.4byte	.LLST195
 10476 1cf5 1D       		.uleb128 0x1d
 10477 1cf6 2A080000 		.4byte	.LBB1538
 10478 1cfa 22000000 		.4byte	.LBE1538-.LBB1538
 10479 1cfe 27       		.uleb128 0x27
 10480 1cff 34040000 		.4byte	0x434
 10481 1d03 27       		.uleb128 0x27
 10482 1d04 3E040000 		.4byte	0x43e
 10483 1d08 27       		.uleb128 0x27
 10484 1d09 48040000 		.4byte	0x448
ARM GAS  /tmp/ccJJl1OT.s 			page 185


 10485 1d0d 24       		.uleb128 0x24
 10486 1d0e A3030000 		.4byte	0x3a3
 10487 1d12 2E080000 		.4byte	.LBB1539
 10488 1d16 A0080000 		.4byte	.Ldebug_ranges0+0x8a0
 10489 1d1a 02       		.byte	0x2
 10490 1d1b 80       		.byte	0x80
 10491 1d1c 341D0000 		.4byte	0x1d34
 10492 1d20 29       		.uleb128 0x29
 10493 1d21 CA030000 		.4byte	0x3ca
 10494 1d25 29       		.uleb128 0x29
 10495 1d26 BF030000 		.4byte	0x3bf
 10496 1d2a 25       		.uleb128 0x25
 10497 1d2b B4030000 		.4byte	0x3b4
 10498 1d2f FE0E0000 		.4byte	.LLST196
 10499 1d33 00       		.byte	0
 10500 1d34 2B       		.uleb128 0x2b
 10501 1d35 7D030000 		.4byte	0x37d
 10502 1d39 3A080000 		.4byte	.LBB1543
 10503 1d3d 0E000000 		.4byte	.LBE1543-.LBB1543
 10504 1d41 02       		.byte	0x2
 10505 1d42 80       		.byte	0x80
 10506 1d43 25       		.uleb128 0x25
 10507 1d44 98030000 		.4byte	0x398
 10508 1d48 120F0000 		.4byte	.LLST197
 10509 1d4c 29       		.uleb128 0x29
 10510 1d4d 8E030000 		.4byte	0x38e
 10511 1d51 2C       		.uleb128 0x2c
 10512 1d52 F9020000 		.4byte	0x2f9
 10513 1d56 3A080000 		.4byte	.LBB1544
 10514 1d5a 0E000000 		.4byte	.LBE1544-.LBB1544
 10515 1d5e 03       		.byte	0x3
 10516 1d5f 8601     		.2byte	0x186
 10517 1d61 25       		.uleb128 0x25
 10518 1d62 14030000 		.4byte	0x314
 10519 1d66 120F0000 		.4byte	.LLST197
 10520 1d6a 29       		.uleb128 0x29
 10521 1d6b 0A030000 		.4byte	0x30a
 10522 1d6f 2C       		.uleb128 0x2c
 10523 1d70 C8020000 		.4byte	0x2c8
 10524 1d74 3A080000 		.4byte	.LBB1545
 10525 1d78 0E000000 		.4byte	.LBE1545-.LBB1545
 10526 1d7c 03       		.byte	0x3
 10527 1d7d 4B01     		.2byte	0x14b
 10528 1d7f 29       		.uleb128 0x29
 10529 1d80 EA020000 		.4byte	0x2ea
 10530 1d84 25       		.uleb128 0x25
 10531 1d85 E1020000 		.4byte	0x2e1
 10532 1d89 120F0000 		.4byte	.LLST197
 10533 1d8d 25       		.uleb128 0x25
 10534 1d8e D8020000 		.4byte	0x2d8
 10535 1d92 2A0F0000 		.4byte	.LLST200
 10536 1d96 00       		.byte	0
 10537 1d97 00       		.byte	0
 10538 1d98 00       		.byte	0
 10539 1d99 00       		.byte	0
 10540 1d9a 00       		.byte	0
 10541 1d9b 2A       		.uleb128 0x2a
ARM GAS  /tmp/ccJJl1OT.s 			page 186


 10542 1d9c 0E040000 		.4byte	0x40e
 10543 1da0 64080000 		.4byte	.LBB1547
 10544 1da4 1E000000 		.4byte	.LBE1547-.LBB1547
 10545 1da8 01       		.byte	0x1
 10546 1da9 86       		.byte	0x86
 10547 1daa 661E0000 		.4byte	0x1e66
 10548 1dae 25       		.uleb128 0x25
 10549 1daf 29040000 		.4byte	0x429
 10550 1db3 480F0000 		.4byte	.LLST201
 10551 1db7 25       		.uleb128 0x25
 10552 1db8 1E040000 		.4byte	0x41e
 10553 1dbc 5B0F0000 		.4byte	.LLST202
 10554 1dc0 1D       		.uleb128 0x1d
 10555 1dc1 64080000 		.4byte	.LBB1548
 10556 1dc5 1E000000 		.4byte	.LBE1548-.LBB1548
 10557 1dc9 27       		.uleb128 0x27
 10558 1dca 34040000 		.4byte	0x434
 10559 1dce 27       		.uleb128 0x27
 10560 1dcf 3E040000 		.4byte	0x43e
 10561 1dd3 27       		.uleb128 0x27
 10562 1dd4 48040000 		.4byte	0x448
 10563 1dd8 2A       		.uleb128 0x2a
 10564 1dd9 A3030000 		.4byte	0x3a3
 10565 1ddd 6C080000 		.4byte	.LBB1549
 10566 1de1 04000000 		.4byte	.LBE1549-.LBB1549
 10567 1de5 02       		.byte	0x2
 10568 1de6 80       		.byte	0x80
 10569 1de7 FF1D0000 		.4byte	0x1dff
 10570 1deb 29       		.uleb128 0x29
 10571 1dec CA030000 		.4byte	0x3ca
 10572 1df0 29       		.uleb128 0x29
 10573 1df1 BF030000 		.4byte	0x3bf
 10574 1df5 25       		.uleb128 0x25
 10575 1df6 B4030000 		.4byte	0x3b4
 10576 1dfa 6E0F0000 		.4byte	.LLST203
 10577 1dfe 00       		.byte	0
 10578 1dff 2B       		.uleb128 0x2b
 10579 1e00 7D030000 		.4byte	0x37d
 10580 1e04 70080000 		.4byte	.LBB1551
 10581 1e08 0E000000 		.4byte	.LBE1551-.LBB1551
 10582 1e0c 02       		.byte	0x2
 10583 1e0d 80       		.byte	0x80
 10584 1e0e 25       		.uleb128 0x25
 10585 1e0f 98030000 		.4byte	0x398
 10586 1e13 820F0000 		.4byte	.LLST204
 10587 1e17 29       		.uleb128 0x29
 10588 1e18 8E030000 		.4byte	0x38e
 10589 1e1c 2C       		.uleb128 0x2c
 10590 1e1d F9020000 		.4byte	0x2f9
 10591 1e21 70080000 		.4byte	.LBB1552
 10592 1e25 0E000000 		.4byte	.LBE1552-.LBB1552
 10593 1e29 03       		.byte	0x3
 10594 1e2a 8601     		.2byte	0x186
 10595 1e2c 25       		.uleb128 0x25
 10596 1e2d 14030000 		.4byte	0x314
 10597 1e31 820F0000 		.4byte	.LLST204
 10598 1e35 29       		.uleb128 0x29
ARM GAS  /tmp/ccJJl1OT.s 			page 187


 10599 1e36 0A030000 		.4byte	0x30a
 10600 1e3a 2C       		.uleb128 0x2c
 10601 1e3b C8020000 		.4byte	0x2c8
 10602 1e3f 70080000 		.4byte	.LBB1553
 10603 1e43 0E000000 		.4byte	.LBE1553-.LBB1553
 10604 1e47 03       		.byte	0x3
 10605 1e48 4B01     		.2byte	0x14b
 10606 1e4a 29       		.uleb128 0x29
 10607 1e4b EA020000 		.4byte	0x2ea
 10608 1e4f 25       		.uleb128 0x25
 10609 1e50 E1020000 		.4byte	0x2e1
 10610 1e54 820F0000 		.4byte	.LLST204
 10611 1e58 25       		.uleb128 0x25
 10612 1e59 D8020000 		.4byte	0x2d8
 10613 1e5d 9A0F0000 		.4byte	.LLST207
 10614 1e61 00       		.byte	0
 10615 1e62 00       		.byte	0
 10616 1e63 00       		.byte	0
 10617 1e64 00       		.byte	0
 10618 1e65 00       		.byte	0
 10619 1e66 24       		.uleb128 0x24
 10620 1e67 0E040000 		.4byte	0x40e
 10621 1e6b 82080000 		.4byte	.LBB1555
 10622 1e6f B8080000 		.4byte	.Ldebug_ranges0+0x8b8
 10623 1e73 01       		.byte	0x1
 10624 1e74 87       		.byte	0x87
 10625 1e75 9B1F0000 		.4byte	0x1f9b
 10626 1e79 25       		.uleb128 0x25
 10627 1e7a 29040000 		.4byte	0x429
 10628 1e7e B80F0000 		.4byte	.LLST208
 10629 1e82 29       		.uleb128 0x29
 10630 1e83 1E040000 		.4byte	0x41e
 10631 1e87 26       		.uleb128 0x26
 10632 1e88 B8080000 		.4byte	.Ldebug_ranges0+0x8b8
 10633 1e8c 27       		.uleb128 0x27
 10634 1e8d 34040000 		.4byte	0x434
 10635 1e91 27       		.uleb128 0x27
 10636 1e92 3E040000 		.4byte	0x43e
 10637 1e96 27       		.uleb128 0x27
 10638 1e97 48040000 		.4byte	0x448
 10639 1e9b 24       		.uleb128 0x24
 10640 1e9c D6030000 		.4byte	0x3d6
 10641 1ea0 82080000 		.4byte	.LBB1557
 10642 1ea4 08090000 		.4byte	.Ldebug_ranges0+0x908
 10643 1ea8 02       		.byte	0x2
 10644 1ea9 7D       		.byte	0x7d
 10645 1eaa CE1E0000 		.4byte	0x1ece
 10646 1eae 29       		.uleb128 0x29
 10647 1eaf E6030000 		.4byte	0x3e6
 10648 1eb3 28       		.uleb128 0x28
 10649 1eb4 55030000 		.4byte	0x355
 10650 1eb8 82080000 		.4byte	.LBB1559
 10651 1ebc 30090000 		.4byte	.Ldebug_ranges0+0x930
 10652 1ec0 02       		.byte	0x2
 10653 1ec1 73       		.byte	0x73
 10654 1ec2 29       		.uleb128 0x29
 10655 1ec3 6E030000 		.4byte	0x36e
ARM GAS  /tmp/ccJJl1OT.s 			page 188


 10656 1ec7 29       		.uleb128 0x29
 10657 1ec8 65030000 		.4byte	0x365
 10658 1ecc 00       		.byte	0
 10659 1ecd 00       		.byte	0
 10660 1ece 24       		.uleb128 0x24
 10661 1ecf D6030000 		.4byte	0x3d6
 10662 1ed3 A8080000 		.4byte	.LBB1569
 10663 1ed7 48090000 		.4byte	.Ldebug_ranges0+0x948
 10664 1edb 02       		.byte	0x2
 10665 1edc 7E       		.byte	0x7e
 10666 1edd 0D1F0000 		.4byte	0x1f0d
 10667 1ee1 25       		.uleb128 0x25
 10668 1ee2 E6030000 		.4byte	0x3e6
 10669 1ee6 CB0F0000 		.4byte	.LLST209
 10670 1eea 28       		.uleb128 0x28
 10671 1eeb 55030000 		.4byte	0x355
 10672 1eef A8080000 		.4byte	.LBB1571
 10673 1ef3 60090000 		.4byte	.Ldebug_ranges0+0x960
 10674 1ef7 02       		.byte	0x2
 10675 1ef8 73       		.byte	0x73
 10676 1ef9 25       		.uleb128 0x25
 10677 1efa 6E030000 		.4byte	0x36e
 10678 1efe DE0F0000 		.4byte	.LLST210
 10679 1f02 25       		.uleb128 0x25
 10680 1f03 65030000 		.4byte	0x365
 10681 1f07 CB0F0000 		.4byte	.LLST209
 10682 1f0b 00       		.byte	0
 10683 1f0c 00       		.byte	0
 10684 1f0d 24       		.uleb128 0x24
 10685 1f0e A3030000 		.4byte	0x3a3
 10686 1f12 B8080000 		.4byte	.LBB1577
 10687 1f16 78090000 		.4byte	.Ldebug_ranges0+0x978
 10688 1f1a 02       		.byte	0x2
 10689 1f1b 80       		.byte	0x80
 10690 1f1c 341F0000 		.4byte	0x1f34
 10691 1f20 29       		.uleb128 0x29
 10692 1f21 CA030000 		.4byte	0x3ca
 10693 1f25 29       		.uleb128 0x29
 10694 1f26 BF030000 		.4byte	0x3bf
 10695 1f2a 25       		.uleb128 0x25
 10696 1f2b B4030000 		.4byte	0x3b4
 10697 1f2f F30F0000 		.4byte	.LLST212
 10698 1f33 00       		.byte	0
 10699 1f34 2B       		.uleb128 0x2b
 10700 1f35 7D030000 		.4byte	0x37d
 10701 1f39 D2080000 		.4byte	.LBB1583
 10702 1f3d 0E000000 		.4byte	.LBE1583-.LBB1583
 10703 1f41 02       		.byte	0x2
 10704 1f42 80       		.byte	0x80
 10705 1f43 25       		.uleb128 0x25
 10706 1f44 98030000 		.4byte	0x398
 10707 1f48 07100000 		.4byte	.LLST213
 10708 1f4c 29       		.uleb128 0x29
 10709 1f4d 8E030000 		.4byte	0x38e
 10710 1f51 2C       		.uleb128 0x2c
 10711 1f52 F9020000 		.4byte	0x2f9
 10712 1f56 D2080000 		.4byte	.LBB1584
ARM GAS  /tmp/ccJJl1OT.s 			page 189


 10713 1f5a 0E000000 		.4byte	.LBE1584-.LBB1584
 10714 1f5e 03       		.byte	0x3
 10715 1f5f 8601     		.2byte	0x186
 10716 1f61 25       		.uleb128 0x25
 10717 1f62 14030000 		.4byte	0x314
 10718 1f66 07100000 		.4byte	.LLST213
 10719 1f6a 29       		.uleb128 0x29
 10720 1f6b 0A030000 		.4byte	0x30a
 10721 1f6f 2C       		.uleb128 0x2c
 10722 1f70 C8020000 		.4byte	0x2c8
 10723 1f74 D2080000 		.4byte	.LBB1585
 10724 1f78 0E000000 		.4byte	.LBE1585-.LBB1585
 10725 1f7c 03       		.byte	0x3
 10726 1f7d 4B01     		.2byte	0x14b
 10727 1f7f 29       		.uleb128 0x29
 10728 1f80 EA020000 		.4byte	0x2ea
 10729 1f84 25       		.uleb128 0x25
 10730 1f85 E1020000 		.4byte	0x2e1
 10731 1f89 07100000 		.4byte	.LLST213
 10732 1f8d 25       		.uleb128 0x25
 10733 1f8e D8020000 		.4byte	0x2d8
 10734 1f92 1F100000 		.4byte	.LLST216
 10735 1f96 00       		.byte	0
 10736 1f97 00       		.byte	0
 10737 1f98 00       		.byte	0
 10738 1f99 00       		.byte	0
 10739 1f9a 00       		.byte	0
 10740 1f9b 24       		.uleb128 0x24
 10741 1f9c 0E040000 		.4byte	0x40e
 10742 1fa0 E0080000 		.4byte	.LBB1602
 10743 1fa4 98090000 		.4byte	.Ldebug_ranges0+0x998
 10744 1fa8 01       		.byte	0x1
 10745 1fa9 88       		.byte	0x88
 10746 1faa DC200000 		.4byte	0x20dc
 10747 1fae 29       		.uleb128 0x29
 10748 1faf 29040000 		.4byte	0x429
 10749 1fb3 25       		.uleb128 0x25
 10750 1fb4 1E040000 		.4byte	0x41e
 10751 1fb8 3D100000 		.4byte	.LLST217
 10752 1fbc 26       		.uleb128 0x26
 10753 1fbd 98090000 		.4byte	.Ldebug_ranges0+0x998
 10754 1fc1 27       		.uleb128 0x27
 10755 1fc2 34040000 		.4byte	0x434
 10756 1fc6 27       		.uleb128 0x27
 10757 1fc7 3E040000 		.4byte	0x43e
 10758 1fcb 27       		.uleb128 0x27
 10759 1fcc 48040000 		.4byte	0x448
 10760 1fd0 24       		.uleb128 0x24
 10761 1fd1 D6030000 		.4byte	0x3d6
 10762 1fd5 E0080000 		.4byte	.LBB1604
 10763 1fd9 B8090000 		.4byte	.Ldebug_ranges0+0x9b8
 10764 1fdd 02       		.byte	0x2
 10765 1fde 7D       		.byte	0x7d
 10766 1fdf 0F200000 		.4byte	0x200f
 10767 1fe3 25       		.uleb128 0x25
 10768 1fe4 E6030000 		.4byte	0x3e6
 10769 1fe8 50100000 		.4byte	.LLST218
ARM GAS  /tmp/ccJJl1OT.s 			page 190


 10770 1fec 28       		.uleb128 0x28
 10771 1fed 55030000 		.4byte	0x355
 10772 1ff1 E0080000 		.4byte	.LBB1606
 10773 1ff5 D8090000 		.4byte	.Ldebug_ranges0+0x9d8
 10774 1ff9 02       		.byte	0x2
 10775 1ffa 73       		.byte	0x73
 10776 1ffb 25       		.uleb128 0x25
 10777 1ffc 6E030000 		.4byte	0x36e
 10778 2000 63100000 		.4byte	.LLST219
 10779 2004 25       		.uleb128 0x25
 10780 2005 65030000 		.4byte	0x365
 10781 2009 78100000 		.4byte	.LLST220
 10782 200d 00       		.byte	0
 10783 200e 00       		.byte	0
 10784 200f 2A       		.uleb128 0x2a
 10785 2010 D6030000 		.4byte	0x3d6
 10786 2014 08090000 		.4byte	.LBB1614
 10787 2018 10000000 		.4byte	.LBE1614-.LBB1614
 10788 201c 02       		.byte	0x2
 10789 201d 7E       		.byte	0x7e
 10790 201e 4E200000 		.4byte	0x204e
 10791 2022 25       		.uleb128 0x25
 10792 2023 E6030000 		.4byte	0x3e6
 10793 2027 8B100000 		.4byte	.LLST221
 10794 202b 2B       		.uleb128 0x2b
 10795 202c 55030000 		.4byte	0x355
 10796 2030 08090000 		.4byte	.LBB1616
 10797 2034 0C000000 		.4byte	.LBE1616-.LBB1616
 10798 2038 02       		.byte	0x2
 10799 2039 73       		.byte	0x73
 10800 203a 25       		.uleb128 0x25
 10801 203b 6E030000 		.4byte	0x36e
 10802 203f 9E100000 		.4byte	.LLST222
 10803 2043 25       		.uleb128 0x25
 10804 2044 65030000 		.4byte	0x365
 10805 2048 8B100000 		.4byte	.LLST221
 10806 204c 00       		.byte	0
 10807 204d 00       		.byte	0
 10808 204e 2A       		.uleb128 0x2a
 10809 204f A3030000 		.4byte	0x3a3
 10810 2053 18090000 		.4byte	.LBB1618
 10811 2057 10000000 		.4byte	.LBE1618-.LBB1618
 10812 205b 02       		.byte	0x2
 10813 205c 80       		.byte	0x80
 10814 205d 75200000 		.4byte	0x2075
 10815 2061 29       		.uleb128 0x29
 10816 2062 CA030000 		.4byte	0x3ca
 10817 2066 29       		.uleb128 0x29
 10818 2067 BF030000 		.4byte	0x3bf
 10819 206b 25       		.uleb128 0x25
 10820 206c B4030000 		.4byte	0x3b4
 10821 2070 B3100000 		.4byte	.LLST224
 10822 2074 00       		.byte	0
 10823 2075 2B       		.uleb128 0x2b
 10824 2076 7D030000 		.4byte	0x37d
 10825 207a 28090000 		.4byte	.LBB1620
 10826 207e 0E000000 		.4byte	.LBE1620-.LBB1620
ARM GAS  /tmp/ccJJl1OT.s 			page 191


 10827 2082 02       		.byte	0x2
 10828 2083 80       		.byte	0x80
 10829 2084 25       		.uleb128 0x25
 10830 2085 98030000 		.4byte	0x398
 10831 2089 C7100000 		.4byte	.LLST225
 10832 208d 29       		.uleb128 0x29
 10833 208e 8E030000 		.4byte	0x38e
 10834 2092 2C       		.uleb128 0x2c
 10835 2093 F9020000 		.4byte	0x2f9
 10836 2097 28090000 		.4byte	.LBB1621
 10837 209b 0E000000 		.4byte	.LBE1621-.LBB1621
 10838 209f 03       		.byte	0x3
 10839 20a0 8601     		.2byte	0x186
 10840 20a2 25       		.uleb128 0x25
 10841 20a3 14030000 		.4byte	0x314
 10842 20a7 C7100000 		.4byte	.LLST225
 10843 20ab 29       		.uleb128 0x29
 10844 20ac 0A030000 		.4byte	0x30a
 10845 20b0 2C       		.uleb128 0x2c
 10846 20b1 C8020000 		.4byte	0x2c8
 10847 20b5 28090000 		.4byte	.LBB1622
 10848 20b9 0E000000 		.4byte	.LBE1622-.LBB1622
 10849 20bd 03       		.byte	0x3
 10850 20be 4B01     		.2byte	0x14b
 10851 20c0 29       		.uleb128 0x29
 10852 20c1 EA020000 		.4byte	0x2ea
 10853 20c5 25       		.uleb128 0x25
 10854 20c6 E1020000 		.4byte	0x2e1
 10855 20ca C7100000 		.4byte	.LLST225
 10856 20ce 25       		.uleb128 0x25
 10857 20cf D8020000 		.4byte	0x2d8
 10858 20d3 DF100000 		.4byte	.LLST228
 10859 20d7 00       		.byte	0
 10860 20d8 00       		.byte	0
 10861 20d9 00       		.byte	0
 10862 20da 00       		.byte	0
 10863 20db 00       		.byte	0
 10864 20dc 24       		.uleb128 0x24
 10865 20dd 0E040000 		.4byte	0x40e
 10866 20e1 42090000 		.4byte	.LBB1629
 10867 20e5 F0090000 		.4byte	.Ldebug_ranges0+0x9f0
 10868 20e9 01       		.byte	0x1
 10869 20ea 89       		.byte	0x89
 10870 20eb 9F210000 		.4byte	0x219f
 10871 20ef 29       		.uleb128 0x29
 10872 20f0 29040000 		.4byte	0x429
 10873 20f4 25       		.uleb128 0x25
 10874 20f5 1E040000 		.4byte	0x41e
 10875 20f9 FD100000 		.4byte	.LLST229
 10876 20fd 26       		.uleb128 0x26
 10877 20fe F0090000 		.4byte	.Ldebug_ranges0+0x9f0
 10878 2102 27       		.uleb128 0x27
 10879 2103 34040000 		.4byte	0x434
 10880 2107 27       		.uleb128 0x27
 10881 2108 3E040000 		.4byte	0x43e
 10882 210c 27       		.uleb128 0x27
 10883 210d 48040000 		.4byte	0x448
ARM GAS  /tmp/ccJJl1OT.s 			page 192


 10884 2111 2A       		.uleb128 0x2a
 10885 2112 A3030000 		.4byte	0x3a3
 10886 2116 42090000 		.4byte	.LBB1631
 10887 211a 08000000 		.4byte	.LBE1631-.LBB1631
 10888 211e 02       		.byte	0x2
 10889 211f 80       		.byte	0x80
 10890 2120 38210000 		.4byte	0x2138
 10891 2124 29       		.uleb128 0x29
 10892 2125 CA030000 		.4byte	0x3ca
 10893 2129 29       		.uleb128 0x29
 10894 212a BF030000 		.4byte	0x3bf
 10895 212e 25       		.uleb128 0x25
 10896 212f B4030000 		.4byte	0x3b4
 10897 2133 25110000 		.4byte	.LLST230
 10898 2137 00       		.byte	0
 10899 2138 28       		.uleb128 0x28
 10900 2139 7D030000 		.4byte	0x37d
 10901 213d 4E090000 		.4byte	.LBB1633
 10902 2141 180A0000 		.4byte	.Ldebug_ranges0+0xa18
 10903 2145 02       		.byte	0x2
 10904 2146 80       		.byte	0x80
 10905 2147 25       		.uleb128 0x25
 10906 2148 98030000 		.4byte	0x398
 10907 214c 39110000 		.4byte	.LLST231
 10908 2150 29       		.uleb128 0x29
 10909 2151 8E030000 		.4byte	0x38e
 10910 2155 2D       		.uleb128 0x2d
 10911 2156 F9020000 		.4byte	0x2f9
 10912 215a 4E090000 		.4byte	.LBB1634
 10913 215e 180A0000 		.4byte	.Ldebug_ranges0+0xa18
 10914 2162 03       		.byte	0x3
 10915 2163 8601     		.2byte	0x186
 10916 2165 25       		.uleb128 0x25
 10917 2166 14030000 		.4byte	0x314
 10918 216a 39110000 		.4byte	.LLST231
 10919 216e 29       		.uleb128 0x29
 10920 216f 0A030000 		.4byte	0x30a
 10921 2173 2D       		.uleb128 0x2d
 10922 2174 C8020000 		.4byte	0x2c8
 10923 2178 4E090000 		.4byte	.LBB1635
 10924 217c 180A0000 		.4byte	.Ldebug_ranges0+0xa18
 10925 2180 03       		.byte	0x3
 10926 2181 4B01     		.2byte	0x14b
 10927 2183 29       		.uleb128 0x29
 10928 2184 EA020000 		.4byte	0x2ea
 10929 2188 25       		.uleb128 0x25
 10930 2189 E1020000 		.4byte	0x2e1
 10931 218d 39110000 		.4byte	.LLST231
 10932 2191 25       		.uleb128 0x25
 10933 2192 D8020000 		.4byte	0x2d8
 10934 2196 51110000 		.4byte	.LLST234
 10935 219a 00       		.byte	0
 10936 219b 00       		.byte	0
 10937 219c 00       		.byte	0
 10938 219d 00       		.byte	0
 10939 219e 00       		.byte	0
 10940 219f 24       		.uleb128 0x24
ARM GAS  /tmp/ccJJl1OT.s 			page 193


 10941 21a0 0E040000 		.4byte	0x40e
 10942 21a4 4A090000 		.4byte	.LBB1644
 10943 21a8 300A0000 		.4byte	.Ldebug_ranges0+0xa30
 10944 21ac 01       		.byte	0x1
 10945 21ad 8A       		.byte	0x8a
 10946 21ae 4A220000 		.4byte	0x224a
 10947 21b2 29       		.uleb128 0x29
 10948 21b3 29040000 		.4byte	0x429
 10949 21b7 29       		.uleb128 0x29
 10950 21b8 1E040000 		.4byte	0x41e
 10951 21bc 26       		.uleb128 0x26
 10952 21bd 300A0000 		.4byte	.Ldebug_ranges0+0xa30
 10953 21c1 27       		.uleb128 0x27
 10954 21c2 34040000 		.4byte	0x434
 10955 21c6 27       		.uleb128 0x27
 10956 21c7 3E040000 		.4byte	0x43e
 10957 21cb 27       		.uleb128 0x27
 10958 21cc 48040000 		.4byte	0x448
 10959 21d0 2A       		.uleb128 0x2a
 10960 21d1 A3030000 		.4byte	0x3a3
 10961 21d5 4A090000 		.4byte	.LBB1646
 10962 21d9 04000000 		.4byte	.LBE1646-.LBB1646
 10963 21dd 02       		.byte	0x2
 10964 21de 80       		.byte	0x80
 10965 21df F3210000 		.4byte	0x21f3
 10966 21e3 29       		.uleb128 0x29
 10967 21e4 CA030000 		.4byte	0x3ca
 10968 21e8 29       		.uleb128 0x29
 10969 21e9 BF030000 		.4byte	0x3bf
 10970 21ed 29       		.uleb128 0x29
 10971 21ee B4030000 		.4byte	0x3b4
 10972 21f2 00       		.byte	0
 10973 21f3 28       		.uleb128 0x28
 10974 21f4 7D030000 		.4byte	0x37d
 10975 21f8 56090000 		.4byte	.LBB1648
 10976 21fc 580A0000 		.4byte	.Ldebug_ranges0+0xa58
 10977 2200 02       		.byte	0x2
 10978 2201 80       		.byte	0x80
 10979 2202 29       		.uleb128 0x29
 10980 2203 98030000 		.4byte	0x398
 10981 2207 29       		.uleb128 0x29
 10982 2208 8E030000 		.4byte	0x38e
 10983 220c 2D       		.uleb128 0x2d
 10984 220d F9020000 		.4byte	0x2f9
 10985 2211 56090000 		.4byte	.LBB1649
 10986 2215 580A0000 		.4byte	.Ldebug_ranges0+0xa58
 10987 2219 03       		.byte	0x3
 10988 221a 8601     		.2byte	0x186
 10989 221c 29       		.uleb128 0x29
 10990 221d 14030000 		.4byte	0x314
 10991 2221 29       		.uleb128 0x29
 10992 2222 0A030000 		.4byte	0x30a
 10993 2226 2D       		.uleb128 0x2d
 10994 2227 C8020000 		.4byte	0x2c8
 10995 222b 56090000 		.4byte	.LBB1650
 10996 222f 580A0000 		.4byte	.Ldebug_ranges0+0xa58
 10997 2233 03       		.byte	0x3
ARM GAS  /tmp/ccJJl1OT.s 			page 194


 10998 2234 4B01     		.2byte	0x14b
 10999 2236 29       		.uleb128 0x29
 11000 2237 EA020000 		.4byte	0x2ea
 11001 223b 29       		.uleb128 0x29
 11002 223c E1020000 		.4byte	0x2e1
 11003 2240 29       		.uleb128 0x29
 11004 2241 D8020000 		.4byte	0x2d8
 11005 2245 00       		.byte	0
 11006 2246 00       		.byte	0
 11007 2247 00       		.byte	0
 11008 2248 00       		.byte	0
 11009 2249 00       		.byte	0
 11010 224a 24       		.uleb128 0x24
 11011 224b 0E040000 		.4byte	0x40e
 11012 224f 6A090000 		.4byte	.LBB1663
 11013 2253 700A0000 		.4byte	.Ldebug_ranges0+0xa70
 11014 2257 01       		.byte	0x1
 11015 2258 8B       		.byte	0x8b
 11016 2259 73230000 		.4byte	0x2373
 11017 225d 25       		.uleb128 0x25
 11018 225e 29040000 		.4byte	0x429
 11019 2262 6F110000 		.4byte	.LLST235
 11020 2266 29       		.uleb128 0x29
 11021 2267 1E040000 		.4byte	0x41e
 11022 226b 26       		.uleb128 0x26
 11023 226c 700A0000 		.4byte	.Ldebug_ranges0+0xa70
 11024 2270 27       		.uleb128 0x27
 11025 2271 34040000 		.4byte	0x434
 11026 2275 27       		.uleb128 0x27
 11027 2276 3E040000 		.4byte	0x43e
 11028 227a 27       		.uleb128 0x27
 11029 227b 48040000 		.4byte	0x448
 11030 227f 24       		.uleb128 0x24
 11031 2280 D6030000 		.4byte	0x3d6
 11032 2284 6A090000 		.4byte	.LBB1665
 11033 2288 B00A0000 		.4byte	.Ldebug_ranges0+0xab0
 11034 228c 02       		.byte	0x2
 11035 228d 7D       		.byte	0x7d
 11036 228e B2220000 		.4byte	0x22b2
 11037 2292 29       		.uleb128 0x29
 11038 2293 E6030000 		.4byte	0x3e6
 11039 2297 2B       		.uleb128 0x2b
 11040 2298 55030000 		.4byte	0x355
 11041 229c 6A090000 		.4byte	.LBB1667
 11042 22a0 06000000 		.4byte	.LBE1667-.LBB1667
 11043 22a4 02       		.byte	0x2
 11044 22a5 73       		.byte	0x73
 11045 22a6 29       		.uleb128 0x29
 11046 22a7 6E030000 		.4byte	0x36e
 11047 22ab 29       		.uleb128 0x29
 11048 22ac 65030000 		.4byte	0x365
 11049 22b0 00       		.byte	0
 11050 22b1 00       		.byte	0
 11051 22b2 24       		.uleb128 0x24
 11052 22b3 D6030000 		.4byte	0x3d6
 11053 22b7 70090000 		.4byte	.LBB1671
 11054 22bb D00A0000 		.4byte	.Ldebug_ranges0+0xad0
ARM GAS  /tmp/ccJJl1OT.s 			page 195


 11055 22bf 02       		.byte	0x2
 11056 22c0 7E       		.byte	0x7e
 11057 22c1 E5220000 		.4byte	0x22e5
 11058 22c5 29       		.uleb128 0x29
 11059 22c6 E6030000 		.4byte	0x3e6
 11060 22ca 28       		.uleb128 0x28
 11061 22cb 55030000 		.4byte	0x355
 11062 22cf 70090000 		.4byte	.LBB1673
 11063 22d3 E80A0000 		.4byte	.Ldebug_ranges0+0xae8
 11064 22d7 02       		.byte	0x2
 11065 22d8 73       		.byte	0x73
 11066 22d9 29       		.uleb128 0x29
 11067 22da 6E030000 		.4byte	0x36e
 11068 22de 29       		.uleb128 0x29
 11069 22df 65030000 		.4byte	0x365
 11070 22e3 00       		.byte	0
 11071 22e4 00       		.byte	0
 11072 22e5 24       		.uleb128 0x24
 11073 22e6 A3030000 		.4byte	0x3a3
 11074 22ea 9E090000 		.4byte	.LBB1681
 11075 22ee 000B0000 		.4byte	.Ldebug_ranges0+0xb00
 11076 22f2 02       		.byte	0x2
 11077 22f3 80       		.byte	0x80
 11078 22f4 0C230000 		.4byte	0x230c
 11079 22f8 29       		.uleb128 0x29
 11080 22f9 CA030000 		.4byte	0x3ca
 11081 22fd 29       		.uleb128 0x29
 11082 22fe BF030000 		.4byte	0x3bf
 11083 2302 25       		.uleb128 0x25
 11084 2303 B4030000 		.4byte	0x3b4
 11085 2307 84110000 		.4byte	.LLST236
 11086 230b 00       		.byte	0
 11087 230c 2B       		.uleb128 0x2b
 11088 230d 7D030000 		.4byte	0x37d
 11089 2311 B0090000 		.4byte	.LBB1687
 11090 2315 0E000000 		.4byte	.LBE1687-.LBB1687
 11091 2319 02       		.byte	0x2
 11092 231a 80       		.byte	0x80
 11093 231b 25       		.uleb128 0x25
 11094 231c 98030000 		.4byte	0x398
 11095 2320 98110000 		.4byte	.LLST237
 11096 2324 29       		.uleb128 0x29
 11097 2325 8E030000 		.4byte	0x38e
 11098 2329 2C       		.uleb128 0x2c
 11099 232a F9020000 		.4byte	0x2f9
 11100 232e B0090000 		.4byte	.LBB1688
 11101 2332 0E000000 		.4byte	.LBE1688-.LBB1688
 11102 2336 03       		.byte	0x3
 11103 2337 8601     		.2byte	0x186
 11104 2339 25       		.uleb128 0x25
 11105 233a 14030000 		.4byte	0x314
 11106 233e 98110000 		.4byte	.LLST237
 11107 2342 29       		.uleb128 0x29
 11108 2343 0A030000 		.4byte	0x30a
 11109 2347 2C       		.uleb128 0x2c
 11110 2348 C8020000 		.4byte	0x2c8
 11111 234c B0090000 		.4byte	.LBB1689
ARM GAS  /tmp/ccJJl1OT.s 			page 196


 11112 2350 0E000000 		.4byte	.LBE1689-.LBB1689
 11113 2354 03       		.byte	0x3
 11114 2355 4B01     		.2byte	0x14b
 11115 2357 29       		.uleb128 0x29
 11116 2358 EA020000 		.4byte	0x2ea
 11117 235c 25       		.uleb128 0x25
 11118 235d E1020000 		.4byte	0x2e1
 11119 2361 98110000 		.4byte	.LLST237
 11120 2365 25       		.uleb128 0x25
 11121 2366 D8020000 		.4byte	0x2d8
 11122 236a B0110000 		.4byte	.LLST240
 11123 236e 00       		.byte	0
 11124 236f 00       		.byte	0
 11125 2370 00       		.byte	0
 11126 2371 00       		.byte	0
 11127 2372 00       		.byte	0
 11128 2373 24       		.uleb128 0x24
 11129 2374 0E040000 		.4byte	0x40e
 11130 2378 BE090000 		.4byte	.LBB1704
 11131 237c 200B0000 		.4byte	.Ldebug_ranges0+0xb20
 11132 2380 01       		.byte	0x1
 11133 2381 8C       		.byte	0x8c
 11134 2382 B4240000 		.4byte	0x24b4
 11135 2386 29       		.uleb128 0x29
 11136 2387 29040000 		.4byte	0x429
 11137 238b 25       		.uleb128 0x25
 11138 238c 1E040000 		.4byte	0x41e
 11139 2390 CE110000 		.4byte	.LLST241
 11140 2394 26       		.uleb128 0x26
 11141 2395 200B0000 		.4byte	.Ldebug_ranges0+0xb20
 11142 2399 27       		.uleb128 0x27
 11143 239a 34040000 		.4byte	0x434
 11144 239e 27       		.uleb128 0x27
 11145 239f 3E040000 		.4byte	0x43e
 11146 23a3 27       		.uleb128 0x27
 11147 23a4 48040000 		.4byte	0x448
 11148 23a8 24       		.uleb128 0x24
 11149 23a9 D6030000 		.4byte	0x3d6
 11150 23ad BE090000 		.4byte	.LBB1706
 11151 23b1 480B0000 		.4byte	.Ldebug_ranges0+0xb48
 11152 23b5 02       		.byte	0x2
 11153 23b6 7D       		.byte	0x7d
 11154 23b7 E7230000 		.4byte	0x23e7
 11155 23bb 25       		.uleb128 0x25
 11156 23bc E6030000 		.4byte	0x3e6
 11157 23c0 E1110000 		.4byte	.LLST242
 11158 23c4 28       		.uleb128 0x28
 11159 23c5 55030000 		.4byte	0x355
 11160 23c9 BE090000 		.4byte	.LBB1708
 11161 23cd 680B0000 		.4byte	.Ldebug_ranges0+0xb68
 11162 23d1 02       		.byte	0x2
 11163 23d2 73       		.byte	0x73
 11164 23d3 25       		.uleb128 0x25
 11165 23d4 6E030000 		.4byte	0x36e
 11166 23d8 F4110000 		.4byte	.LLST243
 11167 23dc 25       		.uleb128 0x25
 11168 23dd 65030000 		.4byte	0x365
ARM GAS  /tmp/ccJJl1OT.s 			page 197


 11169 23e1 09120000 		.4byte	.LLST244
 11170 23e5 00       		.byte	0
 11171 23e6 00       		.byte	0
 11172 23e7 2A       		.uleb128 0x2a
 11173 23e8 D6030000 		.4byte	0x3d6
 11174 23ec E0090000 		.4byte	.LBB1716
 11175 23f0 0E000000 		.4byte	.LBE1716-.LBB1716
 11176 23f4 02       		.byte	0x2
 11177 23f5 7E       		.byte	0x7e
 11178 23f6 26240000 		.4byte	0x2426
 11179 23fa 25       		.uleb128 0x25
 11180 23fb E6030000 		.4byte	0x3e6
 11181 23ff 1C120000 		.4byte	.LLST245
 11182 2403 2B       		.uleb128 0x2b
 11183 2404 55030000 		.4byte	0x355
 11184 2408 E0090000 		.4byte	.LBB1718
 11185 240c 0A000000 		.4byte	.LBE1718-.LBB1718
 11186 2410 02       		.byte	0x2
 11187 2411 73       		.byte	0x73
 11188 2412 25       		.uleb128 0x25
 11189 2413 6E030000 		.4byte	0x36e
 11190 2417 2F120000 		.4byte	.LLST246
 11191 241b 25       		.uleb128 0x25
 11192 241c 65030000 		.4byte	0x365
 11193 2420 1C120000 		.4byte	.LLST245
 11194 2424 00       		.byte	0
 11195 2425 00       		.byte	0
 11196 2426 24       		.uleb128 0x24
 11197 2427 A3030000 		.4byte	0x3a3
 11198 242b EE090000 		.4byte	.LBB1720
 11199 242f 800B0000 		.4byte	.Ldebug_ranges0+0xb80
 11200 2433 02       		.byte	0x2
 11201 2434 80       		.byte	0x80
 11202 2435 4D240000 		.4byte	0x244d
 11203 2439 29       		.uleb128 0x29
 11204 243a CA030000 		.4byte	0x3ca
 11205 243e 29       		.uleb128 0x29
 11206 243f BF030000 		.4byte	0x3bf
 11207 2443 25       		.uleb128 0x25
 11208 2444 B4030000 		.4byte	0x3b4
 11209 2448 44120000 		.4byte	.LLST248
 11210 244c 00       		.byte	0
 11211 244d 28       		.uleb128 0x28
 11212 244e 7D030000 		.4byte	0x37d
 11213 2452 020A0000 		.4byte	.LBB1725
 11214 2456 A00B0000 		.4byte	.Ldebug_ranges0+0xba0
 11215 245a 02       		.byte	0x2
 11216 245b 80       		.byte	0x80
 11217 245c 25       		.uleb128 0x25
 11218 245d 98030000 		.4byte	0x398
 11219 2461 58120000 		.4byte	.LLST249
 11220 2465 29       		.uleb128 0x29
 11221 2466 8E030000 		.4byte	0x38e
 11222 246a 2D       		.uleb128 0x2d
 11223 246b F9020000 		.4byte	0x2f9
 11224 246f 020A0000 		.4byte	.LBB1726
 11225 2473 A00B0000 		.4byte	.Ldebug_ranges0+0xba0
ARM GAS  /tmp/ccJJl1OT.s 			page 198


 11226 2477 03       		.byte	0x3
 11227 2478 8601     		.2byte	0x186
 11228 247a 25       		.uleb128 0x25
 11229 247b 14030000 		.4byte	0x314
 11230 247f 58120000 		.4byte	.LLST249
 11231 2483 29       		.uleb128 0x29
 11232 2484 0A030000 		.4byte	0x30a
 11233 2488 2D       		.uleb128 0x2d
 11234 2489 C8020000 		.4byte	0x2c8
 11235 248d 020A0000 		.4byte	.LBB1727
 11236 2491 A00B0000 		.4byte	.Ldebug_ranges0+0xba0
 11237 2495 03       		.byte	0x3
 11238 2496 4B01     		.2byte	0x14b
 11239 2498 29       		.uleb128 0x29
 11240 2499 EA020000 		.4byte	0x2ea
 11241 249d 25       		.uleb128 0x25
 11242 249e E1020000 		.4byte	0x2e1
 11243 24a2 58120000 		.4byte	.LLST249
 11244 24a6 25       		.uleb128 0x25
 11245 24a7 D8020000 		.4byte	0x2d8
 11246 24ab 70120000 		.4byte	.LLST252
 11247 24af 00       		.byte	0
 11248 24b0 00       		.byte	0
 11249 24b1 00       		.byte	0
 11250 24b2 00       		.byte	0
 11251 24b3 00       		.byte	0
 11252 24b4 24       		.uleb128 0x24
 11253 24b5 0E040000 		.4byte	0x40e
 11254 24b9 200A0000 		.4byte	.LBB1741
 11255 24bd B80B0000 		.4byte	.Ldebug_ranges0+0xbb8
 11256 24c1 01       		.byte	0x1
 11257 24c2 8D       		.byte	0x8d
 11258 24c3 77250000 		.4byte	0x2577
 11259 24c7 29       		.uleb128 0x29
 11260 24c8 29040000 		.4byte	0x429
 11261 24cc 25       		.uleb128 0x25
 11262 24cd 1E040000 		.4byte	0x41e
 11263 24d1 8E120000 		.4byte	.LLST253
 11264 24d5 26       		.uleb128 0x26
 11265 24d6 B80B0000 		.4byte	.Ldebug_ranges0+0xbb8
 11266 24da 27       		.uleb128 0x27
 11267 24db 34040000 		.4byte	0x434
 11268 24df 27       		.uleb128 0x27
 11269 24e0 3E040000 		.4byte	0x43e
 11270 24e4 27       		.uleb128 0x27
 11271 24e5 48040000 		.4byte	0x448
 11272 24e9 24       		.uleb128 0x24
 11273 24ea A3030000 		.4byte	0x3a3
 11274 24ee 200A0000 		.4byte	.LBB1743
 11275 24f2 E00B0000 		.4byte	.Ldebug_ranges0+0xbe0
 11276 24f6 02       		.byte	0x2
 11277 24f7 80       		.byte	0x80
 11278 24f8 10250000 		.4byte	0x2510
 11279 24fc 29       		.uleb128 0x29
 11280 24fd CA030000 		.4byte	0x3ca
 11281 2501 29       		.uleb128 0x29
 11282 2502 BF030000 		.4byte	0x3bf
ARM GAS  /tmp/ccJJl1OT.s 			page 199


 11283 2506 25       		.uleb128 0x25
 11284 2507 B4030000 		.4byte	0x3b4
 11285 250b BE120000 		.4byte	.LLST254
 11286 250f 00       		.byte	0
 11287 2510 28       		.uleb128 0x28
 11288 2511 7D030000 		.4byte	0x37d
 11289 2515 2C0A0000 		.4byte	.LBB1746
 11290 2519 F80B0000 		.4byte	.Ldebug_ranges0+0xbf8
 11291 251d 02       		.byte	0x2
 11292 251e 80       		.byte	0x80
 11293 251f 25       		.uleb128 0x25
 11294 2520 98030000 		.4byte	0x398
 11295 2524 D2120000 		.4byte	.LLST255
 11296 2528 29       		.uleb128 0x29
 11297 2529 8E030000 		.4byte	0x38e
 11298 252d 2D       		.uleb128 0x2d
 11299 252e F9020000 		.4byte	0x2f9
 11300 2532 2C0A0000 		.4byte	.LBB1747
 11301 2536 F80B0000 		.4byte	.Ldebug_ranges0+0xbf8
 11302 253a 03       		.byte	0x3
 11303 253b 8601     		.2byte	0x186
 11304 253d 25       		.uleb128 0x25
 11305 253e 14030000 		.4byte	0x314
 11306 2542 D2120000 		.4byte	.LLST255
 11307 2546 29       		.uleb128 0x29
 11308 2547 0A030000 		.4byte	0x30a
 11309 254b 2D       		.uleb128 0x2d
 11310 254c C8020000 		.4byte	0x2c8
 11311 2550 2C0A0000 		.4byte	.LBB1748
 11312 2554 F80B0000 		.4byte	.Ldebug_ranges0+0xbf8
 11313 2558 03       		.byte	0x3
 11314 2559 4B01     		.2byte	0x14b
 11315 255b 29       		.uleb128 0x29
 11316 255c EA020000 		.4byte	0x2ea
 11317 2560 25       		.uleb128 0x25
 11318 2561 E1020000 		.4byte	0x2e1
 11319 2565 D2120000 		.4byte	.LLST255
 11320 2569 25       		.uleb128 0x25
 11321 256a D8020000 		.4byte	0x2d8
 11322 256e EA120000 		.4byte	.LLST258
 11323 2572 00       		.byte	0
 11324 2573 00       		.byte	0
 11325 2574 00       		.byte	0
 11326 2575 00       		.byte	0
 11327 2576 00       		.byte	0
 11328 2577 24       		.uleb128 0x24
 11329 2578 0E040000 		.4byte	0x40e
 11330 257c 280A0000 		.4byte	.LBB1758
 11331 2580 100C0000 		.4byte	.Ldebug_ranges0+0xc10
 11332 2584 01       		.byte	0x1
 11333 2585 8E       		.byte	0x8e
 11334 2586 22260000 		.4byte	0x2622
 11335 258a 29       		.uleb128 0x29
 11336 258b 29040000 		.4byte	0x429
 11337 258f 29       		.uleb128 0x29
 11338 2590 1E040000 		.4byte	0x41e
 11339 2594 26       		.uleb128 0x26
ARM GAS  /tmp/ccJJl1OT.s 			page 200


 11340 2595 100C0000 		.4byte	.Ldebug_ranges0+0xc10
 11341 2599 27       		.uleb128 0x27
 11342 259a 34040000 		.4byte	0x434
 11343 259e 27       		.uleb128 0x27
 11344 259f 3E040000 		.4byte	0x43e
 11345 25a3 27       		.uleb128 0x27
 11346 25a4 48040000 		.4byte	0x448
 11347 25a8 2A       		.uleb128 0x2a
 11348 25a9 A3030000 		.4byte	0x3a3
 11349 25ad 280A0000 		.4byte	.LBB1760
 11350 25b1 04000000 		.4byte	.LBE1760-.LBB1760
 11351 25b5 02       		.byte	0x2
 11352 25b6 80       		.byte	0x80
 11353 25b7 CB250000 		.4byte	0x25cb
 11354 25bb 29       		.uleb128 0x29
 11355 25bc CA030000 		.4byte	0x3ca
 11356 25c0 29       		.uleb128 0x29
 11357 25c1 BF030000 		.4byte	0x3bf
 11358 25c5 29       		.uleb128 0x29
 11359 25c6 B4030000 		.4byte	0x3b4
 11360 25ca 00       		.byte	0
 11361 25cb 28       		.uleb128 0x28
 11362 25cc 7D030000 		.4byte	0x37d
 11363 25d0 380A0000 		.4byte	.LBB1762
 11364 25d4 380C0000 		.4byte	.Ldebug_ranges0+0xc38
 11365 25d8 02       		.byte	0x2
 11366 25d9 80       		.byte	0x80
 11367 25da 29       		.uleb128 0x29
 11368 25db 98030000 		.4byte	0x398
 11369 25df 29       		.uleb128 0x29
 11370 25e0 8E030000 		.4byte	0x38e
 11371 25e4 2D       		.uleb128 0x2d
 11372 25e5 F9020000 		.4byte	0x2f9
 11373 25e9 380A0000 		.4byte	.LBB1763
 11374 25ed 380C0000 		.4byte	.Ldebug_ranges0+0xc38
 11375 25f1 03       		.byte	0x3
 11376 25f2 8601     		.2byte	0x186
 11377 25f4 29       		.uleb128 0x29
 11378 25f5 14030000 		.4byte	0x314
 11379 25f9 29       		.uleb128 0x29
 11380 25fa 0A030000 		.4byte	0x30a
 11381 25fe 2D       		.uleb128 0x2d
 11382 25ff C8020000 		.4byte	0x2c8
 11383 2603 380A0000 		.4byte	.LBB1764
 11384 2607 380C0000 		.4byte	.Ldebug_ranges0+0xc38
 11385 260b 03       		.byte	0x3
 11386 260c 4B01     		.2byte	0x14b
 11387 260e 29       		.uleb128 0x29
 11388 260f EA020000 		.4byte	0x2ea
 11389 2613 29       		.uleb128 0x29
 11390 2614 E1020000 		.4byte	0x2e1
 11391 2618 29       		.uleb128 0x29
 11392 2619 D8020000 		.4byte	0x2d8
 11393 261d 00       		.byte	0
 11394 261e 00       		.byte	0
 11395 261f 00       		.byte	0
 11396 2620 00       		.byte	0
ARM GAS  /tmp/ccJJl1OT.s 			page 201


 11397 2621 00       		.byte	0
 11398 2622 24       		.uleb128 0x24
 11399 2623 0E040000 		.4byte	0x40e
 11400 2627 4C0A0000 		.4byte	.LBB1777
 11401 262b 500C0000 		.4byte	.Ldebug_ranges0+0xc50
 11402 262f 01       		.byte	0x1
 11403 2630 8F       		.byte	0x8f
 11404 2631 43270000 		.4byte	0x2743
 11405 2635 29       		.uleb128 0x29
 11406 2636 29040000 		.4byte	0x429
 11407 263a 29       		.uleb128 0x29
 11408 263b 1E040000 		.4byte	0x41e
 11409 263f 26       		.uleb128 0x26
 11410 2640 500C0000 		.4byte	.Ldebug_ranges0+0xc50
 11411 2644 27       		.uleb128 0x27
 11412 2645 34040000 		.4byte	0x434
 11413 2649 27       		.uleb128 0x27
 11414 264a 3E040000 		.4byte	0x43e
 11415 264e 27       		.uleb128 0x27
 11416 264f 48040000 		.4byte	0x448
 11417 2653 24       		.uleb128 0x24
 11418 2654 D6030000 		.4byte	0x3d6
 11419 2658 4C0A0000 		.4byte	.LBB1779
 11420 265c 800C0000 		.4byte	.Ldebug_ranges0+0xc80
 11421 2660 02       		.byte	0x2
 11422 2661 7D       		.byte	0x7d
 11423 2662 86260000 		.4byte	0x2686
 11424 2666 29       		.uleb128 0x29
 11425 2667 E6030000 		.4byte	0x3e6
 11426 266b 2B       		.uleb128 0x2b
 11427 266c 55030000 		.4byte	0x355
 11428 2670 4C0A0000 		.4byte	.LBB1781
 11429 2674 06000000 		.4byte	.LBE1781-.LBB1781
 11430 2678 02       		.byte	0x2
 11431 2679 73       		.byte	0x73
 11432 267a 29       		.uleb128 0x29
 11433 267b 6E030000 		.4byte	0x36e
 11434 267f 29       		.uleb128 0x29
 11435 2680 65030000 		.4byte	0x365
 11436 2684 00       		.byte	0
 11437 2685 00       		.byte	0
 11438 2686 24       		.uleb128 0x24
 11439 2687 D6030000 		.4byte	0x3d6
 11440 268b 520A0000 		.4byte	.LBB1785
 11441 268f A00C0000 		.4byte	.Ldebug_ranges0+0xca0
 11442 2693 02       		.byte	0x2
 11443 2694 7E       		.byte	0x7e
 11444 2695 B9260000 		.4byte	0x26b9
 11445 2699 29       		.uleb128 0x29
 11446 269a E6030000 		.4byte	0x3e6
 11447 269e 28       		.uleb128 0x28
 11448 269f 55030000 		.4byte	0x355
 11449 26a3 520A0000 		.4byte	.LBB1787
 11450 26a7 C00C0000 		.4byte	.Ldebug_ranges0+0xcc0
 11451 26ab 02       		.byte	0x2
 11452 26ac 73       		.byte	0x73
 11453 26ad 29       		.uleb128 0x29
ARM GAS  /tmp/ccJJl1OT.s 			page 202


 11454 26ae 6E030000 		.4byte	0x36e
 11455 26b2 29       		.uleb128 0x29
 11456 26b3 65030000 		.4byte	0x365
 11457 26b7 00       		.byte	0
 11458 26b8 00       		.byte	0
 11459 26b9 24       		.uleb128 0x24
 11460 26ba A3030000 		.4byte	0x3a3
 11461 26be 6C0A0000 		.4byte	.LBB1796
 11462 26c2 D80C0000 		.4byte	.Ldebug_ranges0+0xcd8
 11463 26c6 02       		.byte	0x2
 11464 26c7 80       		.byte	0x80
 11465 26c8 DC260000 		.4byte	0x26dc
 11466 26cc 29       		.uleb128 0x29
 11467 26cd CA030000 		.4byte	0x3ca
 11468 26d1 29       		.uleb128 0x29
 11469 26d2 BF030000 		.4byte	0x3bf
 11470 26d6 29       		.uleb128 0x29
 11471 26d7 B4030000 		.4byte	0x3b4
 11472 26db 00       		.byte	0
 11473 26dc 2B       		.uleb128 0x2b
 11474 26dd 7D030000 		.4byte	0x37d
 11475 26e1 880A0000 		.4byte	.LBB1803
 11476 26e5 0E000000 		.4byte	.LBE1803-.LBB1803
 11477 26e9 02       		.byte	0x2
 11478 26ea 80       		.byte	0x80
 11479 26eb 25       		.uleb128 0x25
 11480 26ec 98030000 		.4byte	0x398
 11481 26f0 08130000 		.4byte	.LLST259
 11482 26f4 29       		.uleb128 0x29
 11483 26f5 8E030000 		.4byte	0x38e
 11484 26f9 2C       		.uleb128 0x2c
 11485 26fa F9020000 		.4byte	0x2f9
 11486 26fe 880A0000 		.4byte	.LBB1804
 11487 2702 0E000000 		.4byte	.LBE1804-.LBB1804
 11488 2706 03       		.byte	0x3
 11489 2707 8601     		.2byte	0x186
 11490 2709 25       		.uleb128 0x25
 11491 270a 14030000 		.4byte	0x314
 11492 270e 08130000 		.4byte	.LLST259
 11493 2712 29       		.uleb128 0x29
 11494 2713 0A030000 		.4byte	0x30a
 11495 2717 2C       		.uleb128 0x2c
 11496 2718 C8020000 		.4byte	0x2c8
 11497 271c 880A0000 		.4byte	.LBB1805
 11498 2720 0E000000 		.4byte	.LBE1805-.LBB1805
 11499 2724 03       		.byte	0x3
 11500 2725 4B01     		.2byte	0x14b
 11501 2727 29       		.uleb128 0x29
 11502 2728 EA020000 		.4byte	0x2ea
 11503 272c 25       		.uleb128 0x25
 11504 272d E1020000 		.4byte	0x2e1
 11505 2731 08130000 		.4byte	.LLST259
 11506 2735 25       		.uleb128 0x25
 11507 2736 D8020000 		.4byte	0x2d8
 11508 273a 20130000 		.4byte	.LLST262
 11509 273e 00       		.byte	0
 11510 273f 00       		.byte	0
ARM GAS  /tmp/ccJJl1OT.s 			page 203


 11511 2740 00       		.byte	0
 11512 2741 00       		.byte	0
 11513 2742 00       		.byte	0
 11514 2743 24       		.uleb128 0x24
 11515 2744 0E040000 		.4byte	0x40e
 11516 2748 C00A0000 		.4byte	.LBB1817
 11517 274c F80C0000 		.4byte	.Ldebug_ranges0+0xcf8
 11518 2750 01       		.byte	0x1
 11519 2751 93       		.byte	0x93
 11520 2752 88280000 		.4byte	0x2888
 11521 2756 25       		.uleb128 0x25
 11522 2757 29040000 		.4byte	0x429
 11523 275b 3E130000 		.4byte	.LLST263
 11524 275f 25       		.uleb128 0x25
 11525 2760 1E040000 		.4byte	0x41e
 11526 2764 6A130000 		.4byte	.LLST264
 11527 2768 26       		.uleb128 0x26
 11528 2769 F80C0000 		.4byte	.Ldebug_ranges0+0xcf8
 11529 276d 27       		.uleb128 0x27
 11530 276e 34040000 		.4byte	0x434
 11531 2772 27       		.uleb128 0x27
 11532 2773 3E040000 		.4byte	0x43e
 11533 2777 27       		.uleb128 0x27
 11534 2778 48040000 		.4byte	0x448
 11535 277c 24       		.uleb128 0x24
 11536 277d D6030000 		.4byte	0x3d6
 11537 2781 E00A0000 		.4byte	.LBB1819
 11538 2785 400D0000 		.4byte	.Ldebug_ranges0+0xd40
 11539 2789 02       		.byte	0x2
 11540 278a 7D       		.byte	0x7d
 11541 278b BB270000 		.4byte	0x27bb
 11542 278f 25       		.uleb128 0x25
 11543 2790 E6030000 		.4byte	0x3e6
 11544 2794 92130000 		.4byte	.LLST265
 11545 2798 28       		.uleb128 0x28
 11546 2799 55030000 		.4byte	0x355
 11547 279d E00A0000 		.4byte	.LBB1821
 11548 27a1 580D0000 		.4byte	.Ldebug_ranges0+0xd58
 11549 27a5 02       		.byte	0x2
 11550 27a6 73       		.byte	0x73
 11551 27a7 25       		.uleb128 0x25
 11552 27a8 6E030000 		.4byte	0x36e
 11553 27ac A5130000 		.4byte	.LLST266
 11554 27b0 25       		.uleb128 0x25
 11555 27b1 65030000 		.4byte	0x365
 11556 27b5 BA130000 		.4byte	.LLST267
 11557 27b9 00       		.byte	0
 11558 27ba 00       		.byte	0
 11559 27bb 24       		.uleb128 0x24
 11560 27bc 7D030000 		.4byte	0x37d
 11561 27c0 EA0A0000 		.4byte	.LBB1826
 11562 27c4 700D0000 		.4byte	.Ldebug_ranges0+0xd70
 11563 27c8 02       		.byte	0x2
 11564 27c9 80       		.byte	0x80
 11565 27ca 24280000 		.4byte	0x2824
 11566 27ce 25       		.uleb128 0x25
 11567 27cf 98030000 		.4byte	0x398
ARM GAS  /tmp/ccJJl1OT.s 			page 204


 11568 27d3 CD130000 		.4byte	.LLST268
 11569 27d7 29       		.uleb128 0x29
 11570 27d8 8E030000 		.4byte	0x38e
 11571 27dc 2D       		.uleb128 0x2d
 11572 27dd F9020000 		.4byte	0x2f9
 11573 27e1 EA0A0000 		.4byte	.LBB1827
 11574 27e5 700D0000 		.4byte	.Ldebug_ranges0+0xd70
 11575 27e9 03       		.byte	0x3
 11576 27ea 8601     		.2byte	0x186
 11577 27ec 25       		.uleb128 0x25
 11578 27ed 14030000 		.4byte	0x314
 11579 27f1 CD130000 		.4byte	.LLST268
 11580 27f5 29       		.uleb128 0x29
 11581 27f6 0A030000 		.4byte	0x30a
 11582 27fa 2D       		.uleb128 0x2d
 11583 27fb C8020000 		.4byte	0x2c8
 11584 27ff EA0A0000 		.4byte	.LBB1828
 11585 2803 700D0000 		.4byte	.Ldebug_ranges0+0xd70
 11586 2807 03       		.byte	0x3
 11587 2808 4B01     		.2byte	0x14b
 11588 280a 29       		.uleb128 0x29
 11589 280b EA020000 		.4byte	0x2ea
 11590 280f 25       		.uleb128 0x25
 11591 2810 E1020000 		.4byte	0x2e1
 11592 2814 CD130000 		.4byte	.LLST268
 11593 2818 25       		.uleb128 0x25
 11594 2819 D8020000 		.4byte	0x2d8
 11595 281d E5130000 		.4byte	.LLST271
 11596 2821 00       		.byte	0
 11597 2822 00       		.byte	0
 11598 2823 00       		.byte	0
 11599 2824 2A       		.uleb128 0x2a
 11600 2825 D6030000 		.4byte	0x3d6
 11601 2829 0C0B0000 		.4byte	.LBB1837
 11602 282d 10000000 		.4byte	.LBE1837-.LBB1837
 11603 2831 02       		.byte	0x2
 11604 2832 7E       		.byte	0x7e
 11605 2833 63280000 		.4byte	0x2863
 11606 2837 25       		.uleb128 0x25
 11607 2838 E6030000 		.4byte	0x3e6
 11608 283c 03140000 		.4byte	.LLST272
 11609 2840 2B       		.uleb128 0x2b
 11610 2841 55030000 		.4byte	0x355
 11611 2845 0C0B0000 		.4byte	.LBB1839
 11612 2849 0C000000 		.4byte	.LBE1839-.LBB1839
 11613 284d 02       		.byte	0x2
 11614 284e 73       		.byte	0x73
 11615 284f 25       		.uleb128 0x25
 11616 2850 6E030000 		.4byte	0x36e
 11617 2854 16140000 		.4byte	.LLST273
 11618 2858 25       		.uleb128 0x25
 11619 2859 65030000 		.4byte	0x365
 11620 285d 03140000 		.4byte	.LLST272
 11621 2861 00       		.byte	0
 11622 2862 00       		.byte	0
 11623 2863 28       		.uleb128 0x28
 11624 2864 A3030000 		.4byte	0x3a3
ARM GAS  /tmp/ccJJl1OT.s 			page 205


 11625 2868 1C0B0000 		.4byte	.LBB1841
 11626 286c 900D0000 		.4byte	.Ldebug_ranges0+0xd90
 11627 2870 02       		.byte	0x2
 11628 2871 80       		.byte	0x80
 11629 2872 29       		.uleb128 0x29
 11630 2873 CA030000 		.4byte	0x3ca
 11631 2877 29       		.uleb128 0x29
 11632 2878 BF030000 		.4byte	0x3bf
 11633 287c 25       		.uleb128 0x25
 11634 287d B4030000 		.4byte	0x3b4
 11635 2881 2B140000 		.4byte	.LLST275
 11636 2885 00       		.byte	0
 11637 2886 00       		.byte	0
 11638 2887 00       		.byte	0
 11639 2888 24       		.uleb128 0x24
 11640 2889 0E040000 		.4byte	0x40e
 11641 288d 2C0B0000 		.4byte	.LBB1859
 11642 2891 B00D0000 		.4byte	.Ldebug_ranges0+0xdb0
 11643 2895 01       		.byte	0x1
 11644 2896 94       		.byte	0x94
 11645 2897 33290000 		.4byte	0x2933
 11646 289b 29       		.uleb128 0x29
 11647 289c 29040000 		.4byte	0x429
 11648 28a0 29       		.uleb128 0x29
 11649 28a1 1E040000 		.4byte	0x41e
 11650 28a5 26       		.uleb128 0x26
 11651 28a6 B00D0000 		.4byte	.Ldebug_ranges0+0xdb0
 11652 28aa 27       		.uleb128 0x27
 11653 28ab 34040000 		.4byte	0x434
 11654 28af 27       		.uleb128 0x27
 11655 28b0 3E040000 		.4byte	0x43e
 11656 28b4 27       		.uleb128 0x27
 11657 28b5 48040000 		.4byte	0x448
 11658 28b9 2A       		.uleb128 0x2a
 11659 28ba A3030000 		.4byte	0x3a3
 11660 28be 380B0000 		.4byte	.LBB1861
 11661 28c2 04000000 		.4byte	.LBE1861-.LBB1861
 11662 28c6 02       		.byte	0x2
 11663 28c7 80       		.byte	0x80
 11664 28c8 DC280000 		.4byte	0x28dc
 11665 28cc 29       		.uleb128 0x29
 11666 28cd CA030000 		.4byte	0x3ca
 11667 28d1 29       		.uleb128 0x29
 11668 28d2 BF030000 		.4byte	0x3bf
 11669 28d6 29       		.uleb128 0x29
 11670 28d7 B4030000 		.4byte	0x3b4
 11671 28db 00       		.byte	0
 11672 28dc 28       		.uleb128 0x28
 11673 28dd 7D030000 		.4byte	0x37d
 11674 28e1 440B0000 		.4byte	.LBB1863
 11675 28e5 D80D0000 		.4byte	.Ldebug_ranges0+0xdd8
 11676 28e9 02       		.byte	0x2
 11677 28ea 80       		.byte	0x80
 11678 28eb 29       		.uleb128 0x29
 11679 28ec 98030000 		.4byte	0x398
 11680 28f0 29       		.uleb128 0x29
 11681 28f1 8E030000 		.4byte	0x38e
ARM GAS  /tmp/ccJJl1OT.s 			page 206


 11682 28f5 2D       		.uleb128 0x2d
 11683 28f6 F9020000 		.4byte	0x2f9
 11684 28fa 440B0000 		.4byte	.LBB1864
 11685 28fe D80D0000 		.4byte	.Ldebug_ranges0+0xdd8
 11686 2902 03       		.byte	0x3
 11687 2903 8601     		.2byte	0x186
 11688 2905 29       		.uleb128 0x29
 11689 2906 14030000 		.4byte	0x314
 11690 290a 29       		.uleb128 0x29
 11691 290b 0A030000 		.4byte	0x30a
 11692 290f 2D       		.uleb128 0x2d
 11693 2910 C8020000 		.4byte	0x2c8
 11694 2914 440B0000 		.4byte	.LBB1865
 11695 2918 D80D0000 		.4byte	.Ldebug_ranges0+0xdd8
 11696 291c 03       		.byte	0x3
 11697 291d 4B01     		.2byte	0x14b
 11698 291f 29       		.uleb128 0x29
 11699 2920 EA020000 		.4byte	0x2ea
 11700 2924 29       		.uleb128 0x29
 11701 2925 E1020000 		.4byte	0x2e1
 11702 2929 29       		.uleb128 0x29
 11703 292a D8020000 		.4byte	0x2d8
 11704 292e 00       		.byte	0
 11705 292f 00       		.byte	0
 11706 2930 00       		.byte	0
 11707 2931 00       		.byte	0
 11708 2932 00       		.byte	0
 11709 2933 24       		.uleb128 0x24
 11710 2934 0E040000 		.4byte	0x40e
 11711 2938 600B0000 		.4byte	.LBB1880
 11712 293c F00D0000 		.4byte	.Ldebug_ranges0+0xdf0
 11713 2940 01       		.byte	0x1
 11714 2941 95       		.byte	0x95
 11715 2942 5C2A0000 		.4byte	0x2a5c
 11716 2946 25       		.uleb128 0x25
 11717 2947 29040000 		.4byte	0x429
 11718 294b 3F140000 		.4byte	.LLST276
 11719 294f 29       		.uleb128 0x29
 11720 2950 1E040000 		.4byte	0x41e
 11721 2954 26       		.uleb128 0x26
 11722 2955 F00D0000 		.4byte	.Ldebug_ranges0+0xdf0
 11723 2959 27       		.uleb128 0x27
 11724 295a 34040000 		.4byte	0x434
 11725 295e 27       		.uleb128 0x27
 11726 295f 3E040000 		.4byte	0x43e
 11727 2963 27       		.uleb128 0x27
 11728 2964 48040000 		.4byte	0x448
 11729 2968 24       		.uleb128 0x24
 11730 2969 D6030000 		.4byte	0x3d6
 11731 296d 600B0000 		.4byte	.LBB1882
 11732 2971 480E0000 		.4byte	.Ldebug_ranges0+0xe48
 11733 2975 02       		.byte	0x2
 11734 2976 7D       		.byte	0x7d
 11735 2977 9B290000 		.4byte	0x299b
 11736 297b 29       		.uleb128 0x29
 11737 297c E6030000 		.4byte	0x3e6
 11738 2980 28       		.uleb128 0x28
ARM GAS  /tmp/ccJJl1OT.s 			page 207


 11739 2981 55030000 		.4byte	0x355
 11740 2985 600B0000 		.4byte	.LBB1884
 11741 2989 700E0000 		.4byte	.Ldebug_ranges0+0xe70
 11742 298d 02       		.byte	0x2
 11743 298e 73       		.byte	0x73
 11744 298f 29       		.uleb128 0x29
 11745 2990 6E030000 		.4byte	0x36e
 11746 2994 29       		.uleb128 0x29
 11747 2995 65030000 		.4byte	0x365
 11748 2999 00       		.byte	0
 11749 299a 00       		.byte	0
 11750 299b 24       		.uleb128 0x24
 11751 299c D6030000 		.4byte	0x3d6
 11752 29a0 820B0000 		.4byte	.LBB1894
 11753 29a4 880E0000 		.4byte	.Ldebug_ranges0+0xe88
 11754 29a8 02       		.byte	0x2
 11755 29a9 7E       		.byte	0x7e
 11756 29aa CE290000 		.4byte	0x29ce
 11757 29ae 29       		.uleb128 0x29
 11758 29af E6030000 		.4byte	0x3e6
 11759 29b3 28       		.uleb128 0x28
 11760 29b4 55030000 		.4byte	0x355
 11761 29b8 820B0000 		.4byte	.LBB1896
 11762 29bc A00E0000 		.4byte	.Ldebug_ranges0+0xea0
 11763 29c0 02       		.byte	0x2
 11764 29c1 73       		.byte	0x73
 11765 29c2 29       		.uleb128 0x29
 11766 29c3 6E030000 		.4byte	0x36e
 11767 29c7 29       		.uleb128 0x29
 11768 29c8 65030000 		.4byte	0x365
 11769 29cc 00       		.byte	0
 11770 29cd 00       		.byte	0
 11771 29ce 24       		.uleb128 0x24
 11772 29cf A3030000 		.4byte	0x3a3
 11773 29d3 A20B0000 		.4byte	.LBB1902
 11774 29d7 B80E0000 		.4byte	.Ldebug_ranges0+0xeb8
 11775 29db 02       		.byte	0x2
 11776 29dc 80       		.byte	0x80
 11777 29dd F5290000 		.4byte	0x29f5
 11778 29e1 29       		.uleb128 0x29
 11779 29e2 CA030000 		.4byte	0x3ca
 11780 29e6 29       		.uleb128 0x29
 11781 29e7 BF030000 		.4byte	0x3bf
 11782 29eb 25       		.uleb128 0x25
 11783 29ec B4030000 		.4byte	0x3b4
 11784 29f0 52140000 		.4byte	.LLST277
 11785 29f4 00       		.byte	0
 11786 29f5 2B       		.uleb128 0x2b
 11787 29f6 7D030000 		.4byte	0x37d
 11788 29fa B80B0000 		.4byte	.LBB1908
 11789 29fe 0E000000 		.4byte	.LBE1908-.LBB1908
 11790 2a02 02       		.byte	0x2
 11791 2a03 80       		.byte	0x80
 11792 2a04 25       		.uleb128 0x25
 11793 2a05 98030000 		.4byte	0x398
 11794 2a09 66140000 		.4byte	.LLST278
 11795 2a0d 29       		.uleb128 0x29
ARM GAS  /tmp/ccJJl1OT.s 			page 208


 11796 2a0e 8E030000 		.4byte	0x38e
 11797 2a12 2C       		.uleb128 0x2c
 11798 2a13 F9020000 		.4byte	0x2f9
 11799 2a17 B80B0000 		.4byte	.LBB1909
 11800 2a1b 0E000000 		.4byte	.LBE1909-.LBB1909
 11801 2a1f 03       		.byte	0x3
 11802 2a20 8601     		.2byte	0x186
 11803 2a22 25       		.uleb128 0x25
 11804 2a23 14030000 		.4byte	0x314
 11805 2a27 66140000 		.4byte	.LLST278
 11806 2a2b 29       		.uleb128 0x29
 11807 2a2c 0A030000 		.4byte	0x30a
 11808 2a30 2C       		.uleb128 0x2c
 11809 2a31 C8020000 		.4byte	0x2c8
 11810 2a35 B80B0000 		.4byte	.LBB1910
 11811 2a39 0E000000 		.4byte	.LBE1910-.LBB1910
 11812 2a3d 03       		.byte	0x3
 11813 2a3e 4B01     		.2byte	0x14b
 11814 2a40 29       		.uleb128 0x29
 11815 2a41 EA020000 		.4byte	0x2ea
 11816 2a45 25       		.uleb128 0x25
 11817 2a46 E1020000 		.4byte	0x2e1
 11818 2a4a 66140000 		.4byte	.LLST278
 11819 2a4e 25       		.uleb128 0x25
 11820 2a4f D8020000 		.4byte	0x2d8
 11821 2a53 7E140000 		.4byte	.LLST281
 11822 2a57 00       		.byte	0
 11823 2a58 00       		.byte	0
 11824 2a59 00       		.byte	0
 11825 2a5a 00       		.byte	0
 11826 2a5b 00       		.byte	0
 11827 2a5c 24       		.uleb128 0x24
 11828 2a5d 0E040000 		.4byte	0x40e
 11829 2a61 C60B0000 		.4byte	.LBB1930
 11830 2a65 D80E0000 		.4byte	.Ldebug_ranges0+0xed8
 11831 2a69 01       		.byte	0x1
 11832 2a6a 96       		.byte	0x96
 11833 2a6b 9D2B0000 		.4byte	0x2b9d
 11834 2a6f 29       		.uleb128 0x29
 11835 2a70 29040000 		.4byte	0x429
 11836 2a74 25       		.uleb128 0x25
 11837 2a75 1E040000 		.4byte	0x41e
 11838 2a79 9C140000 		.4byte	.LLST282
 11839 2a7d 26       		.uleb128 0x26
 11840 2a7e D80E0000 		.4byte	.Ldebug_ranges0+0xed8
 11841 2a82 27       		.uleb128 0x27
 11842 2a83 34040000 		.4byte	0x434
 11843 2a87 27       		.uleb128 0x27
 11844 2a88 3E040000 		.4byte	0x43e
 11845 2a8c 27       		.uleb128 0x27
 11846 2a8d 48040000 		.4byte	0x448
 11847 2a91 24       		.uleb128 0x24
 11848 2a92 D6030000 		.4byte	0x3d6
 11849 2a96 C60B0000 		.4byte	.LBB1932
 11850 2a9a 100F0000 		.4byte	.Ldebug_ranges0+0xf10
 11851 2a9e 02       		.byte	0x2
 11852 2a9f 7D       		.byte	0x7d
ARM GAS  /tmp/ccJJl1OT.s 			page 209


 11853 2aa0 D02A0000 		.4byte	0x2ad0
 11854 2aa4 25       		.uleb128 0x25
 11855 2aa5 E6030000 		.4byte	0x3e6
 11856 2aa9 C4140000 		.4byte	.LLST283
 11857 2aad 28       		.uleb128 0x28
 11858 2aae 55030000 		.4byte	0x355
 11859 2ab2 C60B0000 		.4byte	.LBB1934
 11860 2ab6 300F0000 		.4byte	.Ldebug_ranges0+0xf30
 11861 2aba 02       		.byte	0x2
 11862 2abb 73       		.byte	0x73
 11863 2abc 25       		.uleb128 0x25
 11864 2abd 6E030000 		.4byte	0x36e
 11865 2ac1 D7140000 		.4byte	.LLST284
 11866 2ac5 25       		.uleb128 0x25
 11867 2ac6 65030000 		.4byte	0x365
 11868 2aca EC140000 		.4byte	.LLST285
 11869 2ace 00       		.byte	0
 11870 2acf 00       		.byte	0
 11871 2ad0 2A       		.uleb128 0x2a
 11872 2ad1 D6030000 		.4byte	0x3d6
 11873 2ad5 EE0B0000 		.4byte	.LBB1942
 11874 2ad9 10000000 		.4byte	.LBE1942-.LBB1942
 11875 2add 02       		.byte	0x2
 11876 2ade 7E       		.byte	0x7e
 11877 2adf 0F2B0000 		.4byte	0x2b0f
 11878 2ae3 25       		.uleb128 0x25
 11879 2ae4 E6030000 		.4byte	0x3e6
 11880 2ae8 FF140000 		.4byte	.LLST286
 11881 2aec 2B       		.uleb128 0x2b
 11882 2aed 55030000 		.4byte	0x355
 11883 2af1 EE0B0000 		.4byte	.LBB1944
 11884 2af5 0C000000 		.4byte	.LBE1944-.LBB1944
 11885 2af9 02       		.byte	0x2
 11886 2afa 73       		.byte	0x73
 11887 2afb 25       		.uleb128 0x25
 11888 2afc 6E030000 		.4byte	0x36e
 11889 2b00 12150000 		.4byte	.LLST287
 11890 2b04 25       		.uleb128 0x25
 11891 2b05 65030000 		.4byte	0x365
 11892 2b09 FF140000 		.4byte	.LLST286
 11893 2b0d 00       		.byte	0
 11894 2b0e 00       		.byte	0
 11895 2b0f 2A       		.uleb128 0x2a
 11896 2b10 A3030000 		.4byte	0x3a3
 11897 2b14 FE0B0000 		.4byte	.LBB1946
 11898 2b18 10000000 		.4byte	.LBE1946-.LBB1946
 11899 2b1c 02       		.byte	0x2
 11900 2b1d 80       		.byte	0x80
 11901 2b1e 362B0000 		.4byte	0x2b36
 11902 2b22 29       		.uleb128 0x29
 11903 2b23 CA030000 		.4byte	0x3ca
 11904 2b27 29       		.uleb128 0x29
 11905 2b28 BF030000 		.4byte	0x3bf
 11906 2b2c 25       		.uleb128 0x25
 11907 2b2d B4030000 		.4byte	0x3b4
 11908 2b31 27150000 		.4byte	.LLST289
 11909 2b35 00       		.byte	0
ARM GAS  /tmp/ccJJl1OT.s 			page 210


 11910 2b36 28       		.uleb128 0x28
 11911 2b37 7D030000 		.4byte	0x37d
 11912 2b3b 120C0000 		.4byte	.LBB1948
 11913 2b3f 480F0000 		.4byte	.Ldebug_ranges0+0xf48
 11914 2b43 02       		.byte	0x2
 11915 2b44 80       		.byte	0x80
 11916 2b45 25       		.uleb128 0x25
 11917 2b46 98030000 		.4byte	0x398
 11918 2b4a 3B150000 		.4byte	.LLST290
 11919 2b4e 29       		.uleb128 0x29
 11920 2b4f 8E030000 		.4byte	0x38e
 11921 2b53 2D       		.uleb128 0x2d
 11922 2b54 F9020000 		.4byte	0x2f9
 11923 2b58 120C0000 		.4byte	.LBB1949
 11924 2b5c 480F0000 		.4byte	.Ldebug_ranges0+0xf48
 11925 2b60 03       		.byte	0x3
 11926 2b61 8601     		.2byte	0x186
 11927 2b63 25       		.uleb128 0x25
 11928 2b64 14030000 		.4byte	0x314
 11929 2b68 3B150000 		.4byte	.LLST290
 11930 2b6c 29       		.uleb128 0x29
 11931 2b6d 0A030000 		.4byte	0x30a
 11932 2b71 2D       		.uleb128 0x2d
 11933 2b72 C8020000 		.4byte	0x2c8
 11934 2b76 120C0000 		.4byte	.LBB1950
 11935 2b7a 480F0000 		.4byte	.Ldebug_ranges0+0xf48
 11936 2b7e 03       		.byte	0x3
 11937 2b7f 4B01     		.2byte	0x14b
 11938 2b81 29       		.uleb128 0x29
 11939 2b82 EA020000 		.4byte	0x2ea
 11940 2b86 25       		.uleb128 0x25
 11941 2b87 E1020000 		.4byte	0x2e1
 11942 2b8b 3B150000 		.4byte	.LLST290
 11943 2b8f 25       		.uleb128 0x25
 11944 2b90 D8020000 		.4byte	0x2d8
 11945 2b94 53150000 		.4byte	.LLST293
 11946 2b98 00       		.byte	0
 11947 2b99 00       		.byte	0
 11948 2b9a 00       		.byte	0
 11949 2b9b 00       		.byte	0
 11950 2b9c 00       		.byte	0
 11951 2b9d 24       		.uleb128 0x24
 11952 2b9e 0E040000 		.4byte	0x40e
 11953 2ba2 0E0C0000 		.4byte	.LBB1964
 11954 2ba6 600F0000 		.4byte	.Ldebug_ranges0+0xf60
 11955 2baa 01       		.byte	0x1
 11956 2bab 97       		.byte	0x97
 11957 2bac 482C0000 		.4byte	0x2c48
 11958 2bb0 29       		.uleb128 0x29
 11959 2bb1 29040000 		.4byte	0x429
 11960 2bb5 29       		.uleb128 0x29
 11961 2bb6 1E040000 		.4byte	0x41e
 11962 2bba 26       		.uleb128 0x26
 11963 2bbb 600F0000 		.4byte	.Ldebug_ranges0+0xf60
 11964 2bbf 27       		.uleb128 0x27
 11965 2bc0 34040000 		.4byte	0x434
 11966 2bc4 27       		.uleb128 0x27
ARM GAS  /tmp/ccJJl1OT.s 			page 211


 11967 2bc5 3E040000 		.4byte	0x43e
 11968 2bc9 27       		.uleb128 0x27
 11969 2bca 48040000 		.4byte	0x448
 11970 2bce 2A       		.uleb128 0x2a
 11971 2bcf A3030000 		.4byte	0x3a3
 11972 2bd3 0E0C0000 		.4byte	.LBB1966
 11973 2bd7 04000000 		.4byte	.LBE1966-.LBB1966
 11974 2bdb 02       		.byte	0x2
 11975 2bdc 80       		.byte	0x80
 11976 2bdd F12B0000 		.4byte	0x2bf1
 11977 2be1 29       		.uleb128 0x29
 11978 2be2 CA030000 		.4byte	0x3ca
 11979 2be6 29       		.uleb128 0x29
 11980 2be7 BF030000 		.4byte	0x3bf
 11981 2beb 29       		.uleb128 0x29
 11982 2bec B4030000 		.4byte	0x3b4
 11983 2bf0 00       		.byte	0
 11984 2bf1 28       		.uleb128 0x28
 11985 2bf2 7D030000 		.4byte	0x37d
 11986 2bf6 1A0C0000 		.4byte	.LBB1968
 11987 2bfa 880F0000 		.4byte	.Ldebug_ranges0+0xf88
 11988 2bfe 02       		.byte	0x2
 11989 2bff 80       		.byte	0x80
 11990 2c00 29       		.uleb128 0x29
 11991 2c01 98030000 		.4byte	0x398
 11992 2c05 29       		.uleb128 0x29
 11993 2c06 8E030000 		.4byte	0x38e
 11994 2c0a 2D       		.uleb128 0x2d
 11995 2c0b F9020000 		.4byte	0x2f9
 11996 2c0f 1A0C0000 		.4byte	.LBB1969
 11997 2c13 880F0000 		.4byte	.Ldebug_ranges0+0xf88
 11998 2c17 03       		.byte	0x3
 11999 2c18 8601     		.2byte	0x186
 12000 2c1a 29       		.uleb128 0x29
 12001 2c1b 14030000 		.4byte	0x314
 12002 2c1f 29       		.uleb128 0x29
 12003 2c20 0A030000 		.4byte	0x30a
 12004 2c24 2D       		.uleb128 0x2d
 12005 2c25 C8020000 		.4byte	0x2c8
 12006 2c29 1A0C0000 		.4byte	.LBB1970
 12007 2c2d 880F0000 		.4byte	.Ldebug_ranges0+0xf88
 12008 2c31 03       		.byte	0x3
 12009 2c32 4B01     		.2byte	0x14b
 12010 2c34 29       		.uleb128 0x29
 12011 2c35 EA020000 		.4byte	0x2ea
 12012 2c39 29       		.uleb128 0x29
 12013 2c3a E1020000 		.4byte	0x2e1
 12014 2c3e 29       		.uleb128 0x29
 12015 2c3f D8020000 		.4byte	0x2d8
 12016 2c43 00       		.byte	0
 12017 2c44 00       		.byte	0
 12018 2c45 00       		.byte	0
 12019 2c46 00       		.byte	0
 12020 2c47 00       		.byte	0
 12021 2c48 24       		.uleb128 0x24
 12022 2c49 0E040000 		.4byte	0x40e
 12023 2c4d 2E0C0000 		.4byte	.LBB1983
ARM GAS  /tmp/ccJJl1OT.s 			page 212


 12024 2c51 A00F0000 		.4byte	.Ldebug_ranges0+0xfa0
 12025 2c55 01       		.byte	0x1
 12026 2c56 98       		.byte	0x98
 12027 2c57 712D0000 		.4byte	0x2d71
 12028 2c5b 25       		.uleb128 0x25
 12029 2c5c 29040000 		.4byte	0x429
 12030 2c60 71150000 		.4byte	.LLST294
 12031 2c64 29       		.uleb128 0x29
 12032 2c65 1E040000 		.4byte	0x41e
 12033 2c69 26       		.uleb128 0x26
 12034 2c6a A00F0000 		.4byte	.Ldebug_ranges0+0xfa0
 12035 2c6e 27       		.uleb128 0x27
 12036 2c6f 34040000 		.4byte	0x434
 12037 2c73 27       		.uleb128 0x27
 12038 2c74 3E040000 		.4byte	0x43e
 12039 2c78 27       		.uleb128 0x27
 12040 2c79 48040000 		.4byte	0x448
 12041 2c7d 24       		.uleb128 0x24
 12042 2c7e D6030000 		.4byte	0x3d6
 12043 2c82 2E0C0000 		.4byte	.LBB1985
 12044 2c86 E80F0000 		.4byte	.Ldebug_ranges0+0xfe8
 12045 2c8a 02       		.byte	0x2
 12046 2c8b 7D       		.byte	0x7d
 12047 2c8c B02C0000 		.4byte	0x2cb0
 12048 2c90 29       		.uleb128 0x29
 12049 2c91 E6030000 		.4byte	0x3e6
 12050 2c95 2B       		.uleb128 0x2b
 12051 2c96 55030000 		.4byte	0x355
 12052 2c9a 2E0C0000 		.4byte	.LBB1987
 12053 2c9e 06000000 		.4byte	.LBE1987-.LBB1987
 12054 2ca2 02       		.byte	0x2
 12055 2ca3 73       		.byte	0x73
 12056 2ca4 29       		.uleb128 0x29
 12057 2ca5 6E030000 		.4byte	0x36e
 12058 2ca9 29       		.uleb128 0x29
 12059 2caa 65030000 		.4byte	0x365
 12060 2cae 00       		.byte	0
 12061 2caf 00       		.byte	0
 12062 2cb0 24       		.uleb128 0x24
 12063 2cb1 D6030000 		.4byte	0x3d6
 12064 2cb5 340C0000 		.4byte	.LBB1991
 12065 2cb9 08100000 		.4byte	.Ldebug_ranges0+0x1008
 12066 2cbd 02       		.byte	0x2
 12067 2cbe 7E       		.byte	0x7e
 12068 2cbf E32C0000 		.4byte	0x2ce3
 12069 2cc3 29       		.uleb128 0x29
 12070 2cc4 E6030000 		.4byte	0x3e6
 12071 2cc8 28       		.uleb128 0x28
 12072 2cc9 55030000 		.4byte	0x355
 12073 2ccd 340C0000 		.4byte	.LBB1993
 12074 2cd1 20100000 		.4byte	.Ldebug_ranges0+0x1020
 12075 2cd5 02       		.byte	0x2
 12076 2cd6 73       		.byte	0x73
 12077 2cd7 29       		.uleb128 0x29
 12078 2cd8 6E030000 		.4byte	0x36e
 12079 2cdc 29       		.uleb128 0x29
 12080 2cdd 65030000 		.4byte	0x365
ARM GAS  /tmp/ccJJl1OT.s 			page 213


 12081 2ce1 00       		.byte	0
 12082 2ce2 00       		.byte	0
 12083 2ce3 24       		.uleb128 0x24
 12084 2ce4 A3030000 		.4byte	0x3a3
 12085 2ce8 5A0C0000 		.4byte	.LBB2000
 12086 2cec 38100000 		.4byte	.Ldebug_ranges0+0x1038
 12087 2cf0 02       		.byte	0x2
 12088 2cf1 80       		.byte	0x80
 12089 2cf2 0A2D0000 		.4byte	0x2d0a
 12090 2cf6 29       		.uleb128 0x29
 12091 2cf7 CA030000 		.4byte	0x3ca
 12092 2cfb 29       		.uleb128 0x29
 12093 2cfc BF030000 		.4byte	0x3bf
 12094 2d00 25       		.uleb128 0x25
 12095 2d01 B4030000 		.4byte	0x3b4
 12096 2d05 86150000 		.4byte	.LLST295
 12097 2d09 00       		.byte	0
 12098 2d0a 2B       		.uleb128 0x2b
 12099 2d0b 7D030000 		.4byte	0x37d
 12100 2d0f 740C0000 		.4byte	.LBB2007
 12101 2d13 0E000000 		.4byte	.LBE2007-.LBB2007
 12102 2d17 02       		.byte	0x2
 12103 2d18 80       		.byte	0x80
 12104 2d19 25       		.uleb128 0x25
 12105 2d1a 98030000 		.4byte	0x398
 12106 2d1e 9A150000 		.4byte	.LLST296
 12107 2d22 29       		.uleb128 0x29
 12108 2d23 8E030000 		.4byte	0x38e
 12109 2d27 2C       		.uleb128 0x2c
 12110 2d28 F9020000 		.4byte	0x2f9
 12111 2d2c 740C0000 		.4byte	.LBB2008
 12112 2d30 0E000000 		.4byte	.LBE2008-.LBB2008
 12113 2d34 03       		.byte	0x3
 12114 2d35 8601     		.2byte	0x186
 12115 2d37 25       		.uleb128 0x25
 12116 2d38 14030000 		.4byte	0x314
 12117 2d3c 9A150000 		.4byte	.LLST296
 12118 2d40 29       		.uleb128 0x29
 12119 2d41 0A030000 		.4byte	0x30a
 12120 2d45 2C       		.uleb128 0x2c
 12121 2d46 C8020000 		.4byte	0x2c8
 12122 2d4a 740C0000 		.4byte	.LBB2009
 12123 2d4e 0E000000 		.4byte	.LBE2009-.LBB2009
 12124 2d52 03       		.byte	0x3
 12125 2d53 4B01     		.2byte	0x14b
 12126 2d55 29       		.uleb128 0x29
 12127 2d56 EA020000 		.4byte	0x2ea
 12128 2d5a 25       		.uleb128 0x25
 12129 2d5b E1020000 		.4byte	0x2e1
 12130 2d5f 9A150000 		.4byte	.LLST296
 12131 2d63 25       		.uleb128 0x25
 12132 2d64 D8020000 		.4byte	0x2d8
 12133 2d68 B2150000 		.4byte	.LLST299
 12134 2d6c 00       		.byte	0
 12135 2d6d 00       		.byte	0
 12136 2d6e 00       		.byte	0
 12137 2d6f 00       		.byte	0
ARM GAS  /tmp/ccJJl1OT.s 			page 214


 12138 2d70 00       		.byte	0
 12139 2d71 24       		.uleb128 0x24
 12140 2d72 0E040000 		.4byte	0x40e
 12141 2d76 820C0000 		.4byte	.LBB2026
 12142 2d7a 58100000 		.4byte	.Ldebug_ranges0+0x1058
 12143 2d7e 01       		.byte	0x1
 12144 2d7f 99       		.byte	0x99
 12145 2d80 B22E0000 		.4byte	0x2eb2
 12146 2d84 29       		.uleb128 0x29
 12147 2d85 29040000 		.4byte	0x429
 12148 2d89 25       		.uleb128 0x25
 12149 2d8a 1E040000 		.4byte	0x41e
 12150 2d8e D0150000 		.4byte	.LLST300
 12151 2d92 26       		.uleb128 0x26
 12152 2d93 58100000 		.4byte	.Ldebug_ranges0+0x1058
 12153 2d97 27       		.uleb128 0x27
 12154 2d98 34040000 		.4byte	0x434
 12155 2d9c 27       		.uleb128 0x27
 12156 2d9d 3E040000 		.4byte	0x43e
 12157 2da1 27       		.uleb128 0x27
 12158 2da2 48040000 		.4byte	0x448
 12159 2da6 24       		.uleb128 0x24
 12160 2da7 D6030000 		.4byte	0x3d6
 12161 2dab 820C0000 		.4byte	.LBB2028
 12162 2daf 90100000 		.4byte	.Ldebug_ranges0+0x1090
 12163 2db3 02       		.byte	0x2
 12164 2db4 7D       		.byte	0x7d
 12165 2db5 E52D0000 		.4byte	0x2de5
 12166 2db9 25       		.uleb128 0x25
 12167 2dba E6030000 		.4byte	0x3e6
 12168 2dbe F8150000 		.4byte	.LLST301
 12169 2dc2 28       		.uleb128 0x28
 12170 2dc3 55030000 		.4byte	0x355
 12171 2dc7 820C0000 		.4byte	.LBB2030
 12172 2dcb B0100000 		.4byte	.Ldebug_ranges0+0x10b0
 12173 2dcf 02       		.byte	0x2
 12174 2dd0 73       		.byte	0x73
 12175 2dd1 25       		.uleb128 0x25
 12176 2dd2 6E030000 		.4byte	0x36e
 12177 2dd6 0B160000 		.4byte	.LLST302
 12178 2dda 25       		.uleb128 0x25
 12179 2ddb 65030000 		.4byte	0x365
 12180 2ddf 20160000 		.4byte	.LLST303
 12181 2de3 00       		.byte	0
 12182 2de4 00       		.byte	0
 12183 2de5 2A       		.uleb128 0x2a
 12184 2de6 D6030000 		.4byte	0x3d6
 12185 2dea AA0C0000 		.4byte	.LBB2038
 12186 2dee 10000000 		.4byte	.LBE2038-.LBB2038
 12187 2df2 02       		.byte	0x2
 12188 2df3 7E       		.byte	0x7e
 12189 2df4 242E0000 		.4byte	0x2e24
 12190 2df8 25       		.uleb128 0x25
 12191 2df9 E6030000 		.4byte	0x3e6
 12192 2dfd 33160000 		.4byte	.LLST304
 12193 2e01 2B       		.uleb128 0x2b
 12194 2e02 55030000 		.4byte	0x355
ARM GAS  /tmp/ccJJl1OT.s 			page 215


 12195 2e06 AA0C0000 		.4byte	.LBB2040
 12196 2e0a 0C000000 		.4byte	.LBE2040-.LBB2040
 12197 2e0e 02       		.byte	0x2
 12198 2e0f 73       		.byte	0x73
 12199 2e10 25       		.uleb128 0x25
 12200 2e11 6E030000 		.4byte	0x36e
 12201 2e15 46160000 		.4byte	.LLST305
 12202 2e19 25       		.uleb128 0x25
 12203 2e1a 65030000 		.4byte	0x365
 12204 2e1e 33160000 		.4byte	.LLST304
 12205 2e22 00       		.byte	0
 12206 2e23 00       		.byte	0
 12207 2e24 2A       		.uleb128 0x2a
 12208 2e25 A3030000 		.4byte	0x3a3
 12209 2e29 BA0C0000 		.4byte	.LBB2042
 12210 2e2d 10000000 		.4byte	.LBE2042-.LBB2042
 12211 2e31 02       		.byte	0x2
 12212 2e32 80       		.byte	0x80
 12213 2e33 4B2E0000 		.4byte	0x2e4b
 12214 2e37 29       		.uleb128 0x29
 12215 2e38 CA030000 		.4byte	0x3ca
 12216 2e3c 29       		.uleb128 0x29
 12217 2e3d BF030000 		.4byte	0x3bf
 12218 2e41 25       		.uleb128 0x25
 12219 2e42 B4030000 		.4byte	0x3b4
 12220 2e46 5B160000 		.4byte	.LLST307
 12221 2e4a 00       		.byte	0
 12222 2e4b 28       		.uleb128 0x28
 12223 2e4c 7D030000 		.4byte	0x37d
 12224 2e50 CE0C0000 		.4byte	.LBB2044
 12225 2e54 C8100000 		.4byte	.Ldebug_ranges0+0x10c8
 12226 2e58 02       		.byte	0x2
 12227 2e59 80       		.byte	0x80
 12228 2e5a 25       		.uleb128 0x25
 12229 2e5b 98030000 		.4byte	0x398
 12230 2e5f 6F160000 		.4byte	.LLST308
 12231 2e63 29       		.uleb128 0x29
 12232 2e64 8E030000 		.4byte	0x38e
 12233 2e68 2D       		.uleb128 0x2d
 12234 2e69 F9020000 		.4byte	0x2f9
 12235 2e6d CE0C0000 		.4byte	.LBB2045
 12236 2e71 C8100000 		.4byte	.Ldebug_ranges0+0x10c8
 12237 2e75 03       		.byte	0x3
 12238 2e76 8601     		.2byte	0x186
 12239 2e78 25       		.uleb128 0x25
 12240 2e79 14030000 		.4byte	0x314
 12241 2e7d 6F160000 		.4byte	.LLST308
 12242 2e81 29       		.uleb128 0x29
 12243 2e82 0A030000 		.4byte	0x30a
 12244 2e86 2D       		.uleb128 0x2d
 12245 2e87 C8020000 		.4byte	0x2c8
 12246 2e8b CE0C0000 		.4byte	.LBB2046
 12247 2e8f C8100000 		.4byte	.Ldebug_ranges0+0x10c8
 12248 2e93 03       		.byte	0x3
 12249 2e94 4B01     		.2byte	0x14b
 12250 2e96 29       		.uleb128 0x29
 12251 2e97 EA020000 		.4byte	0x2ea
ARM GAS  /tmp/ccJJl1OT.s 			page 216


 12252 2e9b 25       		.uleb128 0x25
 12253 2e9c E1020000 		.4byte	0x2e1
 12254 2ea0 6F160000 		.4byte	.LLST308
 12255 2ea4 25       		.uleb128 0x25
 12256 2ea5 D8020000 		.4byte	0x2d8
 12257 2ea9 87160000 		.4byte	.LLST311
 12258 2ead 00       		.byte	0
 12259 2eae 00       		.byte	0
 12260 2eaf 00       		.byte	0
 12261 2eb0 00       		.byte	0
 12262 2eb1 00       		.byte	0
 12263 2eb2 24       		.uleb128 0x24
 12264 2eb3 0E040000 		.4byte	0x40e
 12265 2eb7 CA0C0000 		.4byte	.LBB2060
 12266 2ebb E0100000 		.4byte	.Ldebug_ranges0+0x10e0
 12267 2ebf 01       		.byte	0x1
 12268 2ec0 9A       		.byte	0x9a
 12269 2ec1 5D2F0000 		.4byte	0x2f5d
 12270 2ec5 29       		.uleb128 0x29
 12271 2ec6 29040000 		.4byte	0x429
 12272 2eca 29       		.uleb128 0x29
 12273 2ecb 1E040000 		.4byte	0x41e
 12274 2ecf 26       		.uleb128 0x26
 12275 2ed0 E0100000 		.4byte	.Ldebug_ranges0+0x10e0
 12276 2ed4 27       		.uleb128 0x27
 12277 2ed5 34040000 		.4byte	0x434
 12278 2ed9 27       		.uleb128 0x27
 12279 2eda 3E040000 		.4byte	0x43e
 12280 2ede 27       		.uleb128 0x27
 12281 2edf 48040000 		.4byte	0x448
 12282 2ee3 2A       		.uleb128 0x2a
 12283 2ee4 A3030000 		.4byte	0x3a3
 12284 2ee8 CA0C0000 		.4byte	.LBB2062
 12285 2eec 04000000 		.4byte	.LBE2062-.LBB2062
 12286 2ef0 02       		.byte	0x2
 12287 2ef1 80       		.byte	0x80
 12288 2ef2 062F0000 		.4byte	0x2f06
 12289 2ef6 29       		.uleb128 0x29
 12290 2ef7 CA030000 		.4byte	0x3ca
 12291 2efb 29       		.uleb128 0x29
 12292 2efc BF030000 		.4byte	0x3bf
 12293 2f00 29       		.uleb128 0x29
 12294 2f01 B4030000 		.4byte	0x3b4
 12295 2f05 00       		.byte	0
 12296 2f06 28       		.uleb128 0x28
 12297 2f07 7D030000 		.4byte	0x37d
 12298 2f0b D60C0000 		.4byte	.LBB2064
 12299 2f0f 08110000 		.4byte	.Ldebug_ranges0+0x1108
 12300 2f13 02       		.byte	0x2
 12301 2f14 80       		.byte	0x80
 12302 2f15 29       		.uleb128 0x29
 12303 2f16 98030000 		.4byte	0x398
 12304 2f1a 29       		.uleb128 0x29
 12305 2f1b 8E030000 		.4byte	0x38e
 12306 2f1f 2D       		.uleb128 0x2d
 12307 2f20 F9020000 		.4byte	0x2f9
 12308 2f24 D60C0000 		.4byte	.LBB2065
ARM GAS  /tmp/ccJJl1OT.s 			page 217


 12309 2f28 08110000 		.4byte	.Ldebug_ranges0+0x1108
 12310 2f2c 03       		.byte	0x3
 12311 2f2d 8601     		.2byte	0x186
 12312 2f2f 29       		.uleb128 0x29
 12313 2f30 14030000 		.4byte	0x314
 12314 2f34 29       		.uleb128 0x29
 12315 2f35 0A030000 		.4byte	0x30a
 12316 2f39 2D       		.uleb128 0x2d
 12317 2f3a C8020000 		.4byte	0x2c8
 12318 2f3e D60C0000 		.4byte	.LBB2066
 12319 2f42 08110000 		.4byte	.Ldebug_ranges0+0x1108
 12320 2f46 03       		.byte	0x3
 12321 2f47 4B01     		.2byte	0x14b
 12322 2f49 29       		.uleb128 0x29
 12323 2f4a EA020000 		.4byte	0x2ea
 12324 2f4e 29       		.uleb128 0x29
 12325 2f4f E1020000 		.4byte	0x2e1
 12326 2f53 29       		.uleb128 0x29
 12327 2f54 D8020000 		.4byte	0x2d8
 12328 2f58 00       		.byte	0
 12329 2f59 00       		.byte	0
 12330 2f5a 00       		.byte	0
 12331 2f5b 00       		.byte	0
 12332 2f5c 00       		.byte	0
 12333 2f5d 24       		.uleb128 0x24
 12334 2f5e 0E040000 		.4byte	0x40e
 12335 2f62 EA0C0000 		.4byte	.LBB2079
 12336 2f66 20110000 		.4byte	.Ldebug_ranges0+0x1120
 12337 2f6a 01       		.byte	0x1
 12338 2f6b 9B       		.byte	0x9b
 12339 2f6c 86300000 		.4byte	0x3086
 12340 2f70 25       		.uleb128 0x25
 12341 2f71 29040000 		.4byte	0x429
 12342 2f75 A5160000 		.4byte	.LLST312
 12343 2f79 29       		.uleb128 0x29
 12344 2f7a 1E040000 		.4byte	0x41e
 12345 2f7e 26       		.uleb128 0x26
 12346 2f7f 20110000 		.4byte	.Ldebug_ranges0+0x1120
 12347 2f83 27       		.uleb128 0x27
 12348 2f84 34040000 		.4byte	0x434
 12349 2f88 27       		.uleb128 0x27
 12350 2f89 3E040000 		.4byte	0x43e
 12351 2f8d 27       		.uleb128 0x27
 12352 2f8e 48040000 		.4byte	0x448
 12353 2f92 24       		.uleb128 0x24
 12354 2f93 D6030000 		.4byte	0x3d6
 12355 2f97 EA0C0000 		.4byte	.LBB2081
 12356 2f9b 68110000 		.4byte	.Ldebug_ranges0+0x1168
 12357 2f9f 02       		.byte	0x2
 12358 2fa0 7D       		.byte	0x7d
 12359 2fa1 C52F0000 		.4byte	0x2fc5
 12360 2fa5 29       		.uleb128 0x29
 12361 2fa6 E6030000 		.4byte	0x3e6
 12362 2faa 2B       		.uleb128 0x2b
 12363 2fab 55030000 		.4byte	0x355
 12364 2faf EA0C0000 		.4byte	.LBB2083
 12365 2fb3 06000000 		.4byte	.LBE2083-.LBB2083
ARM GAS  /tmp/ccJJl1OT.s 			page 218


 12366 2fb7 02       		.byte	0x2
 12367 2fb8 73       		.byte	0x73
 12368 2fb9 29       		.uleb128 0x29
 12369 2fba 6E030000 		.4byte	0x36e
 12370 2fbe 29       		.uleb128 0x29
 12371 2fbf 65030000 		.4byte	0x365
 12372 2fc3 00       		.byte	0
 12373 2fc4 00       		.byte	0
 12374 2fc5 24       		.uleb128 0x24
 12375 2fc6 D6030000 		.4byte	0x3d6
 12376 2fca F00C0000 		.4byte	.LBB2087
 12377 2fce 88110000 		.4byte	.Ldebug_ranges0+0x1188
 12378 2fd2 02       		.byte	0x2
 12379 2fd3 7E       		.byte	0x7e
 12380 2fd4 F82F0000 		.4byte	0x2ff8
 12381 2fd8 29       		.uleb128 0x29
 12382 2fd9 E6030000 		.4byte	0x3e6
 12383 2fdd 28       		.uleb128 0x28
 12384 2fde 55030000 		.4byte	0x355
 12385 2fe2 F00C0000 		.4byte	.LBB2089
 12386 2fe6 A0110000 		.4byte	.Ldebug_ranges0+0x11a0
 12387 2fea 02       		.byte	0x2
 12388 2feb 73       		.byte	0x73
 12389 2fec 29       		.uleb128 0x29
 12390 2fed 6E030000 		.4byte	0x36e
 12391 2ff1 29       		.uleb128 0x29
 12392 2ff2 65030000 		.4byte	0x365
 12393 2ff6 00       		.byte	0
 12394 2ff7 00       		.byte	0
 12395 2ff8 24       		.uleb128 0x24
 12396 2ff9 A3030000 		.4byte	0x3a3
 12397 2ffd 120D0000 		.4byte	.LBB2096
 12398 3001 B8110000 		.4byte	.Ldebug_ranges0+0x11b8
 12399 3005 02       		.byte	0x2
 12400 3006 80       		.byte	0x80
 12401 3007 1F300000 		.4byte	0x301f
 12402 300b 29       		.uleb128 0x29
 12403 300c CA030000 		.4byte	0x3ca
 12404 3010 29       		.uleb128 0x29
 12405 3011 BF030000 		.4byte	0x3bf
 12406 3015 25       		.uleb128 0x25
 12407 3016 B4030000 		.4byte	0x3b4
 12408 301a BA160000 		.4byte	.LLST313
 12409 301e 00       		.byte	0
 12410 301f 2B       		.uleb128 0x2b
 12411 3020 7D030000 		.4byte	0x37d
 12412 3024 300D0000 		.4byte	.LBB2103
 12413 3028 0E000000 		.4byte	.LBE2103-.LBB2103
 12414 302c 02       		.byte	0x2
 12415 302d 80       		.byte	0x80
 12416 302e 25       		.uleb128 0x25
 12417 302f 98030000 		.4byte	0x398
 12418 3033 CE160000 		.4byte	.LLST314
 12419 3037 29       		.uleb128 0x29
 12420 3038 8E030000 		.4byte	0x38e
 12421 303c 2C       		.uleb128 0x2c
 12422 303d F9020000 		.4byte	0x2f9
ARM GAS  /tmp/ccJJl1OT.s 			page 219


 12423 3041 300D0000 		.4byte	.LBB2104
 12424 3045 0E000000 		.4byte	.LBE2104-.LBB2104
 12425 3049 03       		.byte	0x3
 12426 304a 8601     		.2byte	0x186
 12427 304c 25       		.uleb128 0x25
 12428 304d 14030000 		.4byte	0x314
 12429 3051 CE160000 		.4byte	.LLST314
 12430 3055 29       		.uleb128 0x29
 12431 3056 0A030000 		.4byte	0x30a
 12432 305a 2C       		.uleb128 0x2c
 12433 305b C8020000 		.4byte	0x2c8
 12434 305f 300D0000 		.4byte	.LBB2105
 12435 3063 0E000000 		.4byte	.LBE2105-.LBB2105
 12436 3067 03       		.byte	0x3
 12437 3068 4B01     		.2byte	0x14b
 12438 306a 29       		.uleb128 0x29
 12439 306b EA020000 		.4byte	0x2ea
 12440 306f 25       		.uleb128 0x25
 12441 3070 E1020000 		.4byte	0x2e1
 12442 3074 CE160000 		.4byte	.LLST314
 12443 3078 25       		.uleb128 0x25
 12444 3079 D8020000 		.4byte	0x2d8
 12445 307d E6160000 		.4byte	.LLST317
 12446 3081 00       		.byte	0
 12447 3082 00       		.byte	0
 12448 3083 00       		.byte	0
 12449 3084 00       		.byte	0
 12450 3085 00       		.byte	0
 12451 3086 24       		.uleb128 0x24
 12452 3087 0E040000 		.4byte	0x40e
 12453 308b 3E0D0000 		.4byte	.LBB2122
 12454 308f D8110000 		.4byte	.Ldebug_ranges0+0x11d8
 12455 3093 01       		.byte	0x1
 12456 3094 9C       		.byte	0x9c
 12457 3095 C7310000 		.4byte	0x31c7
 12458 3099 29       		.uleb128 0x29
 12459 309a 29040000 		.4byte	0x429
 12460 309e 25       		.uleb128 0x25
 12461 309f 1E040000 		.4byte	0x41e
 12462 30a3 04170000 		.4byte	.LLST318
 12463 30a7 26       		.uleb128 0x26
 12464 30a8 D8110000 		.4byte	.Ldebug_ranges0+0x11d8
 12465 30ac 27       		.uleb128 0x27
 12466 30ad 34040000 		.4byte	0x434
 12467 30b1 27       		.uleb128 0x27
 12468 30b2 3E040000 		.4byte	0x43e
 12469 30b6 27       		.uleb128 0x27
 12470 30b7 48040000 		.4byte	0x448
 12471 30bb 24       		.uleb128 0x24
 12472 30bc D6030000 		.4byte	0x3d6
 12473 30c0 3E0D0000 		.4byte	.LBB2124
 12474 30c4 18120000 		.4byte	.Ldebug_ranges0+0x1218
 12475 30c8 02       		.byte	0x2
 12476 30c9 7D       		.byte	0x7d
 12477 30ca FA300000 		.4byte	0x30fa
 12478 30ce 25       		.uleb128 0x25
 12479 30cf E6030000 		.4byte	0x3e6
ARM GAS  /tmp/ccJJl1OT.s 			page 220


 12480 30d3 34170000 		.4byte	.LLST319
 12481 30d7 28       		.uleb128 0x28
 12482 30d8 55030000 		.4byte	0x355
 12483 30dc 3E0D0000 		.4byte	.LBB2126
 12484 30e0 38120000 		.4byte	.Ldebug_ranges0+0x1238
 12485 30e4 02       		.byte	0x2
 12486 30e5 73       		.byte	0x73
 12487 30e6 25       		.uleb128 0x25
 12488 30e7 6E030000 		.4byte	0x36e
 12489 30eb 47170000 		.4byte	.LLST320
 12490 30ef 25       		.uleb128 0x25
 12491 30f0 65030000 		.4byte	0x365
 12492 30f4 5C170000 		.4byte	.LLST321
 12493 30f8 00       		.byte	0
 12494 30f9 00       		.byte	0
 12495 30fa 2A       		.uleb128 0x2a
 12496 30fb D6030000 		.4byte	0x3d6
 12497 30ff 600D0000 		.4byte	.LBB2134
 12498 3103 0E000000 		.4byte	.LBE2134-.LBB2134
 12499 3107 02       		.byte	0x2
 12500 3108 7E       		.byte	0x7e
 12501 3109 39310000 		.4byte	0x3139
 12502 310d 25       		.uleb128 0x25
 12503 310e E6030000 		.4byte	0x3e6
 12504 3112 6F170000 		.4byte	.LLST322
 12505 3116 2B       		.uleb128 0x2b
 12506 3117 55030000 		.4byte	0x355
 12507 311b 600D0000 		.4byte	.LBB2136
 12508 311f 0A000000 		.4byte	.LBE2136-.LBB2136
 12509 3123 02       		.byte	0x2
 12510 3124 73       		.byte	0x73
 12511 3125 25       		.uleb128 0x25
 12512 3126 6E030000 		.4byte	0x36e
 12513 312a 82170000 		.4byte	.LLST323
 12514 312e 25       		.uleb128 0x25
 12515 312f 65030000 		.4byte	0x365
 12516 3133 6F170000 		.4byte	.LLST322
 12517 3137 00       		.byte	0
 12518 3138 00       		.byte	0
 12519 3139 24       		.uleb128 0x24
 12520 313a A3030000 		.4byte	0x3a3
 12521 313e 6E0D0000 		.4byte	.LBB2138
 12522 3142 50120000 		.4byte	.Ldebug_ranges0+0x1250
 12523 3146 02       		.byte	0x2
 12524 3147 80       		.byte	0x80
 12525 3148 60310000 		.4byte	0x3160
 12526 314c 29       		.uleb128 0x29
 12527 314d CA030000 		.4byte	0x3ca
 12528 3151 29       		.uleb128 0x29
 12529 3152 BF030000 		.4byte	0x3bf
 12530 3156 25       		.uleb128 0x25
 12531 3157 B4030000 		.4byte	0x3b4
 12532 315b 97170000 		.4byte	.LLST325
 12533 315f 00       		.byte	0
 12534 3160 28       		.uleb128 0x28
 12535 3161 7D030000 		.4byte	0x37d
 12536 3165 860D0000 		.4byte	.LBB2143
ARM GAS  /tmp/ccJJl1OT.s 			page 221


 12537 3169 70120000 		.4byte	.Ldebug_ranges0+0x1270
 12538 316d 02       		.byte	0x2
 12539 316e 80       		.byte	0x80
 12540 316f 25       		.uleb128 0x25
 12541 3170 98030000 		.4byte	0x398
 12542 3174 AB170000 		.4byte	.LLST326
 12543 3178 29       		.uleb128 0x29
 12544 3179 8E030000 		.4byte	0x38e
 12545 317d 2D       		.uleb128 0x2d
 12546 317e F9020000 		.4byte	0x2f9
 12547 3182 860D0000 		.4byte	.LBB2144
 12548 3186 70120000 		.4byte	.Ldebug_ranges0+0x1270
 12549 318a 03       		.byte	0x3
 12550 318b 8601     		.2byte	0x186
 12551 318d 25       		.uleb128 0x25
 12552 318e 14030000 		.4byte	0x314
 12553 3192 AB170000 		.4byte	.LLST326
 12554 3196 29       		.uleb128 0x29
 12555 3197 0A030000 		.4byte	0x30a
 12556 319b 2D       		.uleb128 0x2d
 12557 319c C8020000 		.4byte	0x2c8
 12558 31a0 860D0000 		.4byte	.LBB2145
 12559 31a4 70120000 		.4byte	.Ldebug_ranges0+0x1270
 12560 31a8 03       		.byte	0x3
 12561 31a9 4B01     		.2byte	0x14b
 12562 31ab 29       		.uleb128 0x29
 12563 31ac EA020000 		.4byte	0x2ea
 12564 31b0 25       		.uleb128 0x25
 12565 31b1 E1020000 		.4byte	0x2e1
 12566 31b5 AB170000 		.4byte	.LLST326
 12567 31b9 25       		.uleb128 0x25
 12568 31ba D8020000 		.4byte	0x2d8
 12569 31be C3170000 		.4byte	.LLST329
 12570 31c2 00       		.byte	0
 12571 31c3 00       		.byte	0
 12572 31c4 00       		.byte	0
 12573 31c5 00       		.byte	0
 12574 31c6 00       		.byte	0
 12575 31c7 24       		.uleb128 0x24
 12576 31c8 0E040000 		.4byte	0x40e
 12577 31cc 820D0000 		.4byte	.LBB2162
 12578 31d0 88120000 		.4byte	.Ldebug_ranges0+0x1288
 12579 31d4 01       		.byte	0x1
 12580 31d5 9D       		.byte	0x9d
 12581 31d6 72320000 		.4byte	0x3272
 12582 31da 29       		.uleb128 0x29
 12583 31db 29040000 		.4byte	0x429
 12584 31df 29       		.uleb128 0x29
 12585 31e0 1E040000 		.4byte	0x41e
 12586 31e4 26       		.uleb128 0x26
 12587 31e5 88120000 		.4byte	.Ldebug_ranges0+0x1288
 12588 31e9 27       		.uleb128 0x27
 12589 31ea 34040000 		.4byte	0x434
 12590 31ee 27       		.uleb128 0x27
 12591 31ef 3E040000 		.4byte	0x43e
 12592 31f3 27       		.uleb128 0x27
 12593 31f4 48040000 		.4byte	0x448
ARM GAS  /tmp/ccJJl1OT.s 			page 222


 12594 31f8 2A       		.uleb128 0x2a
 12595 31f9 A3030000 		.4byte	0x3a3
 12596 31fd 820D0000 		.4byte	.LBB2164
 12597 3201 04000000 		.4byte	.LBE2164-.LBB2164
 12598 3205 02       		.byte	0x2
 12599 3206 80       		.byte	0x80
 12600 3207 1B320000 		.4byte	0x321b
 12601 320b 29       		.uleb128 0x29
 12602 320c CA030000 		.4byte	0x3ca
 12603 3210 29       		.uleb128 0x29
 12604 3211 BF030000 		.4byte	0x3bf
 12605 3215 29       		.uleb128 0x29
 12606 3216 B4030000 		.4byte	0x3b4
 12607 321a 00       		.byte	0
 12608 321b 28       		.uleb128 0x28
 12609 321c 7D030000 		.4byte	0x37d
 12610 3220 920D0000 		.4byte	.LBB2166
 12611 3224 B0120000 		.4byte	.Ldebug_ranges0+0x12b0
 12612 3228 02       		.byte	0x2
 12613 3229 80       		.byte	0x80
 12614 322a 29       		.uleb128 0x29
 12615 322b 98030000 		.4byte	0x398
 12616 322f 29       		.uleb128 0x29
 12617 3230 8E030000 		.4byte	0x38e
 12618 3234 2D       		.uleb128 0x2d
 12619 3235 F9020000 		.4byte	0x2f9
 12620 3239 920D0000 		.4byte	.LBB2167
 12621 323d B0120000 		.4byte	.Ldebug_ranges0+0x12b0
 12622 3241 03       		.byte	0x3
 12623 3242 8601     		.2byte	0x186
 12624 3244 29       		.uleb128 0x29
 12625 3245 14030000 		.4byte	0x314
 12626 3249 29       		.uleb128 0x29
 12627 324a 0A030000 		.4byte	0x30a
 12628 324e 2D       		.uleb128 0x2d
 12629 324f C8020000 		.4byte	0x2c8
 12630 3253 920D0000 		.4byte	.LBB2168
 12631 3257 B0120000 		.4byte	.Ldebug_ranges0+0x12b0
 12632 325b 03       		.byte	0x3
 12633 325c 4B01     		.2byte	0x14b
 12634 325e 29       		.uleb128 0x29
 12635 325f EA020000 		.4byte	0x2ea
 12636 3263 29       		.uleb128 0x29
 12637 3264 E1020000 		.4byte	0x2e1
 12638 3268 29       		.uleb128 0x29
 12639 3269 D8020000 		.4byte	0x2d8
 12640 326d 00       		.byte	0
 12641 326e 00       		.byte	0
 12642 326f 00       		.byte	0
 12643 3270 00       		.byte	0
 12644 3271 00       		.byte	0
 12645 3272 24       		.uleb128 0x24
 12646 3273 0E040000 		.4byte	0x40e
 12647 3277 A60D0000 		.4byte	.LBB2181
 12648 327b C8120000 		.4byte	.Ldebug_ranges0+0x12c8
 12649 327f 01       		.byte	0x1
 12650 3280 9E       		.byte	0x9e
ARM GAS  /tmp/ccJJl1OT.s 			page 223


 12651 3281 83330000 		.4byte	0x3383
 12652 3285 29       		.uleb128 0x29
 12653 3286 29040000 		.4byte	0x429
 12654 328a 29       		.uleb128 0x29
 12655 328b 1E040000 		.4byte	0x41e
 12656 328f 26       		.uleb128 0x26
 12657 3290 C8120000 		.4byte	.Ldebug_ranges0+0x12c8
 12658 3294 27       		.uleb128 0x27
 12659 3295 34040000 		.4byte	0x434
 12660 3299 27       		.uleb128 0x27
 12661 329a 3E040000 		.4byte	0x43e
 12662 329e 27       		.uleb128 0x27
 12663 329f 48040000 		.4byte	0x448
 12664 32a3 24       		.uleb128 0x24
 12665 32a4 D6030000 		.4byte	0x3d6
 12666 32a8 A60D0000 		.4byte	.LBB2183
 12667 32ac 00130000 		.4byte	.Ldebug_ranges0+0x1300
 12668 32b0 02       		.byte	0x2
 12669 32b1 7D       		.byte	0x7d
 12670 32b2 D6320000 		.4byte	0x32d6
 12671 32b6 29       		.uleb128 0x29
 12672 32b7 E6030000 		.4byte	0x3e6
 12673 32bb 2B       		.uleb128 0x2b
 12674 32bc 55030000 		.4byte	0x355
 12675 32c0 A60D0000 		.4byte	.LBB2185
 12676 32c4 06000000 		.4byte	.LBE2185-.LBB2185
 12677 32c8 02       		.byte	0x2
 12678 32c9 73       		.byte	0x73
 12679 32ca 29       		.uleb128 0x29
 12680 32cb 6E030000 		.4byte	0x36e
 12681 32cf 29       		.uleb128 0x29
 12682 32d0 65030000 		.4byte	0x365
 12683 32d4 00       		.byte	0
 12684 32d5 00       		.byte	0
 12685 32d6 24       		.uleb128 0x24
 12686 32d7 D6030000 		.4byte	0x3d6
 12687 32db AC0D0000 		.4byte	.LBB2189
 12688 32df 20130000 		.4byte	.Ldebug_ranges0+0x1320
 12689 32e3 02       		.byte	0x2
 12690 32e4 7E       		.byte	0x7e
 12691 32e5 09330000 		.4byte	0x3309
 12692 32e9 29       		.uleb128 0x29
 12693 32ea E6030000 		.4byte	0x3e6
 12694 32ee 28       		.uleb128 0x28
 12695 32ef 55030000 		.4byte	0x355
 12696 32f3 AC0D0000 		.4byte	.LBB2191
 12697 32f7 40130000 		.4byte	.Ldebug_ranges0+0x1340
 12698 32fb 02       		.byte	0x2
 12699 32fc 73       		.byte	0x73
 12700 32fd 29       		.uleb128 0x29
 12701 32fe 6E030000 		.4byte	0x36e
 12702 3302 29       		.uleb128 0x29
 12703 3303 65030000 		.4byte	0x365
 12704 3307 00       		.byte	0
 12705 3308 00       		.byte	0
 12706 3309 24       		.uleb128 0x24
 12707 330a A3030000 		.4byte	0x3a3
ARM GAS  /tmp/ccJJl1OT.s 			page 224


 12708 330e C60D0000 		.4byte	.LBB2200
 12709 3312 58130000 		.4byte	.Ldebug_ranges0+0x1358
 12710 3316 02       		.byte	0x2
 12711 3317 80       		.byte	0x80
 12712 3318 2C330000 		.4byte	0x332c
 12713 331c 29       		.uleb128 0x29
 12714 331d CA030000 		.4byte	0x3ca
 12715 3321 29       		.uleb128 0x29
 12716 3322 BF030000 		.4byte	0x3bf
 12717 3326 29       		.uleb128 0x29
 12718 3327 B4030000 		.4byte	0x3b4
 12719 332b 00       		.byte	0
 12720 332c 28       		.uleb128 0x28
 12721 332d 7D030000 		.4byte	0x37d
 12722 3331 DE0D0000 		.4byte	.LBB2207
 12723 3335 78130000 		.4byte	.Ldebug_ranges0+0x1378
 12724 3339 02       		.byte	0x2
 12725 333a 80       		.byte	0x80
 12726 333b 29       		.uleb128 0x29
 12727 333c 98030000 		.4byte	0x398
 12728 3340 29       		.uleb128 0x29
 12729 3341 8E030000 		.4byte	0x38e
 12730 3345 2D       		.uleb128 0x2d
 12731 3346 F9020000 		.4byte	0x2f9
 12732 334a DE0D0000 		.4byte	.LBB2208
 12733 334e 78130000 		.4byte	.Ldebug_ranges0+0x1378
 12734 3352 03       		.byte	0x3
 12735 3353 8601     		.2byte	0x186
 12736 3355 29       		.uleb128 0x29
 12737 3356 14030000 		.4byte	0x314
 12738 335a 29       		.uleb128 0x29
 12739 335b 0A030000 		.4byte	0x30a
 12740 335f 2D       		.uleb128 0x2d
 12741 3360 C8020000 		.4byte	0x2c8
 12742 3364 DE0D0000 		.4byte	.LBB2209
 12743 3368 78130000 		.4byte	.Ldebug_ranges0+0x1378
 12744 336c 03       		.byte	0x3
 12745 336d 4B01     		.2byte	0x14b
 12746 336f 29       		.uleb128 0x29
 12747 3370 EA020000 		.4byte	0x2ea
 12748 3374 29       		.uleb128 0x29
 12749 3375 E1020000 		.4byte	0x2e1
 12750 3379 29       		.uleb128 0x29
 12751 337a D8020000 		.4byte	0x2d8
 12752 337e 00       		.byte	0
 12753 337f 00       		.byte	0
 12754 3380 00       		.byte	0
 12755 3381 00       		.byte	0
 12756 3382 00       		.byte	0
 12757 3383 2E       		.uleb128 0x2e
 12758 3384 0C0E0000 		.4byte	.LBB2227
 12759 3388 16000000 		.4byte	.LBE2227-.LBB2227
 12760 338c 9E330000 		.4byte	0x339e
 12761 3390 1E       		.uleb128 0x1e
 12762 3391 6900     		.ascii	"i\000"
 12763 3393 01       		.byte	0x1
 12764 3394 A2       		.byte	0xa2
ARM GAS  /tmp/ccJJl1OT.s 			page 225


 12765 3395 33000000 		.4byte	0x33
 12766 3399 E1170000 		.4byte	.LLST330
 12767 339d 00       		.byte	0
 12768 339e 23       		.uleb128 0x23
 12769 339f 90130000 		.4byte	.Ldebug_ranges0+0x1390
 12770 33a3 E2430000 		.4byte	0x43e2
 12771 33a7 1E       		.uleb128 0x1e
 12772 33a8 73696700 		.ascii	"sig\000"
 12773 33ac 01       		.byte	0x1
 12774 33ad B1       		.byte	0xb1
 12775 33ae 25000000 		.4byte	0x25
 12776 33b2 F5170000 		.4byte	.LLST331
 12777 33b6 24       		.uleb128 0x24
 12778 33b7 45050000 		.4byte	0x545
 12779 33bb 480E0000 		.4byte	.LBB2230
 12780 33bf A8130000 		.4byte	.Ldebug_ranges0+0x13a8
 12781 33c3 01       		.byte	0x1
 12782 33c4 D6       		.byte	0xd6
 12783 33c5 2E340000 		.4byte	0x342e
 12784 33c9 25       		.uleb128 0x25
 12785 33ca 55050000 		.4byte	0x555
 12786 33ce 2D180000 		.4byte	.LLST332
 12787 33d2 26       		.uleb128 0x26
 12788 33d3 A8130000 		.4byte	.Ldebug_ranges0+0x13a8
 12789 33d7 2F       		.uleb128 0x2f
 12790 33d8 5E050000 		.4byte	0x55e
 12791 33dc 4D180000 		.4byte	.LLST333
 12792 33e0 2F       		.uleb128 0x2f
 12793 33e1 67050000 		.4byte	0x567
 12794 33e5 85180000 		.4byte	.LLST334
 12795 33e9 2F       		.uleb128 0x2f
 12796 33ea 72050000 		.4byte	0x572
 12797 33ee B7180000 		.4byte	.LLST335
 12798 33f2 2F       		.uleb128 0x2f
 12799 33f3 7D050000 		.4byte	0x57d
 12800 33f7 CA180000 		.4byte	.LLST336
 12801 33fb 2F       		.uleb128 0x2f
 12802 33fc 87050000 		.4byte	0x587
 12803 3400 FA180000 		.4byte	.LLST337
 12804 3404 27       		.uleb128 0x27
 12805 3405 91050000 		.4byte	0x591
 12806 3409 28       		.uleb128 0x28
 12807 340a A3030000 		.4byte	0x3a3
 12808 340e 8C180000 		.4byte	.LBB2232
 12809 3412 C8130000 		.4byte	.Ldebug_ranges0+0x13c8
 12810 3416 02       		.byte	0x2
 12811 3417 A6       		.byte	0xa6
 12812 3418 29       		.uleb128 0x29
 12813 3419 CA030000 		.4byte	0x3ca
 12814 341d 25       		.uleb128 0x25
 12815 341e BF030000 		.4byte	0x3bf
 12816 3422 3D190000 		.4byte	.LLST338
 12817 3426 29       		.uleb128 0x29
 12818 3427 B4030000 		.4byte	0x3b4
 12819 342b 00       		.byte	0
 12820 342c 00       		.byte	0
 12821 342d 00       		.byte	0
ARM GAS  /tmp/ccJJl1OT.s 			page 226


 12822 342e 24       		.uleb128 0x24
 12823 342f DA040000 		.4byte	0x4da
 12824 3433 500E0000 		.4byte	.LBB2240
 12825 3437 E8130000 		.4byte	.Ldebug_ranges0+0x13e8
 12826 343b 01       		.byte	0x1
 12827 343c C5       		.byte	0xc5
 12828 343d 8C340000 		.4byte	0x348c
 12829 3441 25       		.uleb128 0x25
 12830 3442 EB040000 		.4byte	0x4eb
 12831 3446 51190000 		.4byte	.LLST339
 12832 344a 26       		.uleb128 0x26
 12833 344b E8130000 		.4byte	.Ldebug_ranges0+0x13e8
 12834 344f 2F       		.uleb128 0x2f
 12835 3450 F5040000 		.4byte	0x4f5
 12836 3454 71190000 		.4byte	.LLST340
 12837 3458 2F       		.uleb128 0x2f
 12838 3459 FF040000 		.4byte	0x4ff
 12839 345d A9190000 		.4byte	.LLST341
 12840 3461 2F       		.uleb128 0x2f
 12841 3462 0B050000 		.4byte	0x50b
 12842 3466 DB190000 		.4byte	.LLST342
 12843 346a 2F       		.uleb128 0x2f
 12844 346b 17050000 		.4byte	0x517
 12845 346f 101A0000 		.4byte	.LLST343
 12846 3473 2F       		.uleb128 0x2f
 12847 3474 22050000 		.4byte	0x522
 12848 3478 2E1A0000 		.4byte	.LLST344
 12849 347c 2F       		.uleb128 0x2f
 12850 347d 2D050000 		.4byte	0x52d
 12851 3481 4E1A0000 		.4byte	.LLST345
 12852 3485 27       		.uleb128 0x27
 12853 3486 39050000 		.4byte	0x539
 12854 348a 00       		.byte	0
 12855 348b 00       		.byte	0
 12856 348c 24       		.uleb128 0x24
 12857 348d 78040000 		.4byte	0x478
 12858 3491 540E0000 		.4byte	.LBB2245
 12859 3495 10140000 		.4byte	.Ldebug_ranges0+0x1410
 12860 3499 01       		.byte	0x1
 12861 349a B5       		.byte	0xb5
 12862 349b EA340000 		.4byte	0x34ea
 12863 349f 25       		.uleb128 0x25
 12864 34a0 88040000 		.4byte	0x488
 12865 34a4 821A0000 		.4byte	.LLST346
 12866 34a8 26       		.uleb128 0x26
 12867 34a9 10140000 		.4byte	.Ldebug_ranges0+0x1410
 12868 34ad 2F       		.uleb128 0x2f
 12869 34ae 91040000 		.4byte	0x491
 12870 34b2 A21A0000 		.4byte	.LLST347
 12871 34b6 2F       		.uleb128 0x2f
 12872 34b7 9A040000 		.4byte	0x49a
 12873 34bb DA1A0000 		.4byte	.LLST348
 12874 34bf 2F       		.uleb128 0x2f
 12875 34c0 A5040000 		.4byte	0x4a5
 12876 34c4 0C1B0000 		.4byte	.LLST349
 12877 34c8 2F       		.uleb128 0x2f
 12878 34c9 B0040000 		.4byte	0x4b0
ARM GAS  /tmp/ccJJl1OT.s 			page 227


 12879 34cd 411B0000 		.4byte	.LLST350
 12880 34d1 2F       		.uleb128 0x2f
 12881 34d2 BA040000 		.4byte	0x4ba
 12882 34d6 5F1B0000 		.4byte	.LLST351
 12883 34da 2F       		.uleb128 0x2f
 12884 34db C4040000 		.4byte	0x4c4
 12885 34df 7F1B0000 		.4byte	.LLST352
 12886 34e3 27       		.uleb128 0x27
 12887 34e4 CF040000 		.4byte	0x4cf
 12888 34e8 00       		.byte	0
 12889 34e9 00       		.byte	0
 12890 34ea 24       		.uleb128 0x24
 12891 34eb 78040000 		.4byte	0x478
 12892 34ef 140F0000 		.4byte	.LBB2251
 12893 34f3 38140000 		.4byte	.Ldebug_ranges0+0x1438
 12894 34f7 01       		.byte	0x1
 12895 34f8 B6       		.byte	0xb6
 12896 34f9 48350000 		.4byte	0x3548
 12897 34fd 25       		.uleb128 0x25
 12898 34fe 88040000 		.4byte	0x488
 12899 3502 B31B0000 		.4byte	.LLST353
 12900 3506 26       		.uleb128 0x26
 12901 3507 38140000 		.4byte	.Ldebug_ranges0+0x1438
 12902 350b 2F       		.uleb128 0x2f
 12903 350c 91040000 		.4byte	0x491
 12904 3510 D41B0000 		.4byte	.LLST354
 12905 3514 2F       		.uleb128 0x2f
 12906 3515 9A040000 		.4byte	0x49a
 12907 3519 0E1C0000 		.4byte	.LLST355
 12908 351d 2F       		.uleb128 0x2f
 12909 351e A5040000 		.4byte	0x4a5
 12910 3522 421C0000 		.4byte	.LLST356
 12911 3526 2F       		.uleb128 0x2f
 12912 3527 B0040000 		.4byte	0x4b0
 12913 352b 791C0000 		.4byte	.LLST357
 12914 352f 2F       		.uleb128 0x2f
 12915 3530 BA040000 		.4byte	0x4ba
 12916 3534 971C0000 		.4byte	.LLST358
 12917 3538 2F       		.uleb128 0x2f
 12918 3539 C4040000 		.4byte	0x4c4
 12919 353d B71C0000 		.4byte	.LLST359
 12920 3541 27       		.uleb128 0x27
 12921 3542 CF040000 		.4byte	0x4cf
 12922 3546 00       		.byte	0
 12923 3547 00       		.byte	0
 12924 3548 24       		.uleb128 0x24
 12925 3549 78040000 		.4byte	0x478
 12926 354d 7A0F0000 		.4byte	.LBB2264
 12927 3551 70140000 		.4byte	.Ldebug_ranges0+0x1470
 12928 3555 01       		.byte	0x1
 12929 3556 B7       		.byte	0xb7
 12930 3557 A6350000 		.4byte	0x35a6
 12931 355b 25       		.uleb128 0x25
 12932 355c 88040000 		.4byte	0x488
 12933 3560 DF1C0000 		.4byte	.LLST360
 12934 3564 26       		.uleb128 0x26
 12935 3565 70140000 		.4byte	.Ldebug_ranges0+0x1470
ARM GAS  /tmp/ccJJl1OT.s 			page 228


 12936 3569 2F       		.uleb128 0x2f
 12937 356a 91040000 		.4byte	0x491
 12938 356e 001D0000 		.4byte	.LLST361
 12939 3572 2F       		.uleb128 0x2f
 12940 3573 9A040000 		.4byte	0x49a
 12941 3577 3A1D0000 		.4byte	.LLST362
 12942 357b 2F       		.uleb128 0x2f
 12943 357c A5040000 		.4byte	0x4a5
 12944 3580 6E1D0000 		.4byte	.LLST363
 12945 3584 2F       		.uleb128 0x2f
 12946 3585 B0040000 		.4byte	0x4b0
 12947 3589 A51D0000 		.4byte	.LLST364
 12948 358d 2F       		.uleb128 0x2f
 12949 358e BA040000 		.4byte	0x4ba
 12950 3592 C31D0000 		.4byte	.LLST365
 12951 3596 2F       		.uleb128 0x2f
 12952 3597 C4040000 		.4byte	0x4c4
 12953 359b E31D0000 		.4byte	.LLST366
 12954 359f 27       		.uleb128 0x27
 12955 35a0 CF040000 		.4byte	0x4cf
 12956 35a4 00       		.byte	0
 12957 35a5 00       		.byte	0
 12958 35a6 24       		.uleb128 0x24
 12959 35a7 78040000 		.4byte	0x478
 12960 35ab E00F0000 		.4byte	.LBB2276
 12961 35af A8140000 		.4byte	.Ldebug_ranges0+0x14a8
 12962 35b3 01       		.byte	0x1
 12963 35b4 B8       		.byte	0xb8
 12964 35b5 04360000 		.4byte	0x3604
 12965 35b9 25       		.uleb128 0x25
 12966 35ba 88040000 		.4byte	0x488
 12967 35be 0B1E0000 		.4byte	.LLST367
 12968 35c2 26       		.uleb128 0x26
 12969 35c3 A8140000 		.4byte	.Ldebug_ranges0+0x14a8
 12970 35c7 2F       		.uleb128 0x2f
 12971 35c8 91040000 		.4byte	0x491
 12972 35cc 2C1E0000 		.4byte	.LLST368
 12973 35d0 2F       		.uleb128 0x2f
 12974 35d1 9A040000 		.4byte	0x49a
 12975 35d5 661E0000 		.4byte	.LLST369
 12976 35d9 2F       		.uleb128 0x2f
 12977 35da A5040000 		.4byte	0x4a5
 12978 35de 9A1E0000 		.4byte	.LLST370
 12979 35e2 2F       		.uleb128 0x2f
 12980 35e3 B0040000 		.4byte	0x4b0
 12981 35e7 D11E0000 		.4byte	.LLST371
 12982 35eb 2F       		.uleb128 0x2f
 12983 35ec BA040000 		.4byte	0x4ba
 12984 35f0 EF1E0000 		.4byte	.LLST372
 12985 35f4 2F       		.uleb128 0x2f
 12986 35f5 C4040000 		.4byte	0x4c4
 12987 35f9 0F1F0000 		.4byte	.LLST373
 12988 35fd 27       		.uleb128 0x27
 12989 35fe CF040000 		.4byte	0x4cf
 12990 3602 00       		.byte	0
 12991 3603 00       		.byte	0
 12992 3604 24       		.uleb128 0x24
ARM GAS  /tmp/ccJJl1OT.s 			page 229


 12993 3605 78040000 		.4byte	0x478
 12994 3609 46100000 		.4byte	.LBB2288
 12995 360d E0140000 		.4byte	.Ldebug_ranges0+0x14e0
 12996 3611 01       		.byte	0x1
 12997 3612 B9       		.byte	0xb9
 12998 3613 62360000 		.4byte	0x3662
 12999 3617 25       		.uleb128 0x25
 13000 3618 88040000 		.4byte	0x488
 13001 361c 371F0000 		.4byte	.LLST374
 13002 3620 26       		.uleb128 0x26
 13003 3621 E0140000 		.4byte	.Ldebug_ranges0+0x14e0
 13004 3625 2F       		.uleb128 0x2f
 13005 3626 91040000 		.4byte	0x491
 13006 362a 581F0000 		.4byte	.LLST375
 13007 362e 2F       		.uleb128 0x2f
 13008 362f 9A040000 		.4byte	0x49a
 13009 3633 921F0000 		.4byte	.LLST376
 13010 3637 2F       		.uleb128 0x2f
 13011 3638 A5040000 		.4byte	0x4a5
 13012 363c C61F0000 		.4byte	.LLST377
 13013 3640 2F       		.uleb128 0x2f
 13014 3641 B0040000 		.4byte	0x4b0
 13015 3645 FD1F0000 		.4byte	.LLST378
 13016 3649 2F       		.uleb128 0x2f
 13017 364a BA040000 		.4byte	0x4ba
 13018 364e 1B200000 		.4byte	.LLST379
 13019 3652 2F       		.uleb128 0x2f
 13020 3653 C4040000 		.4byte	0x4c4
 13021 3657 3B200000 		.4byte	.LLST380
 13022 365b 27       		.uleb128 0x27
 13023 365c CF040000 		.4byte	0x4cf
 13024 3660 00       		.byte	0
 13025 3661 00       		.byte	0
 13026 3662 24       		.uleb128 0x24
 13027 3663 78040000 		.4byte	0x478
 13028 3667 AC100000 		.4byte	.LBB2300
 13029 366b 18150000 		.4byte	.Ldebug_ranges0+0x1518
 13030 366f 01       		.byte	0x1
 13031 3670 BA       		.byte	0xba
 13032 3671 C0360000 		.4byte	0x36c0
 13033 3675 25       		.uleb128 0x25
 13034 3676 88040000 		.4byte	0x488
 13035 367a 63200000 		.4byte	.LLST381
 13036 367e 26       		.uleb128 0x26
 13037 367f 18150000 		.4byte	.Ldebug_ranges0+0x1518
 13038 3683 2F       		.uleb128 0x2f
 13039 3684 91040000 		.4byte	0x491
 13040 3688 84200000 		.4byte	.LLST382
 13041 368c 2F       		.uleb128 0x2f
 13042 368d 9A040000 		.4byte	0x49a
 13043 3691 BE200000 		.4byte	.LLST383
 13044 3695 2F       		.uleb128 0x2f
 13045 3696 A5040000 		.4byte	0x4a5
 13046 369a F2200000 		.4byte	.LLST384
 13047 369e 2F       		.uleb128 0x2f
 13048 369f B0040000 		.4byte	0x4b0
 13049 36a3 29210000 		.4byte	.LLST385
ARM GAS  /tmp/ccJJl1OT.s 			page 230


 13050 36a7 2F       		.uleb128 0x2f
 13051 36a8 BA040000 		.4byte	0x4ba
 13052 36ac 47210000 		.4byte	.LLST386
 13053 36b0 2F       		.uleb128 0x2f
 13054 36b1 C4040000 		.4byte	0x4c4
 13055 36b5 67210000 		.4byte	.LLST387
 13056 36b9 27       		.uleb128 0x27
 13057 36ba CF040000 		.4byte	0x4cf
 13058 36be 00       		.byte	0
 13059 36bf 00       		.byte	0
 13060 36c0 24       		.uleb128 0x24
 13061 36c1 78040000 		.4byte	0x478
 13062 36c5 12110000 		.4byte	.LBB2312
 13063 36c9 50150000 		.4byte	.Ldebug_ranges0+0x1550
 13064 36cd 01       		.byte	0x1
 13065 36ce BB       		.byte	0xbb
 13066 36cf 1E370000 		.4byte	0x371e
 13067 36d3 25       		.uleb128 0x25
 13068 36d4 88040000 		.4byte	0x488
 13069 36d8 8F210000 		.4byte	.LLST388
 13070 36dc 26       		.uleb128 0x26
 13071 36dd 50150000 		.4byte	.Ldebug_ranges0+0x1550
 13072 36e1 2F       		.uleb128 0x2f
 13073 36e2 91040000 		.4byte	0x491
 13074 36e6 AF210000 		.4byte	.LLST389
 13075 36ea 2F       		.uleb128 0x2f
 13076 36eb 9A040000 		.4byte	0x49a
 13077 36ef E7210000 		.4byte	.LLST390
 13078 36f3 2F       		.uleb128 0x2f
 13079 36f4 A5040000 		.4byte	0x4a5
 13080 36f8 19220000 		.4byte	.LLST391
 13081 36fc 2F       		.uleb128 0x2f
 13082 36fd B0040000 		.4byte	0x4b0
 13083 3701 4E220000 		.4byte	.LLST392
 13084 3705 2F       		.uleb128 0x2f
 13085 3706 BA040000 		.4byte	0x4ba
 13086 370a 6C220000 		.4byte	.LLST393
 13087 370e 2F       		.uleb128 0x2f
 13088 370f C4040000 		.4byte	0x4c4
 13089 3713 8C220000 		.4byte	.LLST394
 13090 3717 27       		.uleb128 0x27
 13091 3718 CF040000 		.4byte	0x4cf
 13092 371c 00       		.byte	0
 13093 371d 00       		.byte	0
 13094 371e 24       		.uleb128 0x24
 13095 371f 78040000 		.4byte	0x478
 13096 3723 78110000 		.4byte	.LBB2324
 13097 3727 88150000 		.4byte	.Ldebug_ranges0+0x1588
 13098 372b 01       		.byte	0x1
 13099 372c BC       		.byte	0xbc
 13100 372d 7C370000 		.4byte	0x377c
 13101 3731 25       		.uleb128 0x25
 13102 3732 88040000 		.4byte	0x488
 13103 3736 B4220000 		.4byte	.LLST395
 13104 373a 26       		.uleb128 0x26
 13105 373b 88150000 		.4byte	.Ldebug_ranges0+0x1588
 13106 373f 2F       		.uleb128 0x2f
ARM GAS  /tmp/ccJJl1OT.s 			page 231


 13107 3740 91040000 		.4byte	0x491
 13108 3744 D4220000 		.4byte	.LLST396
 13109 3748 2F       		.uleb128 0x2f
 13110 3749 9A040000 		.4byte	0x49a
 13111 374d 0C230000 		.4byte	.LLST397
 13112 3751 2F       		.uleb128 0x2f
 13113 3752 A5040000 		.4byte	0x4a5
 13114 3756 3E230000 		.4byte	.LLST398
 13115 375a 2F       		.uleb128 0x2f
 13116 375b B0040000 		.4byte	0x4b0
 13117 375f 73230000 		.4byte	.LLST399
 13118 3763 2F       		.uleb128 0x2f
 13119 3764 BA040000 		.4byte	0x4ba
 13120 3768 91230000 		.4byte	.LLST400
 13121 376c 2F       		.uleb128 0x2f
 13122 376d C4040000 		.4byte	0x4c4
 13123 3771 B1230000 		.4byte	.LLST401
 13124 3775 27       		.uleb128 0x27
 13125 3776 CF040000 		.4byte	0x4cf
 13126 377a 00       		.byte	0
 13127 377b 00       		.byte	0
 13128 377c 24       		.uleb128 0x24
 13129 377d 78040000 		.4byte	0x478
 13130 3781 DE110000 		.4byte	.LBB2336
 13131 3785 C0150000 		.4byte	.Ldebug_ranges0+0x15c0
 13132 3789 01       		.byte	0x1
 13133 378a BD       		.byte	0xbd
 13134 378b DA370000 		.4byte	0x37da
 13135 378f 25       		.uleb128 0x25
 13136 3790 88040000 		.4byte	0x488
 13137 3794 D9230000 		.4byte	.LLST402
 13138 3798 26       		.uleb128 0x26
 13139 3799 C0150000 		.4byte	.Ldebug_ranges0+0x15c0
 13140 379d 2F       		.uleb128 0x2f
 13141 379e 91040000 		.4byte	0x491
 13142 37a2 F9230000 		.4byte	.LLST403
 13143 37a6 2F       		.uleb128 0x2f
 13144 37a7 9A040000 		.4byte	0x49a
 13145 37ab 31240000 		.4byte	.LLST404
 13146 37af 2F       		.uleb128 0x2f
 13147 37b0 A5040000 		.4byte	0x4a5
 13148 37b4 63240000 		.4byte	.LLST405
 13149 37b8 2F       		.uleb128 0x2f
 13150 37b9 B0040000 		.4byte	0x4b0
 13151 37bd 98240000 		.4byte	.LLST406
 13152 37c1 2F       		.uleb128 0x2f
 13153 37c2 BA040000 		.4byte	0x4ba
 13154 37c6 B6240000 		.4byte	.LLST407
 13155 37ca 2F       		.uleb128 0x2f
 13156 37cb C4040000 		.4byte	0x4c4
 13157 37cf D6240000 		.4byte	.LLST408
 13158 37d3 27       		.uleb128 0x27
 13159 37d4 CF040000 		.4byte	0x4cf
 13160 37d8 00       		.byte	0
 13161 37d9 00       		.byte	0
 13162 37da 24       		.uleb128 0x24
 13163 37db 78040000 		.4byte	0x478
ARM GAS  /tmp/ccJJl1OT.s 			page 232


 13164 37df 44120000 		.4byte	.LBB2348
 13165 37e3 F8150000 		.4byte	.Ldebug_ranges0+0x15f8
 13166 37e7 01       		.byte	0x1
 13167 37e8 BE       		.byte	0xbe
 13168 37e9 38380000 		.4byte	0x3838
 13169 37ed 25       		.uleb128 0x25
 13170 37ee 88040000 		.4byte	0x488
 13171 37f2 FE240000 		.4byte	.LLST409
 13172 37f6 26       		.uleb128 0x26
 13173 37f7 F8150000 		.4byte	.Ldebug_ranges0+0x15f8
 13174 37fb 2F       		.uleb128 0x2f
 13175 37fc 91040000 		.4byte	0x491
 13176 3800 1E250000 		.4byte	.LLST410
 13177 3804 2F       		.uleb128 0x2f
 13178 3805 9A040000 		.4byte	0x49a
 13179 3809 56250000 		.4byte	.LLST411
 13180 380d 2F       		.uleb128 0x2f
 13181 380e A5040000 		.4byte	0x4a5
 13182 3812 88250000 		.4byte	.LLST412
 13183 3816 2F       		.uleb128 0x2f
 13184 3817 B0040000 		.4byte	0x4b0
 13185 381b BD250000 		.4byte	.LLST413
 13186 381f 2F       		.uleb128 0x2f
 13187 3820 BA040000 		.4byte	0x4ba
 13188 3824 DB250000 		.4byte	.LLST414
 13189 3828 2F       		.uleb128 0x2f
 13190 3829 C4040000 		.4byte	0x4c4
 13191 382d FB250000 		.4byte	.LLST415
 13192 3831 27       		.uleb128 0x27
 13193 3832 CF040000 		.4byte	0x4cf
 13194 3836 00       		.byte	0
 13195 3837 00       		.byte	0
 13196 3838 24       		.uleb128 0x24
 13197 3839 78040000 		.4byte	0x478
 13198 383d AA120000 		.4byte	.LBB2360
 13199 3841 30160000 		.4byte	.Ldebug_ranges0+0x1630
 13200 3845 01       		.byte	0x1
 13201 3846 BF       		.byte	0xbf
 13202 3847 96380000 		.4byte	0x3896
 13203 384b 25       		.uleb128 0x25
 13204 384c 88040000 		.4byte	0x488
 13205 3850 23260000 		.4byte	.LLST416
 13206 3854 26       		.uleb128 0x26
 13207 3855 30160000 		.4byte	.Ldebug_ranges0+0x1630
 13208 3859 2F       		.uleb128 0x2f
 13209 385a 91040000 		.4byte	0x491
 13210 385e 43260000 		.4byte	.LLST417
 13211 3862 2F       		.uleb128 0x2f
 13212 3863 9A040000 		.4byte	0x49a
 13213 3867 7B260000 		.4byte	.LLST418
 13214 386b 2F       		.uleb128 0x2f
 13215 386c A5040000 		.4byte	0x4a5
 13216 3870 AD260000 		.4byte	.LLST419
 13217 3874 2F       		.uleb128 0x2f
 13218 3875 B0040000 		.4byte	0x4b0
 13219 3879 E2260000 		.4byte	.LLST420
 13220 387d 2F       		.uleb128 0x2f
ARM GAS  /tmp/ccJJl1OT.s 			page 233


 13221 387e BA040000 		.4byte	0x4ba
 13222 3882 00270000 		.4byte	.LLST421
 13223 3886 2F       		.uleb128 0x2f
 13224 3887 C4040000 		.4byte	0x4c4
 13225 388b 20270000 		.4byte	.LLST422
 13226 388f 27       		.uleb128 0x27
 13227 3890 CF040000 		.4byte	0x4cf
 13228 3894 00       		.byte	0
 13229 3895 00       		.byte	0
 13230 3896 24       		.uleb128 0x24
 13231 3897 78040000 		.4byte	0x478
 13232 389b 10130000 		.4byte	.LBB2372
 13233 389f 68160000 		.4byte	.Ldebug_ranges0+0x1668
 13234 38a3 01       		.byte	0x1
 13235 38a4 C0       		.byte	0xc0
 13236 38a5 F4380000 		.4byte	0x38f4
 13237 38a9 25       		.uleb128 0x25
 13238 38aa 88040000 		.4byte	0x488
 13239 38ae 48270000 		.4byte	.LLST423
 13240 38b2 26       		.uleb128 0x26
 13241 38b3 68160000 		.4byte	.Ldebug_ranges0+0x1668
 13242 38b7 2F       		.uleb128 0x2f
 13243 38b8 91040000 		.4byte	0x491
 13244 38bc 68270000 		.4byte	.LLST424
 13245 38c0 2F       		.uleb128 0x2f
 13246 38c1 9A040000 		.4byte	0x49a
 13247 38c5 A0270000 		.4byte	.LLST425
 13248 38c9 2F       		.uleb128 0x2f
 13249 38ca A5040000 		.4byte	0x4a5
 13250 38ce B4270000 		.4byte	.LLST426
 13251 38d2 2F       		.uleb128 0x2f
 13252 38d3 B0040000 		.4byte	0x4b0
 13253 38d7 C7270000 		.4byte	.LLST427
 13254 38db 2F       		.uleb128 0x2f
 13255 38dc BA040000 		.4byte	0x4ba
 13256 38e0 E5270000 		.4byte	.LLST428
 13257 38e4 2F       		.uleb128 0x2f
 13258 38e5 C4040000 		.4byte	0x4c4
 13259 38e9 05280000 		.4byte	.LLST429
 13260 38ed 27       		.uleb128 0x27
 13261 38ee CF040000 		.4byte	0x4cf
 13262 38f2 00       		.byte	0
 13263 38f3 00       		.byte	0
 13264 38f4 24       		.uleb128 0x24
 13265 38f5 DA040000 		.4byte	0x4da
 13266 38f9 D4130000 		.4byte	.LBB2384
 13267 38fd 98160000 		.4byte	.Ldebug_ranges0+0x1698
 13268 3901 01       		.byte	0x1
 13269 3902 C6       		.byte	0xc6
 13270 3903 52390000 		.4byte	0x3952
 13271 3907 25       		.uleb128 0x25
 13272 3908 EB040000 		.4byte	0x4eb
 13273 390c 39280000 		.4byte	.LLST430
 13274 3910 26       		.uleb128 0x26
 13275 3911 98160000 		.4byte	.Ldebug_ranges0+0x1698
 13276 3915 2F       		.uleb128 0x2f
 13277 3916 F5040000 		.4byte	0x4f5
ARM GAS  /tmp/ccJJl1OT.s 			page 234


 13278 391a 5A280000 		.4byte	.LLST431
 13279 391e 2F       		.uleb128 0x2f
 13280 391f FF040000 		.4byte	0x4ff
 13281 3923 94280000 		.4byte	.LLST432
 13282 3927 2F       		.uleb128 0x2f
 13283 3928 0B050000 		.4byte	0x50b
 13284 392c C8280000 		.4byte	.LLST433
 13285 3930 2F       		.uleb128 0x2f
 13286 3931 17050000 		.4byte	0x517
 13287 3935 FF280000 		.4byte	.LLST434
 13288 3939 2F       		.uleb128 0x2f
 13289 393a 22050000 		.4byte	0x522
 13290 393e 1D290000 		.4byte	.LLST435
 13291 3942 2F       		.uleb128 0x2f
 13292 3943 2D050000 		.4byte	0x52d
 13293 3947 3D290000 		.4byte	.LLST436
 13294 394b 27       		.uleb128 0x27
 13295 394c 39050000 		.4byte	0x539
 13296 3950 00       		.byte	0
 13297 3951 00       		.byte	0
 13298 3952 24       		.uleb128 0x24
 13299 3953 DA040000 		.4byte	0x4da
 13300 3957 3A140000 		.4byte	.LBB2397
 13301 395b D0160000 		.4byte	.Ldebug_ranges0+0x16d0
 13302 395f 01       		.byte	0x1
 13303 3960 C7       		.byte	0xc7
 13304 3961 B0390000 		.4byte	0x39b0
 13305 3965 25       		.uleb128 0x25
 13306 3966 EB040000 		.4byte	0x4eb
 13307 396a 65290000 		.4byte	.LLST437
 13308 396e 26       		.uleb128 0x26
 13309 396f D0160000 		.4byte	.Ldebug_ranges0+0x16d0
 13310 3973 2F       		.uleb128 0x2f
 13311 3974 F5040000 		.4byte	0x4f5
 13312 3978 86290000 		.4byte	.LLST438
 13313 397c 2F       		.uleb128 0x2f
 13314 397d FF040000 		.4byte	0x4ff
 13315 3981 C0290000 		.4byte	.LLST439
 13316 3985 2F       		.uleb128 0x2f
 13317 3986 0B050000 		.4byte	0x50b
 13318 398a F4290000 		.4byte	.LLST440
 13319 398e 2F       		.uleb128 0x2f
 13320 398f 17050000 		.4byte	0x517
 13321 3993 2B2A0000 		.4byte	.LLST441
 13322 3997 2F       		.uleb128 0x2f
 13323 3998 22050000 		.4byte	0x522
 13324 399c 492A0000 		.4byte	.LLST442
 13325 39a0 2F       		.uleb128 0x2f
 13326 39a1 2D050000 		.4byte	0x52d
 13327 39a5 692A0000 		.4byte	.LLST443
 13328 39a9 27       		.uleb128 0x27
 13329 39aa 39050000 		.4byte	0x539
 13330 39ae 00       		.byte	0
 13331 39af 00       		.byte	0
 13332 39b0 24       		.uleb128 0x24
 13333 39b1 DA040000 		.4byte	0x4da
 13334 39b5 A0140000 		.4byte	.LBB2409
ARM GAS  /tmp/ccJJl1OT.s 			page 235


 13335 39b9 08170000 		.4byte	.Ldebug_ranges0+0x1708
 13336 39bd 01       		.byte	0x1
 13337 39be C8       		.byte	0xc8
 13338 39bf 0E3A0000 		.4byte	0x3a0e
 13339 39c3 25       		.uleb128 0x25
 13340 39c4 EB040000 		.4byte	0x4eb
 13341 39c8 912A0000 		.4byte	.LLST444
 13342 39cc 26       		.uleb128 0x26
 13343 39cd 08170000 		.4byte	.Ldebug_ranges0+0x1708
 13344 39d1 2F       		.uleb128 0x2f
 13345 39d2 F5040000 		.4byte	0x4f5
 13346 39d6 B22A0000 		.4byte	.LLST445
 13347 39da 2F       		.uleb128 0x2f
 13348 39db FF040000 		.4byte	0x4ff
 13349 39df EC2A0000 		.4byte	.LLST446
 13350 39e3 2F       		.uleb128 0x2f
 13351 39e4 0B050000 		.4byte	0x50b
 13352 39e8 202B0000 		.4byte	.LLST447
 13353 39ec 2F       		.uleb128 0x2f
 13354 39ed 17050000 		.4byte	0x517
 13355 39f1 572B0000 		.4byte	.LLST448
 13356 39f5 2F       		.uleb128 0x2f
 13357 39f6 22050000 		.4byte	0x522
 13358 39fa 752B0000 		.4byte	.LLST449
 13359 39fe 2F       		.uleb128 0x2f
 13360 39ff 2D050000 		.4byte	0x52d
 13361 3a03 952B0000 		.4byte	.LLST450
 13362 3a07 27       		.uleb128 0x27
 13363 3a08 39050000 		.4byte	0x539
 13364 3a0c 00       		.byte	0
 13365 3a0d 00       		.byte	0
 13366 3a0e 24       		.uleb128 0x24
 13367 3a0f DA040000 		.4byte	0x4da
 13368 3a13 06150000 		.4byte	.LBB2421
 13369 3a17 40170000 		.4byte	.Ldebug_ranges0+0x1740
 13370 3a1b 01       		.byte	0x1
 13371 3a1c C9       		.byte	0xc9
 13372 3a1d 6C3A0000 		.4byte	0x3a6c
 13373 3a21 25       		.uleb128 0x25
 13374 3a22 EB040000 		.4byte	0x4eb
 13375 3a26 BD2B0000 		.4byte	.LLST451
 13376 3a2a 26       		.uleb128 0x26
 13377 3a2b 40170000 		.4byte	.Ldebug_ranges0+0x1740
 13378 3a2f 2F       		.uleb128 0x2f
 13379 3a30 F5040000 		.4byte	0x4f5
 13380 3a34 DE2B0000 		.4byte	.LLST452
 13381 3a38 2F       		.uleb128 0x2f
 13382 3a39 FF040000 		.4byte	0x4ff
 13383 3a3d 182C0000 		.4byte	.LLST453
 13384 3a41 2F       		.uleb128 0x2f
 13385 3a42 0B050000 		.4byte	0x50b
 13386 3a46 4C2C0000 		.4byte	.LLST454
 13387 3a4a 2F       		.uleb128 0x2f
 13388 3a4b 17050000 		.4byte	0x517
 13389 3a4f 832C0000 		.4byte	.LLST455
 13390 3a53 2F       		.uleb128 0x2f
 13391 3a54 22050000 		.4byte	0x522
ARM GAS  /tmp/ccJJl1OT.s 			page 236


 13392 3a58 A12C0000 		.4byte	.LLST456
 13393 3a5c 2F       		.uleb128 0x2f
 13394 3a5d 2D050000 		.4byte	0x52d
 13395 3a61 C12C0000 		.4byte	.LLST457
 13396 3a65 27       		.uleb128 0x27
 13397 3a66 39050000 		.4byte	0x539
 13398 3a6a 00       		.byte	0
 13399 3a6b 00       		.byte	0
 13400 3a6c 24       		.uleb128 0x24
 13401 3a6d DA040000 		.4byte	0x4da
 13402 3a71 6C150000 		.4byte	.LBB2433
 13403 3a75 78170000 		.4byte	.Ldebug_ranges0+0x1778
 13404 3a79 01       		.byte	0x1
 13405 3a7a CA       		.byte	0xca
 13406 3a7b CA3A0000 		.4byte	0x3aca
 13407 3a7f 25       		.uleb128 0x25
 13408 3a80 EB040000 		.4byte	0x4eb
 13409 3a84 E92C0000 		.4byte	.LLST458
 13410 3a88 26       		.uleb128 0x26
 13411 3a89 78170000 		.4byte	.Ldebug_ranges0+0x1778
 13412 3a8d 2F       		.uleb128 0x2f
 13413 3a8e F5040000 		.4byte	0x4f5
 13414 3a92 0A2D0000 		.4byte	.LLST459
 13415 3a96 2F       		.uleb128 0x2f
 13416 3a97 FF040000 		.4byte	0x4ff
 13417 3a9b 442D0000 		.4byte	.LLST460
 13418 3a9f 2F       		.uleb128 0x2f
 13419 3aa0 0B050000 		.4byte	0x50b
 13420 3aa4 782D0000 		.4byte	.LLST461
 13421 3aa8 2F       		.uleb128 0x2f
 13422 3aa9 17050000 		.4byte	0x517
 13423 3aad AF2D0000 		.4byte	.LLST462
 13424 3ab1 2F       		.uleb128 0x2f
 13425 3ab2 22050000 		.4byte	0x522
 13426 3ab6 CD2D0000 		.4byte	.LLST463
 13427 3aba 2F       		.uleb128 0x2f
 13428 3abb 2D050000 		.4byte	0x52d
 13429 3abf ED2D0000 		.4byte	.LLST464
 13430 3ac3 27       		.uleb128 0x27
 13431 3ac4 39050000 		.4byte	0x539
 13432 3ac8 00       		.byte	0
 13433 3ac9 00       		.byte	0
 13434 3aca 24       		.uleb128 0x24
 13435 3acb DA040000 		.4byte	0x4da
 13436 3acf D2150000 		.4byte	.LBB2445
 13437 3ad3 B0170000 		.4byte	.Ldebug_ranges0+0x17b0
 13438 3ad7 01       		.byte	0x1
 13439 3ad8 CB       		.byte	0xcb
 13440 3ad9 283B0000 		.4byte	0x3b28
 13441 3add 25       		.uleb128 0x25
 13442 3ade EB040000 		.4byte	0x4eb
 13443 3ae2 152E0000 		.4byte	.LLST465
 13444 3ae6 26       		.uleb128 0x26
 13445 3ae7 B0170000 		.4byte	.Ldebug_ranges0+0x17b0
 13446 3aeb 2F       		.uleb128 0x2f
 13447 3aec F5040000 		.4byte	0x4f5
 13448 3af0 352E0000 		.4byte	.LLST466
ARM GAS  /tmp/ccJJl1OT.s 			page 237


 13449 3af4 2F       		.uleb128 0x2f
 13450 3af5 FF040000 		.4byte	0x4ff
 13451 3af9 6D2E0000 		.4byte	.LLST467
 13452 3afd 2F       		.uleb128 0x2f
 13453 3afe 0B050000 		.4byte	0x50b
 13454 3b02 9F2E0000 		.4byte	.LLST468
 13455 3b06 2F       		.uleb128 0x2f
 13456 3b07 17050000 		.4byte	0x517
 13457 3b0b D42E0000 		.4byte	.LLST469
 13458 3b0f 2F       		.uleb128 0x2f
 13459 3b10 22050000 		.4byte	0x522
 13460 3b14 F22E0000 		.4byte	.LLST470
 13461 3b18 2F       		.uleb128 0x2f
 13462 3b19 2D050000 		.4byte	0x52d
 13463 3b1d 122F0000 		.4byte	.LLST471
 13464 3b21 27       		.uleb128 0x27
 13465 3b22 39050000 		.4byte	0x539
 13466 3b26 00       		.byte	0
 13467 3b27 00       		.byte	0
 13468 3b28 24       		.uleb128 0x24
 13469 3b29 DA040000 		.4byte	0x4da
 13470 3b2d 38160000 		.4byte	.LBB2457
 13471 3b31 E8170000 		.4byte	.Ldebug_ranges0+0x17e8
 13472 3b35 01       		.byte	0x1
 13473 3b36 CC       		.byte	0xcc
 13474 3b37 863B0000 		.4byte	0x3b86
 13475 3b3b 25       		.uleb128 0x25
 13476 3b3c EB040000 		.4byte	0x4eb
 13477 3b40 3A2F0000 		.4byte	.LLST472
 13478 3b44 26       		.uleb128 0x26
 13479 3b45 E8170000 		.4byte	.Ldebug_ranges0+0x17e8
 13480 3b49 2F       		.uleb128 0x2f
 13481 3b4a F5040000 		.4byte	0x4f5
 13482 3b4e 5A2F0000 		.4byte	.LLST473
 13483 3b52 2F       		.uleb128 0x2f
 13484 3b53 FF040000 		.4byte	0x4ff
 13485 3b57 922F0000 		.4byte	.LLST474
 13486 3b5b 2F       		.uleb128 0x2f
 13487 3b5c 0B050000 		.4byte	0x50b
 13488 3b60 C42F0000 		.4byte	.LLST475
 13489 3b64 2F       		.uleb128 0x2f
 13490 3b65 17050000 		.4byte	0x517
 13491 3b69 F92F0000 		.4byte	.LLST476
 13492 3b6d 2F       		.uleb128 0x2f
 13493 3b6e 22050000 		.4byte	0x522
 13494 3b72 17300000 		.4byte	.LLST477
 13495 3b76 2F       		.uleb128 0x2f
 13496 3b77 2D050000 		.4byte	0x52d
 13497 3b7b 37300000 		.4byte	.LLST478
 13498 3b7f 27       		.uleb128 0x27
 13499 3b80 39050000 		.4byte	0x539
 13500 3b84 00       		.byte	0
 13501 3b85 00       		.byte	0
 13502 3b86 24       		.uleb128 0x24
 13503 3b87 DA040000 		.4byte	0x4da
 13504 3b8b 9E160000 		.4byte	.LBB2469
 13505 3b8f 20180000 		.4byte	.Ldebug_ranges0+0x1820
ARM GAS  /tmp/ccJJl1OT.s 			page 238


 13506 3b93 01       		.byte	0x1
 13507 3b94 CD       		.byte	0xcd
 13508 3b95 E43B0000 		.4byte	0x3be4
 13509 3b99 25       		.uleb128 0x25
 13510 3b9a EB040000 		.4byte	0x4eb
 13511 3b9e 5F300000 		.4byte	.LLST479
 13512 3ba2 26       		.uleb128 0x26
 13513 3ba3 20180000 		.4byte	.Ldebug_ranges0+0x1820
 13514 3ba7 2F       		.uleb128 0x2f
 13515 3ba8 F5040000 		.4byte	0x4f5
 13516 3bac 7F300000 		.4byte	.LLST480
 13517 3bb0 2F       		.uleb128 0x2f
 13518 3bb1 FF040000 		.4byte	0x4ff
 13519 3bb5 B7300000 		.4byte	.LLST481
 13520 3bb9 2F       		.uleb128 0x2f
 13521 3bba 0B050000 		.4byte	0x50b
 13522 3bbe E9300000 		.4byte	.LLST482
 13523 3bc2 2F       		.uleb128 0x2f
 13524 3bc3 17050000 		.4byte	0x517
 13525 3bc7 1E310000 		.4byte	.LLST483
 13526 3bcb 2F       		.uleb128 0x2f
 13527 3bcc 22050000 		.4byte	0x522
 13528 3bd0 3C310000 		.4byte	.LLST484
 13529 3bd4 2F       		.uleb128 0x2f
 13530 3bd5 2D050000 		.4byte	0x52d
 13531 3bd9 5C310000 		.4byte	.LLST485
 13532 3bdd 27       		.uleb128 0x27
 13533 3bde 39050000 		.4byte	0x539
 13534 3be2 00       		.byte	0
 13535 3be3 00       		.byte	0
 13536 3be4 24       		.uleb128 0x24
 13537 3be5 DA040000 		.4byte	0x4da
 13538 3be9 04170000 		.4byte	.LBB2481
 13539 3bed 58180000 		.4byte	.Ldebug_ranges0+0x1858
 13540 3bf1 01       		.byte	0x1
 13541 3bf2 CE       		.byte	0xce
 13542 3bf3 423C0000 		.4byte	0x3c42
 13543 3bf7 25       		.uleb128 0x25
 13544 3bf8 EB040000 		.4byte	0x4eb
 13545 3bfc 84310000 		.4byte	.LLST486
 13546 3c00 26       		.uleb128 0x26
 13547 3c01 58180000 		.4byte	.Ldebug_ranges0+0x1858
 13548 3c05 2F       		.uleb128 0x2f
 13549 3c06 F5040000 		.4byte	0x4f5
 13550 3c0a A4310000 		.4byte	.LLST487
 13551 3c0e 2F       		.uleb128 0x2f
 13552 3c0f FF040000 		.4byte	0x4ff
 13553 3c13 DC310000 		.4byte	.LLST488
 13554 3c17 2F       		.uleb128 0x2f
 13555 3c18 0B050000 		.4byte	0x50b
 13556 3c1c 0E320000 		.4byte	.LLST489
 13557 3c20 2F       		.uleb128 0x2f
 13558 3c21 17050000 		.4byte	0x517
 13559 3c25 43320000 		.4byte	.LLST490
 13560 3c29 2F       		.uleb128 0x2f
 13561 3c2a 22050000 		.4byte	0x522
 13562 3c2e 61320000 		.4byte	.LLST491
ARM GAS  /tmp/ccJJl1OT.s 			page 239


 13563 3c32 2F       		.uleb128 0x2f
 13564 3c33 2D050000 		.4byte	0x52d
 13565 3c37 81320000 		.4byte	.LLST492
 13566 3c3b 27       		.uleb128 0x27
 13567 3c3c 39050000 		.4byte	0x539
 13568 3c40 00       		.byte	0
 13569 3c41 00       		.byte	0
 13570 3c42 24       		.uleb128 0x24
 13571 3c43 DA040000 		.4byte	0x4da
 13572 3c47 6A170000 		.4byte	.LBB2493
 13573 3c4b 90180000 		.4byte	.Ldebug_ranges0+0x1890
 13574 3c4f 01       		.byte	0x1
 13575 3c50 CF       		.byte	0xcf
 13576 3c51 A03C0000 		.4byte	0x3ca0
 13577 3c55 25       		.uleb128 0x25
 13578 3c56 EB040000 		.4byte	0x4eb
 13579 3c5a A9320000 		.4byte	.LLST493
 13580 3c5e 26       		.uleb128 0x26
 13581 3c5f 90180000 		.4byte	.Ldebug_ranges0+0x1890
 13582 3c63 2F       		.uleb128 0x2f
 13583 3c64 F5040000 		.4byte	0x4f5
 13584 3c68 C9320000 		.4byte	.LLST494
 13585 3c6c 2F       		.uleb128 0x2f
 13586 3c6d FF040000 		.4byte	0x4ff
 13587 3c71 01330000 		.4byte	.LLST495
 13588 3c75 2F       		.uleb128 0x2f
 13589 3c76 0B050000 		.4byte	0x50b
 13590 3c7a 33330000 		.4byte	.LLST496
 13591 3c7e 2F       		.uleb128 0x2f
 13592 3c7f 17050000 		.4byte	0x517
 13593 3c83 68330000 		.4byte	.LLST497
 13594 3c87 2F       		.uleb128 0x2f
 13595 3c88 22050000 		.4byte	0x522
 13596 3c8c 86330000 		.4byte	.LLST498
 13597 3c90 2F       		.uleb128 0x2f
 13598 3c91 2D050000 		.4byte	0x52d
 13599 3c95 A6330000 		.4byte	.LLST499
 13600 3c99 27       		.uleb128 0x27
 13601 3c9a 39050000 		.4byte	0x539
 13602 3c9e 00       		.byte	0
 13603 3c9f 00       		.byte	0
 13604 3ca0 24       		.uleb128 0x24
 13605 3ca1 DA040000 		.4byte	0x4da
 13606 3ca5 D0170000 		.4byte	.LBB2505
 13607 3ca9 C8180000 		.4byte	.Ldebug_ranges0+0x18c8
 13608 3cad 01       		.byte	0x1
 13609 3cae D0       		.byte	0xd0
 13610 3caf FE3C0000 		.4byte	0x3cfe
 13611 3cb3 25       		.uleb128 0x25
 13612 3cb4 EB040000 		.4byte	0x4eb
 13613 3cb8 CE330000 		.4byte	.LLST500
 13614 3cbc 26       		.uleb128 0x26
 13615 3cbd C8180000 		.4byte	.Ldebug_ranges0+0x18c8
 13616 3cc1 2F       		.uleb128 0x2f
 13617 3cc2 F5040000 		.4byte	0x4f5
 13618 3cc6 EE330000 		.4byte	.LLST501
 13619 3cca 2F       		.uleb128 0x2f
ARM GAS  /tmp/ccJJl1OT.s 			page 240


 13620 3ccb FF040000 		.4byte	0x4ff
 13621 3ccf 26340000 		.4byte	.LLST502
 13622 3cd3 2F       		.uleb128 0x2f
 13623 3cd4 0B050000 		.4byte	0x50b
 13624 3cd8 58340000 		.4byte	.LLST503
 13625 3cdc 2F       		.uleb128 0x2f
 13626 3cdd 17050000 		.4byte	0x517
 13627 3ce1 6B340000 		.4byte	.LLST504
 13628 3ce5 2F       		.uleb128 0x2f
 13629 3ce6 22050000 		.4byte	0x522
 13630 3cea 89340000 		.4byte	.LLST505
 13631 3cee 2F       		.uleb128 0x2f
 13632 3cef 2D050000 		.4byte	0x52d
 13633 3cf3 A9340000 		.4byte	.LLST506
 13634 3cf7 27       		.uleb128 0x27
 13635 3cf8 39050000 		.4byte	0x539
 13636 3cfc 00       		.byte	0
 13637 3cfd 00       		.byte	0
 13638 3cfe 2A       		.uleb128 0x2a
 13639 3cff 52040000 		.4byte	0x452
 13640 3d03 3E180000 		.4byte	.LBB2516
 13641 3d07 24000000 		.4byte	.LBE2516-.LBB2516
 13642 3d0b 01       		.byte	0x1
 13643 3d0c D1       		.byte	0xd1
 13644 3d0d C23D0000 		.4byte	0x3dc2
 13645 3d11 25       		.uleb128 0x25
 13646 3d12 6D040000 		.4byte	0x46d
 13647 3d16 D1340000 		.4byte	.LLST507
 13648 3d1a 25       		.uleb128 0x25
 13649 3d1b 63040000 		.4byte	0x463
 13650 3d1f F1340000 		.4byte	.LLST508
 13651 3d23 2C       		.uleb128 0x2c
 13652 3d24 F2030000 		.4byte	0x3f2
 13653 3d28 3E180000 		.4byte	.LBB2518
 13654 3d2c 24000000 		.4byte	.LBE2518-.LBB2518
 13655 3d30 02       		.byte	0x2
 13656 3d31 A102     		.2byte	0x2a1
 13657 3d33 25       		.uleb128 0x25
 13658 3d34 03040000 		.4byte	0x403
 13659 3d38 D1340000 		.4byte	.LLST507
 13660 3d3c 2C       		.uleb128 0x2c
 13661 3d3d 21030000 		.4byte	0x321
 13662 3d41 3E180000 		.4byte	.LBB2519
 13663 3d45 24000000 		.4byte	.LBE2519-.LBB2519
 13664 3d49 03       		.byte	0x3
 13665 3d4a B001     		.2byte	0x1b0
 13666 3d4c 25       		.uleb128 0x25
 13667 3d4d 48030000 		.4byte	0x348
 13668 3d51 09350000 		.4byte	.LLST510
 13669 3d55 25       		.uleb128 0x25
 13670 3d56 3E030000 		.4byte	0x33e
 13671 3d5a 21350000 		.4byte	.LLST511
 13672 3d5e 25       		.uleb128 0x25
 13673 3d5f 32030000 		.4byte	0x332
 13674 3d63 41350000 		.4byte	.LLST512
 13675 3d67 30       		.uleb128 0x30
 13676 3d68 C8020000 		.4byte	0x2c8
ARM GAS  /tmp/ccJJl1OT.s 			page 241


 13677 3d6c 3E180000 		.4byte	.LBB2520
 13678 3d70 F8180000 		.4byte	.Ldebug_ranges0+0x18f8
 13679 3d74 03       		.byte	0x3
 13680 3d75 3E01     		.2byte	0x13e
 13681 3d77 973D0000 		.4byte	0x3d97
 13682 3d7b 25       		.uleb128 0x25
 13683 3d7c EA020000 		.4byte	0x2ea
 13684 3d80 59350000 		.4byte	.LLST513
 13685 3d84 25       		.uleb128 0x25
 13686 3d85 E1020000 		.4byte	0x2e1
 13687 3d89 21350000 		.4byte	.LLST511
 13688 3d8d 25       		.uleb128 0x25
 13689 3d8e D8020000 		.4byte	0x2d8
 13690 3d92 81350000 		.4byte	.LLST515
 13691 3d96 00       		.byte	0
 13692 3d97 2C       		.uleb128 0x2c
 13693 3d98 C8020000 		.4byte	0x2c8
 13694 3d9c 48180000 		.4byte	.LBB2523
 13695 3da0 04000000 		.4byte	.LBE2523-.LBB2523
 13696 3da4 03       		.byte	0x3
 13697 3da5 3F01     		.2byte	0x13f
 13698 3da7 29       		.uleb128 0x29
 13699 3da8 EA020000 		.4byte	0x2ea
 13700 3dac 25       		.uleb128 0x25
 13701 3dad E1020000 		.4byte	0x2e1
 13702 3db1 B5350000 		.4byte	.LLST516
 13703 3db5 25       		.uleb128 0x25
 13704 3db6 D8020000 		.4byte	0x2d8
 13705 3dba CD350000 		.4byte	.LLST517
 13706 3dbe 00       		.byte	0
 13707 3dbf 00       		.byte	0
 13708 3dc0 00       		.byte	0
 13709 3dc1 00       		.byte	0
 13710 3dc2 24       		.uleb128 0x24
 13711 3dc3 45050000 		.4byte	0x545
 13712 3dc7 B0180000 		.4byte	.LBB2527
 13713 3dcb 10190000 		.4byte	.Ldebug_ranges0+0x1910
 13714 3dcf 01       		.byte	0x1
 13715 3dd0 D7       		.byte	0xd7
 13716 3dd1 3E3E0000 		.4byte	0x3e3e
 13717 3dd5 25       		.uleb128 0x25
 13718 3dd6 55050000 		.4byte	0x555
 13719 3dda EB350000 		.4byte	.LLST518
 13720 3dde 26       		.uleb128 0x26
 13721 3ddf 10190000 		.4byte	.Ldebug_ranges0+0x1910
 13722 3de3 2F       		.uleb128 0x2f
 13723 3de4 5E050000 		.4byte	0x55e
 13724 3de8 FF350000 		.4byte	.LLST519
 13725 3dec 2F       		.uleb128 0x2f
 13726 3ded 67050000 		.4byte	0x567
 13727 3df1 1D360000 		.4byte	.LLST520
 13728 3df5 2F       		.uleb128 0x2f
 13729 3df6 72050000 		.4byte	0x572
 13730 3dfa 4B360000 		.4byte	.LLST521
 13731 3dfe 2F       		.uleb128 0x2f
 13732 3dff 7D050000 		.4byte	0x57d
 13733 3e03 5E360000 		.4byte	.LLST522
ARM GAS  /tmp/ccJJl1OT.s 			page 242


 13734 3e07 2F       		.uleb128 0x2f
 13735 3e08 87050000 		.4byte	0x587
 13736 3e0c 8E360000 		.4byte	.LLST523
 13737 3e10 27       		.uleb128 0x27
 13738 3e11 91050000 		.4byte	0x591
 13739 3e15 28       		.uleb128 0x28
 13740 3e16 A3030000 		.4byte	0x3a3
 13741 3e1a D2180000 		.4byte	.LBB2529
 13742 3e1e 28190000 		.4byte	.Ldebug_ranges0+0x1928
 13743 3e22 02       		.byte	0x2
 13744 3e23 A6       		.byte	0xa6
 13745 3e24 29       		.uleb128 0x29
 13746 3e25 CA030000 		.4byte	0x3ca
 13747 3e29 25       		.uleb128 0x25
 13748 3e2a BF030000 		.4byte	0x3bf
 13749 3e2e D1360000 		.4byte	.LLST524
 13750 3e32 25       		.uleb128 0x25
 13751 3e33 B4030000 		.4byte	0x3b4
 13752 3e37 E5360000 		.4byte	.LLST525
 13753 3e3b 00       		.byte	0
 13754 3e3c 00       		.byte	0
 13755 3e3d 00       		.byte	0
 13756 3e3e 24       		.uleb128 0x24
 13757 3e3f 45050000 		.4byte	0x545
 13758 3e43 0E190000 		.4byte	.LBB2540
 13759 3e47 50190000 		.4byte	.Ldebug_ranges0+0x1950
 13760 3e4b 01       		.byte	0x1
 13761 3e4c D8       		.byte	0xd8
 13762 3e4d BA3E0000 		.4byte	0x3eba
 13763 3e51 25       		.uleb128 0x25
 13764 3e52 55050000 		.4byte	0x555
 13765 3e56 0E370000 		.4byte	.LLST526
 13766 3e5a 26       		.uleb128 0x26
 13767 3e5b 50190000 		.4byte	.Ldebug_ranges0+0x1950
 13768 3e5f 2F       		.uleb128 0x2f
 13769 3e60 5E050000 		.4byte	0x55e
 13770 3e64 2F370000 		.4byte	.LLST527
 13771 3e68 2F       		.uleb128 0x2f
 13772 3e69 67050000 		.4byte	0x567
 13773 3e6d 69370000 		.4byte	.LLST528
 13774 3e71 2F       		.uleb128 0x2f
 13775 3e72 72050000 		.4byte	0x572
 13776 3e76 9D370000 		.4byte	.LLST529
 13777 3e7a 2F       		.uleb128 0x2f
 13778 3e7b 7D050000 		.4byte	0x57d
 13779 3e7f B0370000 		.4byte	.LLST530
 13780 3e83 2F       		.uleb128 0x2f
 13781 3e84 87050000 		.4byte	0x587
 13782 3e88 E0370000 		.4byte	.LLST531
 13783 3e8c 27       		.uleb128 0x27
 13784 3e8d 91050000 		.4byte	0x591
 13785 3e91 28       		.uleb128 0x28
 13786 3e92 A3030000 		.4byte	0x3a3
 13787 3e96 2A190000 		.4byte	.LBB2542
 13788 3e9a 68190000 		.4byte	.Ldebug_ranges0+0x1968
 13789 3e9e 02       		.byte	0x2
 13790 3e9f A6       		.byte	0xa6
ARM GAS  /tmp/ccJJl1OT.s 			page 243


 13791 3ea0 29       		.uleb128 0x29
 13792 3ea1 CA030000 		.4byte	0x3ca
 13793 3ea5 25       		.uleb128 0x25
 13794 3ea6 BF030000 		.4byte	0x3bf
 13795 3eaa 23380000 		.4byte	.LLST532
 13796 3eae 25       		.uleb128 0x25
 13797 3eaf B4030000 		.4byte	0x3b4
 13798 3eb3 37380000 		.4byte	.LLST533
 13799 3eb7 00       		.byte	0
 13800 3eb8 00       		.byte	0
 13801 3eb9 00       		.byte	0
 13802 3eba 2A       		.uleb128 0x2a
 13803 3ebb 45050000 		.4byte	0x545
 13804 3ebf 6A190000 		.4byte	.LBB2552
 13805 3ec3 4C000000 		.4byte	.LBE2552-.LBB2552
 13806 3ec7 01       		.byte	0x1
 13807 3ec8 D9       		.byte	0xd9
 13808 3ec9 363F0000 		.4byte	0x3f36
 13809 3ecd 25       		.uleb128 0x25
 13810 3ece 55050000 		.4byte	0x555
 13811 3ed2 60380000 		.4byte	.LLST534
 13812 3ed6 1D       		.uleb128 0x1d
 13813 3ed7 6A190000 		.4byte	.LBB2553
 13814 3edb 4C000000 		.4byte	.LBE2553-.LBB2553
 13815 3edf 2F       		.uleb128 0x2f
 13816 3ee0 5E050000 		.4byte	0x55e
 13817 3ee4 81380000 		.4byte	.LLST535
 13818 3ee8 2F       		.uleb128 0x2f
 13819 3ee9 67050000 		.4byte	0x567
 13820 3eed BB380000 		.4byte	.LLST536
 13821 3ef1 2F       		.uleb128 0x2f
 13822 3ef2 72050000 		.4byte	0x572
 13823 3ef6 EF380000 		.4byte	.LLST537
 13824 3efa 2F       		.uleb128 0x2f
 13825 3efb 7D050000 		.4byte	0x57d
 13826 3eff 02390000 		.4byte	.LLST538
 13827 3f03 2F       		.uleb128 0x2f
 13828 3f04 87050000 		.4byte	0x587
 13829 3f08 32390000 		.4byte	.LLST539
 13830 3f0c 27       		.uleb128 0x27
 13831 3f0d 91050000 		.4byte	0x591
 13832 3f11 28       		.uleb128 0x28
 13833 3f12 A3030000 		.4byte	0x3a3
 13834 3f16 8C190000 		.4byte	.LBB2554
 13835 3f1a 90190000 		.4byte	.Ldebug_ranges0+0x1990
 13836 3f1e 02       		.byte	0x2
 13837 3f1f A6       		.byte	0xa6
 13838 3f20 29       		.uleb128 0x29
 13839 3f21 CA030000 		.4byte	0x3ca
 13840 3f25 25       		.uleb128 0x25
 13841 3f26 BF030000 		.4byte	0x3bf
 13842 3f2a 75390000 		.4byte	.LLST540
 13843 3f2e 29       		.uleb128 0x29
 13844 3f2f B4030000 		.4byte	0x3b4
 13845 3f33 00       		.byte	0
 13846 3f34 00       		.byte	0
 13847 3f35 00       		.byte	0
ARM GAS  /tmp/ccJJl1OT.s 			page 244


 13848 3f36 2A       		.uleb128 0x2a
 13849 3f37 45050000 		.4byte	0x545
 13850 3f3b BA190000 		.4byte	.LBB2560
 13851 3f3f 50000000 		.4byte	.LBE2560-.LBB2560
 13852 3f43 01       		.byte	0x1
 13853 3f44 DA       		.byte	0xda
 13854 3f45 B63F0000 		.4byte	0x3fb6
 13855 3f49 25       		.uleb128 0x25
 13856 3f4a 55050000 		.4byte	0x555
 13857 3f4e 89390000 		.4byte	.LLST541
 13858 3f52 1D       		.uleb128 0x1d
 13859 3f53 BA190000 		.4byte	.LBB2561
 13860 3f57 50000000 		.4byte	.LBE2561-.LBB2561
 13861 3f5b 2F       		.uleb128 0x2f
 13862 3f5c 5E050000 		.4byte	0x55e
 13863 3f60 AA390000 		.4byte	.LLST542
 13864 3f64 2F       		.uleb128 0x2f
 13865 3f65 67050000 		.4byte	0x567
 13866 3f69 E4390000 		.4byte	.LLST543
 13867 3f6d 2F       		.uleb128 0x2f
 13868 3f6e 72050000 		.4byte	0x572
 13869 3f72 183A0000 		.4byte	.LLST544
 13870 3f76 2F       		.uleb128 0x2f
 13871 3f77 7D050000 		.4byte	0x57d
 13872 3f7b 2B3A0000 		.4byte	.LLST545
 13873 3f7f 2F       		.uleb128 0x2f
 13874 3f80 87050000 		.4byte	0x587
 13875 3f84 5B3A0000 		.4byte	.LLST546
 13876 3f88 27       		.uleb128 0x27
 13877 3f89 91050000 		.4byte	0x591
 13878 3f8d 28       		.uleb128 0x28
 13879 3f8e A3030000 		.4byte	0x3a3
 13880 3f92 D6190000 		.4byte	.LBB2562
 13881 3f96 B0190000 		.4byte	.Ldebug_ranges0+0x19b0
 13882 3f9a 02       		.byte	0x2
 13883 3f9b A6       		.byte	0xa6
 13884 3f9c 29       		.uleb128 0x29
 13885 3f9d CA030000 		.4byte	0x3ca
 13886 3fa1 25       		.uleb128 0x25
 13887 3fa2 BF030000 		.4byte	0x3bf
 13888 3fa6 9E3A0000 		.4byte	.LLST547
 13889 3faa 25       		.uleb128 0x25
 13890 3fab B4030000 		.4byte	0x3b4
 13891 3faf B23A0000 		.4byte	.LLST548
 13892 3fb3 00       		.byte	0
 13893 3fb4 00       		.byte	0
 13894 3fb5 00       		.byte	0
 13895 3fb6 24       		.uleb128 0x24
 13896 3fb7 45050000 		.4byte	0x545
 13897 3fbb 121A0000 		.4byte	.LBB2570
 13898 3fbf D8190000 		.4byte	.Ldebug_ranges0+0x19d8
 13899 3fc3 01       		.byte	0x1
 13900 3fc4 DB       		.byte	0xdb
 13901 3fc5 2E400000 		.4byte	0x402e
 13902 3fc9 25       		.uleb128 0x25
 13903 3fca 55050000 		.4byte	0x555
 13904 3fce DB3A0000 		.4byte	.LLST549
ARM GAS  /tmp/ccJJl1OT.s 			page 245


 13905 3fd2 26       		.uleb128 0x26
 13906 3fd3 D8190000 		.4byte	.Ldebug_ranges0+0x19d8
 13907 3fd7 2F       		.uleb128 0x2f
 13908 3fd8 5E050000 		.4byte	0x55e
 13909 3fdc FC3A0000 		.4byte	.LLST550
 13910 3fe0 2F       		.uleb128 0x2f
 13911 3fe1 67050000 		.4byte	0x567
 13912 3fe5 363B0000 		.4byte	.LLST551
 13913 3fe9 2F       		.uleb128 0x2f
 13914 3fea 72050000 		.4byte	0x572
 13915 3fee 6A3B0000 		.4byte	.LLST552
 13916 3ff2 2F       		.uleb128 0x2f
 13917 3ff3 7D050000 		.4byte	0x57d
 13918 3ff7 7D3B0000 		.4byte	.LLST553
 13919 3ffb 2F       		.uleb128 0x2f
 13920 3ffc 87050000 		.4byte	0x587
 13921 4000 AD3B0000 		.4byte	.LLST554
 13922 4004 27       		.uleb128 0x27
 13923 4005 91050000 		.4byte	0x591
 13924 4009 28       		.uleb128 0x28
 13925 400a A3030000 		.4byte	0x3a3
 13926 400e 341A0000 		.4byte	.LBB2572
 13927 4012 F0190000 		.4byte	.Ldebug_ranges0+0x19f0
 13928 4016 02       		.byte	0x2
 13929 4017 A6       		.byte	0xa6
 13930 4018 29       		.uleb128 0x29
 13931 4019 CA030000 		.4byte	0x3ca
 13932 401d 25       		.uleb128 0x25
 13933 401e BF030000 		.4byte	0x3bf
 13934 4022 F03B0000 		.4byte	.LLST555
 13935 4026 29       		.uleb128 0x29
 13936 4027 B4030000 		.4byte	0x3b4
 13937 402b 00       		.byte	0
 13938 402c 00       		.byte	0
 13939 402d 00       		.byte	0
 13940 402e 24       		.uleb128 0x24
 13941 402f 45050000 		.4byte	0x545
 13942 4033 5C1A0000 		.4byte	.LBB2579
 13943 4037 101A0000 		.4byte	.Ldebug_ranges0+0x1a10
 13944 403b 01       		.byte	0x1
 13945 403c DC       		.byte	0xdc
 13946 403d A6400000 		.4byte	0x40a6
 13947 4041 25       		.uleb128 0x25
 13948 4042 55050000 		.4byte	0x555
 13949 4046 043C0000 		.4byte	.LLST556
 13950 404a 26       		.uleb128 0x26
 13951 404b 101A0000 		.4byte	.Ldebug_ranges0+0x1a10
 13952 404f 2F       		.uleb128 0x2f
 13953 4050 5E050000 		.4byte	0x55e
 13954 4054 243C0000 		.4byte	.LLST557
 13955 4058 2F       		.uleb128 0x2f
 13956 4059 67050000 		.4byte	0x567
 13957 405d 5C3C0000 		.4byte	.LLST558
 13958 4061 2F       		.uleb128 0x2f
 13959 4062 72050000 		.4byte	0x572
 13960 4066 8E3C0000 		.4byte	.LLST559
 13961 406a 2F       		.uleb128 0x2f
ARM GAS  /tmp/ccJJl1OT.s 			page 246


 13962 406b 7D050000 		.4byte	0x57d
 13963 406f A13C0000 		.4byte	.LLST560
 13964 4073 2F       		.uleb128 0x2f
 13965 4074 87050000 		.4byte	0x587
 13966 4078 D13C0000 		.4byte	.LLST561
 13967 407c 27       		.uleb128 0x27
 13968 407d 91050000 		.4byte	0x591
 13969 4081 28       		.uleb128 0x28
 13970 4082 A3030000 		.4byte	0x3a3
 13971 4086 881A0000 		.4byte	.LBB2581
 13972 408a 381A0000 		.4byte	.Ldebug_ranges0+0x1a38
 13973 408e 02       		.byte	0x2
 13974 408f A6       		.byte	0xa6
 13975 4090 29       		.uleb128 0x29
 13976 4091 CA030000 		.4byte	0x3ca
 13977 4095 25       		.uleb128 0x25
 13978 4096 BF030000 		.4byte	0x3bf
 13979 409a 143D0000 		.4byte	.LLST562
 13980 409e 29       		.uleb128 0x29
 13981 409f B4030000 		.4byte	0x3b4
 13982 40a3 00       		.byte	0
 13983 40a4 00       		.byte	0
 13984 40a5 00       		.byte	0
 13985 40a6 24       		.uleb128 0x24
 13986 40a7 45050000 		.4byte	0x545
 13987 40ab B01A0000 		.4byte	.LBB2593
 13988 40af 581A0000 		.4byte	.Ldebug_ranges0+0x1a58
 13989 40b3 01       		.byte	0x1
 13990 40b4 DD       		.byte	0xdd
 13991 40b5 22410000 		.4byte	0x4122
 13992 40b9 25       		.uleb128 0x25
 13993 40ba 55050000 		.4byte	0x555
 13994 40be 283D0000 		.4byte	.LLST563
 13995 40c2 26       		.uleb128 0x26
 13996 40c3 581A0000 		.4byte	.Ldebug_ranges0+0x1a58
 13997 40c7 2F       		.uleb128 0x2f
 13998 40c8 5E050000 		.4byte	0x55e
 13999 40cc 483D0000 		.4byte	.LLST564
 14000 40d0 2F       		.uleb128 0x2f
 14001 40d1 67050000 		.4byte	0x567
 14002 40d5 803D0000 		.4byte	.LLST565
 14003 40d9 2F       		.uleb128 0x2f
 14004 40da 72050000 		.4byte	0x572
 14005 40de B23D0000 		.4byte	.LLST566
 14006 40e2 2F       		.uleb128 0x2f
 14007 40e3 7D050000 		.4byte	0x57d
 14008 40e7 C53D0000 		.4byte	.LLST567
 14009 40eb 2F       		.uleb128 0x2f
 14010 40ec 87050000 		.4byte	0x587
 14011 40f0 F53D0000 		.4byte	.LLST568
 14012 40f4 27       		.uleb128 0x27
 14013 40f5 91050000 		.4byte	0x591
 14014 40f9 28       		.uleb128 0x28
 14015 40fa A3030000 		.4byte	0x3a3
 14016 40fe D61A0000 		.4byte	.LBB2595
 14017 4102 801A0000 		.4byte	.Ldebug_ranges0+0x1a80
 14018 4106 02       		.byte	0x2
ARM GAS  /tmp/ccJJl1OT.s 			page 247


 14019 4107 A6       		.byte	0xa6
 14020 4108 29       		.uleb128 0x29
 14021 4109 CA030000 		.4byte	0x3ca
 14022 410d 25       		.uleb128 0x25
 14023 410e BF030000 		.4byte	0x3bf
 14024 4112 383E0000 		.4byte	.LLST569
 14025 4116 25       		.uleb128 0x25
 14026 4117 B4030000 		.4byte	0x3b4
 14027 411b 4C3E0000 		.4byte	.LLST570
 14028 411f 00       		.byte	0
 14029 4120 00       		.byte	0
 14030 4121 00       		.byte	0
 14031 4122 2A       		.uleb128 0x2a
 14032 4123 45050000 		.4byte	0x545
 14033 4127 161B0000 		.4byte	.LBB2610
 14034 412b 4C000000 		.4byte	.LBE2610-.LBB2610
 14035 412f 01       		.byte	0x1
 14036 4130 DE       		.byte	0xde
 14037 4131 9E410000 		.4byte	0x419e
 14038 4135 25       		.uleb128 0x25
 14039 4136 55050000 		.4byte	0x555
 14040 413a 753E0000 		.4byte	.LLST571
 14041 413e 1D       		.uleb128 0x1d
 14042 413f 161B0000 		.4byte	.LBB2611
 14043 4143 4C000000 		.4byte	.LBE2611-.LBB2611
 14044 4147 2F       		.uleb128 0x2f
 14045 4148 5E050000 		.4byte	0x55e
 14046 414c 953E0000 		.4byte	.LLST572
 14047 4150 2F       		.uleb128 0x2f
 14048 4151 67050000 		.4byte	0x567
 14049 4155 CD3E0000 		.4byte	.LLST573
 14050 4159 2F       		.uleb128 0x2f
 14051 415a 72050000 		.4byte	0x572
 14052 415e FF3E0000 		.4byte	.LLST574
 14053 4162 2F       		.uleb128 0x2f
 14054 4163 7D050000 		.4byte	0x57d
 14055 4167 123F0000 		.4byte	.LLST575
 14056 416b 2F       		.uleb128 0x2f
 14057 416c 87050000 		.4byte	0x587
 14058 4170 423F0000 		.4byte	.LLST576
 14059 4174 27       		.uleb128 0x27
 14060 4175 91050000 		.4byte	0x591
 14061 4179 28       		.uleb128 0x28
 14062 417a A3030000 		.4byte	0x3a3
 14063 417e 381B0000 		.4byte	.LBB2612
 14064 4182 A81A0000 		.4byte	.Ldebug_ranges0+0x1aa8
 14065 4186 02       		.byte	0x2
 14066 4187 A6       		.byte	0xa6
 14067 4188 29       		.uleb128 0x29
 14068 4189 CA030000 		.4byte	0x3ca
 14069 418d 25       		.uleb128 0x25
 14070 418e BF030000 		.4byte	0x3bf
 14071 4192 853F0000 		.4byte	.LLST577
 14072 4196 29       		.uleb128 0x29
 14073 4197 B4030000 		.4byte	0x3b4
 14074 419b 00       		.byte	0
 14075 419c 00       		.byte	0
ARM GAS  /tmp/ccJJl1OT.s 			page 248


 14076 419d 00       		.byte	0
 14077 419e 2A       		.uleb128 0x2a
 14078 419f 45050000 		.4byte	0x545
 14079 41a3 661B0000 		.4byte	.LBB2618
 14080 41a7 4C000000 		.4byte	.LBE2618-.LBB2618
 14081 41ab 01       		.byte	0x1
 14082 41ac DF       		.byte	0xdf
 14083 41ad 1A420000 		.4byte	0x421a
 14084 41b1 25       		.uleb128 0x25
 14085 41b2 55050000 		.4byte	0x555
 14086 41b6 993F0000 		.4byte	.LLST578
 14087 41ba 1D       		.uleb128 0x1d
 14088 41bb 661B0000 		.4byte	.LBB2619
 14089 41bf 4C000000 		.4byte	.LBE2619-.LBB2619
 14090 41c3 2F       		.uleb128 0x2f
 14091 41c4 5E050000 		.4byte	0x55e
 14092 41c8 B93F0000 		.4byte	.LLST579
 14093 41cc 2F       		.uleb128 0x2f
 14094 41cd 67050000 		.4byte	0x567
 14095 41d1 F13F0000 		.4byte	.LLST580
 14096 41d5 2F       		.uleb128 0x2f
 14097 41d6 72050000 		.4byte	0x572
 14098 41da 23400000 		.4byte	.LLST581
 14099 41de 2F       		.uleb128 0x2f
 14100 41df 7D050000 		.4byte	0x57d
 14101 41e3 36400000 		.4byte	.LLST582
 14102 41e7 2F       		.uleb128 0x2f
 14103 41e8 87050000 		.4byte	0x587
 14104 41ec 66400000 		.4byte	.LLST583
 14105 41f0 27       		.uleb128 0x27
 14106 41f1 91050000 		.4byte	0x591
 14107 41f5 28       		.uleb128 0x28
 14108 41f6 A3030000 		.4byte	0x3a3
 14109 41fa 881B0000 		.4byte	.LBB2620
 14110 41fe C81A0000 		.4byte	.Ldebug_ranges0+0x1ac8
 14111 4202 02       		.byte	0x2
 14112 4203 A6       		.byte	0xa6
 14113 4204 29       		.uleb128 0x29
 14114 4205 CA030000 		.4byte	0x3ca
 14115 4209 25       		.uleb128 0x25
 14116 420a BF030000 		.4byte	0x3bf
 14117 420e A9400000 		.4byte	.LLST584
 14118 4212 29       		.uleb128 0x29
 14119 4213 B4030000 		.4byte	0x3b4
 14120 4217 00       		.byte	0
 14121 4218 00       		.byte	0
 14122 4219 00       		.byte	0
 14123 421a 24       		.uleb128 0x24
 14124 421b 45050000 		.4byte	0x545
 14125 421f BA1B0000 		.4byte	.LBB2626
 14126 4223 E81A0000 		.4byte	.Ldebug_ranges0+0x1ae8
 14127 4227 01       		.byte	0x1
 14128 4228 E0       		.byte	0xe0
 14129 4229 92420000 		.4byte	0x4292
 14130 422d 25       		.uleb128 0x25
 14131 422e 55050000 		.4byte	0x555
 14132 4232 BD400000 		.4byte	.LLST585
ARM GAS  /tmp/ccJJl1OT.s 			page 249


 14133 4236 26       		.uleb128 0x26
 14134 4237 E81A0000 		.4byte	.Ldebug_ranges0+0x1ae8
 14135 423b 2F       		.uleb128 0x2f
 14136 423c 5E050000 		.4byte	0x55e
 14137 4240 DD400000 		.4byte	.LLST586
 14138 4244 2F       		.uleb128 0x2f
 14139 4245 67050000 		.4byte	0x567
 14140 4249 15410000 		.4byte	.LLST587
 14141 424d 2F       		.uleb128 0x2f
 14142 424e 72050000 		.4byte	0x572
 14143 4252 47410000 		.4byte	.LLST588
 14144 4256 2F       		.uleb128 0x2f
 14145 4257 7D050000 		.4byte	0x57d
 14146 425b 5A410000 		.4byte	.LLST589
 14147 425f 2F       		.uleb128 0x2f
 14148 4260 87050000 		.4byte	0x587
 14149 4264 8A410000 		.4byte	.LLST590
 14150 4268 27       		.uleb128 0x27
 14151 4269 91050000 		.4byte	0x591
 14152 426d 28       		.uleb128 0x28
 14153 426e A3030000 		.4byte	0x3a3
 14154 4272 DC1B0000 		.4byte	.LBB2628
 14155 4276 001B0000 		.4byte	.Ldebug_ranges0+0x1b00
 14156 427a 02       		.byte	0x2
 14157 427b A6       		.byte	0xa6
 14158 427c 29       		.uleb128 0x29
 14159 427d CA030000 		.4byte	0x3ca
 14160 4281 25       		.uleb128 0x25
 14161 4282 BF030000 		.4byte	0x3bf
 14162 4286 CD410000 		.4byte	.LLST591
 14163 428a 29       		.uleb128 0x29
 14164 428b B4030000 		.4byte	0x3b4
 14165 428f 00       		.byte	0
 14166 4290 00       		.byte	0
 14167 4291 00       		.byte	0
 14168 4292 24       		.uleb128 0x24
 14169 4293 45050000 		.4byte	0x545
 14170 4297 0E1C0000 		.4byte	.LBB2636
 14171 429b 201B0000 		.4byte	.Ldebug_ranges0+0x1b20
 14172 429f 01       		.byte	0x1
 14173 42a0 E1       		.byte	0xe1
 14174 42a1 0A430000 		.4byte	0x430a
 14175 42a5 25       		.uleb128 0x25
 14176 42a6 55050000 		.4byte	0x555
 14177 42aa E1410000 		.4byte	.LLST592
 14178 42ae 26       		.uleb128 0x26
 14179 42af 201B0000 		.4byte	.Ldebug_ranges0+0x1b20
 14180 42b3 2F       		.uleb128 0x2f
 14181 42b4 5E050000 		.4byte	0x55e
 14182 42b8 01420000 		.4byte	.LLST593
 14183 42bc 2F       		.uleb128 0x2f
 14184 42bd 67050000 		.4byte	0x567
 14185 42c1 39420000 		.4byte	.LLST594
 14186 42c5 2F       		.uleb128 0x2f
 14187 42c6 72050000 		.4byte	0x572
 14188 42ca 6B420000 		.4byte	.LLST595
 14189 42ce 2F       		.uleb128 0x2f
ARM GAS  /tmp/ccJJl1OT.s 			page 250


 14190 42cf 7D050000 		.4byte	0x57d
 14191 42d3 7E420000 		.4byte	.LLST596
 14192 42d7 2F       		.uleb128 0x2f
 14193 42d8 87050000 		.4byte	0x587
 14194 42dc AE420000 		.4byte	.LLST597
 14195 42e0 27       		.uleb128 0x27
 14196 42e1 91050000 		.4byte	0x591
 14197 42e5 28       		.uleb128 0x28
 14198 42e6 A3030000 		.4byte	0x3a3
 14199 42ea 301C0000 		.4byte	.LBB2638
 14200 42ee 381B0000 		.4byte	.Ldebug_ranges0+0x1b38
 14201 42f2 02       		.byte	0x2
 14202 42f3 A6       		.byte	0xa6
 14203 42f4 29       		.uleb128 0x29
 14204 42f5 CA030000 		.4byte	0x3ca
 14205 42f9 25       		.uleb128 0x25
 14206 42fa BF030000 		.4byte	0x3bf
 14207 42fe F1420000 		.4byte	.LLST598
 14208 4302 29       		.uleb128 0x29
 14209 4303 B4030000 		.4byte	0x3b4
 14210 4307 00       		.byte	0
 14211 4308 00       		.byte	0
 14212 4309 00       		.byte	0
 14213 430a 24       		.uleb128 0x24
 14214 430b 52040000 		.4byte	0x452
 14215 430f 541C0000 		.4byte	.LBB2645
 14216 4313 581B0000 		.4byte	.Ldebug_ranges0+0x1b58
 14217 4317 01       		.byte	0x1
 14218 4318 E2       		.byte	0xe2
 14219 4319 CE430000 		.4byte	0x43ce
 14220 431d 25       		.uleb128 0x25
 14221 431e 6D040000 		.4byte	0x46d
 14222 4322 05430000 		.4byte	.LLST599
 14223 4326 25       		.uleb128 0x25
 14224 4327 63040000 		.4byte	0x463
 14225 432b 19430000 		.4byte	.LLST600
 14226 432f 2D       		.uleb128 0x2d
 14227 4330 F2030000 		.4byte	0x3f2
 14228 4334 541C0000 		.4byte	.LBB2647
 14229 4338 701B0000 		.4byte	.Ldebug_ranges0+0x1b70
 14230 433c 02       		.byte	0x2
 14231 433d A102     		.2byte	0x2a1
 14232 433f 25       		.uleb128 0x25
 14233 4340 03040000 		.4byte	0x403
 14234 4344 05430000 		.4byte	.LLST599
 14235 4348 2D       		.uleb128 0x2d
 14236 4349 21030000 		.4byte	0x321
 14237 434d 541C0000 		.4byte	.LBB2648
 14238 4351 701B0000 		.4byte	.Ldebug_ranges0+0x1b70
 14239 4355 03       		.byte	0x3
 14240 4356 B001     		.2byte	0x1b0
 14241 4358 25       		.uleb128 0x25
 14242 4359 48030000 		.4byte	0x348
 14243 435d 31430000 		.4byte	.LLST602
 14244 4361 25       		.uleb128 0x25
 14245 4362 3E030000 		.4byte	0x33e
 14246 4366 49430000 		.4byte	.LLST603
ARM GAS  /tmp/ccJJl1OT.s 			page 251


 14247 436a 25       		.uleb128 0x25
 14248 436b 32030000 		.4byte	0x332
 14249 436f 5D430000 		.4byte	.LLST604
 14250 4373 30       		.uleb128 0x30
 14251 4374 C8020000 		.4byte	0x2c8
 14252 4378 541C0000 		.4byte	.LBB2649
 14253 437c 881B0000 		.4byte	.Ldebug_ranges0+0x1b88
 14254 4380 03       		.byte	0x3
 14255 4381 3E01     		.2byte	0x13e
 14256 4383 A3430000 		.4byte	0x43a3
 14257 4387 25       		.uleb128 0x25
 14258 4388 EA020000 		.4byte	0x2ea
 14259 438c 75430000 		.4byte	.LLST605
 14260 4390 25       		.uleb128 0x25
 14261 4391 E1020000 		.4byte	0x2e1
 14262 4395 49430000 		.4byte	.LLST603
 14263 4399 25       		.uleb128 0x25
 14264 439a D8020000 		.4byte	0x2d8
 14265 439e 8D430000 		.4byte	.LLST607
 14266 43a2 00       		.byte	0
 14267 43a3 2C       		.uleb128 0x2c
 14268 43a4 C8020000 		.4byte	0x2c8
 14269 43a8 701C0000 		.4byte	.LBB2654
 14270 43ac 04000000 		.4byte	.LBE2654-.LBB2654
 14271 43b0 03       		.byte	0x3
 14272 43b1 3F01     		.2byte	0x13f
 14273 43b3 29       		.uleb128 0x29
 14274 43b4 EA020000 		.4byte	0x2ea
 14275 43b8 25       		.uleb128 0x25
 14276 43b9 E1020000 		.4byte	0x2e1
 14277 43bd AB430000 		.4byte	.LLST608
 14278 43c1 25       		.uleb128 0x25
 14279 43c2 D8020000 		.4byte	0x2d8
 14280 43c6 C3430000 		.4byte	.LLST609
 14281 43ca 00       		.byte	0
 14282 43cb 00       		.byte	0
 14283 43cc 00       		.byte	0
 14284 43cd 00       		.byte	0
 14285 43ce 1D       		.uleb128 0x1d
 14286 43cf A81C0000 		.4byte	.LBB2662
 14287 43d3 20000000 		.4byte	.LBE2662-.LBB2662
 14288 43d7 16       		.uleb128 0x16
 14289 43d8 6900     		.ascii	"i\000"
 14290 43da 01       		.byte	0x1
 14291 43db E6       		.byte	0xe6
 14292 43dc 33000000 		.4byte	0x33
 14293 43e0 00       		.byte	0
 14294 43e1 00       		.byte	0
 14295 43e2 1D       		.uleb128 0x1d
 14296 43e3 D01C0000 		.4byte	.LBB2665
 14297 43e7 0C000000 		.4byte	.LBE2665-.LBB2665
 14298 43eb 16       		.uleb128 0x16
 14299 43ec 6900     		.ascii	"i\000"
 14300 43ee 01       		.byte	0x1
 14301 43ef EC       		.byte	0xec
 14302 43f0 33000000 		.4byte	0x33
 14303 43f4 00       		.byte	0
ARM GAS  /tmp/ccJJl1OT.s 			page 252


 14304 43f5 00       		.byte	0
 14305 43f6 08       		.uleb128 0x8
 14306 43f7 F5010000 		.4byte	0x1f5
 14307 43fb 08       		.uleb128 0x8
 14308 43fc 9E000000 		.4byte	0x9e
 14309 4400 31       		.uleb128 0x31
 14310 4401 46030000 		.4byte	.LASF101
 14311 4405 01       		.byte	0x1
 14312 4406 F7       		.byte	0xf7
 14313 4407 01       		.byte	0x1
 14314 4408 18440000 		.4byte	0x4418
 14315 440c 15       		.uleb128 0x15
 14316 440d 4D040000 		.4byte	.LASF74
 14317 4411 01       		.byte	0x1
 14318 4412 F7       		.byte	0xf7
 14319 4413 F6430000 		.4byte	0x43f6
 14320 4417 00       		.byte	0
 14321 4418 32       		.uleb128 0x32
 14322 4419 00440000 		.4byte	0x4400
 14323 441d EE1C0000 		.4byte	.LFB242
 14324 4421 02000000 		.4byte	.LFE242-.LFB242
 14325 4425 01       		.uleb128 0x1
 14326 4426 9C       		.byte	0x9c
 14327 4427 33440000 		.4byte	0x4433
 14328 442b 33       		.uleb128 0x33
 14329 442c 0C440000 		.4byte	0x440c
 14330 4430 01       		.uleb128 0x1
 14331 4431 50       		.byte	0x50
 14332 4432 00       		.byte	0
 14333 4433 1A       		.uleb128 0x1a
 14334 4434 09000000 		.4byte	.LASF77
 14335 4438 01       		.byte	0x1
 14336 4439 FC       		.byte	0xfc
 14337 443a F01C0000 		.4byte	.LFB243
 14338 443e 8C000000 		.4byte	.LFE243-.LFB243
 14339 4442 01       		.uleb128 0x1
 14340 4443 9C       		.byte	0x9c
 14341 4444 72440000 		.4byte	0x4472
 14342 4448 1B       		.uleb128 0x1b
 14343 4449 AF020000 		.4byte	.LASF78
 14344 444d 01       		.byte	0x1
 14345 444e FC       		.byte	0xfc
 14346 444f A9000000 		.4byte	0xa9
 14347 4453 01       		.uleb128 0x1
 14348 4454 50       		.byte	0x50
 14349 4455 1B       		.uleb128 0x1b
 14350 4456 FA020000 		.4byte	.LASF79
 14351 445a 01       		.byte	0x1
 14352 445b FC       		.byte	0xfc
 14353 445c A9000000 		.4byte	0xa9
 14354 4460 01       		.uleb128 0x1
 14355 4461 51       		.byte	0x51
 14356 4462 20       		.uleb128 0x20
 14357 4463 88020000 		.4byte	.LASF80
 14358 4467 01       		.byte	0x1
 14359 4468 FE       		.byte	0xfe
 14360 4469 F4020000 		.4byte	0x2f4
ARM GAS  /tmp/ccJJl1OT.s 			page 253


 14361 446d E1430000 		.4byte	.LLST610
 14362 4471 00       		.byte	0
 14363 4472 34       		.uleb128 0x34
 14364 4473 00060000 		.4byte	.LASF81
 14365 4477 02       		.byte	0x2
 14366 4478 45       		.byte	0x45
 14367 4479 78030000 		.4byte	0x378
 14368 447d 34       		.uleb128 0x34
 14369 447e FD040000 		.4byte	.LASF82
 14370 4482 02       		.byte	0x2
 14371 4483 4A       		.byte	0x4a
 14372 4484 78030000 		.4byte	0x378
 14373 4488 0D       		.uleb128 0xd
 14374 4489 F4020000 		.4byte	0x2f4
 14375 448d 98440000 		.4byte	0x4498
 14376 4491 0E       		.uleb128 0xe
 14377 4492 D6000000 		.4byte	0xd6
 14378 4496 97       		.byte	0x97
 14379 4497 00       		.byte	0
 14380 4498 34       		.uleb128 0x34
 14381 4499 98020000 		.4byte	.LASF83
 14382 449d 02       		.byte	0x2
 14383 449e 67       		.byte	0x67
 14384 449f A3440000 		.4byte	0x44a3
 14385 44a3 08       		.uleb128 0x8
 14386 44a4 88440000 		.4byte	0x4488
 14387 44a8 0D       		.uleb128 0xd
 14388 44a9 F4020000 		.4byte	0x2f4
 14389 44ad B8440000 		.4byte	0x44b8
 14390 44b1 0E       		.uleb128 0xe
 14391 44b2 D6000000 		.4byte	0xd6
 14392 44b6 80       		.byte	0x80
 14393 44b7 00       		.byte	0
 14394 44b8 34       		.uleb128 0x34
 14395 44b9 3A050000 		.4byte	.LASF84
 14396 44bd 02       		.byte	0x2
 14397 44be 94       		.byte	0x94
 14398 44bf C3440000 		.4byte	0x44c3
 14399 44c3 08       		.uleb128 0x8
 14400 44c4 A8440000 		.4byte	0x44a8
 14401 44c8 0D       		.uleb128 0xd
 14402 44c9 F4020000 		.4byte	0x2f4
 14403 44cd D9440000 		.4byte	0x44d9
 14404 44d1 35       		.uleb128 0x35
 14405 44d2 D6000000 		.4byte	0xd6
 14406 44d6 8603     		.2byte	0x386
 14407 44d8 00       		.byte	0
 14408 44d9 34       		.uleb128 0x34
 14409 44da F3030000 		.4byte	.LASF85
 14410 44de 02       		.byte	0x2
 14411 44df C6       		.byte	0xc6
 14412 44e0 E4440000 		.4byte	0x44e4
 14413 44e4 08       		.uleb128 0x8
 14414 44e5 C8440000 		.4byte	0x44c8
 14415 44e9 36       		.uleb128 0x36
 14416 44ea 88040000 		.4byte	.LASF86
 14417 44ee 02       		.byte	0x2
ARM GAS  /tmp/ccJJl1OT.s 			page 254


 14418 44ef 3801     		.2byte	0x138
 14419 44f1 F5440000 		.4byte	0x44f5
 14420 44f5 08       		.uleb128 0x8
 14421 44f6 C8440000 		.4byte	0x44c8
 14422 44fa 36       		.uleb128 0x36
 14423 44fb 15000000 		.4byte	.LASF87
 14424 44ff 02       		.byte	0x2
 14425 4500 AB01     		.2byte	0x1ab
 14426 4502 06450000 		.4byte	0x4506
 14427 4506 08       		.uleb128 0x8
 14428 4507 C8440000 		.4byte	0x44c8
 14429 450b 0D       		.uleb128 0xd
 14430 450c F4020000 		.4byte	0x2f4
 14431 4510 1C450000 		.4byte	0x451c
 14432 4514 35       		.uleb128 0x35
 14433 4515 D6000000 		.4byte	0xd6
 14434 4519 0001     		.2byte	0x100
 14435 451b 00       		.byte	0
 14436 451c 36       		.uleb128 0x36
 14437 451d 83030000 		.4byte	.LASF88
 14438 4521 02       		.byte	0x2
 14439 4522 4C02     		.2byte	0x24c
 14440 4524 28450000 		.4byte	0x4528
 14441 4528 08       		.uleb128 0x8
 14442 4529 0B450000 		.4byte	0x450b
 14443 452d 36       		.uleb128 0x36
 14444 452e 3D020000 		.4byte	.LASF89
 14445 4532 02       		.byte	0x2
 14446 4533 6302     		.2byte	0x263
 14447 4535 39450000 		.4byte	0x4539
 14448 4539 08       		.uleb128 0x8
 14449 453a 0B450000 		.4byte	0x450b
 14450 453e 36       		.uleb128 0x36
 14451 453f 69040000 		.4byte	.LASF90
 14452 4543 02       		.byte	0x2
 14453 4544 7B02     		.2byte	0x27b
 14454 4546 4A450000 		.4byte	0x454a
 14455 454a 08       		.uleb128 0x8
 14456 454b 0B450000 		.4byte	0x450b
 14457 454f 36       		.uleb128 0x36
 14458 4550 79040000 		.4byte	.LASF91
 14459 4554 02       		.byte	0x2
 14460 4555 AA02     		.2byte	0x2aa
 14461 4557 5B450000 		.4byte	0x455b
 14462 455b 08       		.uleb128 0x8
 14463 455c A8440000 		.4byte	0x44a8
 14464 4560 36       		.uleb128 0x36
 14465 4561 57030000 		.4byte	.LASF92
 14466 4565 02       		.byte	0x2
 14467 4566 BF02     		.2byte	0x2bf
 14468 4568 6C450000 		.4byte	0x456c
 14469 456c 08       		.uleb128 0x8
 14470 456d A8440000 		.4byte	0x44a8
 14471 4571 36       		.uleb128 0x36
 14472 4572 53010000 		.4byte	.LASF93
 14473 4576 02       		.byte	0x2
 14474 4577 DC02     		.2byte	0x2dc
ARM GAS  /tmp/ccJJl1OT.s 			page 255


 14475 4579 7D450000 		.4byte	0x457d
 14476 457d 08       		.uleb128 0x8
 14477 457e A8440000 		.4byte	0x44a8
 14478 4582 0D       		.uleb128 0xd
 14479 4583 98450000 		.4byte	0x4598
 14480 4587 98450000 		.4byte	0x4598
 14481 458b 0E       		.uleb128 0xe
 14482 458c D6000000 		.4byte	0xd6
 14483 4590 0B       		.byte	0xb
 14484 4591 0E       		.uleb128 0xe
 14485 4592 D6000000 		.4byte	0xd6
 14486 4596 03       		.byte	0x3
 14487 4597 00       		.byte	0
 14488 4598 08       		.uleb128 0x8
 14489 4599 33000000 		.4byte	0x33
 14490 459d 22       		.uleb128 0x22
 14491 459e C0030000 		.4byte	.LASF94
 14492 45a2 01       		.byte	0x1
 14493 45a3 38       		.byte	0x38
 14494 45a4 AE450000 		.4byte	0x45ae
 14495 45a8 05       		.uleb128 0x5
 14496 45a9 03       		.byte	0x3
 14497 45aa 00000000 		.4byte	_ZL10extensions
 14498 45ae 08       		.uleb128 0x8
 14499 45af 82450000 		.4byte	0x4582
 14500 45b3 22       		.uleb128 0x22
 14501 45b4 11020000 		.4byte	.LASF95
 14502 45b8 01       		.byte	0x1
 14503 45b9 4C       		.byte	0x4c
 14504 45ba A4020000 		.4byte	0x2a4
 14505 45be 05       		.uleb128 0x5
 14506 45bf 03       		.byte	0x3
 14507 45c0 00000000 		.4byte	_ZL7s_state
 14508 45c4 00       		.byte	0
 14509              		.section	.debug_abbrev,"",%progbits
 14510              	.Ldebug_abbrev0:
 14511 0000 01       		.uleb128 0x1
 14512 0001 11       		.uleb128 0x11
 14513 0002 01       		.byte	0x1
 14514 0003 25       		.uleb128 0x25
 14515 0004 0E       		.uleb128 0xe
 14516 0005 13       		.uleb128 0x13
 14517 0006 0B       		.uleb128 0xb
 14518 0007 03       		.uleb128 0x3
 14519 0008 0E       		.uleb128 0xe
 14520 0009 1B       		.uleb128 0x1b
 14521 000a 0E       		.uleb128 0xe
 14522 000b 11       		.uleb128 0x11
 14523 000c 01       		.uleb128 0x1
 14524 000d 12       		.uleb128 0x12
 14525 000e 06       		.uleb128 0x6
 14526 000f 10       		.uleb128 0x10
 14527 0010 17       		.uleb128 0x17
 14528 0011 00       		.byte	0
 14529 0012 00       		.byte	0
 14530 0013 02       		.uleb128 0x2
 14531 0014 24       		.uleb128 0x24
ARM GAS  /tmp/ccJJl1OT.s 			page 256


 14532 0015 00       		.byte	0
 14533 0016 0B       		.uleb128 0xb
 14534 0017 0B       		.uleb128 0xb
 14535 0018 3E       		.uleb128 0x3e
 14536 0019 0B       		.uleb128 0xb
 14537 001a 03       		.uleb128 0x3
 14538 001b 0E       		.uleb128 0xe
 14539 001c 00       		.byte	0
 14540 001d 00       		.byte	0
 14541 001e 03       		.uleb128 0x3
 14542 001f 24       		.uleb128 0x24
 14543 0020 00       		.byte	0
 14544 0021 0B       		.uleb128 0xb
 14545 0022 0B       		.uleb128 0xb
 14546 0023 3E       		.uleb128 0x3e
 14547 0024 0B       		.uleb128 0xb
 14548 0025 03       		.uleb128 0x3
 14549 0026 08       		.uleb128 0x8
 14550 0027 00       		.byte	0
 14551 0028 00       		.byte	0
 14552 0029 04       		.uleb128 0x4
 14553 002a 16       		.uleb128 0x16
 14554 002b 00       		.byte	0
 14555 002c 03       		.uleb128 0x3
 14556 002d 0E       		.uleb128 0xe
 14557 002e 3A       		.uleb128 0x3a
 14558 002f 0B       		.uleb128 0xb
 14559 0030 3B       		.uleb128 0x3b
 14560 0031 0B       		.uleb128 0xb
 14561 0032 49       		.uleb128 0x49
 14562 0033 13       		.uleb128 0x13
 14563 0034 00       		.byte	0
 14564 0035 00       		.byte	0
 14565 0036 05       		.uleb128 0x5
 14566 0037 3B       		.uleb128 0x3b
 14567 0038 00       		.byte	0
 14568 0039 03       		.uleb128 0x3
 14569 003a 0E       		.uleb128 0xe
 14570 003b 00       		.byte	0
 14571 003c 00       		.byte	0
 14572 003d 06       		.uleb128 0x6
 14573 003e 16       		.uleb128 0x16
 14574 003f 00       		.byte	0
 14575 0040 03       		.uleb128 0x3
 14576 0041 0E       		.uleb128 0xe
 14577 0042 3A       		.uleb128 0x3a
 14578 0043 0B       		.uleb128 0xb
 14579 0044 3B       		.uleb128 0x3b
 14580 0045 05       		.uleb128 0x5
 14581 0046 49       		.uleb128 0x49
 14582 0047 13       		.uleb128 0x13
 14583 0048 00       		.byte	0
 14584 0049 00       		.byte	0
 14585 004a 07       		.uleb128 0x7
 14586 004b 0F       		.uleb128 0xf
 14587 004c 00       		.byte	0
 14588 004d 0B       		.uleb128 0xb
ARM GAS  /tmp/ccJJl1OT.s 			page 257


 14589 004e 0B       		.uleb128 0xb
 14590 004f 49       		.uleb128 0x49
 14591 0050 13       		.uleb128 0x13
 14592 0051 00       		.byte	0
 14593 0052 00       		.byte	0
 14594 0053 08       		.uleb128 0x8
 14595 0054 26       		.uleb128 0x26
 14596 0055 00       		.byte	0
 14597 0056 49       		.uleb128 0x49
 14598 0057 13       		.uleb128 0x13
 14599 0058 00       		.byte	0
 14600 0059 00       		.byte	0
 14601 005a 09       		.uleb128 0x9
 14602 005b 04       		.uleb128 0x4
 14603 005c 01       		.byte	0x1
 14604 005d 0B       		.uleb128 0xb
 14605 005e 0B       		.uleb128 0xb
 14606 005f 49       		.uleb128 0x49
 14607 0060 13       		.uleb128 0x13
 14608 0061 3A       		.uleb128 0x3a
 14609 0062 0B       		.uleb128 0xb
 14610 0063 3B       		.uleb128 0x3b
 14611 0064 0B       		.uleb128 0xb
 14612 0065 01       		.uleb128 0x1
 14613 0066 13       		.uleb128 0x13
 14614 0067 00       		.byte	0
 14615 0068 00       		.byte	0
 14616 0069 0A       		.uleb128 0xa
 14617 006a 28       		.uleb128 0x28
 14618 006b 00       		.byte	0
 14619 006c 03       		.uleb128 0x3
 14620 006d 0E       		.uleb128 0xe
 14621 006e 1C       		.uleb128 0x1c
 14622 006f 0B       		.uleb128 0xb
 14623 0070 00       		.byte	0
 14624 0071 00       		.byte	0
 14625 0072 0B       		.uleb128 0xb
 14626 0073 13       		.uleb128 0x13
 14627 0074 01       		.byte	0x1
 14628 0075 03       		.uleb128 0x3
 14629 0076 0E       		.uleb128 0xe
 14630 0077 0B       		.uleb128 0xb
 14631 0078 0B       		.uleb128 0xb
 14632 0079 3A       		.uleb128 0x3a
 14633 007a 0B       		.uleb128 0xb
 14634 007b 3B       		.uleb128 0x3b
 14635 007c 0B       		.uleb128 0xb
 14636 007d 01       		.uleb128 0x1
 14637 007e 13       		.uleb128 0x13
 14638 007f 00       		.byte	0
 14639 0080 00       		.byte	0
 14640 0081 0C       		.uleb128 0xc
 14641 0082 0D       		.uleb128 0xd
 14642 0083 00       		.byte	0
 14643 0084 03       		.uleb128 0x3
 14644 0085 0E       		.uleb128 0xe
 14645 0086 3A       		.uleb128 0x3a
ARM GAS  /tmp/ccJJl1OT.s 			page 258


 14646 0087 0B       		.uleb128 0xb
 14647 0088 3B       		.uleb128 0x3b
 14648 0089 0B       		.uleb128 0xb
 14649 008a 49       		.uleb128 0x49
 14650 008b 13       		.uleb128 0x13
 14651 008c 38       		.uleb128 0x38
 14652 008d 0B       		.uleb128 0xb
 14653 008e 00       		.byte	0
 14654 008f 00       		.byte	0
 14655 0090 0D       		.uleb128 0xd
 14656 0091 01       		.uleb128 0x1
 14657 0092 01       		.byte	0x1
 14658 0093 49       		.uleb128 0x49
 14659 0094 13       		.uleb128 0x13
 14660 0095 01       		.uleb128 0x1
 14661 0096 13       		.uleb128 0x13
 14662 0097 00       		.byte	0
 14663 0098 00       		.byte	0
 14664 0099 0E       		.uleb128 0xe
 14665 009a 21       		.uleb128 0x21
 14666 009b 00       		.byte	0
 14667 009c 49       		.uleb128 0x49
 14668 009d 13       		.uleb128 0x13
 14669 009e 2F       		.uleb128 0x2f
 14670 009f 0B       		.uleb128 0xb
 14671 00a0 00       		.byte	0
 14672 00a1 00       		.byte	0
 14673 00a2 0F       		.uleb128 0xf
 14674 00a3 04       		.uleb128 0x4
 14675 00a4 01       		.byte	0x1
 14676 00a5 0B       		.uleb128 0xb
 14677 00a6 0B       		.uleb128 0xb
 14678 00a7 49       		.uleb128 0x49
 14679 00a8 13       		.uleb128 0x13
 14680 00a9 3A       		.uleb128 0x3a
 14681 00aa 0B       		.uleb128 0xb
 14682 00ab 3B       		.uleb128 0x3b
 14683 00ac 0B       		.uleb128 0xb
 14684 00ad 6E       		.uleb128 0x6e
 14685 00ae 0E       		.uleb128 0xe
 14686 00af 01       		.uleb128 0x1
 14687 00b0 13       		.uleb128 0x13
 14688 00b1 00       		.byte	0
 14689 00b2 00       		.byte	0
 14690 00b3 10       		.uleb128 0x10
 14691 00b4 0D       		.uleb128 0xd
 14692 00b5 00       		.byte	0
 14693 00b6 03       		.uleb128 0x3
 14694 00b7 08       		.uleb128 0x8
 14695 00b8 3A       		.uleb128 0x3a
 14696 00b9 0B       		.uleb128 0xb
 14697 00ba 3B       		.uleb128 0x3b
 14698 00bb 0B       		.uleb128 0xb
 14699 00bc 49       		.uleb128 0x49
 14700 00bd 13       		.uleb128 0x13
 14701 00be 38       		.uleb128 0x38
 14702 00bf 0B       		.uleb128 0xb
ARM GAS  /tmp/ccJJl1OT.s 			page 259


 14703 00c0 00       		.byte	0
 14704 00c1 00       		.byte	0
 14705 00c2 11       		.uleb128 0x11
 14706 00c3 2E       		.uleb128 0x2e
 14707 00c4 01       		.byte	0x1
 14708 00c5 03       		.uleb128 0x3
 14709 00c6 0E       		.uleb128 0xe
 14710 00c7 3A       		.uleb128 0x3a
 14711 00c8 0B       		.uleb128 0xb
 14712 00c9 3B       		.uleb128 0x3b
 14713 00ca 0B       		.uleb128 0xb
 14714 00cb 49       		.uleb128 0x49
 14715 00cc 13       		.uleb128 0x13
 14716 00cd 20       		.uleb128 0x20
 14717 00ce 0B       		.uleb128 0xb
 14718 00cf 01       		.uleb128 0x1
 14719 00d0 13       		.uleb128 0x13
 14720 00d1 00       		.byte	0
 14721 00d2 00       		.byte	0
 14722 00d3 12       		.uleb128 0x12
 14723 00d4 05       		.uleb128 0x5
 14724 00d5 00       		.byte	0
 14725 00d6 03       		.uleb128 0x3
 14726 00d7 08       		.uleb128 0x8
 14727 00d8 3A       		.uleb128 0x3a
 14728 00d9 0B       		.uleb128 0xb
 14729 00da 3B       		.uleb128 0x3b
 14730 00db 0B       		.uleb128 0xb
 14731 00dc 49       		.uleb128 0x49
 14732 00dd 13       		.uleb128 0x13
 14733 00de 00       		.byte	0
 14734 00df 00       		.byte	0
 14735 00e0 13       		.uleb128 0x13
 14736 00e1 2E       		.uleb128 0x2e
 14737 00e2 01       		.byte	0x1
 14738 00e3 03       		.uleb128 0x3
 14739 00e4 0E       		.uleb128 0xe
 14740 00e5 3A       		.uleb128 0x3a
 14741 00e6 0B       		.uleb128 0xb
 14742 00e7 3B       		.uleb128 0x3b
 14743 00e8 05       		.uleb128 0x5
 14744 00e9 49       		.uleb128 0x49
 14745 00ea 13       		.uleb128 0x13
 14746 00eb 20       		.uleb128 0x20
 14747 00ec 0B       		.uleb128 0xb
 14748 00ed 01       		.uleb128 0x1
 14749 00ee 13       		.uleb128 0x13
 14750 00ef 00       		.byte	0
 14751 00f0 00       		.byte	0
 14752 00f1 14       		.uleb128 0x14
 14753 00f2 05       		.uleb128 0x5
 14754 00f3 00       		.byte	0
 14755 00f4 03       		.uleb128 0x3
 14756 00f5 08       		.uleb128 0x8
 14757 00f6 3A       		.uleb128 0x3a
 14758 00f7 0B       		.uleb128 0xb
 14759 00f8 3B       		.uleb128 0x3b
ARM GAS  /tmp/ccJJl1OT.s 			page 260


 14760 00f9 05       		.uleb128 0x5
 14761 00fa 49       		.uleb128 0x49
 14762 00fb 13       		.uleb128 0x13
 14763 00fc 00       		.byte	0
 14764 00fd 00       		.byte	0
 14765 00fe 15       		.uleb128 0x15
 14766 00ff 05       		.uleb128 0x5
 14767 0100 00       		.byte	0
 14768 0101 03       		.uleb128 0x3
 14769 0102 0E       		.uleb128 0xe
 14770 0103 3A       		.uleb128 0x3a
 14771 0104 0B       		.uleb128 0xb
 14772 0105 3B       		.uleb128 0x3b
 14773 0106 0B       		.uleb128 0xb
 14774 0107 49       		.uleb128 0x49
 14775 0108 13       		.uleb128 0x13
 14776 0109 00       		.byte	0
 14777 010a 00       		.byte	0
 14778 010b 16       		.uleb128 0x16
 14779 010c 34       		.uleb128 0x34
 14780 010d 00       		.byte	0
 14781 010e 03       		.uleb128 0x3
 14782 010f 08       		.uleb128 0x8
 14783 0110 3A       		.uleb128 0x3a
 14784 0111 0B       		.uleb128 0xb
 14785 0112 3B       		.uleb128 0x3b
 14786 0113 0B       		.uleb128 0xb
 14787 0114 49       		.uleb128 0x49
 14788 0115 13       		.uleb128 0x13
 14789 0116 00       		.byte	0
 14790 0117 00       		.byte	0
 14791 0118 17       		.uleb128 0x17
 14792 0119 34       		.uleb128 0x34
 14793 011a 00       		.byte	0
 14794 011b 03       		.uleb128 0x3
 14795 011c 0E       		.uleb128 0xe
 14796 011d 3A       		.uleb128 0x3a
 14797 011e 0B       		.uleb128 0xb
 14798 011f 3B       		.uleb128 0x3b
 14799 0120 0B       		.uleb128 0xb
 14800 0121 49       		.uleb128 0x49
 14801 0122 13       		.uleb128 0x13
 14802 0123 00       		.byte	0
 14803 0124 00       		.byte	0
 14804 0125 18       		.uleb128 0x18
 14805 0126 34       		.uleb128 0x34
 14806 0127 00       		.byte	0
 14807 0128 03       		.uleb128 0x3
 14808 0129 08       		.uleb128 0x8
 14809 012a 3A       		.uleb128 0x3a
 14810 012b 0B       		.uleb128 0xb
 14811 012c 3B       		.uleb128 0x3b
 14812 012d 05       		.uleb128 0x5
 14813 012e 49       		.uleb128 0x49
 14814 012f 13       		.uleb128 0x13
 14815 0130 00       		.byte	0
 14816 0131 00       		.byte	0
ARM GAS  /tmp/ccJJl1OT.s 			page 261


 14817 0132 19       		.uleb128 0x19
 14818 0133 34       		.uleb128 0x34
 14819 0134 00       		.byte	0
 14820 0135 03       		.uleb128 0x3
 14821 0136 0E       		.uleb128 0xe
 14822 0137 3A       		.uleb128 0x3a
 14823 0138 0B       		.uleb128 0xb
 14824 0139 3B       		.uleb128 0x3b
 14825 013a 05       		.uleb128 0x5
 14826 013b 49       		.uleb128 0x49
 14827 013c 13       		.uleb128 0x13
 14828 013d 00       		.byte	0
 14829 013e 00       		.byte	0
 14830 013f 1A       		.uleb128 0x1a
 14831 0140 2E       		.uleb128 0x2e
 14832 0141 01       		.byte	0x1
 14833 0142 3F       		.uleb128 0x3f
 14834 0143 19       		.uleb128 0x19
 14835 0144 03       		.uleb128 0x3
 14836 0145 0E       		.uleb128 0xe
 14837 0146 3A       		.uleb128 0x3a
 14838 0147 0B       		.uleb128 0xb
 14839 0148 3B       		.uleb128 0x3b
 14840 0149 0B       		.uleb128 0xb
 14841 014a 11       		.uleb128 0x11
 14842 014b 01       		.uleb128 0x1
 14843 014c 12       		.uleb128 0x12
 14844 014d 06       		.uleb128 0x6
 14845 014e 40       		.uleb128 0x40
 14846 014f 18       		.uleb128 0x18
 14847 0150 9742     		.uleb128 0x2117
 14848 0152 19       		.uleb128 0x19
 14849 0153 01       		.uleb128 0x1
 14850 0154 13       		.uleb128 0x13
 14851 0155 00       		.byte	0
 14852 0156 00       		.byte	0
 14853 0157 1B       		.uleb128 0x1b
 14854 0158 05       		.uleb128 0x5
 14855 0159 00       		.byte	0
 14856 015a 03       		.uleb128 0x3
 14857 015b 0E       		.uleb128 0xe
 14858 015c 3A       		.uleb128 0x3a
 14859 015d 0B       		.uleb128 0xb
 14860 015e 3B       		.uleb128 0x3b
 14861 015f 0B       		.uleb128 0xb
 14862 0160 49       		.uleb128 0x49
 14863 0161 13       		.uleb128 0x13
 14864 0162 02       		.uleb128 0x2
 14865 0163 18       		.uleb128 0x18
 14866 0164 00       		.byte	0
 14867 0165 00       		.byte	0
 14868 0166 1C       		.uleb128 0x1c
 14869 0167 05       		.uleb128 0x5
 14870 0168 00       		.byte	0
 14871 0169 03       		.uleb128 0x3
 14872 016a 08       		.uleb128 0x8
 14873 016b 3A       		.uleb128 0x3a
ARM GAS  /tmp/ccJJl1OT.s 			page 262


 14874 016c 0B       		.uleb128 0xb
 14875 016d 3B       		.uleb128 0x3b
 14876 016e 0B       		.uleb128 0xb
 14877 016f 49       		.uleb128 0x49
 14878 0170 13       		.uleb128 0x13
 14879 0171 02       		.uleb128 0x2
 14880 0172 17       		.uleb128 0x17
 14881 0173 00       		.byte	0
 14882 0174 00       		.byte	0
 14883 0175 1D       		.uleb128 0x1d
 14884 0176 0B       		.uleb128 0xb
 14885 0177 01       		.byte	0x1
 14886 0178 11       		.uleb128 0x11
 14887 0179 01       		.uleb128 0x1
 14888 017a 12       		.uleb128 0x12
 14889 017b 06       		.uleb128 0x6
 14890 017c 00       		.byte	0
 14891 017d 00       		.byte	0
 14892 017e 1E       		.uleb128 0x1e
 14893 017f 34       		.uleb128 0x34
 14894 0180 00       		.byte	0
 14895 0181 03       		.uleb128 0x3
 14896 0182 08       		.uleb128 0x8
 14897 0183 3A       		.uleb128 0x3a
 14898 0184 0B       		.uleb128 0xb
 14899 0185 3B       		.uleb128 0x3b
 14900 0186 0B       		.uleb128 0xb
 14901 0187 49       		.uleb128 0x49
 14902 0188 13       		.uleb128 0x13
 14903 0189 02       		.uleb128 0x2
 14904 018a 17       		.uleb128 0x17
 14905 018b 00       		.byte	0
 14906 018c 00       		.byte	0
 14907 018d 1F       		.uleb128 0x1f
 14908 018e 05       		.uleb128 0x5
 14909 018f 00       		.byte	0
 14910 0190 03       		.uleb128 0x3
 14911 0191 0E       		.uleb128 0xe
 14912 0192 3A       		.uleb128 0x3a
 14913 0193 0B       		.uleb128 0xb
 14914 0194 3B       		.uleb128 0x3b
 14915 0195 0B       		.uleb128 0xb
 14916 0196 49       		.uleb128 0x49
 14917 0197 13       		.uleb128 0x13
 14918 0198 02       		.uleb128 0x2
 14919 0199 17       		.uleb128 0x17
 14920 019a 00       		.byte	0
 14921 019b 00       		.byte	0
 14922 019c 20       		.uleb128 0x20
 14923 019d 34       		.uleb128 0x34
 14924 019e 00       		.byte	0
 14925 019f 03       		.uleb128 0x3
 14926 01a0 0E       		.uleb128 0xe
 14927 01a1 3A       		.uleb128 0x3a
 14928 01a2 0B       		.uleb128 0xb
 14929 01a3 3B       		.uleb128 0x3b
 14930 01a4 0B       		.uleb128 0xb
ARM GAS  /tmp/ccJJl1OT.s 			page 263


 14931 01a5 49       		.uleb128 0x49
 14932 01a6 13       		.uleb128 0x13
 14933 01a7 02       		.uleb128 0x2
 14934 01a8 17       		.uleb128 0x17
 14935 01a9 00       		.byte	0
 14936 01aa 00       		.byte	0
 14937 01ab 21       		.uleb128 0x21
 14938 01ac 34       		.uleb128 0x34
 14939 01ad 00       		.byte	0
 14940 01ae 03       		.uleb128 0x3
 14941 01af 08       		.uleb128 0x8
 14942 01b0 3A       		.uleb128 0x3a
 14943 01b1 0B       		.uleb128 0xb
 14944 01b2 3B       		.uleb128 0x3b
 14945 01b3 0B       		.uleb128 0xb
 14946 01b4 49       		.uleb128 0x49
 14947 01b5 13       		.uleb128 0x13
 14948 01b6 02       		.uleb128 0x2
 14949 01b7 18       		.uleb128 0x18
 14950 01b8 00       		.byte	0
 14951 01b9 00       		.byte	0
 14952 01ba 22       		.uleb128 0x22
 14953 01bb 34       		.uleb128 0x34
 14954 01bc 00       		.byte	0
 14955 01bd 03       		.uleb128 0x3
 14956 01be 0E       		.uleb128 0xe
 14957 01bf 3A       		.uleb128 0x3a
 14958 01c0 0B       		.uleb128 0xb
 14959 01c1 3B       		.uleb128 0x3b
 14960 01c2 0B       		.uleb128 0xb
 14961 01c3 49       		.uleb128 0x49
 14962 01c4 13       		.uleb128 0x13
 14963 01c5 02       		.uleb128 0x2
 14964 01c6 18       		.uleb128 0x18
 14965 01c7 00       		.byte	0
 14966 01c8 00       		.byte	0
 14967 01c9 23       		.uleb128 0x23
 14968 01ca 0B       		.uleb128 0xb
 14969 01cb 01       		.byte	0x1
 14970 01cc 55       		.uleb128 0x55
 14971 01cd 17       		.uleb128 0x17
 14972 01ce 01       		.uleb128 0x1
 14973 01cf 13       		.uleb128 0x13
 14974 01d0 00       		.byte	0
 14975 01d1 00       		.byte	0
 14976 01d2 24       		.uleb128 0x24
 14977 01d3 1D       		.uleb128 0x1d
 14978 01d4 01       		.byte	0x1
 14979 01d5 31       		.uleb128 0x31
 14980 01d6 13       		.uleb128 0x13
 14981 01d7 52       		.uleb128 0x52
 14982 01d8 01       		.uleb128 0x1
 14983 01d9 55       		.uleb128 0x55
 14984 01da 17       		.uleb128 0x17
 14985 01db 58       		.uleb128 0x58
 14986 01dc 0B       		.uleb128 0xb
 14987 01dd 59       		.uleb128 0x59
ARM GAS  /tmp/ccJJl1OT.s 			page 264


 14988 01de 0B       		.uleb128 0xb
 14989 01df 01       		.uleb128 0x1
 14990 01e0 13       		.uleb128 0x13
 14991 01e1 00       		.byte	0
 14992 01e2 00       		.byte	0
 14993 01e3 25       		.uleb128 0x25
 14994 01e4 05       		.uleb128 0x5
 14995 01e5 00       		.byte	0
 14996 01e6 31       		.uleb128 0x31
 14997 01e7 13       		.uleb128 0x13
 14998 01e8 02       		.uleb128 0x2
 14999 01e9 17       		.uleb128 0x17
 15000 01ea 00       		.byte	0
 15001 01eb 00       		.byte	0
 15002 01ec 26       		.uleb128 0x26
 15003 01ed 0B       		.uleb128 0xb
 15004 01ee 01       		.byte	0x1
 15005 01ef 55       		.uleb128 0x55
 15006 01f0 17       		.uleb128 0x17
 15007 01f1 00       		.byte	0
 15008 01f2 00       		.byte	0
 15009 01f3 27       		.uleb128 0x27
 15010 01f4 34       		.uleb128 0x34
 15011 01f5 00       		.byte	0
 15012 01f6 31       		.uleb128 0x31
 15013 01f7 13       		.uleb128 0x13
 15014 01f8 00       		.byte	0
 15015 01f9 00       		.byte	0
 15016 01fa 28       		.uleb128 0x28
 15017 01fb 1D       		.uleb128 0x1d
 15018 01fc 01       		.byte	0x1
 15019 01fd 31       		.uleb128 0x31
 15020 01fe 13       		.uleb128 0x13
 15021 01ff 52       		.uleb128 0x52
 15022 0200 01       		.uleb128 0x1
 15023 0201 55       		.uleb128 0x55
 15024 0202 17       		.uleb128 0x17
 15025 0203 58       		.uleb128 0x58
 15026 0204 0B       		.uleb128 0xb
 15027 0205 59       		.uleb128 0x59
 15028 0206 0B       		.uleb128 0xb
 15029 0207 00       		.byte	0
 15030 0208 00       		.byte	0
 15031 0209 29       		.uleb128 0x29
 15032 020a 05       		.uleb128 0x5
 15033 020b 00       		.byte	0
 15034 020c 31       		.uleb128 0x31
 15035 020d 13       		.uleb128 0x13
 15036 020e 00       		.byte	0
 15037 020f 00       		.byte	0
 15038 0210 2A       		.uleb128 0x2a
 15039 0211 1D       		.uleb128 0x1d
 15040 0212 01       		.byte	0x1
 15041 0213 31       		.uleb128 0x31
 15042 0214 13       		.uleb128 0x13
 15043 0215 11       		.uleb128 0x11
 15044 0216 01       		.uleb128 0x1
ARM GAS  /tmp/ccJJl1OT.s 			page 265


 15045 0217 12       		.uleb128 0x12
 15046 0218 06       		.uleb128 0x6
 15047 0219 58       		.uleb128 0x58
 15048 021a 0B       		.uleb128 0xb
 15049 021b 59       		.uleb128 0x59
 15050 021c 0B       		.uleb128 0xb
 15051 021d 01       		.uleb128 0x1
 15052 021e 13       		.uleb128 0x13
 15053 021f 00       		.byte	0
 15054 0220 00       		.byte	0
 15055 0221 2B       		.uleb128 0x2b
 15056 0222 1D       		.uleb128 0x1d
 15057 0223 01       		.byte	0x1
 15058 0224 31       		.uleb128 0x31
 15059 0225 13       		.uleb128 0x13
 15060 0226 11       		.uleb128 0x11
 15061 0227 01       		.uleb128 0x1
 15062 0228 12       		.uleb128 0x12
 15063 0229 06       		.uleb128 0x6
 15064 022a 58       		.uleb128 0x58
 15065 022b 0B       		.uleb128 0xb
 15066 022c 59       		.uleb128 0x59
 15067 022d 0B       		.uleb128 0xb
 15068 022e 00       		.byte	0
 15069 022f 00       		.byte	0
 15070 0230 2C       		.uleb128 0x2c
 15071 0231 1D       		.uleb128 0x1d
 15072 0232 01       		.byte	0x1
 15073 0233 31       		.uleb128 0x31
 15074 0234 13       		.uleb128 0x13
 15075 0235 11       		.uleb128 0x11
 15076 0236 01       		.uleb128 0x1
 15077 0237 12       		.uleb128 0x12
 15078 0238 06       		.uleb128 0x6
 15079 0239 58       		.uleb128 0x58
 15080 023a 0B       		.uleb128 0xb
 15081 023b 59       		.uleb128 0x59
 15082 023c 05       		.uleb128 0x5
 15083 023d 00       		.byte	0
 15084 023e 00       		.byte	0
 15085 023f 2D       		.uleb128 0x2d
 15086 0240 1D       		.uleb128 0x1d
 15087 0241 01       		.byte	0x1
 15088 0242 31       		.uleb128 0x31
 15089 0243 13       		.uleb128 0x13
 15090 0244 52       		.uleb128 0x52
 15091 0245 01       		.uleb128 0x1
 15092 0246 55       		.uleb128 0x55
 15093 0247 17       		.uleb128 0x17
 15094 0248 58       		.uleb128 0x58
 15095 0249 0B       		.uleb128 0xb
 15096 024a 59       		.uleb128 0x59
 15097 024b 05       		.uleb128 0x5
 15098 024c 00       		.byte	0
 15099 024d 00       		.byte	0
 15100 024e 2E       		.uleb128 0x2e
 15101 024f 0B       		.uleb128 0xb
ARM GAS  /tmp/ccJJl1OT.s 			page 266


 15102 0250 01       		.byte	0x1
 15103 0251 11       		.uleb128 0x11
 15104 0252 01       		.uleb128 0x1
 15105 0253 12       		.uleb128 0x12
 15106 0254 06       		.uleb128 0x6
 15107 0255 01       		.uleb128 0x1
 15108 0256 13       		.uleb128 0x13
 15109 0257 00       		.byte	0
 15110 0258 00       		.byte	0
 15111 0259 2F       		.uleb128 0x2f
 15112 025a 34       		.uleb128 0x34
 15113 025b 00       		.byte	0
 15114 025c 31       		.uleb128 0x31
 15115 025d 13       		.uleb128 0x13
 15116 025e 02       		.uleb128 0x2
 15117 025f 17       		.uleb128 0x17
 15118 0260 00       		.byte	0
 15119 0261 00       		.byte	0
 15120 0262 30       		.uleb128 0x30
 15121 0263 1D       		.uleb128 0x1d
 15122 0264 01       		.byte	0x1
 15123 0265 31       		.uleb128 0x31
 15124 0266 13       		.uleb128 0x13
 15125 0267 52       		.uleb128 0x52
 15126 0268 01       		.uleb128 0x1
 15127 0269 55       		.uleb128 0x55
 15128 026a 17       		.uleb128 0x17
 15129 026b 58       		.uleb128 0x58
 15130 026c 0B       		.uleb128 0xb
 15131 026d 59       		.uleb128 0x59
 15132 026e 05       		.uleb128 0x5
 15133 026f 01       		.uleb128 0x1
 15134 0270 13       		.uleb128 0x13
 15135 0271 00       		.byte	0
 15136 0272 00       		.byte	0
 15137 0273 31       		.uleb128 0x31
 15138 0274 2E       		.uleb128 0x2e
 15139 0275 01       		.byte	0x1
 15140 0276 3F       		.uleb128 0x3f
 15141 0277 19       		.uleb128 0x19
 15142 0278 03       		.uleb128 0x3
 15143 0279 0E       		.uleb128 0xe
 15144 027a 3A       		.uleb128 0x3a
 15145 027b 0B       		.uleb128 0xb
 15146 027c 3B       		.uleb128 0x3b
 15147 027d 0B       		.uleb128 0xb
 15148 027e 20       		.uleb128 0x20
 15149 027f 0B       		.uleb128 0xb
 15150 0280 01       		.uleb128 0x1
 15151 0281 13       		.uleb128 0x13
 15152 0282 00       		.byte	0
 15153 0283 00       		.byte	0
 15154 0284 32       		.uleb128 0x32
 15155 0285 2E       		.uleb128 0x2e
 15156 0286 01       		.byte	0x1
 15157 0287 31       		.uleb128 0x31
 15158 0288 13       		.uleb128 0x13
ARM GAS  /tmp/ccJJl1OT.s 			page 267


 15159 0289 11       		.uleb128 0x11
 15160 028a 01       		.uleb128 0x1
 15161 028b 12       		.uleb128 0x12
 15162 028c 06       		.uleb128 0x6
 15163 028d 40       		.uleb128 0x40
 15164 028e 18       		.uleb128 0x18
 15165 028f 9742     		.uleb128 0x2117
 15166 0291 19       		.uleb128 0x19
 15167 0292 01       		.uleb128 0x1
 15168 0293 13       		.uleb128 0x13
 15169 0294 00       		.byte	0
 15170 0295 00       		.byte	0
 15171 0296 33       		.uleb128 0x33
 15172 0297 05       		.uleb128 0x5
 15173 0298 00       		.byte	0
 15174 0299 31       		.uleb128 0x31
 15175 029a 13       		.uleb128 0x13
 15176 029b 02       		.uleb128 0x2
 15177 029c 18       		.uleb128 0x18
 15178 029d 00       		.byte	0
 15179 029e 00       		.byte	0
 15180 029f 34       		.uleb128 0x34
 15181 02a0 34       		.uleb128 0x34
 15182 02a1 00       		.byte	0
 15183 02a2 03       		.uleb128 0x3
 15184 02a3 0E       		.uleb128 0xe
 15185 02a4 3A       		.uleb128 0x3a
 15186 02a5 0B       		.uleb128 0xb
 15187 02a6 3B       		.uleb128 0x3b
 15188 02a7 0B       		.uleb128 0xb
 15189 02a8 49       		.uleb128 0x49
 15190 02a9 13       		.uleb128 0x13
 15191 02aa 3F       		.uleb128 0x3f
 15192 02ab 19       		.uleb128 0x19
 15193 02ac 3C       		.uleb128 0x3c
 15194 02ad 19       		.uleb128 0x19
 15195 02ae 00       		.byte	0
 15196 02af 00       		.byte	0
 15197 02b0 35       		.uleb128 0x35
 15198 02b1 21       		.uleb128 0x21
 15199 02b2 00       		.byte	0
 15200 02b3 49       		.uleb128 0x49
 15201 02b4 13       		.uleb128 0x13
 15202 02b5 2F       		.uleb128 0x2f
 15203 02b6 05       		.uleb128 0x5
 15204 02b7 00       		.byte	0
 15205 02b8 00       		.byte	0
 15206 02b9 36       		.uleb128 0x36
 15207 02ba 34       		.uleb128 0x34
 15208 02bb 00       		.byte	0
 15209 02bc 03       		.uleb128 0x3
 15210 02bd 0E       		.uleb128 0xe
 15211 02be 3A       		.uleb128 0x3a
 15212 02bf 0B       		.uleb128 0xb
 15213 02c0 3B       		.uleb128 0x3b
 15214 02c1 05       		.uleb128 0x5
 15215 02c2 49       		.uleb128 0x49
ARM GAS  /tmp/ccJJl1OT.s 			page 268


 15216 02c3 13       		.uleb128 0x13
 15217 02c4 3F       		.uleb128 0x3f
 15218 02c5 19       		.uleb128 0x19
 15219 02c6 3C       		.uleb128 0x3c
 15220 02c7 19       		.uleb128 0x19
 15221 02c8 00       		.byte	0
 15222 02c9 00       		.byte	0
 15223 02ca 00       		.byte	0
 15224              		.section	.debug_loc,"",%progbits
 15225              	.Ldebug_loc0:
 15226              	.LLST0:
 15227 0000 00000000 		.4byte	.LVL0-.Ltext0
 15228 0004 08000000 		.4byte	.LVL1-.Ltext0
 15229 0008 0100     		.2byte	0x1
 15230 000a 51       		.byte	0x51
 15231 000b 08000000 		.4byte	.LVL1-.Ltext0
 15232 000f 24000000 		.4byte	.LFE239-.Ltext0
 15233 0013 0400     		.2byte	0x4
 15234 0015 F3       		.byte	0xf3
 15235 0016 01       		.uleb128 0x1
 15236 0017 51       		.byte	0x51
 15237 0018 9F       		.byte	0x9f
 15238 0019 00000000 		.4byte	0
 15239 001d 00000000 		.4byte	0
 15240              	.LLST1:
 15241 0021 00000000 		.4byte	.LVL0-.Ltext0
 15242 0025 08000000 		.4byte	.LVL1-.Ltext0
 15243 0029 0200     		.2byte	0x2
 15244 002b 30       		.byte	0x30
 15245 002c 9F       		.byte	0x9f
 15246 002d 00000000 		.4byte	0
 15247 0031 00000000 		.4byte	0
 15248              	.LLST2:
 15249 0035 24000000 		.4byte	.LVL2-.Ltext0
 15250 0039 320E0000 		.4byte	.LVL249-.Ltext0
 15251 003d 0100     		.2byte	0x1
 15252 003f 50       		.byte	0x50
 15253 0040 320E0000 		.4byte	.LVL249-.Ltext0
 15254 0044 380E0000 		.4byte	.LVL250-.Ltext0
 15255 0048 0400     		.2byte	0x4
 15256 004a F3       		.byte	0xf3
 15257 004b 01       		.uleb128 0x1
 15258 004c 50       		.byte	0x50
 15259 004d 9F       		.byte	0x9f
 15260 004e 380E0000 		.4byte	.LVL250-.Ltext0
 15261 0052 3C0E0000 		.4byte	.LVL251-.Ltext0
 15262 0056 0100     		.2byte	0x1
 15263 0058 50       		.byte	0x50
 15264 0059 3C0E0000 		.4byte	.LVL251-.Ltext0
 15265 005d EC1C0000 		.4byte	.LFE240-.Ltext0
 15266 0061 0400     		.2byte	0x4
 15267 0063 F3       		.byte	0xf3
 15268 0064 01       		.uleb128 0x1
 15269 0065 50       		.byte	0x50
 15270 0066 9F       		.byte	0x9f
 15271 0067 00000000 		.4byte	0
 15272 006b 00000000 		.4byte	0
ARM GAS  /tmp/ccJJl1OT.s 			page 269


 15273              	.LLST3:
 15274 006f 24000000 		.4byte	.LVL2-.Ltext0
 15275 0073 700E0000 		.4byte	.LVL257-.Ltext0
 15276 0077 0100     		.2byte	0x1
 15277 0079 51       		.byte	0x51
 15278 007a 700E0000 		.4byte	.LVL257-.Ltext0
 15279 007e EC1C0000 		.4byte	.LFE240-.Ltext0
 15280 0082 0400     		.2byte	0x4
 15281 0084 F3       		.byte	0xf3
 15282 0085 01       		.uleb128 0x1
 15283 0086 51       		.byte	0x51
 15284 0087 9F       		.byte	0x9f
 15285 0088 00000000 		.4byte	0
 15286 008c 00000000 		.4byte	0
 15287              	.LLST4:
 15288 0090 24000000 		.4byte	.LVL2-.Ltext0
 15289 0094 600E0000 		.4byte	.LVL253-.Ltext0
 15290 0098 0100     		.2byte	0x1
 15291 009a 52       		.byte	0x52
 15292 009b 600E0000 		.4byte	.LVL253-.Ltext0
 15293 009f EC1C0000 		.4byte	.LFE240-.Ltext0
 15294 00a3 0400     		.2byte	0x4
 15295 00a5 F3       		.byte	0xf3
 15296 00a6 01       		.uleb128 0x1
 15297 00a7 52       		.byte	0x52
 15298 00a8 9F       		.byte	0x9f
 15299 00a9 00000000 		.4byte	0
 15300 00ad 00000000 		.4byte	0
 15301              	.LLST5:
 15302 00b1 66000000 		.4byte	.LVL5-.Ltext0
 15303 00b5 0C0E0000 		.4byte	.LVL247-.Ltext0
 15304 00b9 0100     		.2byte	0x1
 15305 00bb 57       		.byte	0x57
 15306 00bc 0C0E0000 		.4byte	.LVL247-.Ltext0
 15307 00c0 700E0000 		.4byte	.LVL257-.Ltext0
 15308 00c4 0500     		.2byte	0x5
 15309 00c6 03       		.byte	0x3
 15310 00c7 09000000 		.4byte	_ZL7s_state+9
 15311 00cb 00000000 		.4byte	0
 15312 00cf 00000000 		.4byte	0
 15313              	.LLST6:
 15314 00d3 2E0E0000 		.4byte	.LVL248-.Ltext0
 15315 00d7 440E0000 		.4byte	.LVL252-.Ltext0
 15316 00db 0200     		.2byte	0x2
 15317 00dd 90       		.byte	0x90
 15318 00de 4E       		.uleb128 0x4e
 15319 00df 440E0000 		.4byte	.LVL252-.Ltext0
 15320 00e3 D01C0000 		.4byte	.LVL627-.Ltext0
 15321 00e7 0500     		.2byte	0x5
 15322 00e9 03       		.byte	0x3
 15323 00ea 00000000 		.4byte	_ZL7s_state
 15324 00ee 00000000 		.4byte	0
 15325 00f2 00000000 		.4byte	0
 15326              	.LLST7:
 15327 00f6 640E0000 		.4byte	.LVL254-.Ltext0
 15328 00fa A81C0000 		.4byte	.LVL625-.Ltext0
 15329 00fe 0100     		.2byte	0x1
ARM GAS  /tmp/ccJJl1OT.s 			page 270


 15330 0100 51       		.byte	0x51
 15331 0101 A81C0000 		.4byte	.LVL625-.Ltext0
 15332 0105 D01C0000 		.4byte	.LVL627-.Ltext0
 15333 0109 0300     		.2byte	0x3
 15334 010b 71       		.byte	0x71
 15335 010c 7C       		.sleb128 -4
 15336 010d 9F       		.byte	0x9f
 15337 010e D01C0000 		.4byte	.LVL627-.Ltext0
 15338 0112 EC1C0000 		.4byte	.LFE240-.Ltext0
 15339 0116 0100     		.2byte	0x1
 15340 0118 51       		.byte	0x51
 15341 0119 00000000 		.4byte	0
 15342 011d 00000000 		.4byte	0
 15343              	.LLST8:
 15344 0121 660E0000 		.4byte	.LVL255-.Ltext0
 15345 0125 6A0E0000 		.4byte	.LVL256-.Ltext0
 15346 0129 0100     		.2byte	0x1
 15347 012b 52       		.byte	0x52
 15348 012c 6A0E0000 		.4byte	.LVL256-.Ltext0
 15349 0130 E61C0000 		.4byte	.LVL629-.Ltext0
 15350 0134 0300     		.2byte	0x3
 15351 0136 91       		.byte	0x91
 15352 0137 F47E     		.sleb128 -140
 15353 0139 E61C0000 		.4byte	.LVL629-.Ltext0
 15354 013d EC1C0000 		.4byte	.LFE240-.Ltext0
 15355 0141 0300     		.2byte	0x3
 15356 0143 7D       		.byte	0x7d
 15357 0144 F47E     		.sleb128 -140
 15358 0146 00000000 		.4byte	0
 15359 014a 00000000 		.4byte	0
 15360              	.LLST9:
 15361 014e 24000000 		.4byte	.LVL2-.Ltext0
 15362 0152 38000000 		.4byte	.LVL3-.Ltext0
 15363 0156 0200     		.2byte	0x2
 15364 0158 30       		.byte	0x30
 15365 0159 9F       		.byte	0x9f
 15366 015a 38000000 		.4byte	.LVL3-.Ltext0
 15367 015e 96000000 		.4byte	.LVL6-.Ltext0
 15368 0162 0100     		.2byte	0x1
 15369 0164 56       		.byte	0x56
 15370 0165 5C040000 		.4byte	.LVL66-.Ltext0
 15371 0169 66040000 		.4byte	.LVL67-.Ltext0
 15372 016d 0100     		.2byte	0x1
 15373 016f 56       		.byte	0x56
 15374 0170 74070000 		.4byte	.LVL128-.Ltext0
 15375 0174 86070000 		.4byte	.LVL129-.Ltext0
 15376 0178 0100     		.2byte	0x1
 15377 017a 56       		.byte	0x56
 15378 017b B80A0000 		.4byte	.LVL189-.Ltext0
 15379 017f CA0A0000 		.4byte	.LVL190-.Ltext0
 15380 0183 0100     		.2byte	0x1
 15381 0185 56       		.byte	0x56
 15382 0186 00000000 		.4byte	0
 15383 018a 00000000 		.4byte	0
 15384              	.LLST10:
 15385 018e CC000000 		.4byte	.LVL7-.Ltext0
 15386 0192 1A010000 		.4byte	.LVL15-.Ltext0
ARM GAS  /tmp/ccJJl1OT.s 			page 271


 15387 0196 0300     		.2byte	0x3
 15388 0198 91       		.byte	0x91
 15389 0199 F47E     		.sleb128 -140
 15390 019b 00000000 		.4byte	0
 15391 019f 00000000 		.4byte	0
 15392              	.LLST11:
 15393 01a3 CC000000 		.4byte	.LVL7-.Ltext0
 15394 01a7 1A010000 		.4byte	.LVL15-.Ltext0
 15395 01ab 0100     		.2byte	0x1
 15396 01ad 54       		.byte	0x54
 15397 01ae 00000000 		.4byte	0
 15398 01b2 00000000 		.4byte	0
 15399              	.LLST12:
 15400 01b6 CC000000 		.4byte	.LVL7-.Ltext0
 15401 01ba DA000000 		.4byte	.LVL9-.Ltext0
 15402 01be 0100     		.2byte	0x1
 15403 01c0 54       		.byte	0x54
 15404 01c1 00000000 		.4byte	0
 15405 01c5 00000000 		.4byte	0
 15406              	.LLST13:
 15407 01c9 CC000000 		.4byte	.LVL7-.Ltext0
 15408 01cd D2000000 		.4byte	.LVL8-.Ltext0
 15409 01d1 0300     		.2byte	0x3
 15410 01d3 08       		.byte	0x8
 15411 01d4 97       		.byte	0x97
 15412 01d5 9F       		.byte	0x9f
 15413 01d6 00000000 		.4byte	0
 15414 01da 00000000 		.4byte	0
 15415              	.LLST14:
 15416 01de CC000000 		.4byte	.LVL7-.Ltext0
 15417 01e2 D2000000 		.4byte	.LVL8-.Ltext0
 15418 01e6 0100     		.2byte	0x1
 15419 01e8 54       		.byte	0x54
 15420 01e9 00000000 		.4byte	0
 15421 01ed 00000000 		.4byte	0
 15422              	.LLST15:
 15423 01f1 E8000000 		.4byte	.LVL11-.Ltext0
 15424 01f5 F4000000 		.4byte	.LVL12-.Ltext0
 15425 01f9 1300     		.2byte	0x13
 15426 01fb 92       		.byte	0x92
 15427 01fc 4E       		.uleb128 0x4e
 15428 01fd 00       		.sleb128 0
 15429 01fe 08       		.byte	0x8
 15430 01ff FF       		.byte	0xff
 15431 0200 1A       		.byte	0x1a
 15432 0201 F7       		.byte	0xf7
 15433 0202 33       		.uleb128 0x33
 15434 0203 F7       		.byte	0xf7
 15435 0204 25       		.uleb128 0x25
 15436 0205 F4       		.byte	0xf4
 15437 0206 25       		.uleb128 0x25
 15438 0207 04       		.byte	0x4
 15439 0208 8180803B 		.4byte	0x3b808081
 15440 020c 1E       		.byte	0x1e
 15441 020d 9F       		.byte	0x9f
 15442 020e F4000000 		.4byte	.LVL12-.Ltext0
 15443 0212 04010000 		.4byte	.LVL13-.Ltext0
ARM GAS  /tmp/ccJJl1OT.s 			page 272


 15444 0216 1500     		.2byte	0x15
 15445 0218 91       		.byte	0x91
 15446 0219 F47E     		.sleb128 -140
 15447 021b 94       		.byte	0x94
 15448 021c 01       		.byte	0x1
 15449 021d 08       		.byte	0x8
 15450 021e FF       		.byte	0xff
 15451 021f 1A       		.byte	0x1a
 15452 0220 F7       		.byte	0xf7
 15453 0221 33       		.uleb128 0x33
 15454 0222 F7       		.byte	0xf7
 15455 0223 25       		.uleb128 0x25
 15456 0224 F4       		.byte	0xf4
 15457 0225 25       		.uleb128 0x25
 15458 0226 04       		.byte	0x4
 15459 0227 8180803B 		.4byte	0x3b808081
 15460 022b 1E       		.byte	0x1e
 15461 022c 9F       		.byte	0x9f
 15462 022d 00000000 		.4byte	0
 15463 0231 00000000 		.4byte	0
 15464              	.LLST16:
 15465 0235 DE000000 		.4byte	.LVL10-.Ltext0
 15466 0239 E8000000 		.4byte	.LVL11-.Ltext0
 15467 023d 0100     		.2byte	0x1
 15468 023f 55       		.byte	0x55
 15469 0240 00000000 		.4byte	0
 15470 0244 00000000 		.4byte	0
 15471              	.LLST17:
 15472 0248 DE000000 		.4byte	.LVL10-.Ltext0
 15473 024c E8000000 		.4byte	.LVL11-.Ltext0
 15474 0250 0300     		.2byte	0x3
 15475 0252 08       		.byte	0x8
 15476 0253 97       		.byte	0x97
 15477 0254 9F       		.byte	0x9f
 15478 0255 00000000 		.4byte	0
 15479 0259 00000000 		.4byte	0
 15480              	.LLST19:
 15481 025d 04010000 		.4byte	.LVL13-.Ltext0
 15482 0261 16010000 		.4byte	.LVL14-.Ltext0
 15483 0265 0600     		.2byte	0x6
 15484 0267 9E       		.byte	0x9e
 15485 0268 04       		.uleb128 0x4
 15486 0269 49FFB846 		.4byte	0x46b8ff49
 15487 026d 00000000 		.4byte	0
 15488 0271 00000000 		.4byte	0
 15489              	.LLST22:
 15490 0275 04010000 		.4byte	.LVL13-.Ltext0
 15491 0279 16010000 		.4byte	.LVL14-.Ltext0
 15492 027d 0C00     		.2byte	0xc
 15493 027f F5       		.byte	0xf5
 15494 0280 47       		.uleb128 0x47
 15495 0281 25       		.uleb128 0x25
 15496 0282 F4       		.byte	0xf4
 15497 0283 25       		.uleb128 0x25
 15498 0284 04       		.byte	0x4
 15499 0285 49FFB846 		.4byte	0x46b8ff49
 15500 0289 1C       		.byte	0x1c
ARM GAS  /tmp/ccJJl1OT.s 			page 273


 15501 028a 9F       		.byte	0x9f
 15502 028b 00000000 		.4byte	0
 15503 028f 00000000 		.4byte	0
 15504              	.LLST23:
 15505 0293 42010000 		.4byte	.LVL16-.Ltext0
 15506 0297 74010000 		.4byte	.LVL20-.Ltext0
 15507 029b 0300     		.2byte	0x3
 15508 029d 91       		.byte	0x91
 15509 029e F47E     		.sleb128 -140
 15510 02a0 00000000 		.4byte	0
 15511 02a4 00000000 		.4byte	0
 15512              	.LLST24:
 15513 02a8 42010000 		.4byte	.LVL16-.Ltext0
 15514 02ac 74010000 		.4byte	.LVL20-.Ltext0
 15515 02b0 0100     		.2byte	0x1
 15516 02b2 54       		.byte	0x54
 15517 02b3 00000000 		.4byte	0
 15518 02b7 00000000 		.4byte	0
 15519              	.LLST25:
 15520 02bb 42010000 		.4byte	.LVL16-.Ltext0
 15521 02bf 66010000 		.4byte	.LVL17-.Ltext0
 15522 02c3 1200     		.2byte	0x12
 15523 02c5 7E       		.byte	0x7e
 15524 02c6 00       		.sleb128 0
 15525 02c7 08       		.byte	0x8
 15526 02c8 FF       		.byte	0xff
 15527 02c9 1A       		.byte	0x1a
 15528 02ca F7       		.byte	0xf7
 15529 02cb 33       		.uleb128 0x33
 15530 02cc F7       		.byte	0xf7
 15531 02cd 25       		.uleb128 0x25
 15532 02ce F4       		.byte	0xf4
 15533 02cf 25       		.uleb128 0x25
 15534 02d0 04       		.byte	0x4
 15535 02d1 8180803B 		.4byte	0x3b808081
 15536 02d5 1E       		.byte	0x1e
 15537 02d6 9F       		.byte	0x9f
 15538 02d7 00000000 		.4byte	0
 15539 02db 00000000 		.4byte	0
 15540              	.LLST26:
 15541 02df 66010000 		.4byte	.LVL17-.Ltext0
 15542 02e3 70010000 		.4byte	.LVL19-.Ltext0
 15543 02e7 0600     		.2byte	0x6
 15544 02e9 9E       		.byte	0x9e
 15545 02ea 04       		.uleb128 0x4
 15546 02eb 49FFB846 		.4byte	0x46b8ff49
 15547 02ef 00000000 		.4byte	0
 15548 02f3 00000000 		.4byte	0
 15549              	.LLST29:
 15550 02f7 66010000 		.4byte	.LVL17-.Ltext0
 15551 02fb 6A010000 		.4byte	.LVL18-.Ltext0
 15552 02ff 0C00     		.2byte	0xc
 15553 0301 F5       		.byte	0xf5
 15554 0302 45       		.uleb128 0x45
 15555 0303 25       		.uleb128 0x25
 15556 0304 F4       		.byte	0xf4
 15557 0305 25       		.uleb128 0x25
ARM GAS  /tmp/ccJJl1OT.s 			page 274


 15558 0306 04       		.byte	0x4
 15559 0307 49FFB846 		.4byte	0x46b8ff49
 15560 030b 1C       		.byte	0x1c
 15561 030c 9F       		.byte	0x9f
 15562 030d 6A010000 		.4byte	.LVL18-.Ltext0
 15563 0311 70010000 		.4byte	.LVL19-.Ltext0
 15564 0315 0C00     		.2byte	0xc
 15565 0317 F5       		.byte	0xf5
 15566 0318 47       		.uleb128 0x47
 15567 0319 25       		.uleb128 0x25
 15568 031a F4       		.byte	0xf4
 15569 031b 25       		.uleb128 0x25
 15570 031c 04       		.byte	0x4
 15571 031d 49FFB846 		.4byte	0x46b8ff49
 15572 0321 1C       		.byte	0x1c
 15573 0322 9F       		.byte	0x9f
 15574 0323 00000000 		.4byte	0
 15575 0327 00000000 		.4byte	0
 15576              	.LLST30:
 15577 032b 98010000 		.4byte	.LVL21-.Ltext0
 15578 032f BE010000 		.4byte	.LVL25-.Ltext0
 15579 0333 0300     		.2byte	0x3
 15580 0335 91       		.byte	0x91
 15581 0336 F47E     		.sleb128 -140
 15582 0338 00000000 		.4byte	0
 15583 033c 00000000 		.4byte	0
 15584              	.LLST31:
 15585 0340 98010000 		.4byte	.LVL21-.Ltext0
 15586 0344 BE010000 		.4byte	.LVL25-.Ltext0
 15587 0348 0100     		.2byte	0x1
 15588 034a 54       		.byte	0x54
 15589 034b 00000000 		.4byte	0
 15590 034f 00000000 		.4byte	0
 15591              	.LLST32:
 15592 0353 98010000 		.4byte	.LVL21-.Ltext0
 15593 0357 B0010000 		.4byte	.LVL22-.Ltext0
 15594 035b 1200     		.2byte	0x12
 15595 035d 7E       		.byte	0x7e
 15596 035e 00       		.sleb128 0
 15597 035f 08       		.byte	0x8
 15598 0360 FF       		.byte	0xff
 15599 0361 1A       		.byte	0x1a
 15600 0362 F7       		.byte	0xf7
 15601 0363 33       		.uleb128 0x33
 15602 0364 F7       		.byte	0xf7
 15603 0365 25       		.uleb128 0x25
 15604 0366 F4       		.byte	0xf4
 15605 0367 25       		.uleb128 0x25
 15606 0368 04       		.byte	0x4
 15607 0369 8180803B 		.4byte	0x3b808081
 15608 036d 1E       		.byte	0x1e
 15609 036e 9F       		.byte	0x9f
 15610 036f 00000000 		.4byte	0
 15611 0373 00000000 		.4byte	0
 15612              	.LLST33:
 15613 0377 B0010000 		.4byte	.LVL22-.Ltext0
 15614 037b BA010000 		.4byte	.LVL24-.Ltext0
ARM GAS  /tmp/ccJJl1OT.s 			page 275


 15615 037f 0600     		.2byte	0x6
 15616 0381 9E       		.byte	0x9e
 15617 0382 04       		.uleb128 0x4
 15618 0383 49FFB846 		.4byte	0x46b8ff49
 15619 0387 00000000 		.4byte	0
 15620 038b 00000000 		.4byte	0
 15621              	.LLST36:
 15622 038f B0010000 		.4byte	.LVL22-.Ltext0
 15623 0393 B4010000 		.4byte	.LVL23-.Ltext0
 15624 0397 0C00     		.2byte	0xc
 15625 0399 F5       		.byte	0xf5
 15626 039a 44       		.uleb128 0x44
 15627 039b 25       		.uleb128 0x25
 15628 039c F4       		.byte	0xf4
 15629 039d 25       		.uleb128 0x25
 15630 039e 04       		.byte	0x4
 15631 039f 49FFB846 		.4byte	0x46b8ff49
 15632 03a3 1C       		.byte	0x1c
 15633 03a4 9F       		.byte	0x9f
 15634 03a5 B4010000 		.4byte	.LVL23-.Ltext0
 15635 03a9 BA010000 		.4byte	.LVL24-.Ltext0
 15636 03ad 0C00     		.2byte	0xc
 15637 03af F5       		.byte	0xf5
 15638 03b0 47       		.uleb128 0x47
 15639 03b1 25       		.uleb128 0x25
 15640 03b2 F4       		.byte	0xf4
 15641 03b3 25       		.uleb128 0x25
 15642 03b4 04       		.byte	0x4
 15643 03b5 49FFB846 		.4byte	0x46b8ff49
 15644 03b9 1C       		.byte	0x1c
 15645 03ba 9F       		.byte	0x9f
 15646 03bb 00000000 		.4byte	0
 15647 03bf 00000000 		.4byte	0
 15648              	.LLST37:
 15649 03c3 E2010000 		.4byte	.LVL26-.Ltext0
 15650 03c7 08020000 		.4byte	.LVL30-.Ltext0
 15651 03cb 0300     		.2byte	0x3
 15652 03cd 91       		.byte	0x91
 15653 03ce F47E     		.sleb128 -140
 15654 03d0 00000000 		.4byte	0
 15655 03d4 00000000 		.4byte	0
 15656              	.LLST38:
 15657 03d8 E2010000 		.4byte	.LVL26-.Ltext0
 15658 03dc 08020000 		.4byte	.LVL30-.Ltext0
 15659 03e0 0100     		.2byte	0x1
 15660 03e2 54       		.byte	0x54
 15661 03e3 00000000 		.4byte	0
 15662 03e7 00000000 		.4byte	0
 15663              	.LLST39:
 15664 03eb E2010000 		.4byte	.LVL26-.Ltext0
 15665 03ef FA010000 		.4byte	.LVL27-.Ltext0
 15666 03f3 1200     		.2byte	0x12
 15667 03f5 7E       		.byte	0x7e
 15668 03f6 00       		.sleb128 0
 15669 03f7 08       		.byte	0x8
 15670 03f8 FF       		.byte	0xff
 15671 03f9 1A       		.byte	0x1a
ARM GAS  /tmp/ccJJl1OT.s 			page 276


 15672 03fa F7       		.byte	0xf7
 15673 03fb 33       		.uleb128 0x33
 15674 03fc F7       		.byte	0xf7
 15675 03fd 25       		.uleb128 0x25
 15676 03fe F4       		.byte	0xf4
 15677 03ff 25       		.uleb128 0x25
 15678 0400 04       		.byte	0x4
 15679 0401 8180803B 		.4byte	0x3b808081
 15680 0405 1E       		.byte	0x1e
 15681 0406 9F       		.byte	0x9f
 15682 0407 00000000 		.4byte	0
 15683 040b 00000000 		.4byte	0
 15684              	.LLST40:
 15685 040f FA010000 		.4byte	.LVL27-.Ltext0
 15686 0413 04020000 		.4byte	.LVL29-.Ltext0
 15687 0417 0600     		.2byte	0x6
 15688 0419 9E       		.byte	0x9e
 15689 041a 04       		.uleb128 0x4
 15690 041b 49FFB846 		.4byte	0x46b8ff49
 15691 041f 00000000 		.4byte	0
 15692 0423 00000000 		.4byte	0
 15693              	.LLST43:
 15694 0427 FA010000 		.4byte	.LVL27-.Ltext0
 15695 042b FE010000 		.4byte	.LVL28-.Ltext0
 15696 042f 0C00     		.2byte	0xc
 15697 0431 F5       		.byte	0xf5
 15698 0432 43       		.uleb128 0x43
 15699 0433 25       		.uleb128 0x25
 15700 0434 F4       		.byte	0xf4
 15701 0435 25       		.uleb128 0x25
 15702 0436 04       		.byte	0x4
 15703 0437 49FFB846 		.4byte	0x46b8ff49
 15704 043b 1C       		.byte	0x1c
 15705 043c 9F       		.byte	0x9f
 15706 043d FE010000 		.4byte	.LVL28-.Ltext0
 15707 0441 04020000 		.4byte	.LVL29-.Ltext0
 15708 0445 0C00     		.2byte	0xc
 15709 0447 F5       		.byte	0xf5
 15710 0448 47       		.uleb128 0x47
 15711 0449 25       		.uleb128 0x25
 15712 044a F4       		.byte	0xf4
 15713 044b 25       		.uleb128 0x25
 15714 044c 04       		.byte	0x4
 15715 044d 49FFB846 		.4byte	0x46b8ff49
 15716 0451 1C       		.byte	0x1c
 15717 0452 9F       		.byte	0x9f
 15718 0453 00000000 		.4byte	0
 15719 0457 00000000 		.4byte	0
 15720              	.LLST44:
 15721 045b 2C020000 		.4byte	.LVL31-.Ltext0
 15722 045f 52020000 		.4byte	.LVL35-.Ltext0
 15723 0463 0300     		.2byte	0x3
 15724 0465 91       		.byte	0x91
 15725 0466 F47E     		.sleb128 -140
 15726 0468 00000000 		.4byte	0
 15727 046c 00000000 		.4byte	0
 15728              	.LLST45:
ARM GAS  /tmp/ccJJl1OT.s 			page 277


 15729 0470 2C020000 		.4byte	.LVL31-.Ltext0
 15730 0474 52020000 		.4byte	.LVL35-.Ltext0
 15731 0478 0100     		.2byte	0x1
 15732 047a 54       		.byte	0x54
 15733 047b 00000000 		.4byte	0
 15734 047f 00000000 		.4byte	0
 15735              	.LLST46:
 15736 0483 2C020000 		.4byte	.LVL31-.Ltext0
 15737 0487 44020000 		.4byte	.LVL32-.Ltext0
 15738 048b 1200     		.2byte	0x12
 15739 048d 7E       		.byte	0x7e
 15740 048e 00       		.sleb128 0
 15741 048f 08       		.byte	0x8
 15742 0490 FF       		.byte	0xff
 15743 0491 1A       		.byte	0x1a
 15744 0492 F7       		.byte	0xf7
 15745 0493 33       		.uleb128 0x33
 15746 0494 F7       		.byte	0xf7
 15747 0495 25       		.uleb128 0x25
 15748 0496 F4       		.byte	0xf4
 15749 0497 25       		.uleb128 0x25
 15750 0498 04       		.byte	0x4
 15751 0499 8180803B 		.4byte	0x3b808081
 15752 049d 1E       		.byte	0x1e
 15753 049e 9F       		.byte	0x9f
 15754 049f 00000000 		.4byte	0
 15755 04a3 00000000 		.4byte	0
 15756              	.LLST47:
 15757 04a7 44020000 		.4byte	.LVL32-.Ltext0
 15758 04ab 4E020000 		.4byte	.LVL34-.Ltext0
 15759 04af 0600     		.2byte	0x6
 15760 04b1 9E       		.byte	0x9e
 15761 04b2 04       		.uleb128 0x4
 15762 04b3 49FFB846 		.4byte	0x46b8ff49
 15763 04b7 00000000 		.4byte	0
 15764 04bb 00000000 		.4byte	0
 15765              	.LLST50:
 15766 04bf 44020000 		.4byte	.LVL32-.Ltext0
 15767 04c3 48020000 		.4byte	.LVL33-.Ltext0
 15768 04c7 0C00     		.2byte	0xc
 15769 04c9 F5       		.byte	0xf5
 15770 04ca 42       		.uleb128 0x42
 15771 04cb 25       		.uleb128 0x25
 15772 04cc F4       		.byte	0xf4
 15773 04cd 25       		.uleb128 0x25
 15774 04ce 04       		.byte	0x4
 15775 04cf 49FFB846 		.4byte	0x46b8ff49
 15776 04d3 1C       		.byte	0x1c
 15777 04d4 9F       		.byte	0x9f
 15778 04d5 48020000 		.4byte	.LVL33-.Ltext0
 15779 04d9 4E020000 		.4byte	.LVL34-.Ltext0
 15780 04dd 0C00     		.2byte	0xc
 15781 04df F5       		.byte	0xf5
 15782 04e0 47       		.uleb128 0x47
 15783 04e1 25       		.uleb128 0x25
 15784 04e2 F4       		.byte	0xf4
 15785 04e3 25       		.uleb128 0x25
ARM GAS  /tmp/ccJJl1OT.s 			page 278


 15786 04e4 04       		.byte	0x4
 15787 04e5 49FFB846 		.4byte	0x46b8ff49
 15788 04e9 1C       		.byte	0x1c
 15789 04ea 9F       		.byte	0x9f
 15790 04eb 00000000 		.4byte	0
 15791 04ef 00000000 		.4byte	0
 15792              	.LLST51:
 15793 04f3 7A020000 		.4byte	.LVL36-.Ltext0
 15794 04f7 9C020000 		.4byte	.LVL39-.Ltext0
 15795 04fb 0300     		.2byte	0x3
 15796 04fd 91       		.byte	0x91
 15797 04fe F47E     		.sleb128 -140
 15798 0500 00000000 		.4byte	0
 15799 0504 00000000 		.4byte	0
 15800              	.LLST52:
 15801 0508 7A020000 		.4byte	.LVL36-.Ltext0
 15802 050c 9C020000 		.4byte	.LVL39-.Ltext0
 15803 0510 0100     		.2byte	0x1
 15804 0512 54       		.byte	0x54
 15805 0513 00000000 		.4byte	0
 15806 0517 00000000 		.4byte	0
 15807              	.LLST53:
 15808 051b 7A020000 		.4byte	.LVL36-.Ltext0
 15809 051f 92020000 		.4byte	.LVL37-.Ltext0
 15810 0523 1200     		.2byte	0x12
 15811 0525 7E       		.byte	0x7e
 15812 0526 00       		.sleb128 0
 15813 0527 08       		.byte	0x8
 15814 0528 FF       		.byte	0xff
 15815 0529 1A       		.byte	0x1a
 15816 052a F7       		.byte	0xf7
 15817 052b 33       		.uleb128 0x33
 15818 052c F7       		.byte	0xf7
 15819 052d 25       		.uleb128 0x25
 15820 052e F4       		.byte	0xf4
 15821 052f 25       		.uleb128 0x25
 15822 0530 04       		.byte	0x4
 15823 0531 8180803B 		.4byte	0x3b808081
 15824 0535 1E       		.byte	0x1e
 15825 0536 9F       		.byte	0x9f
 15826 0537 00000000 		.4byte	0
 15827 053b 00000000 		.4byte	0
 15828              	.LLST54:
 15829 053f 92020000 		.4byte	.LVL37-.Ltext0
 15830 0543 98020000 		.4byte	.LVL38-.Ltext0
 15831 0547 0600     		.2byte	0x6
 15832 0549 9E       		.byte	0x9e
 15833 054a 04       		.uleb128 0x4
 15834 054b 49FFB846 		.4byte	0x46b8ff49
 15835 054f 00000000 		.4byte	0
 15836 0553 00000000 		.4byte	0
 15837              	.LLST57:
 15838 0557 92020000 		.4byte	.LVL37-.Ltext0
 15839 055b 98020000 		.4byte	.LVL38-.Ltext0
 15840 055f 0C00     		.2byte	0xc
 15841 0561 F5       		.byte	0xf5
 15842 0562 41       		.uleb128 0x41
ARM GAS  /tmp/ccJJl1OT.s 			page 279


 15843 0563 25       		.uleb128 0x25
 15844 0564 F4       		.byte	0xf4
 15845 0565 25       		.uleb128 0x25
 15846 0566 04       		.byte	0x4
 15847 0567 49FFB846 		.4byte	0x46b8ff49
 15848 056b 1C       		.byte	0x1c
 15849 056c 9F       		.byte	0x9f
 15850 056d 00000000 		.4byte	0
 15851 0571 00000000 		.4byte	0
 15852              	.LLST58:
 15853 0575 B8020000 		.4byte	.LVL40-.Ltext0
 15854 0579 DA020000 		.4byte	.LVL43-.Ltext0
 15855 057d 0300     		.2byte	0x3
 15856 057f 91       		.byte	0x91
 15857 0580 F47E     		.sleb128 -140
 15858 0582 00000000 		.4byte	0
 15859 0586 00000000 		.4byte	0
 15860              	.LLST59:
 15861 058a B8020000 		.4byte	.LVL40-.Ltext0
 15862 058e DA020000 		.4byte	.LVL43-.Ltext0
 15863 0592 0100     		.2byte	0x1
 15864 0594 54       		.byte	0x54
 15865 0595 00000000 		.4byte	0
 15866 0599 00000000 		.4byte	0
 15867              	.LLST60:
 15868 059d B8020000 		.4byte	.LVL40-.Ltext0
 15869 05a1 D0020000 		.4byte	.LVL41-.Ltext0
 15870 05a5 1200     		.2byte	0x12
 15871 05a7 7E       		.byte	0x7e
 15872 05a8 00       		.sleb128 0
 15873 05a9 08       		.byte	0x8
 15874 05aa FF       		.byte	0xff
 15875 05ab 1A       		.byte	0x1a
 15876 05ac F7       		.byte	0xf7
 15877 05ad 33       		.uleb128 0x33
 15878 05ae F7       		.byte	0xf7
 15879 05af 25       		.uleb128 0x25
 15880 05b0 F4       		.byte	0xf4
 15881 05b1 25       		.uleb128 0x25
 15882 05b2 04       		.byte	0x4
 15883 05b3 8180803B 		.4byte	0x3b808081
 15884 05b7 1E       		.byte	0x1e
 15885 05b8 9F       		.byte	0x9f
 15886 05b9 00000000 		.4byte	0
 15887 05bd 00000000 		.4byte	0
 15888              	.LLST61:
 15889 05c1 D0020000 		.4byte	.LVL41-.Ltext0
 15890 05c5 D6020000 		.4byte	.LVL42-.Ltext0
 15891 05c9 0600     		.2byte	0x6
 15892 05cb 9E       		.byte	0x9e
 15893 05cc 04       		.uleb128 0x4
 15894 05cd 49FFB846 		.4byte	0x46b8ff49
 15895 05d1 00000000 		.4byte	0
 15896 05d5 00000000 		.4byte	0
 15897              	.LLST64:
 15898 05d9 D0020000 		.4byte	.LVL41-.Ltext0
 15899 05dd D6020000 		.4byte	.LVL42-.Ltext0
ARM GAS  /tmp/ccJJl1OT.s 			page 280


 15900 05e1 0C00     		.2byte	0xc
 15901 05e3 F5       		.byte	0xf5
 15902 05e4 42       		.uleb128 0x42
 15903 05e5 25       		.uleb128 0x25
 15904 05e6 F4       		.byte	0xf4
 15905 05e7 25       		.uleb128 0x25
 15906 05e8 04       		.byte	0x4
 15907 05e9 49FFB846 		.4byte	0x46b8ff49
 15908 05ed 1C       		.byte	0x1c
 15909 05ee 9F       		.byte	0x9f
 15910 05ef 00000000 		.4byte	0
 15911 05f3 00000000 		.4byte	0
 15912              	.LLST65:
 15913 05f7 F6020000 		.4byte	.LVL44-.Ltext0
 15914 05fb 18030000 		.4byte	.LVL47-.Ltext0
 15915 05ff 0300     		.2byte	0x3
 15916 0601 91       		.byte	0x91
 15917 0602 F47E     		.sleb128 -140
 15918 0604 00000000 		.4byte	0
 15919 0608 00000000 		.4byte	0
 15920              	.LLST66:
 15921 060c F6020000 		.4byte	.LVL44-.Ltext0
 15922 0610 18030000 		.4byte	.LVL47-.Ltext0
 15923 0614 0100     		.2byte	0x1
 15924 0616 54       		.byte	0x54
 15925 0617 00000000 		.4byte	0
 15926 061b 00000000 		.4byte	0
 15927              	.LLST67:
 15928 061f F6020000 		.4byte	.LVL44-.Ltext0
 15929 0623 0E030000 		.4byte	.LVL45-.Ltext0
 15930 0627 1200     		.2byte	0x12
 15931 0629 7E       		.byte	0x7e
 15932 062a 00       		.sleb128 0
 15933 062b 08       		.byte	0x8
 15934 062c FF       		.byte	0xff
 15935 062d 1A       		.byte	0x1a
 15936 062e F7       		.byte	0xf7
 15937 062f 33       		.uleb128 0x33
 15938 0630 F7       		.byte	0xf7
 15939 0631 25       		.uleb128 0x25
 15940 0632 F4       		.byte	0xf4
 15941 0633 25       		.uleb128 0x25
 15942 0634 04       		.byte	0x4
 15943 0635 8180803B 		.4byte	0x3b808081
 15944 0639 1E       		.byte	0x1e
 15945 063a 9F       		.byte	0x9f
 15946 063b 00000000 		.4byte	0
 15947 063f 00000000 		.4byte	0
 15948              	.LLST68:
 15949 0643 0E030000 		.4byte	.LVL45-.Ltext0
 15950 0647 14030000 		.4byte	.LVL46-.Ltext0
 15951 064b 0600     		.2byte	0x6
 15952 064d 9E       		.byte	0x9e
 15953 064e 04       		.uleb128 0x4
 15954 064f 49FFB846 		.4byte	0x46b8ff49
 15955 0653 00000000 		.4byte	0
 15956 0657 00000000 		.4byte	0
ARM GAS  /tmp/ccJJl1OT.s 			page 281


 15957              	.LLST71:
 15958 065b 0E030000 		.4byte	.LVL45-.Ltext0
 15959 065f 14030000 		.4byte	.LVL46-.Ltext0
 15960 0663 0C00     		.2byte	0xc
 15961 0665 F5       		.byte	0xf5
 15962 0666 43       		.uleb128 0x43
 15963 0667 25       		.uleb128 0x25
 15964 0668 F4       		.byte	0xf4
 15965 0669 25       		.uleb128 0x25
 15966 066a 04       		.byte	0x4
 15967 066b 49FFB846 		.4byte	0x46b8ff49
 15968 066f 1C       		.byte	0x1c
 15969 0670 9F       		.byte	0x9f
 15970 0671 00000000 		.4byte	0
 15971 0675 00000000 		.4byte	0
 15972              	.LLST72:
 15973 0679 34030000 		.4byte	.LVL48-.Ltext0
 15974 067d 56030000 		.4byte	.LVL51-.Ltext0
 15975 0681 0300     		.2byte	0x3
 15976 0683 91       		.byte	0x91
 15977 0684 F47E     		.sleb128 -140
 15978 0686 00000000 		.4byte	0
 15979 068a 00000000 		.4byte	0
 15980              	.LLST73:
 15981 068e 34030000 		.4byte	.LVL48-.Ltext0
 15982 0692 56030000 		.4byte	.LVL51-.Ltext0
 15983 0696 0100     		.2byte	0x1
 15984 0698 54       		.byte	0x54
 15985 0699 00000000 		.4byte	0
 15986 069d 00000000 		.4byte	0
 15987              	.LLST74:
 15988 06a1 34030000 		.4byte	.LVL48-.Ltext0
 15989 06a5 4C030000 		.4byte	.LVL49-.Ltext0
 15990 06a9 1200     		.2byte	0x12
 15991 06ab 7E       		.byte	0x7e
 15992 06ac 00       		.sleb128 0
 15993 06ad 08       		.byte	0x8
 15994 06ae FF       		.byte	0xff
 15995 06af 1A       		.byte	0x1a
 15996 06b0 F7       		.byte	0xf7
 15997 06b1 33       		.uleb128 0x33
 15998 06b2 F7       		.byte	0xf7
 15999 06b3 25       		.uleb128 0x25
 16000 06b4 F4       		.byte	0xf4
 16001 06b5 25       		.uleb128 0x25
 16002 06b6 04       		.byte	0x4
 16003 06b7 8180803B 		.4byte	0x3b808081
 16004 06bb 1E       		.byte	0x1e
 16005 06bc 9F       		.byte	0x9f
 16006 06bd 00000000 		.4byte	0
 16007 06c1 00000000 		.4byte	0
 16008              	.LLST75:
 16009 06c5 4C030000 		.4byte	.LVL49-.Ltext0
 16010 06c9 52030000 		.4byte	.LVL50-.Ltext0
 16011 06cd 0600     		.2byte	0x6
 16012 06cf 9E       		.byte	0x9e
 16013 06d0 04       		.uleb128 0x4
ARM GAS  /tmp/ccJJl1OT.s 			page 282


 16014 06d1 49FFB846 		.4byte	0x46b8ff49
 16015 06d5 00000000 		.4byte	0
 16016 06d9 00000000 		.4byte	0
 16017              	.LLST78:
 16018 06dd 4C030000 		.4byte	.LVL49-.Ltext0
 16019 06e1 52030000 		.4byte	.LVL50-.Ltext0
 16020 06e5 0C00     		.2byte	0xc
 16021 06e7 F5       		.byte	0xf5
 16022 06e8 44       		.uleb128 0x44
 16023 06e9 25       		.uleb128 0x25
 16024 06ea F4       		.byte	0xf4
 16025 06eb 25       		.uleb128 0x25
 16026 06ec 04       		.byte	0x4
 16027 06ed 49FFB846 		.4byte	0x46b8ff49
 16028 06f1 1C       		.byte	0x1c
 16029 06f2 9F       		.byte	0x9f
 16030 06f3 00000000 		.4byte	0
 16031 06f7 00000000 		.4byte	0
 16032              	.LLST79:
 16033 06fb 72030000 		.4byte	.LVL52-.Ltext0
 16034 06ff 98030000 		.4byte	.LVL56-.Ltext0
 16035 0703 0300     		.2byte	0x3
 16036 0705 91       		.byte	0x91
 16037 0706 F47E     		.sleb128 -140
 16038 0708 00000000 		.4byte	0
 16039 070c 00000000 		.4byte	0
 16040              	.LLST80:
 16041 0710 72030000 		.4byte	.LVL52-.Ltext0
 16042 0714 98030000 		.4byte	.LVL56-.Ltext0
 16043 0718 0100     		.2byte	0x1
 16044 071a 54       		.byte	0x54
 16045 071b 00000000 		.4byte	0
 16046 071f 00000000 		.4byte	0
 16047              	.LLST81:
 16048 0723 72030000 		.4byte	.LVL52-.Ltext0
 16049 0727 7A030000 		.4byte	.LVL53-.Ltext0
 16050 072b 1200     		.2byte	0x12
 16051 072d 7E       		.byte	0x7e
 16052 072e 00       		.sleb128 0
 16053 072f 08       		.byte	0x8
 16054 0730 FF       		.byte	0xff
 16055 0731 1A       		.byte	0x1a
 16056 0732 F7       		.byte	0xf7
 16057 0733 33       		.uleb128 0x33
 16058 0734 F7       		.byte	0xf7
 16059 0735 25       		.uleb128 0x25
 16060 0736 F4       		.byte	0xf4
 16061 0737 25       		.uleb128 0x25
 16062 0738 04       		.byte	0x4
 16063 0739 8180803B 		.4byte	0x3b808081
 16064 073d 1E       		.byte	0x1e
 16065 073e 9F       		.byte	0x9f
 16066 073f 7A030000 		.4byte	.LVL53-.Ltext0
 16067 0743 8E030000 		.4byte	.LVL54-.Ltext0
 16068 0747 1500     		.2byte	0x15
 16069 0749 91       		.byte	0x91
 16070 074a F47E     		.sleb128 -140
ARM GAS  /tmp/ccJJl1OT.s 			page 283


 16071 074c 94       		.byte	0x94
 16072 074d 01       		.byte	0x1
 16073 074e 08       		.byte	0x8
 16074 074f FF       		.byte	0xff
 16075 0750 1A       		.byte	0x1a
 16076 0751 F7       		.byte	0xf7
 16077 0752 33       		.uleb128 0x33
 16078 0753 F7       		.byte	0xf7
 16079 0754 25       		.uleb128 0x25
 16080 0755 F4       		.byte	0xf4
 16081 0756 25       		.uleb128 0x25
 16082 0757 04       		.byte	0x4
 16083 0758 8180803B 		.4byte	0x3b808081
 16084 075c 1E       		.byte	0x1e
 16085 075d 9F       		.byte	0x9f
 16086 075e 00000000 		.4byte	0
 16087 0762 00000000 		.4byte	0
 16088              	.LLST82:
 16089 0766 8E030000 		.4byte	.LVL54-.Ltext0
 16090 076a 94030000 		.4byte	.LVL55-.Ltext0
 16091 076e 0600     		.2byte	0x6
 16092 0770 9E       		.byte	0x9e
 16093 0771 04       		.uleb128 0x4
 16094 0772 49FFB846 		.4byte	0x46b8ff49
 16095 0776 00000000 		.4byte	0
 16096 077a 00000000 		.4byte	0
 16097              	.LLST85:
 16098 077e 8E030000 		.4byte	.LVL54-.Ltext0
 16099 0782 94030000 		.4byte	.LVL55-.Ltext0
 16100 0786 0C00     		.2byte	0xc
 16101 0788 F5       		.byte	0xf5
 16102 0789 45       		.uleb128 0x45
 16103 078a 25       		.uleb128 0x25
 16104 078b F4       		.byte	0xf4
 16105 078c 25       		.uleb128 0x25
 16106 078d 04       		.byte	0x4
 16107 078e 49FFB846 		.4byte	0x46b8ff49
 16108 0792 1C       		.byte	0x1c
 16109 0793 9F       		.byte	0x9f
 16110 0794 00000000 		.4byte	0
 16111 0798 00000000 		.4byte	0
 16112              	.LLST86:
 16113 079c B0030000 		.4byte	.LVL57-.Ltext0
 16114 07a0 CE030000 		.4byte	.LVL60-.Ltext0
 16115 07a4 0300     		.2byte	0x3
 16116 07a6 91       		.byte	0x91
 16117 07a7 F47E     		.sleb128 -140
 16118 07a9 00000000 		.4byte	0
 16119 07ad 00000000 		.4byte	0
 16120              	.LLST87:
 16121 07b1 B0030000 		.4byte	.LVL57-.Ltext0
 16122 07b5 CE030000 		.4byte	.LVL60-.Ltext0
 16123 07b9 0100     		.2byte	0x1
 16124 07bb 54       		.byte	0x54
 16125 07bc 00000000 		.4byte	0
 16126 07c0 00000000 		.4byte	0
 16127              	.LLST88:
ARM GAS  /tmp/ccJJl1OT.s 			page 284


 16128 07c4 B0030000 		.4byte	.LVL57-.Ltext0
 16129 07c8 BC030000 		.4byte	.LVL58-.Ltext0
 16130 07cc 1200     		.2byte	0x12
 16131 07ce 7C       		.byte	0x7c
 16132 07cf 00       		.sleb128 0
 16133 07d0 08       		.byte	0x8
 16134 07d1 FF       		.byte	0xff
 16135 07d2 1A       		.byte	0x1a
 16136 07d3 F7       		.byte	0xf7
 16137 07d4 33       		.uleb128 0x33
 16138 07d5 F7       		.byte	0xf7
 16139 07d6 25       		.uleb128 0x25
 16140 07d7 F4       		.byte	0xf4
 16141 07d8 25       		.uleb128 0x25
 16142 07d9 04       		.byte	0x4
 16143 07da 8180803B 		.4byte	0x3b808081
 16144 07de 1E       		.byte	0x1e
 16145 07df 9F       		.byte	0x9f
 16146 07e0 00000000 		.4byte	0
 16147 07e4 00000000 		.4byte	0
 16148              	.LLST89:
 16149 07e8 BC030000 		.4byte	.LVL58-.Ltext0
 16150 07ec CA030000 		.4byte	.LVL59-.Ltext0
 16151 07f0 0600     		.2byte	0x6
 16152 07f2 9E       		.byte	0x9e
 16153 07f3 04       		.uleb128 0x4
 16154 07f4 49FFB846 		.4byte	0x46b8ff49
 16155 07f8 00000000 		.4byte	0
 16156 07fc 00000000 		.4byte	0
 16157              	.LLST92:
 16158 0800 BC030000 		.4byte	.LVL58-.Ltext0
 16159 0804 CA030000 		.4byte	.LVL59-.Ltext0
 16160 0808 0C00     		.2byte	0xc
 16161 080a F5       		.byte	0xf5
 16162 080b 4D       		.uleb128 0x4d
 16163 080c 25       		.uleb128 0x25
 16164 080d F4       		.byte	0xf4
 16165 080e 25       		.uleb128 0x25
 16166 080f 04       		.byte	0x4
 16167 0810 49FFB846 		.4byte	0x46b8ff49
 16168 0814 1C       		.byte	0x1c
 16169 0815 9F       		.byte	0x9f
 16170 0816 00000000 		.4byte	0
 16171 081a 00000000 		.4byte	0
 16172              	.LLST93:
 16173 081e F2030000 		.4byte	.LVL61-.Ltext0
 16174 0822 28040000 		.4byte	.LVL65-.Ltext0
 16175 0826 0300     		.2byte	0x3
 16176 0828 91       		.byte	0x91
 16177 0829 F47E     		.sleb128 -140
 16178 082b 00000000 		.4byte	0
 16179 082f 00000000 		.4byte	0
 16180              	.LLST94:
 16181 0833 FE030000 		.4byte	.LVL62-.Ltext0
 16182 0837 16040000 		.4byte	.LVL63-.Ltext0
 16183 083b 1200     		.2byte	0x12
 16184 083d 7C       		.byte	0x7c
ARM GAS  /tmp/ccJJl1OT.s 			page 285


 16185 083e 00       		.sleb128 0
 16186 083f 08       		.byte	0x8
 16187 0840 FF       		.byte	0xff
 16188 0841 1A       		.byte	0x1a
 16189 0842 F7       		.byte	0xf7
 16190 0843 33       		.uleb128 0x33
 16191 0844 F7       		.byte	0xf7
 16192 0845 25       		.uleb128 0x25
 16193 0846 F4       		.byte	0xf4
 16194 0847 25       		.uleb128 0x25
 16195 0848 04       		.byte	0x4
 16196 0849 8180803B 		.4byte	0x3b808081
 16197 084d 1E       		.byte	0x1e
 16198 084e 9F       		.byte	0x9f
 16199 084f 00000000 		.4byte	0
 16200 0853 00000000 		.4byte	0
 16201              	.LLST95:
 16202 0857 16040000 		.4byte	.LVL63-.Ltext0
 16203 085b 24040000 		.4byte	.LVL64-.Ltext0
 16204 085f 0600     		.2byte	0x6
 16205 0861 9E       		.byte	0x9e
 16206 0862 04       		.uleb128 0x4
 16207 0863 49FFB846 		.4byte	0x46b8ff49
 16208 0867 00000000 		.4byte	0
 16209 086b 00000000 		.4byte	0
 16210              	.LLST98:
 16211 086f 16040000 		.4byte	.LVL63-.Ltext0
 16212 0873 24040000 		.4byte	.LVL64-.Ltext0
 16213 0877 0C00     		.2byte	0xc
 16214 0879 F5       		.byte	0xf5
 16215 087a 4D       		.uleb128 0x4d
 16216 087b 25       		.uleb128 0x25
 16217 087c F4       		.byte	0xf4
 16218 087d 25       		.uleb128 0x25
 16219 087e 04       		.byte	0x4
 16220 087f 49FFB846 		.4byte	0x46b8ff49
 16221 0883 1C       		.byte	0x1c
 16222 0884 9F       		.byte	0x9f
 16223 0885 00000000 		.4byte	0
 16224 0889 00000000 		.4byte	0
 16225              	.LLST99:
 16226 088d AA040000 		.4byte	.LVL68-.Ltext0
 16227 0891 AE040000 		.4byte	.LVL69-.Ltext0
 16228 0895 0100     		.2byte	0x1
 16229 0897 54       		.byte	0x54
 16230 0898 AE040000 		.4byte	.LVL69-.Ltext0
 16231 089c CE040000 		.4byte	.LVL73-.Ltext0
 16232 08a0 0200     		.2byte	0x2
 16233 08a2 90       		.byte	0x90
 16234 08a3 4A       		.uleb128 0x4a
 16235 08a4 CE040000 		.4byte	.LVL73-.Ltext0
 16236 08a8 F4040000 		.4byte	.LVL77-.Ltext0
 16237 08ac 0300     		.2byte	0x3
 16238 08ae 91       		.byte	0x91
 16239 08af F47E     		.sleb128 -140
 16240 08b1 00000000 		.4byte	0
 16241 08b5 00000000 		.4byte	0
ARM GAS  /tmp/ccJJl1OT.s 			page 286


 16242              	.LLST100:
 16243 08b9 AA040000 		.4byte	.LVL68-.Ltext0
 16244 08bd F4040000 		.4byte	.LVL77-.Ltext0
 16245 08c1 0100     		.2byte	0x1
 16246 08c3 55       		.byte	0x55
 16247 08c4 00000000 		.4byte	0
 16248 08c8 00000000 		.4byte	0
 16249              	.LLST101:
 16250 08cc AA040000 		.4byte	.LVL68-.Ltext0
 16251 08d0 BC040000 		.4byte	.LVL71-.Ltext0
 16252 08d4 0100     		.2byte	0x1
 16253 08d6 55       		.byte	0x55
 16254 08d7 00000000 		.4byte	0
 16255 08db 00000000 		.4byte	0
 16256              	.LLST102:
 16257 08df AA040000 		.4byte	.LVL68-.Ltext0
 16258 08e3 B0040000 		.4byte	.LVL70-.Ltext0
 16259 08e7 0300     		.2byte	0x3
 16260 08e9 08       		.byte	0x8
 16261 08ea 97       		.byte	0x97
 16262 08eb 9F       		.byte	0x9f
 16263 08ec 00000000 		.4byte	0
 16264 08f0 00000000 		.4byte	0
 16265              	.LLST103:
 16266 08f4 AA040000 		.4byte	.LVL68-.Ltext0
 16267 08f8 B0040000 		.4byte	.LVL70-.Ltext0
 16268 08fc 0100     		.2byte	0x1
 16269 08fe 55       		.byte	0x55
 16270 08ff 00000000 		.4byte	0
 16271 0903 00000000 		.4byte	0
 16272              	.LLST104:
 16273 0907 DE040000 		.4byte	.LVL75-.Ltext0
 16274 090b F0040000 		.4byte	.LVL76-.Ltext0
 16275 090f 0600     		.2byte	0x6
 16276 0911 9E       		.byte	0x9e
 16277 0912 04       		.uleb128 0x4
 16278 0913 49FFB846 		.4byte	0x46b8ff49
 16279 0917 00000000 		.4byte	0
 16280 091b 00000000 		.4byte	0
 16281              	.LLST107:
 16282 091f DE040000 		.4byte	.LVL75-.Ltext0
 16283 0923 F0040000 		.4byte	.LVL76-.Ltext0
 16284 0927 0C00     		.2byte	0xc
 16285 0929 F5       		.byte	0xf5
 16286 092a 49       		.uleb128 0x49
 16287 092b 25       		.uleb128 0x25
 16288 092c F4       		.byte	0xf4
 16289 092d 25       		.uleb128 0x25
 16290 092e 04       		.byte	0x4
 16291 092f 49FFB846 		.4byte	0x46b8ff49
 16292 0933 1C       		.byte	0x1c
 16293 0934 9F       		.byte	0x9f
 16294 0935 00000000 		.4byte	0
 16295 0939 00000000 		.4byte	0
 16296              	.LLST108:
 16297 093d BC040000 		.4byte	.LVL71-.Ltext0
 16298 0941 C2040000 		.4byte	.LVL72-.Ltext0
ARM GAS  /tmp/ccJJl1OT.s 			page 287


 16299 0945 0100     		.2byte	0x1
 16300 0947 5E       		.byte	0x5e
 16301 0948 00000000 		.4byte	0
 16302 094c 00000000 		.4byte	0
 16303              	.LLST109:
 16304 0950 BC040000 		.4byte	.LVL71-.Ltext0
 16305 0954 C2040000 		.4byte	.LVL72-.Ltext0
 16306 0958 0300     		.2byte	0x3
 16307 095a 08       		.byte	0x8
 16308 095b 97       		.byte	0x97
 16309 095c 9F       		.byte	0x9f
 16310 095d 00000000 		.4byte	0
 16311 0961 00000000 		.4byte	0
 16312              	.LLST111:
 16313 0965 D6040000 		.4byte	.LVL74-.Ltext0
 16314 0969 DE040000 		.4byte	.LVL75-.Ltext0
 16315 096d 0200     		.2byte	0x2
 16316 096f 90       		.byte	0x90
 16317 0970 4A       		.uleb128 0x4a
 16318 0971 00000000 		.4byte	0
 16319 0975 00000000 		.4byte	0
 16320              	.LLST112:
 16321 0979 18050000 		.4byte	.LVL78-.Ltext0
 16322 097d 3A050000 		.4byte	.LVL82-.Ltext0
 16323 0981 0100     		.2byte	0x1
 16324 0983 54       		.byte	0x54
 16325 0984 00000000 		.4byte	0
 16326 0988 00000000 		.4byte	0
 16327              	.LLST113:
 16328 098c 18050000 		.4byte	.LVL78-.Ltext0
 16329 0990 3A050000 		.4byte	.LVL82-.Ltext0
 16330 0994 0100     		.2byte	0x1
 16331 0996 55       		.byte	0x55
 16332 0997 00000000 		.4byte	0
 16333 099b 00000000 		.4byte	0
 16334              	.LLST114:
 16335 099f 24050000 		.4byte	.LVL79-.Ltext0
 16336 09a3 28050000 		.4byte	.LVL80-.Ltext0
 16337 09a7 0200     		.2byte	0x2
 16338 09a9 90       		.byte	0x90
 16339 09aa 46       		.uleb128 0x46
 16340 09ab 00000000 		.4byte	0
 16341 09af 00000000 		.4byte	0
 16342              	.LLST115:
 16343 09b3 28050000 		.4byte	.LVL80-.Ltext0
 16344 09b7 36050000 		.4byte	.LVL81-.Ltext0
 16345 09bb 0600     		.2byte	0x6
 16346 09bd 9E       		.byte	0x9e
 16347 09be 04       		.uleb128 0x4
 16348 09bf 49FFB846 		.4byte	0x46b8ff49
 16349 09c3 00000000 		.4byte	0
 16350 09c7 00000000 		.4byte	0
 16351              	.LLST118:
 16352 09cb 28050000 		.4byte	.LVL80-.Ltext0
 16353 09cf 36050000 		.4byte	.LVL81-.Ltext0
 16354 09d3 0C00     		.2byte	0xc
 16355 09d5 F5       		.byte	0xf5
ARM GAS  /tmp/ccJJl1OT.s 			page 288


 16356 09d6 49       		.uleb128 0x49
 16357 09d7 25       		.uleb128 0x25
 16358 09d8 F4       		.byte	0xf4
 16359 09d9 25       		.uleb128 0x25
 16360 09da 04       		.byte	0x4
 16361 09db 49FFB846 		.4byte	0x46b8ff49
 16362 09df 1C       		.byte	0x1c
 16363 09e0 9F       		.byte	0x9f
 16364 09e1 00000000 		.4byte	0
 16365 09e5 00000000 		.4byte	0
 16366              	.LLST119:
 16367 09e9 5E050000 		.4byte	.LVL83-.Ltext0
 16368 09ed 80050000 		.4byte	.LVL87-.Ltext0
 16369 09f1 0100     		.2byte	0x1
 16370 09f3 54       		.byte	0x54
 16371 09f4 00000000 		.4byte	0
 16372 09f8 00000000 		.4byte	0
 16373              	.LLST120:
 16374 09fc 5E050000 		.4byte	.LVL83-.Ltext0
 16375 0a00 80050000 		.4byte	.LVL87-.Ltext0
 16376 0a04 0100     		.2byte	0x1
 16377 0a06 55       		.byte	0x55
 16378 0a07 00000000 		.4byte	0
 16379 0a0b 00000000 		.4byte	0
 16380              	.LLST121:
 16381 0a0f 6A050000 		.4byte	.LVL84-.Ltext0
 16382 0a13 6E050000 		.4byte	.LVL85-.Ltext0
 16383 0a17 0200     		.2byte	0x2
 16384 0a19 90       		.byte	0x90
 16385 0a1a 47       		.uleb128 0x47
 16386 0a1b 00000000 		.4byte	0
 16387 0a1f 00000000 		.4byte	0
 16388              	.LLST122:
 16389 0a23 6E050000 		.4byte	.LVL85-.Ltext0
 16390 0a27 7C050000 		.4byte	.LVL86-.Ltext0
 16391 0a2b 0600     		.2byte	0x6
 16392 0a2d 9E       		.byte	0x9e
 16393 0a2e 04       		.uleb128 0x4
 16394 0a2f 49FFB846 		.4byte	0x46b8ff49
 16395 0a33 00000000 		.4byte	0
 16396 0a37 00000000 		.4byte	0
 16397              	.LLST125:
 16398 0a3b 6E050000 		.4byte	.LVL85-.Ltext0
 16399 0a3f 7C050000 		.4byte	.LVL86-.Ltext0
 16400 0a43 0C00     		.2byte	0xc
 16401 0a45 F5       		.byte	0xf5
 16402 0a46 49       		.uleb128 0x49
 16403 0a47 25       		.uleb128 0x25
 16404 0a48 F4       		.byte	0xf4
 16405 0a49 25       		.uleb128 0x25
 16406 0a4a 04       		.byte	0x4
 16407 0a4b 49FFB846 		.4byte	0x46b8ff49
 16408 0a4f 1C       		.byte	0x1c
 16409 0a50 9F       		.byte	0x9f
 16410 0a51 00000000 		.4byte	0
 16411 0a55 00000000 		.4byte	0
 16412              	.LLST126:
ARM GAS  /tmp/ccJJl1OT.s 			page 289


 16413 0a59 98050000 		.4byte	.LVL88-.Ltext0
 16414 0a5d BA050000 		.4byte	.LVL92-.Ltext0
 16415 0a61 0100     		.2byte	0x1
 16416 0a63 54       		.byte	0x54
 16417 0a64 00000000 		.4byte	0
 16418 0a68 00000000 		.4byte	0
 16419              	.LLST127:
 16420 0a6c 98050000 		.4byte	.LVL88-.Ltext0
 16421 0a70 BA050000 		.4byte	.LVL92-.Ltext0
 16422 0a74 0100     		.2byte	0x1
 16423 0a76 55       		.byte	0x55
 16424 0a77 00000000 		.4byte	0
 16425 0a7b 00000000 		.4byte	0
 16426              	.LLST128:
 16427 0a7f A4050000 		.4byte	.LVL89-.Ltext0
 16428 0a83 A8050000 		.4byte	.LVL90-.Ltext0
 16429 0a87 0200     		.2byte	0x2
 16430 0a89 90       		.byte	0x90
 16431 0a8a 48       		.uleb128 0x48
 16432 0a8b 00000000 		.4byte	0
 16433 0a8f 00000000 		.4byte	0
 16434              	.LLST129:
 16435 0a93 A8050000 		.4byte	.LVL90-.Ltext0
 16436 0a97 B6050000 		.4byte	.LVL91-.Ltext0
 16437 0a9b 0600     		.2byte	0x6
 16438 0a9d 9E       		.byte	0x9e
 16439 0a9e 04       		.uleb128 0x4
 16440 0a9f 49FFB846 		.4byte	0x46b8ff49
 16441 0aa3 00000000 		.4byte	0
 16442 0aa7 00000000 		.4byte	0
 16443              	.LLST132:
 16444 0aab A8050000 		.4byte	.LVL90-.Ltext0
 16445 0aaf B6050000 		.4byte	.LVL91-.Ltext0
 16446 0ab3 0C00     		.2byte	0xc
 16447 0ab5 F5       		.byte	0xf5
 16448 0ab6 49       		.uleb128 0x49
 16449 0ab7 25       		.uleb128 0x25
 16450 0ab8 F4       		.byte	0xf4
 16451 0ab9 25       		.uleb128 0x25
 16452 0aba 04       		.byte	0x4
 16453 0abb 49FFB846 		.4byte	0x46b8ff49
 16454 0abf 1C       		.byte	0x1c
 16455 0ac0 9F       		.byte	0x9f
 16456 0ac1 00000000 		.4byte	0
 16457 0ac5 00000000 		.4byte	0
 16458              	.LLST133:
 16459 0ac9 D2050000 		.4byte	.LVL93-.Ltext0
 16460 0acd F0050000 		.4byte	.LVL97-.Ltext0
 16461 0ad1 0100     		.2byte	0x1
 16462 0ad3 54       		.byte	0x54
 16463 0ad4 00000000 		.4byte	0
 16464 0ad8 00000000 		.4byte	0
 16465              	.LLST134:
 16466 0adc D2050000 		.4byte	.LVL93-.Ltext0
 16467 0ae0 F0050000 		.4byte	.LVL97-.Ltext0
 16468 0ae4 0100     		.2byte	0x1
 16469 0ae6 55       		.byte	0x55
ARM GAS  /tmp/ccJJl1OT.s 			page 290


 16470 0ae7 00000000 		.4byte	0
 16471 0aeb 00000000 		.4byte	0
 16472              	.LLST135:
 16473 0aef DA050000 		.4byte	.LVL94-.Ltext0
 16474 0af3 DE050000 		.4byte	.LVL95-.Ltext0
 16475 0af7 0200     		.2byte	0x2
 16476 0af9 90       		.byte	0x90
 16477 0afa 49       		.uleb128 0x49
 16478 0afb 00000000 		.4byte	0
 16479 0aff 00000000 		.4byte	0
 16480              	.LLST136:
 16481 0b03 DE050000 		.4byte	.LVL95-.Ltext0
 16482 0b07 EC050000 		.4byte	.LVL96-.Ltext0
 16483 0b0b 0600     		.2byte	0x6
 16484 0b0d 9E       		.byte	0x9e
 16485 0b0e 04       		.uleb128 0x4
 16486 0b0f 49FFB846 		.4byte	0x46b8ff49
 16487 0b13 00000000 		.4byte	0
 16488 0b17 00000000 		.4byte	0
 16489              	.LLST139:
 16490 0b1b DE050000 		.4byte	.LVL95-.Ltext0
 16491 0b1f EC050000 		.4byte	.LVL96-.Ltext0
 16492 0b23 0C00     		.2byte	0xc
 16493 0b25 F5       		.byte	0xf5
 16494 0b26 4D       		.uleb128 0x4d
 16495 0b27 25       		.uleb128 0x25
 16496 0b28 F4       		.byte	0xf4
 16497 0b29 25       		.uleb128 0x25
 16498 0b2a 04       		.byte	0x4
 16499 0b2b 49FFB846 		.4byte	0x46b8ff49
 16500 0b2f 1C       		.byte	0x1c
 16501 0b30 9F       		.byte	0x9f
 16502 0b31 00000000 		.4byte	0
 16503 0b35 00000000 		.4byte	0
 16504              	.LLST140:
 16505 0b39 1A060000 		.4byte	.LVL98-.Ltext0
 16506 0b3d 28060000 		.4byte	.LVL100-.Ltext0
 16507 0b41 0100     		.2byte	0x1
 16508 0b43 54       		.byte	0x54
 16509 0b44 28060000 		.4byte	.LVL100-.Ltext0
 16510 0b48 2C060000 		.4byte	.LVL101-.Ltext0
 16511 0b4c 0200     		.2byte	0x2
 16512 0b4e 90       		.byte	0x90
 16513 0b4f 45       		.uleb128 0x45
 16514 0b50 2C060000 		.4byte	.LVL101-.Ltext0
 16515 0b54 54060000 		.4byte	.LVL105-.Ltext0
 16516 0b58 0300     		.2byte	0x3
 16517 0b5a 91       		.byte	0x91
 16518 0b5b F47E     		.sleb128 -140
 16519 0b5d 00000000 		.4byte	0
 16520 0b61 00000000 		.4byte	0
 16521              	.LLST141:
 16522 0b65 1A060000 		.4byte	.LVL98-.Ltext0
 16523 0b69 1E060000 		.4byte	.LVL99-.Ltext0
 16524 0b6d 0100     		.2byte	0x1
 16525 0b6f 5E       		.byte	0x5e
 16526 0b70 00000000 		.4byte	0
ARM GAS  /tmp/ccJJl1OT.s 			page 291


 16527 0b74 00000000 		.4byte	0
 16528              	.LLST142:
 16529 0b78 1A060000 		.4byte	.LVL98-.Ltext0
 16530 0b7c 1E060000 		.4byte	.LVL99-.Ltext0
 16531 0b80 0300     		.2byte	0x3
 16532 0b82 08       		.byte	0x8
 16533 0b83 97       		.byte	0x97
 16534 0b84 9F       		.byte	0x9f
 16535 0b85 00000000 		.4byte	0
 16536 0b89 00000000 		.4byte	0
 16537              	.LLST144:
 16538 0b8d 34060000 		.4byte	.LVL102-.Ltext0
 16539 0b91 3A060000 		.4byte	.LVL103-.Ltext0
 16540 0b95 0200     		.2byte	0x2
 16541 0b97 90       		.byte	0x90
 16542 0b98 45       		.uleb128 0x45
 16543 0b99 00000000 		.4byte	0
 16544 0b9d 00000000 		.4byte	0
 16545              	.LLST145:
 16546 0ba1 3A060000 		.4byte	.LVL103-.Ltext0
 16547 0ba5 4A060000 		.4byte	.LVL104-.Ltext0
 16548 0ba9 0600     		.2byte	0x6
 16549 0bab 9E       		.byte	0x9e
 16550 0bac 04       		.uleb128 0x4
 16551 0bad 49FFB846 		.4byte	0x46b8ff49
 16552 0bb1 00000000 		.4byte	0
 16553 0bb5 00000000 		.4byte	0
 16554              	.LLST148:
 16555 0bb9 3A060000 		.4byte	.LVL103-.Ltext0
 16556 0bbd 4A060000 		.4byte	.LVL104-.Ltext0
 16557 0bc1 0C00     		.2byte	0xc
 16558 0bc3 F5       		.byte	0xf5
 16559 0bc4 4D       		.uleb128 0x4d
 16560 0bc5 25       		.uleb128 0x25
 16561 0bc6 F4       		.byte	0xf4
 16562 0bc7 25       		.uleb128 0x25
 16563 0bc8 04       		.byte	0x4
 16564 0bc9 49FFB846 		.4byte	0x46b8ff49
 16565 0bcd 1C       		.byte	0x1c
 16566 0bce 9F       		.byte	0x9f
 16567 0bcf 00000000 		.4byte	0
 16568 0bd3 00000000 		.4byte	0
 16569              	.LLST149:
 16570 0bd7 54060000 		.4byte	.LVL105-.Ltext0
 16571 0bdb A4060000 		.4byte	.LVL112-.Ltext0
 16572 0bdf 0100     		.2byte	0x1
 16573 0be1 54       		.byte	0x54
 16574 0be2 00000000 		.4byte	0
 16575 0be6 00000000 		.4byte	0
 16576              	.LLST150:
 16577 0bea 54060000 		.4byte	.LVL105-.Ltext0
 16578 0bee 68060000 		.4byte	.LVL107-.Ltext0
 16579 0bf2 0100     		.2byte	0x1
 16580 0bf4 54       		.byte	0x54
 16581 0bf5 00000000 		.4byte	0
 16582 0bf9 00000000 		.4byte	0
 16583              	.LLST151:
ARM GAS  /tmp/ccJJl1OT.s 			page 292


 16584 0bfd 54060000 		.4byte	.LVL105-.Ltext0
 16585 0c01 58060000 		.4byte	.LVL106-.Ltext0
 16586 0c05 0300     		.2byte	0x3
 16587 0c07 08       		.byte	0x8
 16588 0c08 97       		.byte	0x97
 16589 0c09 9F       		.byte	0x9f
 16590 0c0a 00000000 		.4byte	0
 16591 0c0e 00000000 		.4byte	0
 16592              	.LLST152:
 16593 0c12 54060000 		.4byte	.LVL105-.Ltext0
 16594 0c16 58060000 		.4byte	.LVL106-.Ltext0
 16595 0c1a 0100     		.2byte	0x1
 16596 0c1c 54       		.byte	0x54
 16597 0c1d 00000000 		.4byte	0
 16598 0c21 00000000 		.4byte	0
 16599              	.LLST153:
 16600 0c25 6C060000 		.4byte	.LVL108-.Ltext0
 16601 0c29 76060000 		.4byte	.LVL109-.Ltext0
 16602 0c2d 0100     		.2byte	0x1
 16603 0c2f 55       		.byte	0x55
 16604 0c30 00000000 		.4byte	0
 16605 0c34 00000000 		.4byte	0
 16606              	.LLST154:
 16607 0c38 6C060000 		.4byte	.LVL108-.Ltext0
 16608 0c3c 76060000 		.4byte	.LVL109-.Ltext0
 16609 0c40 0300     		.2byte	0x3
 16610 0c42 08       		.byte	0x8
 16611 0c43 97       		.byte	0x97
 16612 0c44 9F       		.byte	0x9f
 16613 0c45 00000000 		.4byte	0
 16614 0c49 00000000 		.4byte	0
 16615              	.LLST156:
 16616 0c4d 76060000 		.4byte	.LVL109-.Ltext0
 16617 0c51 9A060000 		.4byte	.LVL110-.Ltext0
 16618 0c55 0200     		.2byte	0x2
 16619 0c57 90       		.byte	0x90
 16620 0c58 4A       		.uleb128 0x4a
 16621 0c59 00000000 		.4byte	0
 16622 0c5d 00000000 		.4byte	0
 16623              	.LLST157:
 16624 0c61 9A060000 		.4byte	.LVL110-.Ltext0
 16625 0c65 A0060000 		.4byte	.LVL111-.Ltext0
 16626 0c69 0600     		.2byte	0x6
 16627 0c6b 9E       		.byte	0x9e
 16628 0c6c 04       		.uleb128 0x4
 16629 0c6d 49FFB846 		.4byte	0x46b8ff49
 16630 0c71 00000000 		.4byte	0
 16631 0c75 00000000 		.4byte	0
 16632              	.LLST160:
 16633 0c79 9A060000 		.4byte	.LVL110-.Ltext0
 16634 0c7d A0060000 		.4byte	.LVL111-.Ltext0
 16635 0c81 0C00     		.2byte	0xc
 16636 0c83 F5       		.byte	0xf5
 16637 0c84 44       		.uleb128 0x44
 16638 0c85 25       		.uleb128 0x25
 16639 0c86 F4       		.byte	0xf4
 16640 0c87 25       		.uleb128 0x25
ARM GAS  /tmp/ccJJl1OT.s 			page 293


 16641 0c88 04       		.byte	0x4
 16642 0c89 49FFB846 		.4byte	0x46b8ff49
 16643 0c8d 1C       		.byte	0x1c
 16644 0c8e 9F       		.byte	0x9f
 16645 0c8f 00000000 		.4byte	0
 16646 0c93 00000000 		.4byte	0
 16647              	.LLST161:
 16648 0c97 AC060000 		.4byte	.LVL113-.Ltext0
 16649 0c9b C6060000 		.4byte	.LVL116-.Ltext0
 16650 0c9f 0100     		.2byte	0x1
 16651 0ca1 54       		.byte	0x54
 16652 0ca2 00000000 		.4byte	0
 16653 0ca6 00000000 		.4byte	0
 16654              	.LLST162:
 16655 0caa AC060000 		.4byte	.LVL113-.Ltext0
 16656 0cae B4060000 		.4byte	.LVL114-.Ltext0
 16657 0cb2 0200     		.2byte	0x2
 16658 0cb4 90       		.byte	0x90
 16659 0cb5 46       		.uleb128 0x46
 16660 0cb6 00000000 		.4byte	0
 16661 0cba 00000000 		.4byte	0
 16662              	.LLST163:
 16663 0cbe B4060000 		.4byte	.LVL114-.Ltext0
 16664 0cc2 C2060000 		.4byte	.LVL115-.Ltext0
 16665 0cc6 0600     		.2byte	0x6
 16666 0cc8 9E       		.byte	0x9e
 16667 0cc9 04       		.uleb128 0x4
 16668 0cca 49FFB846 		.4byte	0x46b8ff49
 16669 0cce 00000000 		.4byte	0
 16670 0cd2 00000000 		.4byte	0
 16671              	.LLST166:
 16672 0cd6 B4060000 		.4byte	.LVL114-.Ltext0
 16673 0cda C2060000 		.4byte	.LVL115-.Ltext0
 16674 0cde 0C00     		.2byte	0xc
 16675 0ce0 F5       		.byte	0xf5
 16676 0ce1 4A       		.uleb128 0x4a
 16677 0ce2 25       		.uleb128 0x25
 16678 0ce3 F4       		.byte	0xf4
 16679 0ce4 25       		.uleb128 0x25
 16680 0ce5 04       		.byte	0x4
 16681 0ce6 49FFB846 		.4byte	0x46b8ff49
 16682 0cea 1C       		.byte	0x1c
 16683 0ceb 9F       		.byte	0x9f
 16684 0cec 00000000 		.4byte	0
 16685 0cf0 00000000 		.4byte	0
 16686              	.LLST167:
 16687 0cf4 CE060000 		.4byte	.LVL117-.Ltext0
 16688 0cf8 E8060000 		.4byte	.LVL120-.Ltext0
 16689 0cfc 0100     		.2byte	0x1
 16690 0cfe 54       		.byte	0x54
 16691 0cff 00000000 		.4byte	0
 16692 0d03 00000000 		.4byte	0
 16693              	.LLST168:
 16694 0d07 CE060000 		.4byte	.LVL117-.Ltext0
 16695 0d0b D6060000 		.4byte	.LVL118-.Ltext0
 16696 0d0f 0200     		.2byte	0x2
 16697 0d11 90       		.byte	0x90
ARM GAS  /tmp/ccJJl1OT.s 			page 294


 16698 0d12 47       		.uleb128 0x47
 16699 0d13 00000000 		.4byte	0
 16700 0d17 00000000 		.4byte	0
 16701              	.LLST169:
 16702 0d1b D6060000 		.4byte	.LVL118-.Ltext0
 16703 0d1f E4060000 		.4byte	.LVL119-.Ltext0
 16704 0d23 0600     		.2byte	0x6
 16705 0d25 9E       		.byte	0x9e
 16706 0d26 04       		.uleb128 0x4
 16707 0d27 49FFB846 		.4byte	0x46b8ff49
 16708 0d2b 00000000 		.4byte	0
 16709 0d2f 00000000 		.4byte	0
 16710              	.LLST172:
 16711 0d33 D6060000 		.4byte	.LVL118-.Ltext0
 16712 0d37 E4060000 		.4byte	.LVL119-.Ltext0
 16713 0d3b 0C00     		.2byte	0xc
 16714 0d3d F5       		.byte	0xf5
 16715 0d3e 4A       		.uleb128 0x4a
 16716 0d3f 25       		.uleb128 0x25
 16717 0d40 F4       		.byte	0xf4
 16718 0d41 25       		.uleb128 0x25
 16719 0d42 04       		.byte	0x4
 16720 0d43 49FFB846 		.4byte	0x46b8ff49
 16721 0d47 1C       		.byte	0x1c
 16722 0d48 9F       		.byte	0x9f
 16723 0d49 00000000 		.4byte	0
 16724 0d4d 00000000 		.4byte	0
 16725              	.LLST173:
 16726 0d51 F0060000 		.4byte	.LVL121-.Ltext0
 16727 0d55 22070000 		.4byte	.LVL124-.Ltext0
 16728 0d59 0100     		.2byte	0x1
 16729 0d5b 54       		.byte	0x54
 16730 0d5c 22070000 		.4byte	.LVL124-.Ltext0
 16731 0d60 44070000 		.4byte	.LVL125-.Ltext0
 16732 0d64 0B00     		.2byte	0xb
 16733 0d66 73       		.byte	0x73
 16734 0d67 0D       		.sleb128 13
 16735 0d68 94       		.byte	0x94
 16736 0d69 01       		.byte	0x1
 16737 0d6a 08       		.byte	0x8
 16738 0d6b FF       		.byte	0xff
 16739 0d6c 1A       		.byte	0x1a
 16740 0d6d 7C       		.byte	0x7c
 16741 0d6e 00       		.sleb128 0
 16742 0d6f 22       		.byte	0x22
 16743 0d70 9F       		.byte	0x9f
 16744 0d71 00000000 		.4byte	0
 16745 0d75 00000000 		.4byte	0
 16746              	.LLST174:
 16747 0d79 F0060000 		.4byte	.LVL121-.Ltext0
 16748 0d7d F8060000 		.4byte	.LVL122-.Ltext0
 16749 0d81 0200     		.2byte	0x2
 16750 0d83 90       		.byte	0x90
 16751 0d84 48       		.uleb128 0x48
 16752 0d85 00000000 		.4byte	0
 16753 0d89 00000000 		.4byte	0
 16754              	.LLST175:
ARM GAS  /tmp/ccJJl1OT.s 			page 295


 16755 0d8d F8060000 		.4byte	.LVL122-.Ltext0
 16756 0d91 0E070000 		.4byte	.LVL123-.Ltext0
 16757 0d95 0600     		.2byte	0x6
 16758 0d97 9E       		.byte	0x9e
 16759 0d98 04       		.uleb128 0x4
 16760 0d99 49FFB846 		.4byte	0x46b8ff49
 16761 0d9d 00000000 		.4byte	0
 16762 0da1 00000000 		.4byte	0
 16763              	.LLST178:
 16764 0da5 F8060000 		.4byte	.LVL122-.Ltext0
 16765 0da9 0E070000 		.4byte	.LVL123-.Ltext0
 16766 0dad 0C00     		.2byte	0xc
 16767 0daf F5       		.byte	0xf5
 16768 0db0 4A       		.uleb128 0x4a
 16769 0db1 25       		.uleb128 0x25
 16770 0db2 F4       		.byte	0xf4
 16771 0db3 25       		.uleb128 0x25
 16772 0db4 04       		.byte	0x4
 16773 0db5 49FFB846 		.4byte	0x46b8ff49
 16774 0db9 1C       		.byte	0x1c
 16775 0dba 9F       		.byte	0x9f
 16776 0dbb 00000000 		.4byte	0
 16777 0dbf 00000000 		.4byte	0
 16778              	.LLST179:
 16779 0dc3 50070000 		.4byte	.LVL126-.Ltext0
 16780 0dc7 74070000 		.4byte	.LVL128-.Ltext0
 16781 0dcb 0300     		.2byte	0x3
 16782 0dcd 91       		.byte	0x91
 16783 0dce F47E     		.sleb128 -140
 16784 0dd0 00000000 		.4byte	0
 16785 0dd4 00000000 		.4byte	0
 16786              	.LLST180:
 16787 0dd8 50070000 		.4byte	.LVL126-.Ltext0
 16788 0ddc 54070000 		.4byte	.LVL127-.Ltext0
 16789 0de0 0200     		.2byte	0x2
 16790 0de2 90       		.byte	0x90
 16791 0de3 45       		.uleb128 0x45
 16792 0de4 00000000 		.4byte	0
 16793 0de8 00000000 		.4byte	0
 16794              	.LLST181:
 16795 0dec AE070000 		.4byte	.LVL130-.Ltext0
 16796 0df0 B0070000 		.4byte	.LVL131-.Ltext0
 16797 0df4 0100     		.2byte	0x1
 16798 0df6 55       		.byte	0x55
 16799 0df7 B0070000 		.4byte	.LVL131-.Ltext0
 16800 0dfb E0070000 		.4byte	.LVL136-.Ltext0
 16801 0dff 0200     		.2byte	0x2
 16802 0e01 90       		.byte	0x90
 16803 0e02 48       		.uleb128 0x48
 16804 0e03 E0070000 		.4byte	.LVL136-.Ltext0
 16805 0e07 06080000 		.4byte	.LVL140-.Ltext0
 16806 0e0b 0300     		.2byte	0x3
 16807 0e0d 91       		.byte	0x91
 16808 0e0e F47E     		.sleb128 -140
 16809 0e10 00000000 		.4byte	0
 16810 0e14 00000000 		.4byte	0
 16811              	.LLST182:
ARM GAS  /tmp/ccJJl1OT.s 			page 296


 16812 0e18 AE070000 		.4byte	.LVL130-.Ltext0
 16813 0e1c 06080000 		.4byte	.LVL140-.Ltext0
 16814 0e20 0100     		.2byte	0x1
 16815 0e22 54       		.byte	0x54
 16816 0e23 00000000 		.4byte	0
 16817 0e27 00000000 		.4byte	0
 16818              	.LLST183:
 16819 0e2b AE070000 		.4byte	.LVL130-.Ltext0
 16820 0e2f C0070000 		.4byte	.LVL133-.Ltext0
 16821 0e33 0100     		.2byte	0x1
 16822 0e35 54       		.byte	0x54
 16823 0e36 00000000 		.4byte	0
 16824 0e3a 00000000 		.4byte	0
 16825              	.LLST184:
 16826 0e3e AE070000 		.4byte	.LVL130-.Ltext0
 16827 0e42 B8070000 		.4byte	.LVL132-.Ltext0
 16828 0e46 0300     		.2byte	0x3
 16829 0e48 08       		.byte	0x8
 16830 0e49 97       		.byte	0x97
 16831 0e4a 9F       		.byte	0x9f
 16832 0e4b 00000000 		.4byte	0
 16833 0e4f 00000000 		.4byte	0
 16834              	.LLST185:
 16835 0e53 AE070000 		.4byte	.LVL130-.Ltext0
 16836 0e57 B8070000 		.4byte	.LVL132-.Ltext0
 16837 0e5b 0100     		.2byte	0x1
 16838 0e5d 54       		.byte	0x54
 16839 0e5e 00000000 		.4byte	0
 16840 0e62 00000000 		.4byte	0
 16841              	.LLST186:
 16842 0e66 F0070000 		.4byte	.LVL138-.Ltext0
 16843 0e6a 02080000 		.4byte	.LVL139-.Ltext0
 16844 0e6e 0600     		.2byte	0x6
 16845 0e70 9E       		.byte	0x9e
 16846 0e71 04       		.uleb128 0x4
 16847 0e72 49FFB846 		.4byte	0x46b8ff49
 16848 0e76 00000000 		.4byte	0
 16849 0e7a 00000000 		.4byte	0
 16850              	.LLST189:
 16851 0e7e F0070000 		.4byte	.LVL138-.Ltext0
 16852 0e82 02080000 		.4byte	.LVL139-.Ltext0
 16853 0e86 0C00     		.2byte	0xc
 16854 0e88 F5       		.byte	0xf5
 16855 0e89 4A       		.uleb128 0x4a
 16856 0e8a 25       		.uleb128 0x25
 16857 0e8b F4       		.byte	0xf4
 16858 0e8c 25       		.uleb128 0x25
 16859 0e8d 04       		.byte	0x4
 16860 0e8e 49FFB846 		.4byte	0x46b8ff49
 16861 0e92 1C       		.byte	0x1c
 16862 0e93 9F       		.byte	0x9f
 16863 0e94 00000000 		.4byte	0
 16864 0e98 00000000 		.4byte	0
 16865              	.LLST190:
 16866 0e9c C8070000 		.4byte	.LVL134-.Ltext0
 16867 0ea0 D4070000 		.4byte	.LVL135-.Ltext0
 16868 0ea4 0100     		.2byte	0x1
ARM GAS  /tmp/ccJJl1OT.s 			page 297


 16869 0ea6 5E       		.byte	0x5e
 16870 0ea7 00000000 		.4byte	0
 16871 0eab 00000000 		.4byte	0
 16872              	.LLST191:
 16873 0eaf C8070000 		.4byte	.LVL134-.Ltext0
 16874 0eb3 D4070000 		.4byte	.LVL135-.Ltext0
 16875 0eb7 0300     		.2byte	0x3
 16876 0eb9 08       		.byte	0x8
 16877 0eba 97       		.byte	0x97
 16878 0ebb 9F       		.byte	0x9f
 16879 0ebc 00000000 		.4byte	0
 16880 0ec0 00000000 		.4byte	0
 16881              	.LLST193:
 16882 0ec4 E8070000 		.4byte	.LVL137-.Ltext0
 16883 0ec8 F0070000 		.4byte	.LVL138-.Ltext0
 16884 0ecc 0200     		.2byte	0x2
 16885 0ece 90       		.byte	0x90
 16886 0ecf 48       		.uleb128 0x48
 16887 0ed0 00000000 		.4byte	0
 16888 0ed4 00000000 		.4byte	0
 16889              	.LLST194:
 16890 0ed8 2A080000 		.4byte	.LVL141-.Ltext0
 16891 0edc 4C080000 		.4byte	.LVL145-.Ltext0
 16892 0ee0 0100     		.2byte	0x1
 16893 0ee2 5C       		.byte	0x5c
 16894 0ee3 00000000 		.4byte	0
 16895 0ee7 00000000 		.4byte	0
 16896              	.LLST195:
 16897 0eeb 2A080000 		.4byte	.LVL141-.Ltext0
 16898 0eef 4C080000 		.4byte	.LVL145-.Ltext0
 16899 0ef3 0100     		.2byte	0x1
 16900 0ef5 54       		.byte	0x54
 16901 0ef6 00000000 		.4byte	0
 16902 0efa 00000000 		.4byte	0
 16903              	.LLST196:
 16904 0efe 36080000 		.4byte	.LVL142-.Ltext0
 16905 0f02 3A080000 		.4byte	.LVL143-.Ltext0
 16906 0f06 0200     		.2byte	0x2
 16907 0f08 90       		.byte	0x90
 16908 0f09 49       		.uleb128 0x49
 16909 0f0a 00000000 		.4byte	0
 16910 0f0e 00000000 		.4byte	0
 16911              	.LLST197:
 16912 0f12 3A080000 		.4byte	.LVL143-.Ltext0
 16913 0f16 48080000 		.4byte	.LVL144-.Ltext0
 16914 0f1a 0600     		.2byte	0x6
 16915 0f1c 9E       		.byte	0x9e
 16916 0f1d 04       		.uleb128 0x4
 16917 0f1e 49FFB846 		.4byte	0x46b8ff49
 16918 0f22 00000000 		.4byte	0
 16919 0f26 00000000 		.4byte	0
 16920              	.LLST200:
 16921 0f2a 3A080000 		.4byte	.LVL143-.Ltext0
 16922 0f2e 48080000 		.4byte	.LVL144-.Ltext0
 16923 0f32 0C00     		.2byte	0xc
 16924 0f34 F5       		.byte	0xf5
 16925 0f35 4A       		.uleb128 0x4a
ARM GAS  /tmp/ccJJl1OT.s 			page 298


 16926 0f36 25       		.uleb128 0x25
 16927 0f37 F4       		.byte	0xf4
 16928 0f38 25       		.uleb128 0x25
 16929 0f39 04       		.byte	0x4
 16930 0f3a 49FFB846 		.4byte	0x46b8ff49
 16931 0f3e 1C       		.byte	0x1c
 16932 0f3f 9F       		.byte	0x9f
 16933 0f40 00000000 		.4byte	0
 16934 0f44 00000000 		.4byte	0
 16935              	.LLST201:
 16936 0f48 64080000 		.4byte	.LVL146-.Ltext0
 16937 0f4c 82080000 		.4byte	.LVL150-.Ltext0
 16938 0f50 0100     		.2byte	0x1
 16939 0f52 5C       		.byte	0x5c
 16940 0f53 00000000 		.4byte	0
 16941 0f57 00000000 		.4byte	0
 16942              	.LLST202:
 16943 0f5b 64080000 		.4byte	.LVL146-.Ltext0
 16944 0f5f 82080000 		.4byte	.LVL150-.Ltext0
 16945 0f63 0100     		.2byte	0x1
 16946 0f65 54       		.byte	0x54
 16947 0f66 00000000 		.4byte	0
 16948 0f6a 00000000 		.4byte	0
 16949              	.LLST203:
 16950 0f6e 6C080000 		.4byte	.LVL147-.Ltext0
 16951 0f72 70080000 		.4byte	.LVL148-.Ltext0
 16952 0f76 0200     		.2byte	0x2
 16953 0f78 90       		.byte	0x90
 16954 0f79 4A       		.uleb128 0x4a
 16955 0f7a 00000000 		.4byte	0
 16956 0f7e 00000000 		.4byte	0
 16957              	.LLST204:
 16958 0f82 70080000 		.4byte	.LVL148-.Ltext0
 16959 0f86 7E080000 		.4byte	.LVL149-.Ltext0
 16960 0f8a 0600     		.2byte	0x6
 16961 0f8c 9E       		.byte	0x9e
 16962 0f8d 04       		.uleb128 0x4
 16963 0f8e 49FFB846 		.4byte	0x46b8ff49
 16964 0f92 00000000 		.4byte	0
 16965 0f96 00000000 		.4byte	0
 16966              	.LLST207:
 16967 0f9a 70080000 		.4byte	.LVL148-.Ltext0
 16968 0f9e 7E080000 		.4byte	.LVL149-.Ltext0
 16969 0fa2 0C00     		.2byte	0xc
 16970 0fa4 F5       		.byte	0xf5
 16971 0fa5 4D       		.uleb128 0x4d
 16972 0fa6 25       		.uleb128 0x25
 16973 0fa7 F4       		.byte	0xf4
 16974 0fa8 25       		.uleb128 0x25
 16975 0fa9 04       		.byte	0x4
 16976 0faa 49FFB846 		.4byte	0x46b8ff49
 16977 0fae 1C       		.byte	0x1c
 16978 0faf 9F       		.byte	0x9f
 16979 0fb0 00000000 		.4byte	0
 16980 0fb4 00000000 		.4byte	0
 16981              	.LLST208:
 16982 0fb8 B0080000 		.4byte	.LVL151-.Ltext0
ARM GAS  /tmp/ccJJl1OT.s 			page 299


 16983 0fbc EA080000 		.4byte	.LVL156-.Ltext0
 16984 0fc0 0100     		.2byte	0x1
 16985 0fc2 5C       		.byte	0x5c
 16986 0fc3 00000000 		.4byte	0
 16987 0fc7 00000000 		.4byte	0
 16988              	.LLST209:
 16989 0fcb B0080000 		.4byte	.LVL151-.Ltext0
 16990 0fcf B4080000 		.4byte	.LVL152-.Ltext0
 16991 0fd3 0100     		.2byte	0x1
 16992 0fd5 5E       		.byte	0x5e
 16993 0fd6 00000000 		.4byte	0
 16994 0fda 00000000 		.4byte	0
 16995              	.LLST210:
 16996 0fde B0080000 		.4byte	.LVL151-.Ltext0
 16997 0fe2 B4080000 		.4byte	.LVL152-.Ltext0
 16998 0fe6 0300     		.2byte	0x3
 16999 0fe8 08       		.byte	0x8
 17000 0fe9 97       		.byte	0x97
 17001 0fea 9F       		.byte	0x9f
 17002 0feb 00000000 		.4byte	0
 17003 0fef 00000000 		.4byte	0
 17004              	.LLST212:
 17005 0ff3 CA080000 		.4byte	.LVL153-.Ltext0
 17006 0ff7 D0080000 		.4byte	.LVL154-.Ltext0
 17007 0ffb 0200     		.2byte	0x2
 17008 0ffd 90       		.byte	0x90
 17009 0ffe 4C       		.uleb128 0x4c
 17010 0fff 00000000 		.4byte	0
 17011 1003 00000000 		.4byte	0
 17012              	.LLST213:
 17013 1007 D0080000 		.4byte	.LVL154-.Ltext0
 17014 100b E0080000 		.4byte	.LVL155-.Ltext0
 17015 100f 0600     		.2byte	0x6
 17016 1011 9E       		.byte	0x9e
 17017 1012 04       		.uleb128 0x4
 17018 1013 49FFB846 		.4byte	0x46b8ff49
 17019 1017 00000000 		.4byte	0
 17020 101b 00000000 		.4byte	0
 17021              	.LLST216:
 17022 101f D0080000 		.4byte	.LVL154-.Ltext0
 17023 1023 E0080000 		.4byte	.LVL155-.Ltext0
 17024 1027 0C00     		.2byte	0xc
 17025 1029 F5       		.byte	0xf5
 17026 102a 4D       		.uleb128 0x4d
 17027 102b 25       		.uleb128 0x25
 17028 102c F4       		.byte	0xf4
 17029 102d 25       		.uleb128 0x25
 17030 102e 04       		.byte	0x4
 17031 102f 49FFB846 		.4byte	0x46b8ff49
 17032 1033 1C       		.byte	0x1c
 17033 1034 9F       		.byte	0x9f
 17034 1035 00000000 		.4byte	0
 17035 1039 00000000 		.4byte	0
 17036              	.LLST217:
 17037 103d EA080000 		.4byte	.LVL156-.Ltext0
 17038 1041 3A090000 		.4byte	.LVL163-.Ltext0
 17039 1045 0100     		.2byte	0x1
ARM GAS  /tmp/ccJJl1OT.s 			page 300


 17040 1047 54       		.byte	0x54
 17041 1048 00000000 		.4byte	0
 17042 104c 00000000 		.4byte	0
 17043              	.LLST218:
 17044 1050 EA080000 		.4byte	.LVL156-.Ltext0
 17045 1054 00090000 		.4byte	.LVL158-.Ltext0
 17046 1058 0100     		.2byte	0x1
 17047 105a 54       		.byte	0x54
 17048 105b 00000000 		.4byte	0
 17049 105f 00000000 		.4byte	0
 17050              	.LLST219:
 17051 1063 EA080000 		.4byte	.LVL156-.Ltext0
 17052 1067 F0080000 		.4byte	.LVL157-.Ltext0
 17053 106b 0300     		.2byte	0x3
 17054 106d 08       		.byte	0x8
 17055 106e 97       		.byte	0x97
 17056 106f 9F       		.byte	0x9f
 17057 1070 00000000 		.4byte	0
 17058 1074 00000000 		.4byte	0
 17059              	.LLST220:
 17060 1078 EA080000 		.4byte	.LVL156-.Ltext0
 17061 107c F0080000 		.4byte	.LVL157-.Ltext0
 17062 1080 0100     		.2byte	0x1
 17063 1082 54       		.byte	0x54
 17064 1083 00000000 		.4byte	0
 17065 1087 00000000 		.4byte	0
 17066              	.LLST221:
 17067 108b 08090000 		.4byte	.LVL159-.Ltext0
 17068 108f 14090000 		.4byte	.LVL160-.Ltext0
 17069 1093 0100     		.2byte	0x1
 17070 1095 5E       		.byte	0x5e
 17071 1096 00000000 		.4byte	0
 17072 109a 00000000 		.4byte	0
 17073              	.LLST222:
 17074 109e 08090000 		.4byte	.LVL159-.Ltext0
 17075 10a2 14090000 		.4byte	.LVL160-.Ltext0
 17076 10a6 0300     		.2byte	0x3
 17077 10a8 08       		.byte	0x8
 17078 10a9 97       		.byte	0x97
 17079 10aa 9F       		.byte	0x9f
 17080 10ab 00000000 		.4byte	0
 17081 10af 00000000 		.4byte	0
 17082              	.LLST224:
 17083 10b3 14090000 		.4byte	.LVL160-.Ltext0
 17084 10b7 28090000 		.4byte	.LVL161-.Ltext0
 17085 10bb 0200     		.2byte	0x2
 17086 10bd 90       		.byte	0x90
 17087 10be 48       		.uleb128 0x48
 17088 10bf 00000000 		.4byte	0
 17089 10c3 00000000 		.4byte	0
 17090              	.LLST225:
 17091 10c7 28090000 		.4byte	.LVL161-.Ltext0
 17092 10cb 36090000 		.4byte	.LVL162-.Ltext0
 17093 10cf 0600     		.2byte	0x6
 17094 10d1 9E       		.byte	0x9e
 17095 10d2 04       		.uleb128 0x4
 17096 10d3 49FFB846 		.4byte	0x46b8ff49
ARM GAS  /tmp/ccJJl1OT.s 			page 301


 17097 10d7 00000000 		.4byte	0
 17098 10db 00000000 		.4byte	0
 17099              	.LLST228:
 17100 10df 28090000 		.4byte	.LVL161-.Ltext0
 17101 10e3 36090000 		.4byte	.LVL162-.Ltext0
 17102 10e7 0C00     		.2byte	0xc
 17103 10e9 F5       		.byte	0xf5
 17104 10ea 47       		.uleb128 0x47
 17105 10eb 25       		.uleb128 0x25
 17106 10ec F4       		.byte	0xf4
 17107 10ed 25       		.uleb128 0x25
 17108 10ee 04       		.byte	0x4
 17109 10ef 49FFB846 		.4byte	0x46b8ff49
 17110 10f3 1C       		.byte	0x1c
 17111 10f4 9F       		.byte	0x9f
 17112 10f5 00000000 		.4byte	0
 17113 10f9 00000000 		.4byte	0
 17114              	.LLST229:
 17115 10fd 42090000 		.4byte	.LVL164-.Ltext0
 17116 1101 70090000 		.4byte	.LVL167-.Ltext0
 17117 1105 0100     		.2byte	0x1
 17118 1107 54       		.byte	0x54
 17119 1108 70090000 		.4byte	.LVL167-.Ltext0
 17120 110c 78090000 		.4byte	.LVL168-.Ltext0
 17121 1110 0B00     		.2byte	0xb
 17122 1112 73       		.byte	0x73
 17123 1113 0D       		.sleb128 13
 17124 1114 94       		.byte	0x94
 17125 1115 01       		.byte	0x1
 17126 1116 08       		.byte	0x8
 17127 1117 FF       		.byte	0xff
 17128 1118 1A       		.byte	0x1a
 17129 1119 76       		.byte	0x76
 17130 111a 00       		.sleb128 0
 17131 111b 22       		.byte	0x22
 17132 111c 9F       		.byte	0x9f
 17133 111d 00000000 		.4byte	0
 17134 1121 00000000 		.4byte	0
 17135              	.LLST230:
 17136 1125 42090000 		.4byte	.LVL164-.Ltext0
 17137 1129 4A090000 		.4byte	.LVL165-.Ltext0
 17138 112d 0200     		.2byte	0x2
 17139 112f 90       		.byte	0x90
 17140 1130 49       		.uleb128 0x49
 17141 1131 00000000 		.4byte	0
 17142 1135 00000000 		.4byte	0
 17143              	.LLST231:
 17144 1139 4A090000 		.4byte	.LVL165-.Ltext0
 17145 113d 60090000 		.4byte	.LVL166-.Ltext0
 17146 1141 0600     		.2byte	0x6
 17147 1143 9E       		.byte	0x9e
 17148 1144 04       		.uleb128 0x4
 17149 1145 49FFB846 		.4byte	0x46b8ff49
 17150 1149 00000000 		.4byte	0
 17151 114d 00000000 		.4byte	0
 17152              	.LLST234:
 17153 1151 4A090000 		.4byte	.LVL165-.Ltext0
ARM GAS  /tmp/ccJJl1OT.s 			page 302


 17154 1155 60090000 		.4byte	.LVL166-.Ltext0
 17155 1159 0C00     		.2byte	0xc
 17156 115b F5       		.byte	0xf5
 17157 115c 47       		.uleb128 0x47
 17158 115d 25       		.uleb128 0x25
 17159 115e F4       		.byte	0xf4
 17160 115f 25       		.uleb128 0x25
 17161 1160 04       		.byte	0x4
 17162 1161 49FFB846 		.4byte	0x46b8ff49
 17163 1165 1C       		.byte	0x1c
 17164 1166 9F       		.byte	0x9f
 17165 1167 00000000 		.4byte	0
 17166 116b 00000000 		.4byte	0
 17167              	.LLST235:
 17168 116f 9A090000 		.4byte	.LVL170-.Ltext0
 17169 1173 C8090000 		.4byte	.LVL174-.Ltext0
 17170 1177 0300     		.2byte	0x3
 17171 1179 91       		.byte	0x91
 17172 117a F47E     		.sleb128 -140
 17173 117c 00000000 		.4byte	0
 17174 1180 00000000 		.4byte	0
 17175              	.LLST236:
 17176 1184 9E090000 		.4byte	.LVL171-.Ltext0
 17177 1188 AE090000 		.4byte	.LVL172-.Ltext0
 17178 118c 0200     		.2byte	0x2
 17179 118e 90       		.byte	0x90
 17180 118f 4C       		.uleb128 0x4c
 17181 1190 00000000 		.4byte	0
 17182 1194 00000000 		.4byte	0
 17183              	.LLST237:
 17184 1198 AE090000 		.4byte	.LVL172-.Ltext0
 17185 119c BE090000 		.4byte	.LVL173-.Ltext0
 17186 11a0 0600     		.2byte	0x6
 17187 11a2 9E       		.byte	0x9e
 17188 11a3 04       		.uleb128 0x4
 17189 11a4 49FFB846 		.4byte	0x46b8ff49
 17190 11a8 00000000 		.4byte	0
 17191 11ac 00000000 		.4byte	0
 17192              	.LLST240:
 17193 11b0 AE090000 		.4byte	.LVL172-.Ltext0
 17194 11b4 BE090000 		.4byte	.LVL173-.Ltext0
 17195 11b8 0C00     		.2byte	0xc
 17196 11ba F5       		.byte	0xf5
 17197 11bb 4D       		.uleb128 0x4d
 17198 11bc 25       		.uleb128 0x25
 17199 11bd F4       		.byte	0xf4
 17200 11be 25       		.uleb128 0x25
 17201 11bf 04       		.byte	0x4
 17202 11c0 49FFB846 		.4byte	0x46b8ff49
 17203 11c4 1C       		.byte	0x1c
 17204 11c5 9F       		.byte	0x9f
 17205 11c6 00000000 		.4byte	0
 17206 11ca 00000000 		.4byte	0
 17207              	.LLST241:
 17208 11ce C8090000 		.4byte	.LVL174-.Ltext0
 17209 11d2 180A0000 		.4byte	.LVL181-.Ltext0
 17210 11d6 0100     		.2byte	0x1
ARM GAS  /tmp/ccJJl1OT.s 			page 303


 17211 11d8 56       		.byte	0x56
 17212 11d9 00000000 		.4byte	0
 17213 11dd 00000000 		.4byte	0
 17214              	.LLST242:
 17215 11e1 C8090000 		.4byte	.LVL174-.Ltext0
 17216 11e5 DC090000 		.4byte	.LVL176-.Ltext0
 17217 11e9 0100     		.2byte	0x1
 17218 11eb 56       		.byte	0x56
 17219 11ec 00000000 		.4byte	0
 17220 11f0 00000000 		.4byte	0
 17221              	.LLST243:
 17222 11f4 C8090000 		.4byte	.LVL174-.Ltext0
 17223 11f8 CC090000 		.4byte	.LVL175-.Ltext0
 17224 11fc 0300     		.2byte	0x3
 17225 11fe 08       		.byte	0x8
 17226 11ff 97       		.byte	0x97
 17227 1200 9F       		.byte	0x9f
 17228 1201 00000000 		.4byte	0
 17229 1205 00000000 		.4byte	0
 17230              	.LLST244:
 17231 1209 C8090000 		.4byte	.LVL174-.Ltext0
 17232 120d CC090000 		.4byte	.LVL175-.Ltext0
 17233 1211 0100     		.2byte	0x1
 17234 1213 56       		.byte	0x56
 17235 1214 00000000 		.4byte	0
 17236 1218 00000000 		.4byte	0
 17237              	.LLST245:
 17238 121c E0090000 		.4byte	.LVL177-.Ltext0
 17239 1220 EA090000 		.4byte	.LVL178-.Ltext0
 17240 1224 0100     		.2byte	0x1
 17241 1226 54       		.byte	0x54
 17242 1227 00000000 		.4byte	0
 17243 122b 00000000 		.4byte	0
 17244              	.LLST246:
 17245 122f E0090000 		.4byte	.LVL177-.Ltext0
 17246 1233 EA090000 		.4byte	.LVL178-.Ltext0
 17247 1237 0300     		.2byte	0x3
 17248 1239 08       		.byte	0x8
 17249 123a 97       		.byte	0x97
 17250 123b 9F       		.byte	0x9f
 17251 123c 00000000 		.4byte	0
 17252 1240 00000000 		.4byte	0
 17253              	.LLST248:
 17254 1244 EA090000 		.4byte	.LVL178-.Ltext0
 17255 1248 0E0A0000 		.4byte	.LVL179-.Ltext0
 17256 124c 0200     		.2byte	0x2
 17257 124e 90       		.byte	0x90
 17258 124f 48       		.uleb128 0x48
 17259 1250 00000000 		.4byte	0
 17260 1254 00000000 		.4byte	0
 17261              	.LLST249:
 17262 1258 0E0A0000 		.4byte	.LVL179-.Ltext0
 17263 125c 140A0000 		.4byte	.LVL180-.Ltext0
 17264 1260 0600     		.2byte	0x6
 17265 1262 9E       		.byte	0x9e
 17266 1263 04       		.uleb128 0x4
 17267 1264 49FFB846 		.4byte	0x46b8ff49
ARM GAS  /tmp/ccJJl1OT.s 			page 304


 17268 1268 00000000 		.4byte	0
 17269 126c 00000000 		.4byte	0
 17270              	.LLST252:
 17271 1270 0E0A0000 		.4byte	.LVL179-.Ltext0
 17272 1274 140A0000 		.4byte	.LVL180-.Ltext0
 17273 1278 0C00     		.2byte	0xc
 17274 127a F5       		.byte	0xf5
 17275 127b 46       		.uleb128 0x46
 17276 127c 25       		.uleb128 0x25
 17277 127d F4       		.byte	0xf4
 17278 127e 25       		.uleb128 0x25
 17279 127f 04       		.byte	0x4
 17280 1280 49FFB846 		.4byte	0x46b8ff49
 17281 1284 1C       		.byte	0x1c
 17282 1285 9F       		.byte	0x9f
 17283 1286 00000000 		.4byte	0
 17284 128a 00000000 		.4byte	0
 17285              	.LLST253:
 17286 128e 200A0000 		.4byte	.LVL182-.Ltext0
 17287 1292 520A0000 		.4byte	.LVL185-.Ltext0
 17288 1296 0100     		.2byte	0x1
 17289 1298 56       		.byte	0x56
 17290 1299 520A0000 		.4byte	.LVL185-.Ltext0
 17291 129d 7C0A0000 		.4byte	.LVL186-.Ltext0
 17292 12a1 1300     		.2byte	0x13
 17293 12a3 70       		.byte	0x70
 17294 12a4 04       		.sleb128 4
 17295 12a5 94       		.byte	0x94
 17296 12a6 02       		.byte	0x2
 17297 12a7 0A       		.byte	0xa
 17298 12a8 FFFF     		.2byte	0xffff
 17299 12aa 1A       		.byte	0x1a
 17300 12ab 38       		.byte	0x38
 17301 12ac 25       		.byte	0x25
 17302 12ad 73       		.byte	0x73
 17303 12ae 0E       		.sleb128 14
 17304 12af 94       		.byte	0x94
 17305 12b0 01       		.byte	0x1
 17306 12b1 08       		.byte	0x8
 17307 12b2 FF       		.byte	0xff
 17308 12b3 1A       		.byte	0x1a
 17309 12b4 22       		.byte	0x22
 17310 12b5 9F       		.byte	0x9f
 17311 12b6 00000000 		.4byte	0
 17312 12ba 00000000 		.4byte	0
 17313              	.LLST254:
 17314 12be 200A0000 		.4byte	.LVL182-.Ltext0
 17315 12c2 380A0000 		.4byte	.LVL183-.Ltext0
 17316 12c6 0200     		.2byte	0x2
 17317 12c8 90       		.byte	0x90
 17318 12c9 49       		.uleb128 0x49
 17319 12ca 00000000 		.4byte	0
 17320 12ce 00000000 		.4byte	0
 17321              	.LLST255:
 17322 12d2 380A0000 		.4byte	.LVL183-.Ltext0
 17323 12d6 420A0000 		.4byte	.LVL184-.Ltext0
 17324 12da 0600     		.2byte	0x6
ARM GAS  /tmp/ccJJl1OT.s 			page 305


 17325 12dc 9E       		.byte	0x9e
 17326 12dd 04       		.uleb128 0x4
 17327 12de 49FFB846 		.4byte	0x46b8ff49
 17328 12e2 00000000 		.4byte	0
 17329 12e6 00000000 		.4byte	0
 17330              	.LLST258:
 17331 12ea 380A0000 		.4byte	.LVL183-.Ltext0
 17332 12ee 420A0000 		.4byte	.LVL184-.Ltext0
 17333 12f2 0C00     		.2byte	0xc
 17334 12f4 F5       		.byte	0xf5
 17335 12f5 48       		.uleb128 0x48
 17336 12f6 25       		.uleb128 0x25
 17337 12f7 F4       		.byte	0xf4
 17338 12f8 25       		.uleb128 0x25
 17339 12f9 04       		.byte	0x4
 17340 12fa 49FFB846 		.4byte	0x46b8ff49
 17341 12fe 1C       		.byte	0x1c
 17342 12ff 9F       		.byte	0x9f
 17343 1300 00000000 		.4byte	0
 17344 1304 00000000 		.4byte	0
 17345              	.LLST259:
 17346 1308 880A0000 		.4byte	.LVL187-.Ltext0
 17347 130c 960A0000 		.4byte	.LVL188-.Ltext0
 17348 1310 0600     		.2byte	0x6
 17349 1312 9E       		.byte	0x9e
 17350 1313 04       		.uleb128 0x4
 17351 1314 49FFB846 		.4byte	0x46b8ff49
 17352 1318 00000000 		.4byte	0
 17353 131c 00000000 		.4byte	0
 17354              	.LLST262:
 17355 1320 880A0000 		.4byte	.LVL187-.Ltext0
 17356 1324 960A0000 		.4byte	.LVL188-.Ltext0
 17357 1328 0C00     		.2byte	0xc
 17358 132a F5       		.byte	0xf5
 17359 132b 4D       		.uleb128 0x4d
 17360 132c 25       		.uleb128 0x25
 17361 132d F4       		.byte	0xf4
 17362 132e 25       		.uleb128 0x25
 17363 132f 04       		.byte	0x4
 17364 1330 49FFB846 		.4byte	0x46b8ff49
 17365 1334 1C       		.byte	0x1c
 17366 1335 9F       		.byte	0x9f
 17367 1336 00000000 		.4byte	0
 17368 133a 00000000 		.4byte	0
 17369              	.LLST263:
 17370 133e F20A0000 		.4byte	.LVL191-.Ltext0
 17371 1342 F40A0000 		.4byte	.LVL192-.Ltext0
 17372 1346 0100     		.2byte	0x1
 17373 1348 55       		.byte	0x55
 17374 1349 F40A0000 		.4byte	.LVL192-.Ltext0
 17375 134d 240B0000 		.4byte	.LVL197-.Ltext0
 17376 1351 0200     		.2byte	0x2
 17377 1353 90       		.byte	0x90
 17378 1354 49       		.uleb128 0x49
 17379 1355 240B0000 		.4byte	.LVL197-.Ltext0
 17380 1359 760B0000 		.4byte	.LVL202-.Ltext0
 17381 135d 0300     		.2byte	0x3
ARM GAS  /tmp/ccJJl1OT.s 			page 306


 17382 135f 91       		.byte	0x91
 17383 1360 F47E     		.sleb128 -140
 17384 1362 00000000 		.4byte	0
 17385 1366 00000000 		.4byte	0
 17386              	.LLST264:
 17387 136a F20A0000 		.4byte	.LVL191-.Ltext0
 17388 136e 720B0000 		.4byte	.LVL201-.Ltext0
 17389 1372 0100     		.2byte	0x1
 17390 1374 54       		.byte	0x54
 17391 1375 720B0000 		.4byte	.LVL201-.Ltext0
 17392 1379 8E0B0000 		.4byte	.LVL203-.Ltext0
 17393 137d 0B00     		.2byte	0xb
 17394 137f 73       		.byte	0x73
 17395 1380 0C       		.sleb128 12
 17396 1381 94       		.byte	0x94
 17397 1382 01       		.byte	0x1
 17398 1383 08       		.byte	0x8
 17399 1384 FF       		.byte	0xff
 17400 1385 1A       		.byte	0x1a
 17401 1386 76       		.byte	0x76
 17402 1387 00       		.sleb128 0
 17403 1388 22       		.byte	0x22
 17404 1389 9F       		.byte	0x9f
 17405 138a 00000000 		.4byte	0
 17406 138e 00000000 		.4byte	0
 17407              	.LLST265:
 17408 1392 F20A0000 		.4byte	.LVL191-.Ltext0
 17409 1396 040B0000 		.4byte	.LVL194-.Ltext0
 17410 139a 0100     		.2byte	0x1
 17411 139c 54       		.byte	0x54
 17412 139d 00000000 		.4byte	0
 17413 13a1 00000000 		.4byte	0
 17414              	.LLST266:
 17415 13a5 F20A0000 		.4byte	.LVL191-.Ltext0
 17416 13a9 FC0A0000 		.4byte	.LVL193-.Ltext0
 17417 13ad 0300     		.2byte	0x3
 17418 13af 08       		.byte	0x8
 17419 13b0 97       		.byte	0x97
 17420 13b1 9F       		.byte	0x9f
 17421 13b2 00000000 		.4byte	0
 17422 13b6 00000000 		.4byte	0
 17423              	.LLST267:
 17424 13ba F20A0000 		.4byte	.LVL191-.Ltext0
 17425 13be FC0A0000 		.4byte	.LVL193-.Ltext0
 17426 13c2 0100     		.2byte	0x1
 17427 13c4 54       		.byte	0x54
 17428 13c5 00000000 		.4byte	0
 17429 13c9 00000000 		.4byte	0
 17430              	.LLST268:
 17431 13cd 380B0000 		.4byte	.LVL199-.Ltext0
 17432 13d1 4E0B0000 		.4byte	.LVL200-.Ltext0
 17433 13d5 0600     		.2byte	0x6
 17434 13d7 9E       		.byte	0x9e
 17435 13d8 04       		.uleb128 0x4
 17436 13d9 49FFB846 		.4byte	0x46b8ff49
 17437 13dd 00000000 		.4byte	0
 17438 13e1 00000000 		.4byte	0
ARM GAS  /tmp/ccJJl1OT.s 			page 307


 17439              	.LLST271:
 17440 13e5 380B0000 		.4byte	.LVL199-.Ltext0
 17441 13e9 4E0B0000 		.4byte	.LVL200-.Ltext0
 17442 13ed 0C00     		.2byte	0xc
 17443 13ef F5       		.byte	0xf5
 17444 13f0 48       		.uleb128 0x48
 17445 13f1 25       		.uleb128 0x25
 17446 13f2 F4       		.byte	0xf4
 17447 13f3 25       		.uleb128 0x25
 17448 13f4 04       		.byte	0x4
 17449 13f5 49FFB846 		.4byte	0x46b8ff49
 17450 13f9 1C       		.byte	0x1c
 17451 13fa 9F       		.byte	0x9f
 17452 13fb 00000000 		.4byte	0
 17453 13ff 00000000 		.4byte	0
 17454              	.LLST272:
 17455 1403 0C0B0000 		.4byte	.LVL195-.Ltext0
 17456 1407 180B0000 		.4byte	.LVL196-.Ltext0
 17457 140b 0100     		.2byte	0x1
 17458 140d 5E       		.byte	0x5e
 17459 140e 00000000 		.4byte	0
 17460 1412 00000000 		.4byte	0
 17461              	.LLST273:
 17462 1416 0C0B0000 		.4byte	.LVL195-.Ltext0
 17463 141a 180B0000 		.4byte	.LVL196-.Ltext0
 17464 141e 0300     		.2byte	0x3
 17465 1420 08       		.byte	0x8
 17466 1421 97       		.byte	0x97
 17467 1422 9F       		.byte	0x9f
 17468 1423 00000000 		.4byte	0
 17469 1427 00000000 		.4byte	0
 17470              	.LLST275:
 17471 142b 2C0B0000 		.4byte	.LVL198-.Ltext0
 17472 142f 380B0000 		.4byte	.LVL199-.Ltext0
 17473 1433 0200     		.2byte	0x2
 17474 1435 90       		.byte	0x90
 17475 1436 49       		.uleb128 0x49
 17476 1437 00000000 		.4byte	0
 17477 143b 00000000 		.4byte	0
 17478              	.LLST276:
 17479 143f 9E0B0000 		.4byte	.LVL204-.Ltext0
 17480 1443 D00B0000 		.4byte	.LVL208-.Ltext0
 17481 1447 0100     		.2byte	0x1
 17482 1449 5C       		.byte	0x5c
 17483 144a 00000000 		.4byte	0
 17484 144e 00000000 		.4byte	0
 17485              	.LLST277:
 17486 1452 AC0B0000 		.4byte	.LVL205-.Ltext0
 17487 1456 B60B0000 		.4byte	.LVL206-.Ltext0
 17488 145a 0200     		.2byte	0x2
 17489 145c 90       		.byte	0x90
 17490 145d 4A       		.uleb128 0x4a
 17491 145e 00000000 		.4byte	0
 17492 1462 00000000 		.4byte	0
 17493              	.LLST278:
 17494 1466 B60B0000 		.4byte	.LVL206-.Ltext0
 17495 146a C60B0000 		.4byte	.LVL207-.Ltext0
ARM GAS  /tmp/ccJJl1OT.s 			page 308


 17496 146e 0600     		.2byte	0x6
 17497 1470 9E       		.byte	0x9e
 17498 1471 04       		.uleb128 0x4
 17499 1472 49FFB846 		.4byte	0x46b8ff49
 17500 1476 00000000 		.4byte	0
 17501 147a 00000000 		.4byte	0
 17502              	.LLST281:
 17503 147e B60B0000 		.4byte	.LVL206-.Ltext0
 17504 1482 C60B0000 		.4byte	.LVL207-.Ltext0
 17505 1486 0C00     		.2byte	0xc
 17506 1488 F5       		.byte	0xf5
 17507 1489 4C       		.uleb128 0x4c
 17508 148a 25       		.uleb128 0x25
 17509 148b F4       		.byte	0xf4
 17510 148c 25       		.uleb128 0x25
 17511 148d 04       		.byte	0x4
 17512 148e 49FFB846 		.4byte	0x46b8ff49
 17513 1492 1C       		.byte	0x1c
 17514 1493 9F       		.byte	0x9f
 17515 1494 00000000 		.4byte	0
 17516 1498 00000000 		.4byte	0
 17517              	.LLST282:
 17518 149c D00B0000 		.4byte	.LVL208-.Ltext0
 17519 14a0 340C0000 		.4byte	.LVL215-.Ltext0
 17520 14a4 0100     		.2byte	0x1
 17521 14a6 54       		.byte	0x54
 17522 14a7 340C0000 		.4byte	.LVL215-.Ltext0
 17523 14ab 3C0C0000 		.4byte	.LVL216-.Ltext0
 17524 14af 0B00     		.2byte	0xb
 17525 14b1 73       		.byte	0x73
 17526 14b2 0D       		.sleb128 13
 17527 14b3 94       		.byte	0x94
 17528 14b4 01       		.byte	0x1
 17529 14b5 08       		.byte	0x8
 17530 14b6 FF       		.byte	0xff
 17531 14b7 1A       		.byte	0x1a
 17532 14b8 76       		.byte	0x76
 17533 14b9 00       		.sleb128 0
 17534 14ba 22       		.byte	0x22
 17535 14bb 9F       		.byte	0x9f
 17536 14bc 00000000 		.4byte	0
 17537 14c0 00000000 		.4byte	0
 17538              	.LLST283:
 17539 14c4 D00B0000 		.4byte	.LVL208-.Ltext0
 17540 14c8 E60B0000 		.4byte	.LVL210-.Ltext0
 17541 14cc 0100     		.2byte	0x1
 17542 14ce 54       		.byte	0x54
 17543 14cf 00000000 		.4byte	0
 17544 14d3 00000000 		.4byte	0
 17545              	.LLST284:
 17546 14d7 D00B0000 		.4byte	.LVL208-.Ltext0
 17547 14db D60B0000 		.4byte	.LVL209-.Ltext0
 17548 14df 0300     		.2byte	0x3
 17549 14e1 08       		.byte	0x8
 17550 14e2 97       		.byte	0x97
 17551 14e3 9F       		.byte	0x9f
 17552 14e4 00000000 		.4byte	0
ARM GAS  /tmp/ccJJl1OT.s 			page 309


 17553 14e8 00000000 		.4byte	0
 17554              	.LLST285:
 17555 14ec D00B0000 		.4byte	.LVL208-.Ltext0
 17556 14f0 D60B0000 		.4byte	.LVL209-.Ltext0
 17557 14f4 0100     		.2byte	0x1
 17558 14f6 54       		.byte	0x54
 17559 14f7 00000000 		.4byte	0
 17560 14fb 00000000 		.4byte	0
 17561              	.LLST286:
 17562 14ff EE0B0000 		.4byte	.LVL211-.Ltext0
 17563 1503 FA0B0000 		.4byte	.LVL212-.Ltext0
 17564 1507 0100     		.2byte	0x1
 17565 1509 5E       		.byte	0x5e
 17566 150a 00000000 		.4byte	0
 17567 150e 00000000 		.4byte	0
 17568              	.LLST287:
 17569 1512 EE0B0000 		.4byte	.LVL211-.Ltext0
 17570 1516 FA0B0000 		.4byte	.LVL212-.Ltext0
 17571 151a 0300     		.2byte	0x3
 17572 151c 08       		.byte	0x8
 17573 151d 97       		.byte	0x97
 17574 151e 9F       		.byte	0x9f
 17575 151f 00000000 		.4byte	0
 17576 1523 00000000 		.4byte	0
 17577              	.LLST289:
 17578 1527 FA0B0000 		.4byte	.LVL212-.Ltext0
 17579 152b 0E0C0000 		.4byte	.LVL213-.Ltext0
 17580 152f 0200     		.2byte	0x2
 17581 1531 90       		.byte	0x90
 17582 1532 49       		.uleb128 0x49
 17583 1533 00000000 		.4byte	0
 17584 1537 00000000 		.4byte	0
 17585              	.LLST290:
 17586 153b 0E0C0000 		.4byte	.LVL213-.Ltext0
 17587 153f 240C0000 		.4byte	.LVL214-.Ltext0
 17588 1543 0600     		.2byte	0x6
 17589 1545 9E       		.byte	0x9e
 17590 1546 04       		.uleb128 0x4
 17591 1547 49FFB846 		.4byte	0x46b8ff49
 17592 154b 00000000 		.4byte	0
 17593 154f 00000000 		.4byte	0
 17594              	.LLST293:
 17595 1553 0E0C0000 		.4byte	.LVL213-.Ltext0
 17596 1557 240C0000 		.4byte	.LVL214-.Ltext0
 17597 155b 0C00     		.2byte	0xc
 17598 155d F5       		.byte	0xf5
 17599 155e 48       		.uleb128 0x48
 17600 155f 25       		.uleb128 0x25
 17601 1560 F4       		.byte	0xf4
 17602 1561 25       		.uleb128 0x25
 17603 1562 04       		.byte	0x4
 17604 1563 49FFB846 		.4byte	0x46b8ff49
 17605 1567 1C       		.byte	0x1c
 17606 1568 9F       		.byte	0x9f
 17607 1569 00000000 		.4byte	0
 17608 156d 00000000 		.4byte	0
 17609              	.LLST294:
ARM GAS  /tmp/ccJJl1OT.s 			page 310


 17610 1571 620C0000 		.4byte	.LVL218-.Ltext0
 17611 1575 8C0C0000 		.4byte	.LVL222-.Ltext0
 17612 1579 0300     		.2byte	0x3
 17613 157b 91       		.byte	0x91
 17614 157c F47E     		.sleb128 -140
 17615 157e 00000000 		.4byte	0
 17616 1582 00000000 		.4byte	0
 17617              	.LLST295:
 17618 1586 660C0000 		.4byte	.LVL219-.Ltext0
 17619 158a 720C0000 		.4byte	.LVL220-.Ltext0
 17620 158e 0200     		.2byte	0x2
 17621 1590 90       		.byte	0x90
 17622 1591 4A       		.uleb128 0x4a
 17623 1592 00000000 		.4byte	0
 17624 1596 00000000 		.4byte	0
 17625              	.LLST296:
 17626 159a 720C0000 		.4byte	.LVL220-.Ltext0
 17627 159e 820C0000 		.4byte	.LVL221-.Ltext0
 17628 15a2 0600     		.2byte	0x6
 17629 15a4 9E       		.byte	0x9e
 17630 15a5 04       		.uleb128 0x4
 17631 15a6 49FFB846 		.4byte	0x46b8ff49
 17632 15aa 00000000 		.4byte	0
 17633 15ae 00000000 		.4byte	0
 17634              	.LLST299:
 17635 15b2 720C0000 		.4byte	.LVL220-.Ltext0
 17636 15b6 820C0000 		.4byte	.LVL221-.Ltext0
 17637 15ba 0C00     		.2byte	0xc
 17638 15bc F5       		.byte	0xf5
 17639 15bd 4C       		.uleb128 0x4c
 17640 15be 25       		.uleb128 0x25
 17641 15bf F4       		.byte	0xf4
 17642 15c0 25       		.uleb128 0x25
 17643 15c1 04       		.byte	0x4
 17644 15c2 49FFB846 		.4byte	0x46b8ff49
 17645 15c6 1C       		.byte	0x1c
 17646 15c7 9F       		.byte	0x9f
 17647 15c8 00000000 		.4byte	0
 17648 15cc 00000000 		.4byte	0
 17649              	.LLST300:
 17650 15d0 8C0C0000 		.4byte	.LVL222-.Ltext0
 17651 15d4 F00C0000 		.4byte	.LVL229-.Ltext0
 17652 15d8 0100     		.2byte	0x1
 17653 15da 54       		.byte	0x54
 17654 15db F00C0000 		.4byte	.LVL229-.Ltext0
 17655 15df F80C0000 		.4byte	.LVL230-.Ltext0
 17656 15e3 0B00     		.2byte	0xb
 17657 15e5 73       		.byte	0x73
 17658 15e6 0E       		.sleb128 14
 17659 15e7 94       		.byte	0x94
 17660 15e8 01       		.byte	0x1
 17661 15e9 08       		.byte	0x8
 17662 15ea FF       		.byte	0xff
 17663 15eb 1A       		.byte	0x1a
 17664 15ec 76       		.byte	0x76
 17665 15ed 00       		.sleb128 0
 17666 15ee 22       		.byte	0x22
ARM GAS  /tmp/ccJJl1OT.s 			page 311


 17667 15ef 9F       		.byte	0x9f
 17668 15f0 00000000 		.4byte	0
 17669 15f4 00000000 		.4byte	0
 17670              	.LLST301:
 17671 15f8 8C0C0000 		.4byte	.LVL222-.Ltext0
 17672 15fc A20C0000 		.4byte	.LVL224-.Ltext0
 17673 1600 0100     		.2byte	0x1
 17674 1602 54       		.byte	0x54
 17675 1603 00000000 		.4byte	0
 17676 1607 00000000 		.4byte	0
 17677              	.LLST302:
 17678 160b 8C0C0000 		.4byte	.LVL222-.Ltext0
 17679 160f 920C0000 		.4byte	.LVL223-.Ltext0
 17680 1613 0300     		.2byte	0x3
 17681 1615 08       		.byte	0x8
 17682 1616 97       		.byte	0x97
 17683 1617 9F       		.byte	0x9f
 17684 1618 00000000 		.4byte	0
 17685 161c 00000000 		.4byte	0
 17686              	.LLST303:
 17687 1620 8C0C0000 		.4byte	.LVL222-.Ltext0
 17688 1624 920C0000 		.4byte	.LVL223-.Ltext0
 17689 1628 0100     		.2byte	0x1
 17690 162a 54       		.byte	0x54
 17691 162b 00000000 		.4byte	0
 17692 162f 00000000 		.4byte	0
 17693              	.LLST304:
 17694 1633 AA0C0000 		.4byte	.LVL225-.Ltext0
 17695 1637 B60C0000 		.4byte	.LVL226-.Ltext0
 17696 163b 0100     		.2byte	0x1
 17697 163d 5E       		.byte	0x5e
 17698 163e 00000000 		.4byte	0
 17699 1642 00000000 		.4byte	0
 17700              	.LLST305:
 17701 1646 AA0C0000 		.4byte	.LVL225-.Ltext0
 17702 164a B60C0000 		.4byte	.LVL226-.Ltext0
 17703 164e 0300     		.2byte	0x3
 17704 1650 08       		.byte	0x8
 17705 1651 97       		.byte	0x97
 17706 1652 9F       		.byte	0x9f
 17707 1653 00000000 		.4byte	0
 17708 1657 00000000 		.4byte	0
 17709              	.LLST307:
 17710 165b B60C0000 		.4byte	.LVL226-.Ltext0
 17711 165f CA0C0000 		.4byte	.LVL227-.Ltext0
 17712 1663 0200     		.2byte	0x2
 17713 1665 90       		.byte	0x90
 17714 1666 49       		.uleb128 0x49
 17715 1667 00000000 		.4byte	0
 17716 166b 00000000 		.4byte	0
 17717              	.LLST308:
 17718 166f CA0C0000 		.4byte	.LVL227-.Ltext0
 17719 1673 E00C0000 		.4byte	.LVL228-.Ltext0
 17720 1677 0600     		.2byte	0x6
 17721 1679 9E       		.byte	0x9e
 17722 167a 04       		.uleb128 0x4
 17723 167b 49FFB846 		.4byte	0x46b8ff49
ARM GAS  /tmp/ccJJl1OT.s 			page 312


 17724 167f 00000000 		.4byte	0
 17725 1683 00000000 		.4byte	0
 17726              	.LLST311:
 17727 1687 CA0C0000 		.4byte	.LVL227-.Ltext0
 17728 168b E00C0000 		.4byte	.LVL228-.Ltext0
 17729 168f 0C00     		.2byte	0xc
 17730 1691 F5       		.byte	0xf5
 17731 1692 48       		.uleb128 0x48
 17732 1693 25       		.uleb128 0x25
 17733 1694 F4       		.byte	0xf4
 17734 1695 25       		.uleb128 0x25
 17735 1696 04       		.byte	0x4
 17736 1697 49FFB846 		.4byte	0x46b8ff49
 17737 169b 1C       		.byte	0x1c
 17738 169c 9F       		.byte	0x9f
 17739 169d 00000000 		.4byte	0
 17740 16a1 00000000 		.4byte	0
 17741              	.LLST312:
 17742 16a5 1E0D0000 		.4byte	.LVL232-.Ltext0
 17743 16a9 480D0000 		.4byte	.LVL236-.Ltext0
 17744 16ad 0300     		.2byte	0x3
 17745 16af 91       		.byte	0x91
 17746 16b0 F47E     		.sleb128 -140
 17747 16b2 00000000 		.4byte	0
 17748 16b6 00000000 		.4byte	0
 17749              	.LLST313:
 17750 16ba 220D0000 		.4byte	.LVL233-.Ltext0
 17751 16be 2E0D0000 		.4byte	.LVL234-.Ltext0
 17752 16c2 0200     		.2byte	0x2
 17753 16c4 90       		.byte	0x90
 17754 16c5 4A       		.uleb128 0x4a
 17755 16c6 00000000 		.4byte	0
 17756 16ca 00000000 		.4byte	0
 17757              	.LLST314:
 17758 16ce 2E0D0000 		.4byte	.LVL234-.Ltext0
 17759 16d2 3E0D0000 		.4byte	.LVL235-.Ltext0
 17760 16d6 0600     		.2byte	0x6
 17761 16d8 9E       		.byte	0x9e
 17762 16d9 04       		.uleb128 0x4
 17763 16da 49FFB846 		.4byte	0x46b8ff49
 17764 16de 00000000 		.4byte	0
 17765 16e2 00000000 		.4byte	0
 17766              	.LLST317:
 17767 16e6 2E0D0000 		.4byte	.LVL234-.Ltext0
 17768 16ea 3E0D0000 		.4byte	.LVL235-.Ltext0
 17769 16ee 0C00     		.2byte	0xc
 17770 16f0 F5       		.byte	0xf5
 17771 16f1 4C       		.uleb128 0x4c
 17772 16f2 25       		.uleb128 0x25
 17773 16f3 F4       		.byte	0xf4
 17774 16f4 25       		.uleb128 0x25
 17775 16f5 04       		.byte	0x4
 17776 16f6 49FFB846 		.4byte	0x46b8ff49
 17777 16fa 1C       		.byte	0x1c
 17778 16fb 9F       		.byte	0x9f
 17779 16fc 00000000 		.4byte	0
 17780 1700 00000000 		.4byte	0
ARM GAS  /tmp/ccJJl1OT.s 			page 313


 17781              	.LLST318:
 17782 1704 480D0000 		.4byte	.LVL236-.Ltext0
 17783 1708 AC0D0000 		.4byte	.LVL243-.Ltext0
 17784 170c 0100     		.2byte	0x1
 17785 170e 56       		.byte	0x56
 17786 170f AC0D0000 		.4byte	.LVL243-.Ltext0
 17787 1713 D60D0000 		.4byte	.LVL244-.Ltext0
 17788 1717 1300     		.2byte	0x13
 17789 1719 70       		.byte	0x70
 17790 171a 04       		.sleb128 4
 17791 171b 94       		.byte	0x94
 17792 171c 02       		.byte	0x2
 17793 171d 0A       		.byte	0xa
 17794 171e FFFF     		.2byte	0xffff
 17795 1720 1A       		.byte	0x1a
 17796 1721 38       		.byte	0x38
 17797 1722 25       		.byte	0x25
 17798 1723 73       		.byte	0x73
 17799 1724 0F       		.sleb128 15
 17800 1725 94       		.byte	0x94
 17801 1726 01       		.byte	0x1
 17802 1727 08       		.byte	0x8
 17803 1728 FF       		.byte	0xff
 17804 1729 1A       		.byte	0x1a
 17805 172a 22       		.byte	0x22
 17806 172b 9F       		.byte	0x9f
 17807 172c 00000000 		.4byte	0
 17808 1730 00000000 		.4byte	0
 17809              	.LLST319:
 17810 1734 480D0000 		.4byte	.LVL236-.Ltext0
 17811 1738 5C0D0000 		.4byte	.LVL238-.Ltext0
 17812 173c 0100     		.2byte	0x1
 17813 173e 56       		.byte	0x56
 17814 173f 00000000 		.4byte	0
 17815 1743 00000000 		.4byte	0
 17816              	.LLST320:
 17817 1747 480D0000 		.4byte	.LVL236-.Ltext0
 17818 174b 4C0D0000 		.4byte	.LVL237-.Ltext0
 17819 174f 0300     		.2byte	0x3
 17820 1751 08       		.byte	0x8
 17821 1752 97       		.byte	0x97
 17822 1753 9F       		.byte	0x9f
 17823 1754 00000000 		.4byte	0
 17824 1758 00000000 		.4byte	0
 17825              	.LLST321:
 17826 175c 480D0000 		.4byte	.LVL236-.Ltext0
 17827 1760 4C0D0000 		.4byte	.LVL237-.Ltext0
 17828 1764 0100     		.2byte	0x1
 17829 1766 56       		.byte	0x56
 17830 1767 00000000 		.4byte	0
 17831 176b 00000000 		.4byte	0
 17832              	.LLST322:
 17833 176f 600D0000 		.4byte	.LVL239-.Ltext0
 17834 1773 6A0D0000 		.4byte	.LVL240-.Ltext0
 17835 1777 0100     		.2byte	0x1
 17836 1779 54       		.byte	0x54
 17837 177a 00000000 		.4byte	0
ARM GAS  /tmp/ccJJl1OT.s 			page 314


 17838 177e 00000000 		.4byte	0
 17839              	.LLST323:
 17840 1782 600D0000 		.4byte	.LVL239-.Ltext0
 17841 1786 6A0D0000 		.4byte	.LVL240-.Ltext0
 17842 178a 0300     		.2byte	0x3
 17843 178c 08       		.byte	0x8
 17844 178d 97       		.byte	0x97
 17845 178e 9F       		.byte	0x9f
 17846 178f 00000000 		.4byte	0
 17847 1793 00000000 		.4byte	0
 17848              	.LLST325:
 17849 1797 6A0D0000 		.4byte	.LVL240-.Ltext0
 17850 179b 920D0000 		.4byte	.LVL241-.Ltext0
 17851 179f 0200     		.2byte	0x2
 17852 17a1 90       		.byte	0x90
 17853 17a2 49       		.uleb128 0x49
 17854 17a3 00000000 		.4byte	0
 17855 17a7 00000000 		.4byte	0
 17856              	.LLST326:
 17857 17ab 920D0000 		.4byte	.LVL241-.Ltext0
 17858 17af 9C0D0000 		.4byte	.LVL242-.Ltext0
 17859 17b3 0600     		.2byte	0x6
 17860 17b5 9E       		.byte	0x9e
 17861 17b6 04       		.uleb128 0x4
 17862 17b7 49FFB846 		.4byte	0x46b8ff49
 17863 17bb 00000000 		.4byte	0
 17864 17bf 00000000 		.4byte	0
 17865              	.LLST329:
 17866 17c3 920D0000 		.4byte	.LVL241-.Ltext0
 17867 17c7 9C0D0000 		.4byte	.LVL242-.Ltext0
 17868 17cb 0C00     		.2byte	0xc
 17869 17cd F5       		.byte	0xf5
 17870 17ce 47       		.uleb128 0x47
 17871 17cf 25       		.uleb128 0x25
 17872 17d0 F4       		.byte	0xf4
 17873 17d1 25       		.uleb128 0x25
 17874 17d2 04       		.byte	0x4
 17875 17d3 49FFB846 		.4byte	0x46b8ff49
 17876 17d7 1C       		.byte	0x1c
 17877 17d8 9F       		.byte	0x9f
 17878 17d9 00000000 		.4byte	0
 17879 17dd 00000000 		.4byte	0
 17880              	.LLST330:
 17881 17e1 FC0D0000 		.4byte	.LVL246-.Ltext0
 17882 17e5 0C0E0000 		.4byte	.LVL247-.Ltext0
 17883 17e9 0200     		.2byte	0x2
 17884 17eb 30       		.byte	0x30
 17885 17ec 9F       		.byte	0x9f
 17886 17ed 00000000 		.4byte	0
 17887 17f1 00000000 		.4byte	0
 17888              	.LLST331:
 17889 17f5 700E0000 		.4byte	.LVL257-.Ltext0
 17890 17f9 B00E0000 		.4byte	.LVL258-.Ltext0
 17891 17fd 0200     		.2byte	0x2
 17892 17ff 90       		.byte	0x90
 17893 1800 4F       		.uleb128 0x4f
 17894 1801 6C130000 		.4byte	.LVL367-.Ltext0
ARM GAS  /tmp/ccJJl1OT.s 			page 315


 17895 1805 70130000 		.4byte	.LVL368-.Ltext0
 17896 1809 0200     		.2byte	0x2
 17897 180b 90       		.byte	0x90
 17898 180c 4F       		.uleb128 0x4f
 17899 180d 62180000 		.4byte	.LVL483-.Ltext0
 17900 1811 66180000 		.4byte	.LVL484-.Ltext0
 17901 1815 0200     		.2byte	0x2
 17902 1817 90       		.byte	0x90
 17903 1818 4F       		.uleb128 0x4f
 17904 1819 921C0000 		.4byte	.LVL624-.Ltext0
 17905 181d EC1C0000 		.4byte	.LFE240-.Ltext0
 17906 1821 0200     		.2byte	0x2
 17907 1823 90       		.byte	0x90
 17908 1824 4F       		.uleb128 0x4f
 17909 1825 00000000 		.4byte	0
 17910 1829 00000000 		.4byte	0
 17911              	.LLST332:
 17912 182d 66180000 		.4byte	.LVL484-.Ltext0
 17913 1831 7E180000 		.4byte	.LVL486-.Ltext0
 17914 1835 0200     		.2byte	0x2
 17915 1837 90       		.byte	0x90
 17916 1838 4F       		.uleb128 0x4f
 17917 1839 7E180000 		.4byte	.LVL486-.Ltext0
 17918 183d BA180000 		.4byte	.LVL495-.Ltext0
 17919 1841 0200     		.2byte	0x2
 17920 1843 76       		.byte	0x76
 17921 1844 00       		.sleb128 0
 17922 1845 00000000 		.4byte	0
 17923 1849 00000000 		.4byte	0
 17924              	.LLST333:
 17925 184d 66180000 		.4byte	.LVL484-.Ltext0
 17926 1851 7E180000 		.4byte	.LVL486-.Ltext0
 17927 1855 0C00     		.2byte	0xc
 17928 1857 F5       		.byte	0xf5
 17929 1858 4F       		.uleb128 0x4f
 17930 1859 25       		.uleb128 0x25
 17931 185a F5       		.byte	0xf5
 17932 185b 4F       		.uleb128 0x4f
 17933 185c 25       		.uleb128 0x25
 17934 185d F7       		.byte	0xf7
 17935 185e 2C       		.uleb128 0x2c
 17936 185f F7       		.byte	0xf7
 17937 1860 25       		.uleb128 0x25
 17938 1861 1C       		.byte	0x1c
 17939 1862 9F       		.byte	0x9f
 17940 1863 7E180000 		.4byte	.LVL486-.Ltext0
 17941 1867 BA180000 		.4byte	.LVL495-.Ltext0
 17942 186b 1000     		.2byte	0x10
 17943 186d 76       		.byte	0x76
 17944 186e 00       		.sleb128 0
 17945 186f F6       		.byte	0xf6
 17946 1870 04       		.byte	0x4
 17947 1871 25       		.uleb128 0x25
 17948 1872 76       		.byte	0x76
 17949 1873 00       		.sleb128 0
 17950 1874 F6       		.byte	0xf6
 17951 1875 04       		.byte	0x4
ARM GAS  /tmp/ccJJl1OT.s 			page 316


 17952 1876 25       		.uleb128 0x25
 17953 1877 F7       		.byte	0xf7
 17954 1878 2C       		.uleb128 0x2c
 17955 1879 F7       		.byte	0xf7
 17956 187a 25       		.uleb128 0x25
 17957 187b 1C       		.byte	0x1c
 17958 187c 9F       		.byte	0x9f
 17959 187d 00000000 		.4byte	0
 17960 1881 00000000 		.4byte	0
 17961              	.LLST334:
 17962 1885 7A180000 		.4byte	.LVL485-.Ltext0
 17963 1889 A0180000 		.4byte	.LVL493-.Ltext0
 17964 188d 0200     		.2byte	0x2
 17965 188f 90       		.byte	0x90
 17966 1890 49       		.uleb128 0x49
 17967 1891 A0180000 		.4byte	.LVL493-.Ltext0
 17968 1895 BA180000 		.4byte	.LVL495-.Ltext0
 17969 1899 1400     		.2byte	0x14
 17970 189b 76       		.byte	0x76
 17971 189c 00       		.sleb128 0
 17972 189d F6       		.byte	0xf6
 17973 189e 04       		.byte	0x4
 17974 189f 25       		.uleb128 0x25
 17975 18a0 76       		.byte	0x76
 17976 18a1 00       		.sleb128 0
 17977 18a2 F6       		.byte	0xf6
 17978 18a3 04       		.byte	0x4
 17979 18a4 25       		.uleb128 0x25
 17980 18a5 F7       		.byte	0xf7
 17981 18a6 2C       		.uleb128 0x2c
 17982 18a7 F7       		.byte	0xf7
 17983 18a8 25       		.uleb128 0x25
 17984 18a9 1C       		.byte	0x1c
 17985 18aa F5       		.byte	0xf5
 17986 18ab 47       		.uleb128 0x47
 17987 18ac 25       		.uleb128 0x25
 17988 18ad 1E       		.byte	0x1e
 17989 18ae 9F       		.byte	0x9f
 17990 18af 00000000 		.4byte	0
 17991 18b3 00000000 		.4byte	0
 17992              	.LLST335:
 17993 18b7 82180000 		.4byte	.LVL487-.Ltext0
 17994 18bb BA180000 		.4byte	.LVL495-.Ltext0
 17995 18bf 0100     		.2byte	0x1
 17996 18c1 5B       		.byte	0x5b
 17997 18c2 00000000 		.4byte	0
 17998 18c6 00000000 		.4byte	0
 17999              	.LLST336:
 18000 18ca 86180000 		.4byte	.LVL488-.Ltext0
 18001 18ce 8C180000 		.4byte	.LVL489-.Ltext0
 18002 18d2 0100     		.2byte	0x1
 18003 18d4 57       		.byte	0x57
 18004 18d5 8C180000 		.4byte	.LVL489-.Ltext0
 18005 18d9 94180000 		.4byte	.LVL490-.Ltext0
 18006 18dd 0300     		.2byte	0x3
 18007 18df 77       		.byte	0x77
 18008 18e0 7F       		.sleb128 -1
ARM GAS  /tmp/ccJJl1OT.s 			page 317


 18009 18e1 9F       		.byte	0x9f
 18010 18e2 94180000 		.4byte	.LVL490-.Ltext0
 18011 18e6 BA180000 		.4byte	.LVL495-.Ltext0
 18012 18ea 0600     		.2byte	0x6
 18013 18ec 7B       		.byte	0x7b
 18014 18ed 00       		.sleb128 0
 18015 18ee 08       		.byte	0x8
 18016 18ef 7F       		.byte	0x7f
 18017 18f0 1A       		.byte	0x1a
 18018 18f1 9F       		.byte	0x9f
 18019 18f2 00000000 		.4byte	0
 18020 18f6 00000000 		.4byte	0
 18021              	.LLST337:
 18022 18fa 86180000 		.4byte	.LVL488-.Ltext0
 18023 18fe 8C180000 		.4byte	.LVL489-.Ltext0
 18024 1902 0600     		.2byte	0x6
 18025 1904 77       		.byte	0x77
 18026 1905 01       		.sleb128 1
 18027 1906 08       		.byte	0x8
 18028 1907 7F       		.byte	0x7f
 18029 1908 1A       		.byte	0x1a
 18030 1909 9F       		.byte	0x9f
 18031 190a 8C180000 		.4byte	.LVL489-.Ltext0
 18032 190e 94180000 		.4byte	.LVL490-.Ltext0
 18033 1912 0600     		.2byte	0x6
 18034 1914 77       		.byte	0x77
 18035 1915 00       		.sleb128 0
 18036 1916 08       		.byte	0x8
 18037 1917 7F       		.byte	0x7f
 18038 1918 1A       		.byte	0x1a
 18039 1919 9F       		.byte	0x9f
 18040 191a 94180000 		.4byte	.LVL490-.Ltext0
 18041 191e 98180000 		.4byte	.LVL491-.Ltext0
 18042 1922 0100     		.2byte	0x1
 18043 1924 57       		.byte	0x57
 18044 1925 98180000 		.4byte	.LVL491-.Ltext0
 18045 1929 BA180000 		.4byte	.LVL495-.Ltext0
 18046 192d 0600     		.2byte	0x6
 18047 192f 7B       		.byte	0x7b
 18048 1930 01       		.sleb128 1
 18049 1931 08       		.byte	0x8
 18050 1932 7F       		.byte	0x7f
 18051 1933 1A       		.byte	0x1a
 18052 1934 9F       		.byte	0x9f
 18053 1935 00000000 		.4byte	0
 18054 1939 00000000 		.4byte	0
 18055              	.LLST338:
 18056 193d 9C180000 		.4byte	.LVL492-.Ltext0
 18057 1941 B0180000 		.4byte	.LVL494-.Ltext0
 18058 1945 0200     		.2byte	0x2
 18059 1947 90       		.byte	0x90
 18060 1948 4B       		.uleb128 0x4b
 18061 1949 00000000 		.4byte	0
 18062 194d 00000000 		.4byte	0
 18063              	.LLST339:
 18064 1951 70130000 		.4byte	.LVL368-.Ltext0
 18065 1955 88130000 		.4byte	.LVL370-.Ltext0
ARM GAS  /tmp/ccJJl1OT.s 			page 318


 18066 1959 0200     		.2byte	0x2
 18067 195b 90       		.byte	0x90
 18068 195c 4F       		.uleb128 0x4f
 18069 195d 88130000 		.4byte	.LVL370-.Ltext0
 18070 1961 E6130000 		.4byte	.LVL378-.Ltext0
 18071 1965 0200     		.2byte	0x2
 18072 1967 76       		.byte	0x76
 18073 1968 00       		.sleb128 0
 18074 1969 00000000 		.4byte	0
 18075 196d 00000000 		.4byte	0
 18076              	.LLST340:
 18077 1971 70130000 		.4byte	.LVL368-.Ltext0
 18078 1975 88130000 		.4byte	.LVL370-.Ltext0
 18079 1979 0C00     		.2byte	0xc
 18080 197b F5       		.byte	0xf5
 18081 197c 4F       		.uleb128 0x4f
 18082 197d 25       		.uleb128 0x25
 18083 197e F5       		.byte	0xf5
 18084 197f 4F       		.uleb128 0x4f
 18085 1980 25       		.uleb128 0x25
 18086 1981 F7       		.byte	0xf7
 18087 1982 2C       		.uleb128 0x2c
 18088 1983 F7       		.byte	0xf7
 18089 1984 25       		.uleb128 0x25
 18090 1985 1C       		.byte	0x1c
 18091 1986 9F       		.byte	0x9f
 18092 1987 88130000 		.4byte	.LVL370-.Ltext0
 18093 198b E6130000 		.4byte	.LVL378-.Ltext0
 18094 198f 1000     		.2byte	0x10
 18095 1991 76       		.byte	0x76
 18096 1992 00       		.sleb128 0
 18097 1993 F6       		.byte	0xf6
 18098 1994 04       		.byte	0x4
 18099 1995 25       		.uleb128 0x25
 18100 1996 76       		.byte	0x76
 18101 1997 00       		.sleb128 0
 18102 1998 F6       		.byte	0xf6
 18103 1999 04       		.byte	0x4
 18104 199a 25       		.uleb128 0x25
 18105 199b F7       		.byte	0xf7
 18106 199c 2C       		.uleb128 0x2c
 18107 199d F7       		.byte	0xf7
 18108 199e 25       		.uleb128 0x25
 18109 199f 1C       		.byte	0x1c
 18110 19a0 9F       		.byte	0x9f
 18111 19a1 00000000 		.4byte	0
 18112 19a5 00000000 		.4byte	0
 18113              	.LLST341:
 18114 19a9 84130000 		.4byte	.LVL369-.Ltext0
 18115 19ad BE130000 		.4byte	.LVL376-.Ltext0
 18116 19b1 0200     		.2byte	0x2
 18117 19b3 90       		.byte	0x90
 18118 19b4 4D       		.uleb128 0x4d
 18119 19b5 BE130000 		.4byte	.LVL376-.Ltext0
 18120 19b9 E6130000 		.4byte	.LVL378-.Ltext0
 18121 19bd 1400     		.2byte	0x14
 18122 19bf 76       		.byte	0x76
ARM GAS  /tmp/ccJJl1OT.s 			page 319


 18123 19c0 00       		.sleb128 0
 18124 19c1 F6       		.byte	0xf6
 18125 19c2 04       		.byte	0x4
 18126 19c3 25       		.uleb128 0x25
 18127 19c4 76       		.byte	0x76
 18128 19c5 00       		.sleb128 0
 18129 19c6 F6       		.byte	0xf6
 18130 19c7 04       		.byte	0x4
 18131 19c8 25       		.uleb128 0x25
 18132 19c9 F7       		.byte	0xf7
 18133 19ca 2C       		.uleb128 0x2c
 18134 19cb F7       		.byte	0xf7
 18135 19cc 25       		.uleb128 0x25
 18136 19cd 1C       		.byte	0x1c
 18137 19ce F5       		.byte	0xf5
 18138 19cf 47       		.uleb128 0x47
 18139 19d0 25       		.uleb128 0x25
 18140 19d1 1E       		.byte	0x1e
 18141 19d2 9F       		.byte	0x9f
 18142 19d3 00000000 		.4byte	0
 18143 19d7 00000000 		.4byte	0
 18144              	.LLST342:
 18145 19db 8C130000 		.4byte	.LVL371-.Ltext0
 18146 19df F6130000 		.4byte	.LVL381-.Ltext0
 18147 19e3 0100     		.2byte	0x1
 18148 19e5 5B       		.byte	0x5b
 18149 19e6 F6130000 		.4byte	.LVL381-.Ltext0
 18150 19ea 2A180000 		.4byte	.LVL477-.Ltext0
 18151 19ee 1800     		.2byte	0x18
 18152 19f0 76       		.byte	0x76
 18153 19f1 00       		.sleb128 0
 18154 19f2 F6       		.byte	0xf6
 18155 19f3 04       		.byte	0x4
 18156 19f4 25       		.uleb128 0x25
 18157 19f5 76       		.byte	0x76
 18158 19f6 00       		.sleb128 0
 18159 19f7 F6       		.byte	0xf6
 18160 19f8 04       		.byte	0x4
 18161 19f9 25       		.uleb128 0x25
 18162 19fa F7       		.byte	0xf7
 18163 19fb 2C       		.uleb128 0x2c
 18164 19fc F7       		.byte	0xf7
 18165 19fd 25       		.uleb128 0x25
 18166 19fe 1C       		.byte	0x1c
 18167 19ff F5       		.byte	0xf5
 18168 1a00 47       		.uleb128 0x47
 18169 1a01 25       		.uleb128 0x25
 18170 1a02 1E       		.byte	0x1e
 18171 1a03 F7       		.byte	0xf7
 18172 1a04 25       		.uleb128 0x25
 18173 1a05 F7       		.byte	0xf7
 18174 1a06 2C       		.uleb128 0x2c
 18175 1a07 9F       		.byte	0x9f
 18176 1a08 00000000 		.4byte	0
 18177 1a0c 00000000 		.4byte	0
 18178              	.LLST343:
 18179 1a10 8C130000 		.4byte	.LVL371-.Ltext0
ARM GAS  /tmp/ccJJl1OT.s 			page 320


 18180 1a14 A4130000 		.4byte	.LVL372-.Ltext0
 18181 1a18 0100     		.2byte	0x1
 18182 1a1a 5B       		.byte	0x5b
 18183 1a1b A4130000 		.4byte	.LVL372-.Ltext0
 18184 1a1f B6130000 		.4byte	.LVL375-.Ltext0
 18185 1a23 0100     		.2byte	0x1
 18186 1a25 5A       		.byte	0x5a
 18187 1a26 00000000 		.4byte	0
 18188 1a2a 00000000 		.4byte	0
 18189              	.LLST344:
 18190 1a2e 8C130000 		.4byte	.LVL371-.Ltext0
 18191 1a32 AA130000 		.4byte	.LVL373-.Ltext0
 18192 1a36 0300     		.2byte	0x3
 18193 1a38 7B       		.byte	0x7b
 18194 1a39 01       		.sleb128 1
 18195 1a3a 9F       		.byte	0x9f
 18196 1a3b AA130000 		.4byte	.LVL373-.Ltext0
 18197 1a3f B2130000 		.4byte	.LVL374-.Ltext0
 18198 1a43 0100     		.2byte	0x1
 18199 1a45 57       		.byte	0x57
 18200 1a46 00000000 		.4byte	0
 18201 1a4a 00000000 		.4byte	0
 18202              	.LLST345:
 18203 1a4e 8C130000 		.4byte	.LVL371-.Ltext0
 18204 1a52 AA130000 		.4byte	.LVL373-.Ltext0
 18205 1a56 0600     		.2byte	0x6
 18206 1a58 9E       		.byte	0x9e
 18207 1a59 04       		.uleb128 0x4
 18208 1a5a 0000803F 		.4byte	0x3f800000
 18209 1a5e AA130000 		.4byte	.LVL373-.Ltext0
 18210 1a62 DE130000 		.4byte	.LVL377-.Ltext0
 18211 1a66 0600     		.2byte	0x6
 18212 1a68 9E       		.byte	0x9e
 18213 1a69 04       		.uleb128 0x4
 18214 1a6a 000080BF 		.4byte	0xbf800000
 18215 1a6e DE130000 		.4byte	.LVL377-.Ltext0
 18216 1a72 E6130000 		.4byte	.LVL378-.Ltext0
 18217 1a76 0200     		.2byte	0x2
 18218 1a78 90       		.byte	0x90
 18219 1a79 4A       		.uleb128 0x4a
 18220 1a7a 00000000 		.4byte	0
 18221 1a7e 00000000 		.4byte	0
 18222              	.LLST346:
 18223 1a82 B00E0000 		.4byte	.LVL258-.Ltext0
 18224 1a86 C80E0000 		.4byte	.LVL260-.Ltext0
 18225 1a8a 0200     		.2byte	0x2
 18226 1a8c 90       		.byte	0x90
 18227 1a8d 4F       		.uleb128 0x4f
 18228 1a8e C80E0000 		.4byte	.LVL260-.Ltext0
 18229 1a92 260F0000 		.4byte	.LVL268-.Ltext0
 18230 1a96 0200     		.2byte	0x2
 18231 1a98 76       		.byte	0x76
 18232 1a99 00       		.sleb128 0
 18233 1a9a 00000000 		.4byte	0
 18234 1a9e 00000000 		.4byte	0
 18235              	.LLST347:
 18236 1aa2 B00E0000 		.4byte	.LVL258-.Ltext0
ARM GAS  /tmp/ccJJl1OT.s 			page 321


 18237 1aa6 C80E0000 		.4byte	.LVL260-.Ltext0
 18238 1aaa 0C00     		.2byte	0xc
 18239 1aac F5       		.byte	0xf5
 18240 1aad 4F       		.uleb128 0x4f
 18241 1aae 25       		.uleb128 0x25
 18242 1aaf F5       		.byte	0xf5
 18243 1ab0 4F       		.uleb128 0x4f
 18244 1ab1 25       		.uleb128 0x25
 18245 1ab2 F7       		.byte	0xf7
 18246 1ab3 2C       		.uleb128 0x2c
 18247 1ab4 F7       		.byte	0xf7
 18248 1ab5 25       		.uleb128 0x25
 18249 1ab6 1C       		.byte	0x1c
 18250 1ab7 9F       		.byte	0x9f
 18251 1ab8 C80E0000 		.4byte	.LVL260-.Ltext0
 18252 1abc 260F0000 		.4byte	.LVL268-.Ltext0
 18253 1ac0 1000     		.2byte	0x10
 18254 1ac2 76       		.byte	0x76
 18255 1ac3 00       		.sleb128 0
 18256 1ac4 F6       		.byte	0xf6
 18257 1ac5 04       		.byte	0x4
 18258 1ac6 25       		.uleb128 0x25
 18259 1ac7 76       		.byte	0x76
 18260 1ac8 00       		.sleb128 0
 18261 1ac9 F6       		.byte	0xf6
 18262 1aca 04       		.byte	0x4
 18263 1acb 25       		.uleb128 0x25
 18264 1acc F7       		.byte	0xf7
 18265 1acd 2C       		.uleb128 0x2c
 18266 1ace F7       		.byte	0xf7
 18267 1acf 25       		.uleb128 0x25
 18268 1ad0 1C       		.byte	0x1c
 18269 1ad1 9F       		.byte	0x9f
 18270 1ad2 00000000 		.4byte	0
 18271 1ad6 00000000 		.4byte	0
 18272              	.LLST348:
 18273 1ada C40E0000 		.4byte	.LVL259-.Ltext0
 18274 1ade FE0E0000 		.4byte	.LVL266-.Ltext0
 18275 1ae2 0200     		.2byte	0x2
 18276 1ae4 90       		.byte	0x90
 18277 1ae5 4D       		.uleb128 0x4d
 18278 1ae6 FE0E0000 		.4byte	.LVL266-.Ltext0
 18279 1aea 260F0000 		.4byte	.LVL268-.Ltext0
 18280 1aee 1400     		.2byte	0x14
 18281 1af0 76       		.byte	0x76
 18282 1af1 00       		.sleb128 0
 18283 1af2 F6       		.byte	0xf6
 18284 1af3 04       		.byte	0x4
 18285 1af4 25       		.uleb128 0x25
 18286 1af5 76       		.byte	0x76
 18287 1af6 00       		.sleb128 0
 18288 1af7 F6       		.byte	0xf6
 18289 1af8 04       		.byte	0x4
 18290 1af9 25       		.uleb128 0x25
 18291 1afa F7       		.byte	0xf7
 18292 1afb 2C       		.uleb128 0x2c
 18293 1afc F7       		.byte	0xf7
ARM GAS  /tmp/ccJJl1OT.s 			page 322


 18294 1afd 25       		.uleb128 0x25
 18295 1afe 1C       		.byte	0x1c
 18296 1aff F5       		.byte	0xf5
 18297 1b00 47       		.uleb128 0x47
 18298 1b01 25       		.uleb128 0x25
 18299 1b02 1E       		.byte	0x1e
 18300 1b03 9F       		.byte	0x9f
 18301 1b04 00000000 		.4byte	0
 18302 1b08 00000000 		.4byte	0
 18303              	.LLST349:
 18304 1b0c CC0E0000 		.4byte	.LVL261-.Ltext0
 18305 1b10 360F0000 		.4byte	.LVL271-.Ltext0
 18306 1b14 0100     		.2byte	0x1
 18307 1b16 5B       		.byte	0x5b
 18308 1b17 360F0000 		.4byte	.LVL271-.Ltext0
 18309 1b1b 6C130000 		.4byte	.LVL367-.Ltext0
 18310 1b1f 1800     		.2byte	0x18
 18311 1b21 76       		.byte	0x76
 18312 1b22 00       		.sleb128 0
 18313 1b23 F6       		.byte	0xf6
 18314 1b24 04       		.byte	0x4
 18315 1b25 25       		.uleb128 0x25
 18316 1b26 76       		.byte	0x76
 18317 1b27 00       		.sleb128 0
 18318 1b28 F6       		.byte	0xf6
 18319 1b29 04       		.byte	0x4
 18320 1b2a 25       		.uleb128 0x25
 18321 1b2b F7       		.byte	0xf7
 18322 1b2c 2C       		.uleb128 0x2c
 18323 1b2d F7       		.byte	0xf7
 18324 1b2e 25       		.uleb128 0x25
 18325 1b2f 1C       		.byte	0x1c
 18326 1b30 F5       		.byte	0xf5
 18327 1b31 47       		.uleb128 0x47
 18328 1b32 25       		.uleb128 0x25
 18329 1b33 1E       		.byte	0x1e
 18330 1b34 F7       		.byte	0xf7
 18331 1b35 25       		.uleb128 0x25
 18332 1b36 F7       		.byte	0xf7
 18333 1b37 2C       		.uleb128 0x2c
 18334 1b38 9F       		.byte	0x9f
 18335 1b39 00000000 		.4byte	0
 18336 1b3d 00000000 		.4byte	0
 18337              	.LLST350:
 18338 1b41 CC0E0000 		.4byte	.LVL261-.Ltext0
 18339 1b45 E40E0000 		.4byte	.LVL262-.Ltext0
 18340 1b49 0100     		.2byte	0x1
 18341 1b4b 5B       		.byte	0x5b
 18342 1b4c E40E0000 		.4byte	.LVL262-.Ltext0
 18343 1b50 F60E0000 		.4byte	.LVL265-.Ltext0
 18344 1b54 0100     		.2byte	0x1
 18345 1b56 5A       		.byte	0x5a
 18346 1b57 00000000 		.4byte	0
 18347 1b5b 00000000 		.4byte	0
 18348              	.LLST351:
 18349 1b5f CC0E0000 		.4byte	.LVL261-.Ltext0
 18350 1b63 EA0E0000 		.4byte	.LVL263-.Ltext0
ARM GAS  /tmp/ccJJl1OT.s 			page 323


 18351 1b67 0300     		.2byte	0x3
 18352 1b69 7B       		.byte	0x7b
 18353 1b6a 01       		.sleb128 1
 18354 1b6b 9F       		.byte	0x9f
 18355 1b6c EA0E0000 		.4byte	.LVL263-.Ltext0
 18356 1b70 F20E0000 		.4byte	.LVL264-.Ltext0
 18357 1b74 0100     		.2byte	0x1
 18358 1b76 57       		.byte	0x57
 18359 1b77 00000000 		.4byte	0
 18360 1b7b 00000000 		.4byte	0
 18361              	.LLST352:
 18362 1b7f CC0E0000 		.4byte	.LVL261-.Ltext0
 18363 1b83 EA0E0000 		.4byte	.LVL263-.Ltext0
 18364 1b87 0600     		.2byte	0x6
 18365 1b89 9E       		.byte	0x9e
 18366 1b8a 04       		.uleb128 0x4
 18367 1b8b 0000803F 		.4byte	0x3f800000
 18368 1b8f EA0E0000 		.4byte	.LVL263-.Ltext0
 18369 1b93 1E0F0000 		.4byte	.LVL267-.Ltext0
 18370 1b97 0600     		.2byte	0x6
 18371 1b99 9E       		.byte	0x9e
 18372 1b9a 04       		.uleb128 0x4
 18373 1b9b 000080BF 		.4byte	0xbf800000
 18374 1b9f 1E0F0000 		.4byte	.LVL267-.Ltext0
 18375 1ba3 260F0000 		.4byte	.LVL268-.Ltext0
 18376 1ba7 0200     		.2byte	0x2
 18377 1ba9 90       		.byte	0x90
 18378 1baa 4A       		.uleb128 0x4a
 18379 1bab 00000000 		.4byte	0
 18380 1baf 00000000 		.4byte	0
 18381              	.LLST353:
 18382 1bb3 260F0000 		.4byte	.LVL268-.Ltext0
 18383 1bb7 320F0000 		.4byte	.LVL270-.Ltext0
 18384 1bbb 0200     		.2byte	0x2
 18385 1bbd 90       		.byte	0x90
 18386 1bbe 4C       		.uleb128 0x4c
 18387 1bbf 320F0000 		.4byte	.LVL270-.Ltext0
 18388 1bc3 840F0000 		.4byte	.LVL277-.Ltext0
 18389 1bc7 0300     		.2byte	0x3
 18390 1bc9 91       		.byte	0x91
 18391 1bca AC7F     		.sleb128 -84
 18392 1bcc 00000000 		.4byte	0
 18393 1bd0 00000000 		.4byte	0
 18394              	.LLST354:
 18395 1bd4 260F0000 		.4byte	.LVL268-.Ltext0
 18396 1bd8 320F0000 		.4byte	.LVL270-.Ltext0
 18397 1bdc 0C00     		.2byte	0xc
 18398 1bde F5       		.byte	0xf5
 18399 1bdf 4C       		.uleb128 0x4c
 18400 1be0 25       		.uleb128 0x25
 18401 1be1 F5       		.byte	0xf5
 18402 1be2 4C       		.uleb128 0x4c
 18403 1be3 25       		.uleb128 0x25
 18404 1be4 F7       		.byte	0xf7
 18405 1be5 2C       		.uleb128 0x2c
 18406 1be6 F7       		.byte	0xf7
 18407 1be7 25       		.uleb128 0x25
ARM GAS  /tmp/ccJJl1OT.s 			page 324


 18408 1be8 1C       		.byte	0x1c
 18409 1be9 9F       		.byte	0x9f
 18410 1bea 320F0000 		.4byte	.LVL270-.Ltext0
 18411 1bee 840F0000 		.4byte	.LVL277-.Ltext0
 18412 1bf2 1200     		.2byte	0x12
 18413 1bf4 91       		.byte	0x91
 18414 1bf5 AC7F     		.sleb128 -84
 18415 1bf7 F6       		.byte	0xf6
 18416 1bf8 04       		.byte	0x4
 18417 1bf9 25       		.uleb128 0x25
 18418 1bfa 91       		.byte	0x91
 18419 1bfb AC7F     		.sleb128 -84
 18420 1bfd F6       		.byte	0xf6
 18421 1bfe 04       		.byte	0x4
 18422 1bff 25       		.uleb128 0x25
 18423 1c00 F7       		.byte	0xf7
 18424 1c01 2C       		.uleb128 0x2c
 18425 1c02 F7       		.byte	0xf7
 18426 1c03 25       		.uleb128 0x25
 18427 1c04 1C       		.byte	0x1c
 18428 1c05 9F       		.byte	0x9f
 18429 1c06 00000000 		.4byte	0
 18430 1c0a 00000000 		.4byte	0
 18431              	.LLST355:
 18432 1c0e 2E0F0000 		.4byte	.LVL269-.Ltext0
 18433 1c12 640F0000 		.4byte	.LVL276-.Ltext0
 18434 1c16 0200     		.2byte	0x2
 18435 1c18 90       		.byte	0x90
 18436 1c19 4D       		.uleb128 0x4d
 18437 1c1a 640F0000 		.4byte	.LVL276-.Ltext0
 18438 1c1e 840F0000 		.4byte	.LVL277-.Ltext0
 18439 1c22 1600     		.2byte	0x16
 18440 1c24 91       		.byte	0x91
 18441 1c25 AC7F     		.sleb128 -84
 18442 1c27 F6       		.byte	0xf6
 18443 1c28 04       		.byte	0x4
 18444 1c29 25       		.uleb128 0x25
 18445 1c2a 91       		.byte	0x91
 18446 1c2b AC7F     		.sleb128 -84
 18447 1c2d F6       		.byte	0xf6
 18448 1c2e 04       		.byte	0x4
 18449 1c2f 25       		.uleb128 0x25
 18450 1c30 F7       		.byte	0xf7
 18451 1c31 2C       		.uleb128 0x2c
 18452 1c32 F7       		.byte	0xf7
 18453 1c33 25       		.uleb128 0x25
 18454 1c34 1C       		.byte	0x1c
 18455 1c35 F5       		.byte	0xf5
 18456 1c36 47       		.uleb128 0x47
 18457 1c37 25       		.uleb128 0x25
 18458 1c38 1E       		.byte	0x1e
 18459 1c39 9F       		.byte	0x9f
 18460 1c3a 00000000 		.4byte	0
 18461 1c3e 00000000 		.4byte	0
 18462              	.LLST356:
 18463 1c42 360F0000 		.4byte	.LVL271-.Ltext0
 18464 1c46 9C0F0000 		.4byte	.LVL280-.Ltext0
ARM GAS  /tmp/ccJJl1OT.s 			page 325


 18465 1c4a 0100     		.2byte	0x1
 18466 1c4c 5B       		.byte	0x5b
 18467 1c4d 9C0F0000 		.4byte	.LVL280-.Ltext0
 18468 1c51 6C130000 		.4byte	.LVL367-.Ltext0
 18469 1c55 1A00     		.2byte	0x1a
 18470 1c57 91       		.byte	0x91
 18471 1c58 AC7F     		.sleb128 -84
 18472 1c5a F6       		.byte	0xf6
 18473 1c5b 04       		.byte	0x4
 18474 1c5c 25       		.uleb128 0x25
 18475 1c5d 91       		.byte	0x91
 18476 1c5e AC7F     		.sleb128 -84
 18477 1c60 F6       		.byte	0xf6
 18478 1c61 04       		.byte	0x4
 18479 1c62 25       		.uleb128 0x25
 18480 1c63 F7       		.byte	0xf7
 18481 1c64 2C       		.uleb128 0x2c
 18482 1c65 F7       		.byte	0xf7
 18483 1c66 25       		.uleb128 0x25
 18484 1c67 1C       		.byte	0x1c
 18485 1c68 F5       		.byte	0xf5
 18486 1c69 47       		.uleb128 0x47
 18487 1c6a 25       		.uleb128 0x25
 18488 1c6b 1E       		.byte	0x1e
 18489 1c6c F7       		.byte	0xf7
 18490 1c6d 25       		.uleb128 0x25
 18491 1c6e F7       		.byte	0xf7
 18492 1c6f 2C       		.uleb128 0x2c
 18493 1c70 9F       		.byte	0x9f
 18494 1c71 00000000 		.4byte	0
 18495 1c75 00000000 		.4byte	0
 18496              	.LLST357:
 18497 1c79 360F0000 		.4byte	.LVL271-.Ltext0
 18498 1c7d 4A0F0000 		.4byte	.LVL272-.Ltext0
 18499 1c81 0100     		.2byte	0x1
 18500 1c83 5B       		.byte	0x5b
 18501 1c84 4A0F0000 		.4byte	.LVL272-.Ltext0
 18502 1c88 5C0F0000 		.4byte	.LVL275-.Ltext0
 18503 1c8c 0100     		.2byte	0x1
 18504 1c8e 5A       		.byte	0x5a
 18505 1c8f 00000000 		.4byte	0
 18506 1c93 00000000 		.4byte	0
 18507              	.LLST358:
 18508 1c97 360F0000 		.4byte	.LVL271-.Ltext0
 18509 1c9b 500F0000 		.4byte	.LVL273-.Ltext0
 18510 1c9f 0300     		.2byte	0x3
 18511 1ca1 7B       		.byte	0x7b
 18512 1ca2 01       		.sleb128 1
 18513 1ca3 9F       		.byte	0x9f
 18514 1ca4 500F0000 		.4byte	.LVL273-.Ltext0
 18515 1ca8 580F0000 		.4byte	.LVL274-.Ltext0
 18516 1cac 0100     		.2byte	0x1
 18517 1cae 57       		.byte	0x57
 18518 1caf 00000000 		.4byte	0
 18519 1cb3 00000000 		.4byte	0
 18520              	.LLST359:
 18521 1cb7 360F0000 		.4byte	.LVL271-.Ltext0
ARM GAS  /tmp/ccJJl1OT.s 			page 326


 18522 1cbb 500F0000 		.4byte	.LVL273-.Ltext0
 18523 1cbf 0600     		.2byte	0x6
 18524 1cc1 9E       		.byte	0x9e
 18525 1cc2 04       		.uleb128 0x4
 18526 1cc3 0000803F 		.4byte	0x3f800000
 18527 1cc7 500F0000 		.4byte	.LVL273-.Ltext0
 18528 1ccb 840F0000 		.4byte	.LVL277-.Ltext0
 18529 1ccf 0600     		.2byte	0x6
 18530 1cd1 9E       		.byte	0x9e
 18531 1cd2 04       		.uleb128 0x4
 18532 1cd3 000080BF 		.4byte	0xbf800000
 18533 1cd7 00000000 		.4byte	0
 18534 1cdb 00000000 		.4byte	0
 18535              	.LLST360:
 18536 1cdf 840F0000 		.4byte	.LVL277-.Ltext0
 18537 1ce3 980F0000 		.4byte	.LVL279-.Ltext0
 18538 1ce7 0200     		.2byte	0x2
 18539 1ce9 90       		.byte	0x90
 18540 1cea 4C       		.uleb128 0x4c
 18541 1ceb 980F0000 		.4byte	.LVL279-.Ltext0
 18542 1cef EA0F0000 		.4byte	.LVL286-.Ltext0
 18543 1cf3 0300     		.2byte	0x3
 18544 1cf5 91       		.byte	0x91
 18545 1cf6 B07F     		.sleb128 -80
 18546 1cf8 00000000 		.4byte	0
 18547 1cfc 00000000 		.4byte	0
 18548              	.LLST361:
 18549 1d00 840F0000 		.4byte	.LVL277-.Ltext0
 18550 1d04 980F0000 		.4byte	.LVL279-.Ltext0
 18551 1d08 0C00     		.2byte	0xc
 18552 1d0a F5       		.byte	0xf5
 18553 1d0b 4C       		.uleb128 0x4c
 18554 1d0c 25       		.uleb128 0x25
 18555 1d0d F5       		.byte	0xf5
 18556 1d0e 4C       		.uleb128 0x4c
 18557 1d0f 25       		.uleb128 0x25
 18558 1d10 F7       		.byte	0xf7
 18559 1d11 2C       		.uleb128 0x2c
 18560 1d12 F7       		.byte	0xf7
 18561 1d13 25       		.uleb128 0x25
 18562 1d14 1C       		.byte	0x1c
 18563 1d15 9F       		.byte	0x9f
 18564 1d16 980F0000 		.4byte	.LVL279-.Ltext0
 18565 1d1a EA0F0000 		.4byte	.LVL286-.Ltext0
 18566 1d1e 1200     		.2byte	0x12
 18567 1d20 91       		.byte	0x91
 18568 1d21 B07F     		.sleb128 -80
 18569 1d23 F6       		.byte	0xf6
 18570 1d24 04       		.byte	0x4
 18571 1d25 25       		.uleb128 0x25
 18572 1d26 91       		.byte	0x91
 18573 1d27 B07F     		.sleb128 -80
 18574 1d29 F6       		.byte	0xf6
 18575 1d2a 04       		.byte	0x4
 18576 1d2b 25       		.uleb128 0x25
 18577 1d2c F7       		.byte	0xf7
 18578 1d2d 2C       		.uleb128 0x2c
ARM GAS  /tmp/ccJJl1OT.s 			page 327


 18579 1d2e F7       		.byte	0xf7
 18580 1d2f 25       		.uleb128 0x25
 18581 1d30 1C       		.byte	0x1c
 18582 1d31 9F       		.byte	0x9f
 18583 1d32 00000000 		.4byte	0
 18584 1d36 00000000 		.4byte	0
 18585              	.LLST362:
 18586 1d3a 940F0000 		.4byte	.LVL278-.Ltext0
 18587 1d3e CA0F0000 		.4byte	.LVL285-.Ltext0
 18588 1d42 0200     		.2byte	0x2
 18589 1d44 90       		.byte	0x90
 18590 1d45 4D       		.uleb128 0x4d
 18591 1d46 CA0F0000 		.4byte	.LVL285-.Ltext0
 18592 1d4a EA0F0000 		.4byte	.LVL286-.Ltext0
 18593 1d4e 1600     		.2byte	0x16
 18594 1d50 91       		.byte	0x91
 18595 1d51 B07F     		.sleb128 -80
 18596 1d53 F6       		.byte	0xf6
 18597 1d54 04       		.byte	0x4
 18598 1d55 25       		.uleb128 0x25
 18599 1d56 91       		.byte	0x91
 18600 1d57 B07F     		.sleb128 -80
 18601 1d59 F6       		.byte	0xf6
 18602 1d5a 04       		.byte	0x4
 18603 1d5b 25       		.uleb128 0x25
 18604 1d5c F7       		.byte	0xf7
 18605 1d5d 2C       		.uleb128 0x2c
 18606 1d5e F7       		.byte	0xf7
 18607 1d5f 25       		.uleb128 0x25
 18608 1d60 1C       		.byte	0x1c
 18609 1d61 F5       		.byte	0xf5
 18610 1d62 47       		.uleb128 0x47
 18611 1d63 25       		.uleb128 0x25
 18612 1d64 1E       		.byte	0x1e
 18613 1d65 9F       		.byte	0x9f
 18614 1d66 00000000 		.4byte	0
 18615 1d6a 00000000 		.4byte	0
 18616              	.LLST363:
 18617 1d6e 9C0F0000 		.4byte	.LVL280-.Ltext0
 18618 1d72 02100000 		.4byte	.LVL289-.Ltext0
 18619 1d76 0100     		.2byte	0x1
 18620 1d78 5B       		.byte	0x5b
 18621 1d79 02100000 		.4byte	.LVL289-.Ltext0
 18622 1d7d 6C130000 		.4byte	.LVL367-.Ltext0
 18623 1d81 1A00     		.2byte	0x1a
 18624 1d83 91       		.byte	0x91
 18625 1d84 B07F     		.sleb128 -80
 18626 1d86 F6       		.byte	0xf6
 18627 1d87 04       		.byte	0x4
 18628 1d88 25       		.uleb128 0x25
 18629 1d89 91       		.byte	0x91
 18630 1d8a B07F     		.sleb128 -80
 18631 1d8c F6       		.byte	0xf6
 18632 1d8d 04       		.byte	0x4
 18633 1d8e 25       		.uleb128 0x25
 18634 1d8f F7       		.byte	0xf7
 18635 1d90 2C       		.uleb128 0x2c
ARM GAS  /tmp/ccJJl1OT.s 			page 328


 18636 1d91 F7       		.byte	0xf7
 18637 1d92 25       		.uleb128 0x25
 18638 1d93 1C       		.byte	0x1c
 18639 1d94 F5       		.byte	0xf5
 18640 1d95 47       		.uleb128 0x47
 18641 1d96 25       		.uleb128 0x25
 18642 1d97 1E       		.byte	0x1e
 18643 1d98 F7       		.byte	0xf7
 18644 1d99 25       		.uleb128 0x25
 18645 1d9a F7       		.byte	0xf7
 18646 1d9b 2C       		.uleb128 0x2c
 18647 1d9c 9F       		.byte	0x9f
 18648 1d9d 00000000 		.4byte	0
 18649 1da1 00000000 		.4byte	0
 18650              	.LLST364:
 18651 1da5 9C0F0000 		.4byte	.LVL280-.Ltext0
 18652 1da9 B00F0000 		.4byte	.LVL281-.Ltext0
 18653 1dad 0100     		.2byte	0x1
 18654 1daf 5B       		.byte	0x5b
 18655 1db0 B00F0000 		.4byte	.LVL281-.Ltext0
 18656 1db4 C20F0000 		.4byte	.LVL284-.Ltext0
 18657 1db8 0100     		.2byte	0x1
 18658 1dba 5A       		.byte	0x5a
 18659 1dbb 00000000 		.4byte	0
 18660 1dbf 00000000 		.4byte	0
 18661              	.LLST365:
 18662 1dc3 9C0F0000 		.4byte	.LVL280-.Ltext0
 18663 1dc7 B60F0000 		.4byte	.LVL282-.Ltext0
 18664 1dcb 0300     		.2byte	0x3
 18665 1dcd 7B       		.byte	0x7b
 18666 1dce 01       		.sleb128 1
 18667 1dcf 9F       		.byte	0x9f
 18668 1dd0 B60F0000 		.4byte	.LVL282-.Ltext0
 18669 1dd4 BE0F0000 		.4byte	.LVL283-.Ltext0
 18670 1dd8 0100     		.2byte	0x1
 18671 1dda 57       		.byte	0x57
 18672 1ddb 00000000 		.4byte	0
 18673 1ddf 00000000 		.4byte	0
 18674              	.LLST366:
 18675 1de3 9C0F0000 		.4byte	.LVL280-.Ltext0
 18676 1de7 B60F0000 		.4byte	.LVL282-.Ltext0
 18677 1deb 0600     		.2byte	0x6
 18678 1ded 9E       		.byte	0x9e
 18679 1dee 04       		.uleb128 0x4
 18680 1def 0000803F 		.4byte	0x3f800000
 18681 1df3 B60F0000 		.4byte	.LVL282-.Ltext0
 18682 1df7 EA0F0000 		.4byte	.LVL286-.Ltext0
 18683 1dfb 0600     		.2byte	0x6
 18684 1dfd 9E       		.byte	0x9e
 18685 1dfe 04       		.uleb128 0x4
 18686 1dff 000080BF 		.4byte	0xbf800000
 18687 1e03 00000000 		.4byte	0
 18688 1e07 00000000 		.4byte	0
 18689              	.LLST367:
 18690 1e0b EA0F0000 		.4byte	.LVL286-.Ltext0
 18691 1e0f FE0F0000 		.4byte	.LVL288-.Ltext0
 18692 1e13 0200     		.2byte	0x2
ARM GAS  /tmp/ccJJl1OT.s 			page 329


 18693 1e15 90       		.byte	0x90
 18694 1e16 4C       		.uleb128 0x4c
 18695 1e17 FE0F0000 		.4byte	.LVL288-.Ltext0
 18696 1e1b 50100000 		.4byte	.LVL295-.Ltext0
 18697 1e1f 0300     		.2byte	0x3
 18698 1e21 91       		.byte	0x91
 18699 1e22 B47F     		.sleb128 -76
 18700 1e24 00000000 		.4byte	0
 18701 1e28 00000000 		.4byte	0
 18702              	.LLST368:
 18703 1e2c EA0F0000 		.4byte	.LVL286-.Ltext0
 18704 1e30 FE0F0000 		.4byte	.LVL288-.Ltext0
 18705 1e34 0C00     		.2byte	0xc
 18706 1e36 F5       		.byte	0xf5
 18707 1e37 4C       		.uleb128 0x4c
 18708 1e38 25       		.uleb128 0x25
 18709 1e39 F5       		.byte	0xf5
 18710 1e3a 4C       		.uleb128 0x4c
 18711 1e3b 25       		.uleb128 0x25
 18712 1e3c F7       		.byte	0xf7
 18713 1e3d 2C       		.uleb128 0x2c
 18714 1e3e F7       		.byte	0xf7
 18715 1e3f 25       		.uleb128 0x25
 18716 1e40 1C       		.byte	0x1c
 18717 1e41 9F       		.byte	0x9f
 18718 1e42 FE0F0000 		.4byte	.LVL288-.Ltext0
 18719 1e46 50100000 		.4byte	.LVL295-.Ltext0
 18720 1e4a 1200     		.2byte	0x12
 18721 1e4c 91       		.byte	0x91
 18722 1e4d B47F     		.sleb128 -76
 18723 1e4f F6       		.byte	0xf6
 18724 1e50 04       		.byte	0x4
 18725 1e51 25       		.uleb128 0x25
 18726 1e52 91       		.byte	0x91
 18727 1e53 B47F     		.sleb128 -76
 18728 1e55 F6       		.byte	0xf6
 18729 1e56 04       		.byte	0x4
 18730 1e57 25       		.uleb128 0x25
 18731 1e58 F7       		.byte	0xf7
 18732 1e59 2C       		.uleb128 0x2c
 18733 1e5a F7       		.byte	0xf7
 18734 1e5b 25       		.uleb128 0x25
 18735 1e5c 1C       		.byte	0x1c
 18736 1e5d 9F       		.byte	0x9f
 18737 1e5e 00000000 		.4byte	0
 18738 1e62 00000000 		.4byte	0
 18739              	.LLST369:
 18740 1e66 FA0F0000 		.4byte	.LVL287-.Ltext0
 18741 1e6a 30100000 		.4byte	.LVL294-.Ltext0
 18742 1e6e 0200     		.2byte	0x2
 18743 1e70 90       		.byte	0x90
 18744 1e71 4D       		.uleb128 0x4d
 18745 1e72 30100000 		.4byte	.LVL294-.Ltext0
 18746 1e76 50100000 		.4byte	.LVL295-.Ltext0
 18747 1e7a 1600     		.2byte	0x16
 18748 1e7c 91       		.byte	0x91
 18749 1e7d B47F     		.sleb128 -76
ARM GAS  /tmp/ccJJl1OT.s 			page 330


 18750 1e7f F6       		.byte	0xf6
 18751 1e80 04       		.byte	0x4
 18752 1e81 25       		.uleb128 0x25
 18753 1e82 91       		.byte	0x91
 18754 1e83 B47F     		.sleb128 -76
 18755 1e85 F6       		.byte	0xf6
 18756 1e86 04       		.byte	0x4
 18757 1e87 25       		.uleb128 0x25
 18758 1e88 F7       		.byte	0xf7
 18759 1e89 2C       		.uleb128 0x2c
 18760 1e8a F7       		.byte	0xf7
 18761 1e8b 25       		.uleb128 0x25
 18762 1e8c 1C       		.byte	0x1c
 18763 1e8d F5       		.byte	0xf5
 18764 1e8e 47       		.uleb128 0x47
 18765 1e8f 25       		.uleb128 0x25
 18766 1e90 1E       		.byte	0x1e
 18767 1e91 9F       		.byte	0x9f
 18768 1e92 00000000 		.4byte	0
 18769 1e96 00000000 		.4byte	0
 18770              	.LLST370:
 18771 1e9a 02100000 		.4byte	.LVL289-.Ltext0
 18772 1e9e 68100000 		.4byte	.LVL298-.Ltext0
 18773 1ea2 0100     		.2byte	0x1
 18774 1ea4 5B       		.byte	0x5b
 18775 1ea5 68100000 		.4byte	.LVL298-.Ltext0
 18776 1ea9 6C130000 		.4byte	.LVL367-.Ltext0
 18777 1ead 1A00     		.2byte	0x1a
 18778 1eaf 91       		.byte	0x91
 18779 1eb0 B47F     		.sleb128 -76
 18780 1eb2 F6       		.byte	0xf6
 18781 1eb3 04       		.byte	0x4
 18782 1eb4 25       		.uleb128 0x25
 18783 1eb5 91       		.byte	0x91
 18784 1eb6 B47F     		.sleb128 -76
 18785 1eb8 F6       		.byte	0xf6
 18786 1eb9 04       		.byte	0x4
 18787 1eba 25       		.uleb128 0x25
 18788 1ebb F7       		.byte	0xf7
 18789 1ebc 2C       		.uleb128 0x2c
 18790 1ebd F7       		.byte	0xf7
 18791 1ebe 25       		.uleb128 0x25
 18792 1ebf 1C       		.byte	0x1c
 18793 1ec0 F5       		.byte	0xf5
 18794 1ec1 47       		.uleb128 0x47
 18795 1ec2 25       		.uleb128 0x25
 18796 1ec3 1E       		.byte	0x1e
 18797 1ec4 F7       		.byte	0xf7
 18798 1ec5 25       		.uleb128 0x25
 18799 1ec6 F7       		.byte	0xf7
 18800 1ec7 2C       		.uleb128 0x2c
 18801 1ec8 9F       		.byte	0x9f
 18802 1ec9 00000000 		.4byte	0
 18803 1ecd 00000000 		.4byte	0
 18804              	.LLST371:
 18805 1ed1 02100000 		.4byte	.LVL289-.Ltext0
 18806 1ed5 16100000 		.4byte	.LVL290-.Ltext0
ARM GAS  /tmp/ccJJl1OT.s 			page 331


 18807 1ed9 0100     		.2byte	0x1
 18808 1edb 5B       		.byte	0x5b
 18809 1edc 16100000 		.4byte	.LVL290-.Ltext0
 18810 1ee0 28100000 		.4byte	.LVL293-.Ltext0
 18811 1ee4 0100     		.2byte	0x1
 18812 1ee6 5A       		.byte	0x5a
 18813 1ee7 00000000 		.4byte	0
 18814 1eeb 00000000 		.4byte	0
 18815              	.LLST372:
 18816 1eef 02100000 		.4byte	.LVL289-.Ltext0
 18817 1ef3 1C100000 		.4byte	.LVL291-.Ltext0
 18818 1ef7 0300     		.2byte	0x3
 18819 1ef9 7B       		.byte	0x7b
 18820 1efa 01       		.sleb128 1
 18821 1efb 9F       		.byte	0x9f
 18822 1efc 1C100000 		.4byte	.LVL291-.Ltext0
 18823 1f00 24100000 		.4byte	.LVL292-.Ltext0
 18824 1f04 0100     		.2byte	0x1
 18825 1f06 57       		.byte	0x57
 18826 1f07 00000000 		.4byte	0
 18827 1f0b 00000000 		.4byte	0
 18828              	.LLST373:
 18829 1f0f 02100000 		.4byte	.LVL289-.Ltext0
 18830 1f13 1C100000 		.4byte	.LVL291-.Ltext0
 18831 1f17 0600     		.2byte	0x6
 18832 1f19 9E       		.byte	0x9e
 18833 1f1a 04       		.uleb128 0x4
 18834 1f1b 0000803F 		.4byte	0x3f800000
 18835 1f1f 1C100000 		.4byte	.LVL291-.Ltext0
 18836 1f23 50100000 		.4byte	.LVL295-.Ltext0
 18837 1f27 0600     		.2byte	0x6
 18838 1f29 9E       		.byte	0x9e
 18839 1f2a 04       		.uleb128 0x4
 18840 1f2b 000080BF 		.4byte	0xbf800000
 18841 1f2f 00000000 		.4byte	0
 18842 1f33 00000000 		.4byte	0
 18843              	.LLST374:
 18844 1f37 50100000 		.4byte	.LVL295-.Ltext0
 18845 1f3b 64100000 		.4byte	.LVL297-.Ltext0
 18846 1f3f 0200     		.2byte	0x2
 18847 1f41 90       		.byte	0x90
 18848 1f42 4C       		.uleb128 0x4c
 18849 1f43 64100000 		.4byte	.LVL297-.Ltext0
 18850 1f47 B6100000 		.4byte	.LVL304-.Ltext0
 18851 1f4b 0300     		.2byte	0x3
 18852 1f4d 91       		.byte	0x91
 18853 1f4e B87F     		.sleb128 -72
 18854 1f50 00000000 		.4byte	0
 18855 1f54 00000000 		.4byte	0
 18856              	.LLST375:
 18857 1f58 50100000 		.4byte	.LVL295-.Ltext0
 18858 1f5c 64100000 		.4byte	.LVL297-.Ltext0
 18859 1f60 0C00     		.2byte	0xc
 18860 1f62 F5       		.byte	0xf5
 18861 1f63 4C       		.uleb128 0x4c
 18862 1f64 25       		.uleb128 0x25
 18863 1f65 F5       		.byte	0xf5
ARM GAS  /tmp/ccJJl1OT.s 			page 332


 18864 1f66 4C       		.uleb128 0x4c
 18865 1f67 25       		.uleb128 0x25
 18866 1f68 F7       		.byte	0xf7
 18867 1f69 2C       		.uleb128 0x2c
 18868 1f6a F7       		.byte	0xf7
 18869 1f6b 25       		.uleb128 0x25
 18870 1f6c 1C       		.byte	0x1c
 18871 1f6d 9F       		.byte	0x9f
 18872 1f6e 64100000 		.4byte	.LVL297-.Ltext0
 18873 1f72 B6100000 		.4byte	.LVL304-.Ltext0
 18874 1f76 1200     		.2byte	0x12
 18875 1f78 91       		.byte	0x91
 18876 1f79 B87F     		.sleb128 -72
 18877 1f7b F6       		.byte	0xf6
 18878 1f7c 04       		.byte	0x4
 18879 1f7d 25       		.uleb128 0x25
 18880 1f7e 91       		.byte	0x91
 18881 1f7f B87F     		.sleb128 -72
 18882 1f81 F6       		.byte	0xf6
 18883 1f82 04       		.byte	0x4
 18884 1f83 25       		.uleb128 0x25
 18885 1f84 F7       		.byte	0xf7
 18886 1f85 2C       		.uleb128 0x2c
 18887 1f86 F7       		.byte	0xf7
 18888 1f87 25       		.uleb128 0x25
 18889 1f88 1C       		.byte	0x1c
 18890 1f89 9F       		.byte	0x9f
 18891 1f8a 00000000 		.4byte	0
 18892 1f8e 00000000 		.4byte	0
 18893              	.LLST376:
 18894 1f92 60100000 		.4byte	.LVL296-.Ltext0
 18895 1f96 96100000 		.4byte	.LVL303-.Ltext0
 18896 1f9a 0200     		.2byte	0x2
 18897 1f9c 90       		.byte	0x90
 18898 1f9d 4D       		.uleb128 0x4d
 18899 1f9e 96100000 		.4byte	.LVL303-.Ltext0
 18900 1fa2 B6100000 		.4byte	.LVL304-.Ltext0
 18901 1fa6 1600     		.2byte	0x16
 18902 1fa8 91       		.byte	0x91
 18903 1fa9 B87F     		.sleb128 -72
 18904 1fab F6       		.byte	0xf6
 18905 1fac 04       		.byte	0x4
 18906 1fad 25       		.uleb128 0x25
 18907 1fae 91       		.byte	0x91
 18908 1faf B87F     		.sleb128 -72
 18909 1fb1 F6       		.byte	0xf6
 18910 1fb2 04       		.byte	0x4
 18911 1fb3 25       		.uleb128 0x25
 18912 1fb4 F7       		.byte	0xf7
 18913 1fb5 2C       		.uleb128 0x2c
 18914 1fb6 F7       		.byte	0xf7
 18915 1fb7 25       		.uleb128 0x25
 18916 1fb8 1C       		.byte	0x1c
 18917 1fb9 F5       		.byte	0xf5
 18918 1fba 47       		.uleb128 0x47
 18919 1fbb 25       		.uleb128 0x25
 18920 1fbc 1E       		.byte	0x1e
ARM GAS  /tmp/ccJJl1OT.s 			page 333


 18921 1fbd 9F       		.byte	0x9f
 18922 1fbe 00000000 		.4byte	0
 18923 1fc2 00000000 		.4byte	0
 18924              	.LLST377:
 18925 1fc6 68100000 		.4byte	.LVL298-.Ltext0
 18926 1fca CE100000 		.4byte	.LVL307-.Ltext0
 18927 1fce 0100     		.2byte	0x1
 18928 1fd0 5B       		.byte	0x5b
 18929 1fd1 CE100000 		.4byte	.LVL307-.Ltext0
 18930 1fd5 6C130000 		.4byte	.LVL367-.Ltext0
 18931 1fd9 1A00     		.2byte	0x1a
 18932 1fdb 91       		.byte	0x91
 18933 1fdc B87F     		.sleb128 -72
 18934 1fde F6       		.byte	0xf6
 18935 1fdf 04       		.byte	0x4
 18936 1fe0 25       		.uleb128 0x25
 18937 1fe1 91       		.byte	0x91
 18938 1fe2 B87F     		.sleb128 -72
 18939 1fe4 F6       		.byte	0xf6
 18940 1fe5 04       		.byte	0x4
 18941 1fe6 25       		.uleb128 0x25
 18942 1fe7 F7       		.byte	0xf7
 18943 1fe8 2C       		.uleb128 0x2c
 18944 1fe9 F7       		.byte	0xf7
 18945 1fea 25       		.uleb128 0x25
 18946 1feb 1C       		.byte	0x1c
 18947 1fec F5       		.byte	0xf5
 18948 1fed 47       		.uleb128 0x47
 18949 1fee 25       		.uleb128 0x25
 18950 1fef 1E       		.byte	0x1e
 18951 1ff0 F7       		.byte	0xf7
 18952 1ff1 25       		.uleb128 0x25
 18953 1ff2 F7       		.byte	0xf7
 18954 1ff3 2C       		.uleb128 0x2c
 18955 1ff4 9F       		.byte	0x9f
 18956 1ff5 00000000 		.4byte	0
 18957 1ff9 00000000 		.4byte	0
 18958              	.LLST378:
 18959 1ffd 68100000 		.4byte	.LVL298-.Ltext0
 18960 2001 7C100000 		.4byte	.LVL299-.Ltext0
 18961 2005 0100     		.2byte	0x1
 18962 2007 5B       		.byte	0x5b
 18963 2008 7C100000 		.4byte	.LVL299-.Ltext0
 18964 200c 8E100000 		.4byte	.LVL302-.Ltext0
 18965 2010 0100     		.2byte	0x1
 18966 2012 5A       		.byte	0x5a
 18967 2013 00000000 		.4byte	0
 18968 2017 00000000 		.4byte	0
 18969              	.LLST379:
 18970 201b 68100000 		.4byte	.LVL298-.Ltext0
 18971 201f 82100000 		.4byte	.LVL300-.Ltext0
 18972 2023 0300     		.2byte	0x3
 18973 2025 7B       		.byte	0x7b
 18974 2026 01       		.sleb128 1
 18975 2027 9F       		.byte	0x9f
 18976 2028 82100000 		.4byte	.LVL300-.Ltext0
 18977 202c 8A100000 		.4byte	.LVL301-.Ltext0
ARM GAS  /tmp/ccJJl1OT.s 			page 334


 18978 2030 0100     		.2byte	0x1
 18979 2032 57       		.byte	0x57
 18980 2033 00000000 		.4byte	0
 18981 2037 00000000 		.4byte	0
 18982              	.LLST380:
 18983 203b 68100000 		.4byte	.LVL298-.Ltext0
 18984 203f 82100000 		.4byte	.LVL300-.Ltext0
 18985 2043 0600     		.2byte	0x6
 18986 2045 9E       		.byte	0x9e
 18987 2046 04       		.uleb128 0x4
 18988 2047 0000803F 		.4byte	0x3f800000
 18989 204b 82100000 		.4byte	.LVL300-.Ltext0
 18990 204f B6100000 		.4byte	.LVL304-.Ltext0
 18991 2053 0600     		.2byte	0x6
 18992 2055 9E       		.byte	0x9e
 18993 2056 04       		.uleb128 0x4
 18994 2057 000080BF 		.4byte	0xbf800000
 18995 205b 00000000 		.4byte	0
 18996 205f 00000000 		.4byte	0
 18997              	.LLST381:
 18998 2063 B6100000 		.4byte	.LVL304-.Ltext0
 18999 2067 CA100000 		.4byte	.LVL306-.Ltext0
 19000 206b 0200     		.2byte	0x2
 19001 206d 90       		.byte	0x90
 19002 206e 4C       		.uleb128 0x4c
 19003 206f CA100000 		.4byte	.LVL306-.Ltext0
 19004 2073 1C110000 		.4byte	.LVL313-.Ltext0
 19005 2077 0300     		.2byte	0x3
 19006 2079 91       		.byte	0x91
 19007 207a BC7F     		.sleb128 -68
 19008 207c 00000000 		.4byte	0
 19009 2080 00000000 		.4byte	0
 19010              	.LLST382:
 19011 2084 B6100000 		.4byte	.LVL304-.Ltext0
 19012 2088 CA100000 		.4byte	.LVL306-.Ltext0
 19013 208c 0C00     		.2byte	0xc
 19014 208e F5       		.byte	0xf5
 19015 208f 4C       		.uleb128 0x4c
 19016 2090 25       		.uleb128 0x25
 19017 2091 F5       		.byte	0xf5
 19018 2092 4C       		.uleb128 0x4c
 19019 2093 25       		.uleb128 0x25
 19020 2094 F7       		.byte	0xf7
 19021 2095 2C       		.uleb128 0x2c
 19022 2096 F7       		.byte	0xf7
 19023 2097 25       		.uleb128 0x25
 19024 2098 1C       		.byte	0x1c
 19025 2099 9F       		.byte	0x9f
 19026 209a CA100000 		.4byte	.LVL306-.Ltext0
 19027 209e 1C110000 		.4byte	.LVL313-.Ltext0
 19028 20a2 1200     		.2byte	0x12
 19029 20a4 91       		.byte	0x91
 19030 20a5 BC7F     		.sleb128 -68
 19031 20a7 F6       		.byte	0xf6
 19032 20a8 04       		.byte	0x4
 19033 20a9 25       		.uleb128 0x25
 19034 20aa 91       		.byte	0x91
ARM GAS  /tmp/ccJJl1OT.s 			page 335


 19035 20ab BC7F     		.sleb128 -68
 19036 20ad F6       		.byte	0xf6
 19037 20ae 04       		.byte	0x4
 19038 20af 25       		.uleb128 0x25
 19039 20b0 F7       		.byte	0xf7
 19040 20b1 2C       		.uleb128 0x2c
 19041 20b2 F7       		.byte	0xf7
 19042 20b3 25       		.uleb128 0x25
 19043 20b4 1C       		.byte	0x1c
 19044 20b5 9F       		.byte	0x9f
 19045 20b6 00000000 		.4byte	0
 19046 20ba 00000000 		.4byte	0
 19047              	.LLST383:
 19048 20be C6100000 		.4byte	.LVL305-.Ltext0
 19049 20c2 FC100000 		.4byte	.LVL312-.Ltext0
 19050 20c6 0200     		.2byte	0x2
 19051 20c8 90       		.byte	0x90
 19052 20c9 4D       		.uleb128 0x4d
 19053 20ca FC100000 		.4byte	.LVL312-.Ltext0
 19054 20ce 1C110000 		.4byte	.LVL313-.Ltext0
 19055 20d2 1600     		.2byte	0x16
 19056 20d4 91       		.byte	0x91
 19057 20d5 BC7F     		.sleb128 -68
 19058 20d7 F6       		.byte	0xf6
 19059 20d8 04       		.byte	0x4
 19060 20d9 25       		.uleb128 0x25
 19061 20da 91       		.byte	0x91
 19062 20db BC7F     		.sleb128 -68
 19063 20dd F6       		.byte	0xf6
 19064 20de 04       		.byte	0x4
 19065 20df 25       		.uleb128 0x25
 19066 20e0 F7       		.byte	0xf7
 19067 20e1 2C       		.uleb128 0x2c
 19068 20e2 F7       		.byte	0xf7
 19069 20e3 25       		.uleb128 0x25
 19070 20e4 1C       		.byte	0x1c
 19071 20e5 F5       		.byte	0xf5
 19072 20e6 47       		.uleb128 0x47
 19073 20e7 25       		.uleb128 0x25
 19074 20e8 1E       		.byte	0x1e
 19075 20e9 9F       		.byte	0x9f
 19076 20ea 00000000 		.4byte	0
 19077 20ee 00000000 		.4byte	0
 19078              	.LLST384:
 19079 20f2 CE100000 		.4byte	.LVL307-.Ltext0
 19080 20f6 34110000 		.4byte	.LVL316-.Ltext0
 19081 20fa 0100     		.2byte	0x1
 19082 20fc 5B       		.byte	0x5b
 19083 20fd 34110000 		.4byte	.LVL316-.Ltext0
 19084 2101 6C130000 		.4byte	.LVL367-.Ltext0
 19085 2105 1A00     		.2byte	0x1a
 19086 2107 91       		.byte	0x91
 19087 2108 BC7F     		.sleb128 -68
 19088 210a F6       		.byte	0xf6
 19089 210b 04       		.byte	0x4
 19090 210c 25       		.uleb128 0x25
 19091 210d 91       		.byte	0x91
ARM GAS  /tmp/ccJJl1OT.s 			page 336


 19092 210e BC7F     		.sleb128 -68
 19093 2110 F6       		.byte	0xf6
 19094 2111 04       		.byte	0x4
 19095 2112 25       		.uleb128 0x25
 19096 2113 F7       		.byte	0xf7
 19097 2114 2C       		.uleb128 0x2c
 19098 2115 F7       		.byte	0xf7
 19099 2116 25       		.uleb128 0x25
 19100 2117 1C       		.byte	0x1c
 19101 2118 F5       		.byte	0xf5
 19102 2119 47       		.uleb128 0x47
 19103 211a 25       		.uleb128 0x25
 19104 211b 1E       		.byte	0x1e
 19105 211c F7       		.byte	0xf7
 19106 211d 25       		.uleb128 0x25
 19107 211e F7       		.byte	0xf7
 19108 211f 2C       		.uleb128 0x2c
 19109 2120 9F       		.byte	0x9f
 19110 2121 00000000 		.4byte	0
 19111 2125 00000000 		.4byte	0
 19112              	.LLST385:
 19113 2129 CE100000 		.4byte	.LVL307-.Ltext0
 19114 212d E2100000 		.4byte	.LVL308-.Ltext0
 19115 2131 0100     		.2byte	0x1
 19116 2133 5B       		.byte	0x5b
 19117 2134 E2100000 		.4byte	.LVL308-.Ltext0
 19118 2138 F4100000 		.4byte	.LVL311-.Ltext0
 19119 213c 0100     		.2byte	0x1
 19120 213e 5A       		.byte	0x5a
 19121 213f 00000000 		.4byte	0
 19122 2143 00000000 		.4byte	0
 19123              	.LLST386:
 19124 2147 CE100000 		.4byte	.LVL307-.Ltext0
 19125 214b E8100000 		.4byte	.LVL309-.Ltext0
 19126 214f 0300     		.2byte	0x3
 19127 2151 7B       		.byte	0x7b
 19128 2152 01       		.sleb128 1
 19129 2153 9F       		.byte	0x9f
 19130 2154 E8100000 		.4byte	.LVL309-.Ltext0
 19131 2158 F0100000 		.4byte	.LVL310-.Ltext0
 19132 215c 0100     		.2byte	0x1
 19133 215e 57       		.byte	0x57
 19134 215f 00000000 		.4byte	0
 19135 2163 00000000 		.4byte	0
 19136              	.LLST387:
 19137 2167 CE100000 		.4byte	.LVL307-.Ltext0
 19138 216b E8100000 		.4byte	.LVL309-.Ltext0
 19139 216f 0600     		.2byte	0x6
 19140 2171 9E       		.byte	0x9e
 19141 2172 04       		.uleb128 0x4
 19142 2173 0000803F 		.4byte	0x3f800000
 19143 2177 E8100000 		.4byte	.LVL309-.Ltext0
 19144 217b 1C110000 		.4byte	.LVL313-.Ltext0
 19145 217f 0600     		.2byte	0x6
 19146 2181 9E       		.byte	0x9e
 19147 2182 04       		.uleb128 0x4
 19148 2183 000080BF 		.4byte	0xbf800000
ARM GAS  /tmp/ccJJl1OT.s 			page 337


 19149 2187 00000000 		.4byte	0
 19150 218b 00000000 		.4byte	0
 19151              	.LLST388:
 19152 218f 1C110000 		.4byte	.LVL313-.Ltext0
 19153 2193 30110000 		.4byte	.LVL315-.Ltext0
 19154 2197 0200     		.2byte	0x2
 19155 2199 90       		.byte	0x90
 19156 219a 4C       		.uleb128 0x4c
 19157 219b 30110000 		.4byte	.LVL315-.Ltext0
 19158 219f 82110000 		.4byte	.LVL322-.Ltext0
 19159 21a3 0200     		.2byte	0x2
 19160 21a5 91       		.byte	0x91
 19161 21a6 40       		.sleb128 -64
 19162 21a7 00000000 		.4byte	0
 19163 21ab 00000000 		.4byte	0
 19164              	.LLST389:
 19165 21af 1C110000 		.4byte	.LVL313-.Ltext0
 19166 21b3 30110000 		.4byte	.LVL315-.Ltext0
 19167 21b7 0C00     		.2byte	0xc
 19168 21b9 F5       		.byte	0xf5
 19169 21ba 4C       		.uleb128 0x4c
 19170 21bb 25       		.uleb128 0x25
 19171 21bc F5       		.byte	0xf5
 19172 21bd 4C       		.uleb128 0x4c
 19173 21be 25       		.uleb128 0x25
 19174 21bf F7       		.byte	0xf7
 19175 21c0 2C       		.uleb128 0x2c
 19176 21c1 F7       		.byte	0xf7
 19177 21c2 25       		.uleb128 0x25
 19178 21c3 1C       		.byte	0x1c
 19179 21c4 9F       		.byte	0x9f
 19180 21c5 30110000 		.4byte	.LVL315-.Ltext0
 19181 21c9 82110000 		.4byte	.LVL322-.Ltext0
 19182 21cd 1000     		.2byte	0x10
 19183 21cf 91       		.byte	0x91
 19184 21d0 40       		.sleb128 -64
 19185 21d1 F6       		.byte	0xf6
 19186 21d2 04       		.byte	0x4
 19187 21d3 25       		.uleb128 0x25
 19188 21d4 91       		.byte	0x91
 19189 21d5 40       		.sleb128 -64
 19190 21d6 F6       		.byte	0xf6
 19191 21d7 04       		.byte	0x4
 19192 21d8 25       		.uleb128 0x25
 19193 21d9 F7       		.byte	0xf7
 19194 21da 2C       		.uleb128 0x2c
 19195 21db F7       		.byte	0xf7
 19196 21dc 25       		.uleb128 0x25
 19197 21dd 1C       		.byte	0x1c
 19198 21de 9F       		.byte	0x9f
 19199 21df 00000000 		.4byte	0
 19200 21e3 00000000 		.4byte	0
 19201              	.LLST390:
 19202 21e7 2C110000 		.4byte	.LVL314-.Ltext0
 19203 21eb 62110000 		.4byte	.LVL321-.Ltext0
 19204 21ef 0200     		.2byte	0x2
 19205 21f1 90       		.byte	0x90
ARM GAS  /tmp/ccJJl1OT.s 			page 338


 19206 21f2 4D       		.uleb128 0x4d
 19207 21f3 62110000 		.4byte	.LVL321-.Ltext0
 19208 21f7 82110000 		.4byte	.LVL322-.Ltext0
 19209 21fb 1400     		.2byte	0x14
 19210 21fd 91       		.byte	0x91
 19211 21fe 40       		.sleb128 -64
 19212 21ff F6       		.byte	0xf6
 19213 2200 04       		.byte	0x4
 19214 2201 25       		.uleb128 0x25
 19215 2202 91       		.byte	0x91
 19216 2203 40       		.sleb128 -64
 19217 2204 F6       		.byte	0xf6
 19218 2205 04       		.byte	0x4
 19219 2206 25       		.uleb128 0x25
 19220 2207 F7       		.byte	0xf7
 19221 2208 2C       		.uleb128 0x2c
 19222 2209 F7       		.byte	0xf7
 19223 220a 25       		.uleb128 0x25
 19224 220b 1C       		.byte	0x1c
 19225 220c F5       		.byte	0xf5
 19226 220d 47       		.uleb128 0x47
 19227 220e 25       		.uleb128 0x25
 19228 220f 1E       		.byte	0x1e
 19229 2210 9F       		.byte	0x9f
 19230 2211 00000000 		.4byte	0
 19231 2215 00000000 		.4byte	0
 19232              	.LLST391:
 19233 2219 34110000 		.4byte	.LVL316-.Ltext0
 19234 221d 9A110000 		.4byte	.LVL325-.Ltext0
 19235 2221 0100     		.2byte	0x1
 19236 2223 5B       		.byte	0x5b
 19237 2224 9A110000 		.4byte	.LVL325-.Ltext0
 19238 2228 6C130000 		.4byte	.LVL367-.Ltext0
 19239 222c 1800     		.2byte	0x18
 19240 222e 91       		.byte	0x91
 19241 222f 40       		.sleb128 -64
 19242 2230 F6       		.byte	0xf6
 19243 2231 04       		.byte	0x4
 19244 2232 25       		.uleb128 0x25
 19245 2233 91       		.byte	0x91
 19246 2234 40       		.sleb128 -64
 19247 2235 F6       		.byte	0xf6
 19248 2236 04       		.byte	0x4
 19249 2237 25       		.uleb128 0x25
 19250 2238 F7       		.byte	0xf7
 19251 2239 2C       		.uleb128 0x2c
 19252 223a F7       		.byte	0xf7
 19253 223b 25       		.uleb128 0x25
 19254 223c 1C       		.byte	0x1c
 19255 223d F5       		.byte	0xf5
 19256 223e 47       		.uleb128 0x47
 19257 223f 25       		.uleb128 0x25
 19258 2240 1E       		.byte	0x1e
 19259 2241 F7       		.byte	0xf7
 19260 2242 25       		.uleb128 0x25
 19261 2243 F7       		.byte	0xf7
 19262 2244 2C       		.uleb128 0x2c
ARM GAS  /tmp/ccJJl1OT.s 			page 339


 19263 2245 9F       		.byte	0x9f
 19264 2246 00000000 		.4byte	0
 19265 224a 00000000 		.4byte	0
 19266              	.LLST392:
 19267 224e 34110000 		.4byte	.LVL316-.Ltext0
 19268 2252 48110000 		.4byte	.LVL317-.Ltext0
 19269 2256 0100     		.2byte	0x1
 19270 2258 5B       		.byte	0x5b
 19271 2259 48110000 		.4byte	.LVL317-.Ltext0
 19272 225d 5A110000 		.4byte	.LVL320-.Ltext0
 19273 2261 0100     		.2byte	0x1
 19274 2263 5A       		.byte	0x5a
 19275 2264 00000000 		.4byte	0
 19276 2268 00000000 		.4byte	0
 19277              	.LLST393:
 19278 226c 34110000 		.4byte	.LVL316-.Ltext0
 19279 2270 4E110000 		.4byte	.LVL318-.Ltext0
 19280 2274 0300     		.2byte	0x3
 19281 2276 7B       		.byte	0x7b
 19282 2277 01       		.sleb128 1
 19283 2278 9F       		.byte	0x9f
 19284 2279 4E110000 		.4byte	.LVL318-.Ltext0
 19285 227d 56110000 		.4byte	.LVL319-.Ltext0
 19286 2281 0100     		.2byte	0x1
 19287 2283 57       		.byte	0x57
 19288 2284 00000000 		.4byte	0
 19289 2288 00000000 		.4byte	0
 19290              	.LLST394:
 19291 228c 34110000 		.4byte	.LVL316-.Ltext0
 19292 2290 4E110000 		.4byte	.LVL318-.Ltext0
 19293 2294 0600     		.2byte	0x6
 19294 2296 9E       		.byte	0x9e
 19295 2297 04       		.uleb128 0x4
 19296 2298 0000803F 		.4byte	0x3f800000
 19297 229c 4E110000 		.4byte	.LVL318-.Ltext0
 19298 22a0 82110000 		.4byte	.LVL322-.Ltext0
 19299 22a4 0600     		.2byte	0x6
 19300 22a6 9E       		.byte	0x9e
 19301 22a7 04       		.uleb128 0x4
 19302 22a8 000080BF 		.4byte	0xbf800000
 19303 22ac 00000000 		.4byte	0
 19304 22b0 00000000 		.4byte	0
 19305              	.LLST395:
 19306 22b4 82110000 		.4byte	.LVL322-.Ltext0
 19307 22b8 96110000 		.4byte	.LVL324-.Ltext0
 19308 22bc 0200     		.2byte	0x2
 19309 22be 90       		.byte	0x90
 19310 22bf 4C       		.uleb128 0x4c
 19311 22c0 96110000 		.4byte	.LVL324-.Ltext0
 19312 22c4 E8110000 		.4byte	.LVL331-.Ltext0
 19313 22c8 0200     		.2byte	0x2
 19314 22ca 91       		.byte	0x91
 19315 22cb 44       		.sleb128 -60
 19316 22cc 00000000 		.4byte	0
 19317 22d0 00000000 		.4byte	0
 19318              	.LLST396:
 19319 22d4 82110000 		.4byte	.LVL322-.Ltext0
ARM GAS  /tmp/ccJJl1OT.s 			page 340


 19320 22d8 96110000 		.4byte	.LVL324-.Ltext0
 19321 22dc 0C00     		.2byte	0xc
 19322 22de F5       		.byte	0xf5
 19323 22df 4C       		.uleb128 0x4c
 19324 22e0 25       		.uleb128 0x25
 19325 22e1 F5       		.byte	0xf5
 19326 22e2 4C       		.uleb128 0x4c
 19327 22e3 25       		.uleb128 0x25
 19328 22e4 F7       		.byte	0xf7
 19329 22e5 2C       		.uleb128 0x2c
 19330 22e6 F7       		.byte	0xf7
 19331 22e7 25       		.uleb128 0x25
 19332 22e8 1C       		.byte	0x1c
 19333 22e9 9F       		.byte	0x9f
 19334 22ea 96110000 		.4byte	.LVL324-.Ltext0
 19335 22ee E8110000 		.4byte	.LVL331-.Ltext0
 19336 22f2 1000     		.2byte	0x10
 19337 22f4 91       		.byte	0x91
 19338 22f5 44       		.sleb128 -60
 19339 22f6 F6       		.byte	0xf6
 19340 22f7 04       		.byte	0x4
 19341 22f8 25       		.uleb128 0x25
 19342 22f9 91       		.byte	0x91
 19343 22fa 44       		.sleb128 -60
 19344 22fb F6       		.byte	0xf6
 19345 22fc 04       		.byte	0x4
 19346 22fd 25       		.uleb128 0x25
 19347 22fe F7       		.byte	0xf7
 19348 22ff 2C       		.uleb128 0x2c
 19349 2300 F7       		.byte	0xf7
 19350 2301 25       		.uleb128 0x25
 19351 2302 1C       		.byte	0x1c
 19352 2303 9F       		.byte	0x9f
 19353 2304 00000000 		.4byte	0
 19354 2308 00000000 		.4byte	0
 19355              	.LLST397:
 19356 230c 92110000 		.4byte	.LVL323-.Ltext0
 19357 2310 C8110000 		.4byte	.LVL330-.Ltext0
 19358 2314 0200     		.2byte	0x2
 19359 2316 90       		.byte	0x90
 19360 2317 4D       		.uleb128 0x4d
 19361 2318 C8110000 		.4byte	.LVL330-.Ltext0
 19362 231c E8110000 		.4byte	.LVL331-.Ltext0
 19363 2320 1400     		.2byte	0x14
 19364 2322 91       		.byte	0x91
 19365 2323 44       		.sleb128 -60
 19366 2324 F6       		.byte	0xf6
 19367 2325 04       		.byte	0x4
 19368 2326 25       		.uleb128 0x25
 19369 2327 91       		.byte	0x91
 19370 2328 44       		.sleb128 -60
 19371 2329 F6       		.byte	0xf6
 19372 232a 04       		.byte	0x4
 19373 232b 25       		.uleb128 0x25
 19374 232c F7       		.byte	0xf7
 19375 232d 2C       		.uleb128 0x2c
 19376 232e F7       		.byte	0xf7
ARM GAS  /tmp/ccJJl1OT.s 			page 341


 19377 232f 25       		.uleb128 0x25
 19378 2330 1C       		.byte	0x1c
 19379 2331 F5       		.byte	0xf5
 19380 2332 47       		.uleb128 0x47
 19381 2333 25       		.uleb128 0x25
 19382 2334 1E       		.byte	0x1e
 19383 2335 9F       		.byte	0x9f
 19384 2336 00000000 		.4byte	0
 19385 233a 00000000 		.4byte	0
 19386              	.LLST398:
 19387 233e 9A110000 		.4byte	.LVL325-.Ltext0
 19388 2342 00120000 		.4byte	.LVL334-.Ltext0
 19389 2346 0100     		.2byte	0x1
 19390 2348 5B       		.byte	0x5b
 19391 2349 00120000 		.4byte	.LVL334-.Ltext0
 19392 234d 6C130000 		.4byte	.LVL367-.Ltext0
 19393 2351 1800     		.2byte	0x18
 19394 2353 91       		.byte	0x91
 19395 2354 44       		.sleb128 -60
 19396 2355 F6       		.byte	0xf6
 19397 2356 04       		.byte	0x4
 19398 2357 25       		.uleb128 0x25
 19399 2358 91       		.byte	0x91
 19400 2359 44       		.sleb128 -60
 19401 235a F6       		.byte	0xf6
 19402 235b 04       		.byte	0x4
 19403 235c 25       		.uleb128 0x25
 19404 235d F7       		.byte	0xf7
 19405 235e 2C       		.uleb128 0x2c
 19406 235f F7       		.byte	0xf7
 19407 2360 25       		.uleb128 0x25
 19408 2361 1C       		.byte	0x1c
 19409 2362 F5       		.byte	0xf5
 19410 2363 47       		.uleb128 0x47
 19411 2364 25       		.uleb128 0x25
 19412 2365 1E       		.byte	0x1e
 19413 2366 F7       		.byte	0xf7
 19414 2367 25       		.uleb128 0x25
 19415 2368 F7       		.byte	0xf7
 19416 2369 2C       		.uleb128 0x2c
 19417 236a 9F       		.byte	0x9f
 19418 236b 00000000 		.4byte	0
 19419 236f 00000000 		.4byte	0
 19420              	.LLST399:
 19421 2373 9A110000 		.4byte	.LVL325-.Ltext0
 19422 2377 AE110000 		.4byte	.LVL326-.Ltext0
 19423 237b 0100     		.2byte	0x1
 19424 237d 5B       		.byte	0x5b
 19425 237e AE110000 		.4byte	.LVL326-.Ltext0
 19426 2382 C0110000 		.4byte	.LVL329-.Ltext0
 19427 2386 0100     		.2byte	0x1
 19428 2388 5A       		.byte	0x5a
 19429 2389 00000000 		.4byte	0
 19430 238d 00000000 		.4byte	0
 19431              	.LLST400:
 19432 2391 9A110000 		.4byte	.LVL325-.Ltext0
 19433 2395 B4110000 		.4byte	.LVL327-.Ltext0
ARM GAS  /tmp/ccJJl1OT.s 			page 342


 19434 2399 0300     		.2byte	0x3
 19435 239b 7B       		.byte	0x7b
 19436 239c 01       		.sleb128 1
 19437 239d 9F       		.byte	0x9f
 19438 239e B4110000 		.4byte	.LVL327-.Ltext0
 19439 23a2 BC110000 		.4byte	.LVL328-.Ltext0
 19440 23a6 0100     		.2byte	0x1
 19441 23a8 57       		.byte	0x57
 19442 23a9 00000000 		.4byte	0
 19443 23ad 00000000 		.4byte	0
 19444              	.LLST401:
 19445 23b1 9A110000 		.4byte	.LVL325-.Ltext0
 19446 23b5 B4110000 		.4byte	.LVL327-.Ltext0
 19447 23b9 0600     		.2byte	0x6
 19448 23bb 9E       		.byte	0x9e
 19449 23bc 04       		.uleb128 0x4
 19450 23bd 0000803F 		.4byte	0x3f800000
 19451 23c1 B4110000 		.4byte	.LVL327-.Ltext0
 19452 23c5 E8110000 		.4byte	.LVL331-.Ltext0
 19453 23c9 0600     		.2byte	0x6
 19454 23cb 9E       		.byte	0x9e
 19455 23cc 04       		.uleb128 0x4
 19456 23cd 000080BF 		.4byte	0xbf800000
 19457 23d1 00000000 		.4byte	0
 19458 23d5 00000000 		.4byte	0
 19459              	.LLST402:
 19460 23d9 E8110000 		.4byte	.LVL331-.Ltext0
 19461 23dd FC110000 		.4byte	.LVL333-.Ltext0
 19462 23e1 0200     		.2byte	0x2
 19463 23e3 90       		.byte	0x90
 19464 23e4 4C       		.uleb128 0x4c
 19465 23e5 FC110000 		.4byte	.LVL333-.Ltext0
 19466 23e9 4E120000 		.4byte	.LVL340-.Ltext0
 19467 23ed 0200     		.2byte	0x2
 19468 23ef 91       		.byte	0x91
 19469 23f0 48       		.sleb128 -56
 19470 23f1 00000000 		.4byte	0
 19471 23f5 00000000 		.4byte	0
 19472              	.LLST403:
 19473 23f9 E8110000 		.4byte	.LVL331-.Ltext0
 19474 23fd FC110000 		.4byte	.LVL333-.Ltext0
 19475 2401 0C00     		.2byte	0xc
 19476 2403 F5       		.byte	0xf5
 19477 2404 4C       		.uleb128 0x4c
 19478 2405 25       		.uleb128 0x25
 19479 2406 F5       		.byte	0xf5
 19480 2407 4C       		.uleb128 0x4c
 19481 2408 25       		.uleb128 0x25
 19482 2409 F7       		.byte	0xf7
 19483 240a 2C       		.uleb128 0x2c
 19484 240b F7       		.byte	0xf7
 19485 240c 25       		.uleb128 0x25
 19486 240d 1C       		.byte	0x1c
 19487 240e 9F       		.byte	0x9f
 19488 240f FC110000 		.4byte	.LVL333-.Ltext0
 19489 2413 4E120000 		.4byte	.LVL340-.Ltext0
 19490 2417 1000     		.2byte	0x10
ARM GAS  /tmp/ccJJl1OT.s 			page 343


 19491 2419 91       		.byte	0x91
 19492 241a 48       		.sleb128 -56
 19493 241b F6       		.byte	0xf6
 19494 241c 04       		.byte	0x4
 19495 241d 25       		.uleb128 0x25
 19496 241e 91       		.byte	0x91
 19497 241f 48       		.sleb128 -56
 19498 2420 F6       		.byte	0xf6
 19499 2421 04       		.byte	0x4
 19500 2422 25       		.uleb128 0x25
 19501 2423 F7       		.byte	0xf7
 19502 2424 2C       		.uleb128 0x2c
 19503 2425 F7       		.byte	0xf7
 19504 2426 25       		.uleb128 0x25
 19505 2427 1C       		.byte	0x1c
 19506 2428 9F       		.byte	0x9f
 19507 2429 00000000 		.4byte	0
 19508 242d 00000000 		.4byte	0
 19509              	.LLST404:
 19510 2431 F8110000 		.4byte	.LVL332-.Ltext0
 19511 2435 2E120000 		.4byte	.LVL339-.Ltext0
 19512 2439 0200     		.2byte	0x2
 19513 243b 90       		.byte	0x90
 19514 243c 4D       		.uleb128 0x4d
 19515 243d 2E120000 		.4byte	.LVL339-.Ltext0
 19516 2441 4E120000 		.4byte	.LVL340-.Ltext0
 19517 2445 1400     		.2byte	0x14
 19518 2447 91       		.byte	0x91
 19519 2448 48       		.sleb128 -56
 19520 2449 F6       		.byte	0xf6
 19521 244a 04       		.byte	0x4
 19522 244b 25       		.uleb128 0x25
 19523 244c 91       		.byte	0x91
 19524 244d 48       		.sleb128 -56
 19525 244e F6       		.byte	0xf6
 19526 244f 04       		.byte	0x4
 19527 2450 25       		.uleb128 0x25
 19528 2451 F7       		.byte	0xf7
 19529 2452 2C       		.uleb128 0x2c
 19530 2453 F7       		.byte	0xf7
 19531 2454 25       		.uleb128 0x25
 19532 2455 1C       		.byte	0x1c
 19533 2456 F5       		.byte	0xf5
 19534 2457 47       		.uleb128 0x47
 19535 2458 25       		.uleb128 0x25
 19536 2459 1E       		.byte	0x1e
 19537 245a 9F       		.byte	0x9f
 19538 245b 00000000 		.4byte	0
 19539 245f 00000000 		.4byte	0
 19540              	.LLST405:
 19541 2463 00120000 		.4byte	.LVL334-.Ltext0
 19542 2467 66120000 		.4byte	.LVL343-.Ltext0
 19543 246b 0100     		.2byte	0x1
 19544 246d 5B       		.byte	0x5b
 19545 246e 66120000 		.4byte	.LVL343-.Ltext0
 19546 2472 6C130000 		.4byte	.LVL367-.Ltext0
 19547 2476 1800     		.2byte	0x18
ARM GAS  /tmp/ccJJl1OT.s 			page 344


 19548 2478 91       		.byte	0x91
 19549 2479 48       		.sleb128 -56
 19550 247a F6       		.byte	0xf6
 19551 247b 04       		.byte	0x4
 19552 247c 25       		.uleb128 0x25
 19553 247d 91       		.byte	0x91
 19554 247e 48       		.sleb128 -56
 19555 247f F6       		.byte	0xf6
 19556 2480 04       		.byte	0x4
 19557 2481 25       		.uleb128 0x25
 19558 2482 F7       		.byte	0xf7
 19559 2483 2C       		.uleb128 0x2c
 19560 2484 F7       		.byte	0xf7
 19561 2485 25       		.uleb128 0x25
 19562 2486 1C       		.byte	0x1c
 19563 2487 F5       		.byte	0xf5
 19564 2488 47       		.uleb128 0x47
 19565 2489 25       		.uleb128 0x25
 19566 248a 1E       		.byte	0x1e
 19567 248b F7       		.byte	0xf7
 19568 248c 25       		.uleb128 0x25
 19569 248d F7       		.byte	0xf7
 19570 248e 2C       		.uleb128 0x2c
 19571 248f 9F       		.byte	0x9f
 19572 2490 00000000 		.4byte	0
 19573 2494 00000000 		.4byte	0
 19574              	.LLST406:
 19575 2498 00120000 		.4byte	.LVL334-.Ltext0
 19576 249c 14120000 		.4byte	.LVL335-.Ltext0
 19577 24a0 0100     		.2byte	0x1
 19578 24a2 5B       		.byte	0x5b
 19579 24a3 14120000 		.4byte	.LVL335-.Ltext0
 19580 24a7 26120000 		.4byte	.LVL338-.Ltext0
 19581 24ab 0100     		.2byte	0x1
 19582 24ad 5A       		.byte	0x5a
 19583 24ae 00000000 		.4byte	0
 19584 24b2 00000000 		.4byte	0
 19585              	.LLST407:
 19586 24b6 00120000 		.4byte	.LVL334-.Ltext0
 19587 24ba 1A120000 		.4byte	.LVL336-.Ltext0
 19588 24be 0300     		.2byte	0x3
 19589 24c0 7B       		.byte	0x7b
 19590 24c1 01       		.sleb128 1
 19591 24c2 9F       		.byte	0x9f
 19592 24c3 1A120000 		.4byte	.LVL336-.Ltext0
 19593 24c7 22120000 		.4byte	.LVL337-.Ltext0
 19594 24cb 0100     		.2byte	0x1
 19595 24cd 57       		.byte	0x57
 19596 24ce 00000000 		.4byte	0
 19597 24d2 00000000 		.4byte	0
 19598              	.LLST408:
 19599 24d6 00120000 		.4byte	.LVL334-.Ltext0
 19600 24da 1A120000 		.4byte	.LVL336-.Ltext0
 19601 24de 0600     		.2byte	0x6
 19602 24e0 9E       		.byte	0x9e
 19603 24e1 04       		.uleb128 0x4
 19604 24e2 0000803F 		.4byte	0x3f800000
ARM GAS  /tmp/ccJJl1OT.s 			page 345


 19605 24e6 1A120000 		.4byte	.LVL336-.Ltext0
 19606 24ea 4E120000 		.4byte	.LVL340-.Ltext0
 19607 24ee 0600     		.2byte	0x6
 19608 24f0 9E       		.byte	0x9e
 19609 24f1 04       		.uleb128 0x4
 19610 24f2 000080BF 		.4byte	0xbf800000
 19611 24f6 00000000 		.4byte	0
 19612 24fa 00000000 		.4byte	0
 19613              	.LLST409:
 19614 24fe 4E120000 		.4byte	.LVL340-.Ltext0
 19615 2502 62120000 		.4byte	.LVL342-.Ltext0
 19616 2506 0200     		.2byte	0x2
 19617 2508 90       		.byte	0x90
 19618 2509 4C       		.uleb128 0x4c
 19619 250a 62120000 		.4byte	.LVL342-.Ltext0
 19620 250e B4120000 		.4byte	.LVL349-.Ltext0
 19621 2512 0200     		.2byte	0x2
 19622 2514 91       		.byte	0x91
 19623 2515 4C       		.sleb128 -52
 19624 2516 00000000 		.4byte	0
 19625 251a 00000000 		.4byte	0
 19626              	.LLST410:
 19627 251e 4E120000 		.4byte	.LVL340-.Ltext0
 19628 2522 62120000 		.4byte	.LVL342-.Ltext0
 19629 2526 0C00     		.2byte	0xc
 19630 2528 F5       		.byte	0xf5
 19631 2529 4C       		.uleb128 0x4c
 19632 252a 25       		.uleb128 0x25
 19633 252b F5       		.byte	0xf5
 19634 252c 4C       		.uleb128 0x4c
 19635 252d 25       		.uleb128 0x25
 19636 252e F7       		.byte	0xf7
 19637 252f 2C       		.uleb128 0x2c
 19638 2530 F7       		.byte	0xf7
 19639 2531 25       		.uleb128 0x25
 19640 2532 1C       		.byte	0x1c
 19641 2533 9F       		.byte	0x9f
 19642 2534 62120000 		.4byte	.LVL342-.Ltext0
 19643 2538 B4120000 		.4byte	.LVL349-.Ltext0
 19644 253c 1000     		.2byte	0x10
 19645 253e 91       		.byte	0x91
 19646 253f 4C       		.sleb128 -52
 19647 2540 F6       		.byte	0xf6
 19648 2541 04       		.byte	0x4
 19649 2542 25       		.uleb128 0x25
 19650 2543 91       		.byte	0x91
 19651 2544 4C       		.sleb128 -52
 19652 2545 F6       		.byte	0xf6
 19653 2546 04       		.byte	0x4
 19654 2547 25       		.uleb128 0x25
 19655 2548 F7       		.byte	0xf7
 19656 2549 2C       		.uleb128 0x2c
 19657 254a F7       		.byte	0xf7
 19658 254b 25       		.uleb128 0x25
 19659 254c 1C       		.byte	0x1c
 19660 254d 9F       		.byte	0x9f
 19661 254e 00000000 		.4byte	0
ARM GAS  /tmp/ccJJl1OT.s 			page 346


 19662 2552 00000000 		.4byte	0
 19663              	.LLST411:
 19664 2556 5E120000 		.4byte	.LVL341-.Ltext0
 19665 255a 94120000 		.4byte	.LVL348-.Ltext0
 19666 255e 0200     		.2byte	0x2
 19667 2560 90       		.byte	0x90
 19668 2561 4D       		.uleb128 0x4d
 19669 2562 94120000 		.4byte	.LVL348-.Ltext0
 19670 2566 B4120000 		.4byte	.LVL349-.Ltext0
 19671 256a 1400     		.2byte	0x14
 19672 256c 91       		.byte	0x91
 19673 256d 4C       		.sleb128 -52
 19674 256e F6       		.byte	0xf6
 19675 256f 04       		.byte	0x4
 19676 2570 25       		.uleb128 0x25
 19677 2571 91       		.byte	0x91
 19678 2572 4C       		.sleb128 -52
 19679 2573 F6       		.byte	0xf6
 19680 2574 04       		.byte	0x4
 19681 2575 25       		.uleb128 0x25
 19682 2576 F7       		.byte	0xf7
 19683 2577 2C       		.uleb128 0x2c
 19684 2578 F7       		.byte	0xf7
 19685 2579 25       		.uleb128 0x25
 19686 257a 1C       		.byte	0x1c
 19687 257b F5       		.byte	0xf5
 19688 257c 47       		.uleb128 0x47
 19689 257d 25       		.uleb128 0x25
 19690 257e 1E       		.byte	0x1e
 19691 257f 9F       		.byte	0x9f
 19692 2580 00000000 		.4byte	0
 19693 2584 00000000 		.4byte	0
 19694              	.LLST412:
 19695 2588 66120000 		.4byte	.LVL343-.Ltext0
 19696 258c CC120000 		.4byte	.LVL352-.Ltext0
 19697 2590 0100     		.2byte	0x1
 19698 2592 5B       		.byte	0x5b
 19699 2593 CC120000 		.4byte	.LVL352-.Ltext0
 19700 2597 6C130000 		.4byte	.LVL367-.Ltext0
 19701 259b 1800     		.2byte	0x18
 19702 259d 91       		.byte	0x91
 19703 259e 4C       		.sleb128 -52
 19704 259f F6       		.byte	0xf6
 19705 25a0 04       		.byte	0x4
 19706 25a1 25       		.uleb128 0x25
 19707 25a2 91       		.byte	0x91
 19708 25a3 4C       		.sleb128 -52
 19709 25a4 F6       		.byte	0xf6
 19710 25a5 04       		.byte	0x4
 19711 25a6 25       		.uleb128 0x25
 19712 25a7 F7       		.byte	0xf7
 19713 25a8 2C       		.uleb128 0x2c
 19714 25a9 F7       		.byte	0xf7
 19715 25aa 25       		.uleb128 0x25
 19716 25ab 1C       		.byte	0x1c
 19717 25ac F5       		.byte	0xf5
 19718 25ad 47       		.uleb128 0x47
ARM GAS  /tmp/ccJJl1OT.s 			page 347


 19719 25ae 25       		.uleb128 0x25
 19720 25af 1E       		.byte	0x1e
 19721 25b0 F7       		.byte	0xf7
 19722 25b1 25       		.uleb128 0x25
 19723 25b2 F7       		.byte	0xf7
 19724 25b3 2C       		.uleb128 0x2c
 19725 25b4 9F       		.byte	0x9f
 19726 25b5 00000000 		.4byte	0
 19727 25b9 00000000 		.4byte	0
 19728              	.LLST413:
 19729 25bd 66120000 		.4byte	.LVL343-.Ltext0
 19730 25c1 7A120000 		.4byte	.LVL344-.Ltext0
 19731 25c5 0100     		.2byte	0x1
 19732 25c7 5B       		.byte	0x5b
 19733 25c8 7A120000 		.4byte	.LVL344-.Ltext0
 19734 25cc 8C120000 		.4byte	.LVL347-.Ltext0
 19735 25d0 0100     		.2byte	0x1
 19736 25d2 5A       		.byte	0x5a
 19737 25d3 00000000 		.4byte	0
 19738 25d7 00000000 		.4byte	0
 19739              	.LLST414:
 19740 25db 66120000 		.4byte	.LVL343-.Ltext0
 19741 25df 80120000 		.4byte	.LVL345-.Ltext0
 19742 25e3 0300     		.2byte	0x3
 19743 25e5 7B       		.byte	0x7b
 19744 25e6 01       		.sleb128 1
 19745 25e7 9F       		.byte	0x9f
 19746 25e8 80120000 		.4byte	.LVL345-.Ltext0
 19747 25ec 88120000 		.4byte	.LVL346-.Ltext0
 19748 25f0 0100     		.2byte	0x1
 19749 25f2 57       		.byte	0x57
 19750 25f3 00000000 		.4byte	0
 19751 25f7 00000000 		.4byte	0
 19752              	.LLST415:
 19753 25fb 66120000 		.4byte	.LVL343-.Ltext0
 19754 25ff 80120000 		.4byte	.LVL345-.Ltext0
 19755 2603 0600     		.2byte	0x6
 19756 2605 9E       		.byte	0x9e
 19757 2606 04       		.uleb128 0x4
 19758 2607 0000803F 		.4byte	0x3f800000
 19759 260b 80120000 		.4byte	.LVL345-.Ltext0
 19760 260f B4120000 		.4byte	.LVL349-.Ltext0
 19761 2613 0600     		.2byte	0x6
 19762 2615 9E       		.byte	0x9e
 19763 2616 04       		.uleb128 0x4
 19764 2617 000080BF 		.4byte	0xbf800000
 19765 261b 00000000 		.4byte	0
 19766 261f 00000000 		.4byte	0
 19767              	.LLST416:
 19768 2623 B4120000 		.4byte	.LVL349-.Ltext0
 19769 2627 C8120000 		.4byte	.LVL351-.Ltext0
 19770 262b 0200     		.2byte	0x2
 19771 262d 90       		.byte	0x90
 19772 262e 4C       		.uleb128 0x4c
 19773 262f C8120000 		.4byte	.LVL351-.Ltext0
 19774 2633 1A130000 		.4byte	.LVL358-.Ltext0
 19775 2637 0200     		.2byte	0x2
ARM GAS  /tmp/ccJJl1OT.s 			page 348


 19776 2639 91       		.byte	0x91
 19777 263a 50       		.sleb128 -48
 19778 263b 00000000 		.4byte	0
 19779 263f 00000000 		.4byte	0
 19780              	.LLST417:
 19781 2643 B4120000 		.4byte	.LVL349-.Ltext0
 19782 2647 C8120000 		.4byte	.LVL351-.Ltext0
 19783 264b 0C00     		.2byte	0xc
 19784 264d F5       		.byte	0xf5
 19785 264e 4C       		.uleb128 0x4c
 19786 264f 25       		.uleb128 0x25
 19787 2650 F5       		.byte	0xf5
 19788 2651 4C       		.uleb128 0x4c
 19789 2652 25       		.uleb128 0x25
 19790 2653 F7       		.byte	0xf7
 19791 2654 2C       		.uleb128 0x2c
 19792 2655 F7       		.byte	0xf7
 19793 2656 25       		.uleb128 0x25
 19794 2657 1C       		.byte	0x1c
 19795 2658 9F       		.byte	0x9f
 19796 2659 C8120000 		.4byte	.LVL351-.Ltext0
 19797 265d 1A130000 		.4byte	.LVL358-.Ltext0
 19798 2661 1000     		.2byte	0x10
 19799 2663 91       		.byte	0x91
 19800 2664 50       		.sleb128 -48
 19801 2665 F6       		.byte	0xf6
 19802 2666 04       		.byte	0x4
 19803 2667 25       		.uleb128 0x25
 19804 2668 91       		.byte	0x91
 19805 2669 50       		.sleb128 -48
 19806 266a F6       		.byte	0xf6
 19807 266b 04       		.byte	0x4
 19808 266c 25       		.uleb128 0x25
 19809 266d F7       		.byte	0xf7
 19810 266e 2C       		.uleb128 0x2c
 19811 266f F7       		.byte	0xf7
 19812 2670 25       		.uleb128 0x25
 19813 2671 1C       		.byte	0x1c
 19814 2672 9F       		.byte	0x9f
 19815 2673 00000000 		.4byte	0
 19816 2677 00000000 		.4byte	0
 19817              	.LLST418:
 19818 267b C4120000 		.4byte	.LVL350-.Ltext0
 19819 267f FA120000 		.4byte	.LVL357-.Ltext0
 19820 2683 0200     		.2byte	0x2
 19821 2685 90       		.byte	0x90
 19822 2686 4D       		.uleb128 0x4d
 19823 2687 FA120000 		.4byte	.LVL357-.Ltext0
 19824 268b 1A130000 		.4byte	.LVL358-.Ltext0
 19825 268f 1400     		.2byte	0x14
 19826 2691 91       		.byte	0x91
 19827 2692 50       		.sleb128 -48
 19828 2693 F6       		.byte	0xf6
 19829 2694 04       		.byte	0x4
 19830 2695 25       		.uleb128 0x25
 19831 2696 91       		.byte	0x91
 19832 2697 50       		.sleb128 -48
ARM GAS  /tmp/ccJJl1OT.s 			page 349


 19833 2698 F6       		.byte	0xf6
 19834 2699 04       		.byte	0x4
 19835 269a 25       		.uleb128 0x25
 19836 269b F7       		.byte	0xf7
 19837 269c 2C       		.uleb128 0x2c
 19838 269d F7       		.byte	0xf7
 19839 269e 25       		.uleb128 0x25
 19840 269f 1C       		.byte	0x1c
 19841 26a0 F5       		.byte	0xf5
 19842 26a1 47       		.uleb128 0x47
 19843 26a2 25       		.uleb128 0x25
 19844 26a3 1E       		.byte	0x1e
 19845 26a4 9F       		.byte	0x9f
 19846 26a5 00000000 		.4byte	0
 19847 26a9 00000000 		.4byte	0
 19848              	.LLST419:
 19849 26ad CC120000 		.4byte	.LVL352-.Ltext0
 19850 26b1 32130000 		.4byte	.LVL361-.Ltext0
 19851 26b5 0100     		.2byte	0x1
 19852 26b7 5B       		.byte	0x5b
 19853 26b8 32130000 		.4byte	.LVL361-.Ltext0
 19854 26bc 6C130000 		.4byte	.LVL367-.Ltext0
 19855 26c0 1800     		.2byte	0x18
 19856 26c2 91       		.byte	0x91
 19857 26c3 50       		.sleb128 -48
 19858 26c4 F6       		.byte	0xf6
 19859 26c5 04       		.byte	0x4
 19860 26c6 25       		.uleb128 0x25
 19861 26c7 91       		.byte	0x91
 19862 26c8 50       		.sleb128 -48
 19863 26c9 F6       		.byte	0xf6
 19864 26ca 04       		.byte	0x4
 19865 26cb 25       		.uleb128 0x25
 19866 26cc F7       		.byte	0xf7
 19867 26cd 2C       		.uleb128 0x2c
 19868 26ce F7       		.byte	0xf7
 19869 26cf 25       		.uleb128 0x25
 19870 26d0 1C       		.byte	0x1c
 19871 26d1 F5       		.byte	0xf5
 19872 26d2 47       		.uleb128 0x47
 19873 26d3 25       		.uleb128 0x25
 19874 26d4 1E       		.byte	0x1e
 19875 26d5 F7       		.byte	0xf7
 19876 26d6 25       		.uleb128 0x25
 19877 26d7 F7       		.byte	0xf7
 19878 26d8 2C       		.uleb128 0x2c
 19879 26d9 9F       		.byte	0x9f
 19880 26da 00000000 		.4byte	0
 19881 26de 00000000 		.4byte	0
 19882              	.LLST420:
 19883 26e2 CC120000 		.4byte	.LVL352-.Ltext0
 19884 26e6 E0120000 		.4byte	.LVL353-.Ltext0
 19885 26ea 0100     		.2byte	0x1
 19886 26ec 5B       		.byte	0x5b
 19887 26ed E0120000 		.4byte	.LVL353-.Ltext0
 19888 26f1 F2120000 		.4byte	.LVL356-.Ltext0
 19889 26f5 0100     		.2byte	0x1
ARM GAS  /tmp/ccJJl1OT.s 			page 350


 19890 26f7 5A       		.byte	0x5a
 19891 26f8 00000000 		.4byte	0
 19892 26fc 00000000 		.4byte	0
 19893              	.LLST421:
 19894 2700 CC120000 		.4byte	.LVL352-.Ltext0
 19895 2704 E6120000 		.4byte	.LVL354-.Ltext0
 19896 2708 0300     		.2byte	0x3
 19897 270a 7B       		.byte	0x7b
 19898 270b 01       		.sleb128 1
 19899 270c 9F       		.byte	0x9f
 19900 270d E6120000 		.4byte	.LVL354-.Ltext0
 19901 2711 EE120000 		.4byte	.LVL355-.Ltext0
 19902 2715 0100     		.2byte	0x1
 19903 2717 57       		.byte	0x57
 19904 2718 00000000 		.4byte	0
 19905 271c 00000000 		.4byte	0
 19906              	.LLST422:
 19907 2720 CC120000 		.4byte	.LVL352-.Ltext0
 19908 2724 E6120000 		.4byte	.LVL354-.Ltext0
 19909 2728 0600     		.2byte	0x6
 19910 272a 9E       		.byte	0x9e
 19911 272b 04       		.uleb128 0x4
 19912 272c 0000803F 		.4byte	0x3f800000
 19913 2730 E6120000 		.4byte	.LVL354-.Ltext0
 19914 2734 1A130000 		.4byte	.LVL358-.Ltext0
 19915 2738 0600     		.2byte	0x6
 19916 273a 9E       		.byte	0x9e
 19917 273b 04       		.uleb128 0x4
 19918 273c 000080BF 		.4byte	0xbf800000
 19919 2740 00000000 		.4byte	0
 19920 2744 00000000 		.4byte	0
 19921              	.LLST423:
 19922 2748 1A130000 		.4byte	.LVL358-.Ltext0
 19923 274c 2E130000 		.4byte	.LVL360-.Ltext0
 19924 2750 0200     		.2byte	0x2
 19925 2752 90       		.byte	0x90
 19926 2753 4C       		.uleb128 0x4c
 19927 2754 2E130000 		.4byte	.LVL360-.Ltext0
 19928 2758 62130000 		.4byte	.LVL366-.Ltext0
 19929 275c 0200     		.2byte	0x2
 19930 275e 91       		.byte	0x91
 19931 275f 54       		.sleb128 -44
 19932 2760 00000000 		.4byte	0
 19933 2764 00000000 		.4byte	0
 19934              	.LLST424:
 19935 2768 1A130000 		.4byte	.LVL358-.Ltext0
 19936 276c 2E130000 		.4byte	.LVL360-.Ltext0
 19937 2770 0C00     		.2byte	0xc
 19938 2772 F5       		.byte	0xf5
 19939 2773 4C       		.uleb128 0x4c
 19940 2774 25       		.uleb128 0x25
 19941 2775 F5       		.byte	0xf5
 19942 2776 4C       		.uleb128 0x4c
 19943 2777 25       		.uleb128 0x25
 19944 2778 F7       		.byte	0xf7
 19945 2779 2C       		.uleb128 0x2c
 19946 277a F7       		.byte	0xf7
ARM GAS  /tmp/ccJJl1OT.s 			page 351


 19947 277b 25       		.uleb128 0x25
 19948 277c 1C       		.byte	0x1c
 19949 277d 9F       		.byte	0x9f
 19950 277e 2E130000 		.4byte	.LVL360-.Ltext0
 19951 2782 62130000 		.4byte	.LVL366-.Ltext0
 19952 2786 1000     		.2byte	0x10
 19953 2788 91       		.byte	0x91
 19954 2789 54       		.sleb128 -44
 19955 278a F6       		.byte	0xf6
 19956 278b 04       		.byte	0x4
 19957 278c 25       		.uleb128 0x25
 19958 278d 91       		.byte	0x91
 19959 278e 54       		.sleb128 -44
 19960 278f F6       		.byte	0xf6
 19961 2790 04       		.byte	0x4
 19962 2791 25       		.uleb128 0x25
 19963 2792 F7       		.byte	0xf7
 19964 2793 2C       		.uleb128 0x2c
 19965 2794 F7       		.byte	0xf7
 19966 2795 25       		.uleb128 0x25
 19967 2796 1C       		.byte	0x1c
 19968 2797 9F       		.byte	0x9f
 19969 2798 00000000 		.4byte	0
 19970 279c 00000000 		.4byte	0
 19971              	.LLST425:
 19972 27a0 2A130000 		.4byte	.LVL359-.Ltext0
 19973 27a4 62130000 		.4byte	.LVL366-.Ltext0
 19974 27a8 0200     		.2byte	0x2
 19975 27aa 90       		.byte	0x90
 19976 27ab 4D       		.uleb128 0x4d
 19977 27ac 00000000 		.4byte	0
 19978 27b0 00000000 		.4byte	0
 19979              	.LLST426:
 19980 27b4 32130000 		.4byte	.LVL361-.Ltext0
 19981 27b8 6C130000 		.4byte	.LVL367-.Ltext0
 19982 27bc 0100     		.2byte	0x1
 19983 27be 5B       		.byte	0x5b
 19984 27bf 00000000 		.4byte	0
 19985 27c3 00000000 		.4byte	0
 19986              	.LLST427:
 19987 27c7 32130000 		.4byte	.LVL361-.Ltext0
 19988 27cb 42130000 		.4byte	.LVL362-.Ltext0
 19989 27cf 0100     		.2byte	0x1
 19990 27d1 5B       		.byte	0x5b
 19991 27d2 42130000 		.4byte	.LVL362-.Ltext0
 19992 27d6 54130000 		.4byte	.LVL364-.Ltext0
 19993 27da 0100     		.2byte	0x1
 19994 27dc 5A       		.byte	0x5a
 19995 27dd 00000000 		.4byte	0
 19996 27e1 00000000 		.4byte	0
 19997              	.LLST428:
 19998 27e5 32130000 		.4byte	.LVL361-.Ltext0
 19999 27e9 50130000 		.4byte	.LVL363-.Ltext0
 20000 27ed 0300     		.2byte	0x3
 20001 27ef 7B       		.byte	0x7b
 20002 27f0 01       		.sleb128 1
 20003 27f1 9F       		.byte	0x9f
ARM GAS  /tmp/ccJJl1OT.s 			page 352


 20004 27f2 50130000 		.4byte	.LVL363-.Ltext0
 20005 27f6 62130000 		.4byte	.LVL366-.Ltext0
 20006 27fa 0100     		.2byte	0x1
 20007 27fc 57       		.byte	0x57
 20008 27fd 00000000 		.4byte	0
 20009 2801 00000000 		.4byte	0
 20010              	.LLST429:
 20011 2805 32130000 		.4byte	.LVL361-.Ltext0
 20012 2809 50130000 		.4byte	.LVL363-.Ltext0
 20013 280d 0600     		.2byte	0x6
 20014 280f 9E       		.byte	0x9e
 20015 2810 04       		.uleb128 0x4
 20016 2811 0000803F 		.4byte	0x3f800000
 20017 2815 50130000 		.4byte	.LVL363-.Ltext0
 20018 2819 5E130000 		.4byte	.LVL365-.Ltext0
 20019 281d 0600     		.2byte	0x6
 20020 281f 9E       		.byte	0x9e
 20021 2820 04       		.uleb128 0x4
 20022 2821 000080BF 		.4byte	0xbf800000
 20023 2825 5E130000 		.4byte	.LVL365-.Ltext0
 20024 2829 62130000 		.4byte	.LVL366-.Ltext0
 20025 282d 0200     		.2byte	0x2
 20026 282f 90       		.byte	0x90
 20027 2830 49       		.uleb128 0x49
 20028 2831 00000000 		.4byte	0
 20029 2835 00000000 		.4byte	0
 20030              	.LLST430:
 20031 2839 E6130000 		.4byte	.LVL378-.Ltext0
 20032 283d F2130000 		.4byte	.LVL380-.Ltext0
 20033 2841 0200     		.2byte	0x2
 20034 2843 90       		.byte	0x90
 20035 2844 4C       		.uleb128 0x4c
 20036 2845 F2130000 		.4byte	.LVL380-.Ltext0
 20037 2849 44140000 		.4byte	.LVL387-.Ltext0
 20038 284d 0300     		.2byte	0x3
 20039 284f 91       		.byte	0x91
 20040 2850 AC7F     		.sleb128 -84
 20041 2852 00000000 		.4byte	0
 20042 2856 00000000 		.4byte	0
 20043              	.LLST431:
 20044 285a E6130000 		.4byte	.LVL378-.Ltext0
 20045 285e F2130000 		.4byte	.LVL380-.Ltext0
 20046 2862 0C00     		.2byte	0xc
 20047 2864 F5       		.byte	0xf5
 20048 2865 4C       		.uleb128 0x4c
 20049 2866 25       		.uleb128 0x25
 20050 2867 F5       		.byte	0xf5
 20051 2868 4C       		.uleb128 0x4c
 20052 2869 25       		.uleb128 0x25
 20053 286a F7       		.byte	0xf7
 20054 286b 2C       		.uleb128 0x2c
 20055 286c F7       		.byte	0xf7
 20056 286d 25       		.uleb128 0x25
 20057 286e 1C       		.byte	0x1c
 20058 286f 9F       		.byte	0x9f
 20059 2870 F2130000 		.4byte	.LVL380-.Ltext0
 20060 2874 44140000 		.4byte	.LVL387-.Ltext0
ARM GAS  /tmp/ccJJl1OT.s 			page 353


 20061 2878 1200     		.2byte	0x12
 20062 287a 91       		.byte	0x91
 20063 287b AC7F     		.sleb128 -84
 20064 287d F6       		.byte	0xf6
 20065 287e 04       		.byte	0x4
 20066 287f 25       		.uleb128 0x25
 20067 2880 91       		.byte	0x91
 20068 2881 AC7F     		.sleb128 -84
 20069 2883 F6       		.byte	0xf6
 20070 2884 04       		.byte	0x4
 20071 2885 25       		.uleb128 0x25
 20072 2886 F7       		.byte	0xf7
 20073 2887 2C       		.uleb128 0x2c
 20074 2888 F7       		.byte	0xf7
 20075 2889 25       		.uleb128 0x25
 20076 288a 1C       		.byte	0x1c
 20077 288b 9F       		.byte	0x9f
 20078 288c 00000000 		.4byte	0
 20079 2890 00000000 		.4byte	0
 20080              	.LLST432:
 20081 2894 EE130000 		.4byte	.LVL379-.Ltext0
 20082 2898 24140000 		.4byte	.LVL386-.Ltext0
 20083 289c 0200     		.2byte	0x2
 20084 289e 90       		.byte	0x90
 20085 289f 4D       		.uleb128 0x4d
 20086 28a0 24140000 		.4byte	.LVL386-.Ltext0
 20087 28a4 44140000 		.4byte	.LVL387-.Ltext0
 20088 28a8 1600     		.2byte	0x16
 20089 28aa 91       		.byte	0x91
 20090 28ab AC7F     		.sleb128 -84
 20091 28ad F6       		.byte	0xf6
 20092 28ae 04       		.byte	0x4
 20093 28af 25       		.uleb128 0x25
 20094 28b0 91       		.byte	0x91
 20095 28b1 AC7F     		.sleb128 -84
 20096 28b3 F6       		.byte	0xf6
 20097 28b4 04       		.byte	0x4
 20098 28b5 25       		.uleb128 0x25
 20099 28b6 F7       		.byte	0xf7
 20100 28b7 2C       		.uleb128 0x2c
 20101 28b8 F7       		.byte	0xf7
 20102 28b9 25       		.uleb128 0x25
 20103 28ba 1C       		.byte	0x1c
 20104 28bb F5       		.byte	0xf5
 20105 28bc 47       		.uleb128 0x47
 20106 28bd 25       		.uleb128 0x25
 20107 28be 1E       		.byte	0x1e
 20108 28bf 9F       		.byte	0x9f
 20109 28c0 00000000 		.4byte	0
 20110 28c4 00000000 		.4byte	0
 20111              	.LLST433:
 20112 28c8 F6130000 		.4byte	.LVL381-.Ltext0
 20113 28cc 5C140000 		.4byte	.LVL390-.Ltext0
 20114 28d0 0100     		.2byte	0x1
 20115 28d2 5B       		.byte	0x5b
 20116 28d3 5C140000 		.4byte	.LVL390-.Ltext0
 20117 28d7 2A180000 		.4byte	.LVL477-.Ltext0
ARM GAS  /tmp/ccJJl1OT.s 			page 354


 20118 28db 1A00     		.2byte	0x1a
 20119 28dd 91       		.byte	0x91
 20120 28de AC7F     		.sleb128 -84
 20121 28e0 F6       		.byte	0xf6
 20122 28e1 04       		.byte	0x4
 20123 28e2 25       		.uleb128 0x25
 20124 28e3 91       		.byte	0x91
 20125 28e4 AC7F     		.sleb128 -84
 20126 28e6 F6       		.byte	0xf6
 20127 28e7 04       		.byte	0x4
 20128 28e8 25       		.uleb128 0x25
 20129 28e9 F7       		.byte	0xf7
 20130 28ea 2C       		.uleb128 0x2c
 20131 28eb F7       		.byte	0xf7
 20132 28ec 25       		.uleb128 0x25
 20133 28ed 1C       		.byte	0x1c
 20134 28ee F5       		.byte	0xf5
 20135 28ef 47       		.uleb128 0x47
 20136 28f0 25       		.uleb128 0x25
 20137 28f1 1E       		.byte	0x1e
 20138 28f2 F7       		.byte	0xf7
 20139 28f3 25       		.uleb128 0x25
 20140 28f4 F7       		.byte	0xf7
 20141 28f5 2C       		.uleb128 0x2c
 20142 28f6 9F       		.byte	0x9f
 20143 28f7 00000000 		.4byte	0
 20144 28fb 00000000 		.4byte	0
 20145              	.LLST434:
 20146 28ff F6130000 		.4byte	.LVL381-.Ltext0
 20147 2903 0A140000 		.4byte	.LVL382-.Ltext0
 20148 2907 0100     		.2byte	0x1
 20149 2909 5B       		.byte	0x5b
 20150 290a 0A140000 		.4byte	.LVL382-.Ltext0
 20151 290e 1C140000 		.4byte	.LVL385-.Ltext0
 20152 2912 0100     		.2byte	0x1
 20153 2914 5A       		.byte	0x5a
 20154 2915 00000000 		.4byte	0
 20155 2919 00000000 		.4byte	0
 20156              	.LLST435:
 20157 291d F6130000 		.4byte	.LVL381-.Ltext0
 20158 2921 10140000 		.4byte	.LVL383-.Ltext0
 20159 2925 0300     		.2byte	0x3
 20160 2927 7B       		.byte	0x7b
 20161 2928 01       		.sleb128 1
 20162 2929 9F       		.byte	0x9f
 20163 292a 10140000 		.4byte	.LVL383-.Ltext0
 20164 292e 18140000 		.4byte	.LVL384-.Ltext0
 20165 2932 0100     		.2byte	0x1
 20166 2934 57       		.byte	0x57
 20167 2935 00000000 		.4byte	0
 20168 2939 00000000 		.4byte	0
 20169              	.LLST436:
 20170 293d F6130000 		.4byte	.LVL381-.Ltext0
 20171 2941 10140000 		.4byte	.LVL383-.Ltext0
 20172 2945 0600     		.2byte	0x6
 20173 2947 9E       		.byte	0x9e
 20174 2948 04       		.uleb128 0x4
ARM GAS  /tmp/ccJJl1OT.s 			page 355


 20175 2949 0000803F 		.4byte	0x3f800000
 20176 294d 10140000 		.4byte	.LVL383-.Ltext0
 20177 2951 44140000 		.4byte	.LVL387-.Ltext0
 20178 2955 0600     		.2byte	0x6
 20179 2957 9E       		.byte	0x9e
 20180 2958 04       		.uleb128 0x4
 20181 2959 000080BF 		.4byte	0xbf800000
 20182 295d 00000000 		.4byte	0
 20183 2961 00000000 		.4byte	0
 20184              	.LLST437:
 20185 2965 44140000 		.4byte	.LVL387-.Ltext0
 20186 2969 58140000 		.4byte	.LVL389-.Ltext0
 20187 296d 0200     		.2byte	0x2
 20188 296f 90       		.byte	0x90
 20189 2970 4C       		.uleb128 0x4c
 20190 2971 58140000 		.4byte	.LVL389-.Ltext0
 20191 2975 AA140000 		.4byte	.LVL396-.Ltext0
 20192 2979 0300     		.2byte	0x3
 20193 297b 91       		.byte	0x91
 20194 297c B07F     		.sleb128 -80
 20195 297e 00000000 		.4byte	0
 20196 2982 00000000 		.4byte	0
 20197              	.LLST438:
 20198 2986 44140000 		.4byte	.LVL387-.Ltext0
 20199 298a 58140000 		.4byte	.LVL389-.Ltext0
 20200 298e 0C00     		.2byte	0xc
 20201 2990 F5       		.byte	0xf5
 20202 2991 4C       		.uleb128 0x4c
 20203 2992 25       		.uleb128 0x25
 20204 2993 F5       		.byte	0xf5
 20205 2994 4C       		.uleb128 0x4c
 20206 2995 25       		.uleb128 0x25
 20207 2996 F7       		.byte	0xf7
 20208 2997 2C       		.uleb128 0x2c
 20209 2998 F7       		.byte	0xf7
 20210 2999 25       		.uleb128 0x25
 20211 299a 1C       		.byte	0x1c
 20212 299b 9F       		.byte	0x9f
 20213 299c 58140000 		.4byte	.LVL389-.Ltext0
 20214 29a0 AA140000 		.4byte	.LVL396-.Ltext0
 20215 29a4 1200     		.2byte	0x12
 20216 29a6 91       		.byte	0x91
 20217 29a7 B07F     		.sleb128 -80
 20218 29a9 F6       		.byte	0xf6
 20219 29aa 04       		.byte	0x4
 20220 29ab 25       		.uleb128 0x25
 20221 29ac 91       		.byte	0x91
 20222 29ad B07F     		.sleb128 -80
 20223 29af F6       		.byte	0xf6
 20224 29b0 04       		.byte	0x4
 20225 29b1 25       		.uleb128 0x25
 20226 29b2 F7       		.byte	0xf7
 20227 29b3 2C       		.uleb128 0x2c
 20228 29b4 F7       		.byte	0xf7
 20229 29b5 25       		.uleb128 0x25
 20230 29b6 1C       		.byte	0x1c
 20231 29b7 9F       		.byte	0x9f
ARM GAS  /tmp/ccJJl1OT.s 			page 356


 20232 29b8 00000000 		.4byte	0
 20233 29bc 00000000 		.4byte	0
 20234              	.LLST439:
 20235 29c0 54140000 		.4byte	.LVL388-.Ltext0
 20236 29c4 8A140000 		.4byte	.LVL395-.Ltext0
 20237 29c8 0200     		.2byte	0x2
 20238 29ca 90       		.byte	0x90
 20239 29cb 4D       		.uleb128 0x4d
 20240 29cc 8A140000 		.4byte	.LVL395-.Ltext0
 20241 29d0 AA140000 		.4byte	.LVL396-.Ltext0
 20242 29d4 1600     		.2byte	0x16
 20243 29d6 91       		.byte	0x91
 20244 29d7 B07F     		.sleb128 -80
 20245 29d9 F6       		.byte	0xf6
 20246 29da 04       		.byte	0x4
 20247 29db 25       		.uleb128 0x25
 20248 29dc 91       		.byte	0x91
 20249 29dd B07F     		.sleb128 -80
 20250 29df F6       		.byte	0xf6
 20251 29e0 04       		.byte	0x4
 20252 29e1 25       		.uleb128 0x25
 20253 29e2 F7       		.byte	0xf7
 20254 29e3 2C       		.uleb128 0x2c
 20255 29e4 F7       		.byte	0xf7
 20256 29e5 25       		.uleb128 0x25
 20257 29e6 1C       		.byte	0x1c
 20258 29e7 F5       		.byte	0xf5
 20259 29e8 47       		.uleb128 0x47
 20260 29e9 25       		.uleb128 0x25
 20261 29ea 1E       		.byte	0x1e
 20262 29eb 9F       		.byte	0x9f
 20263 29ec 00000000 		.4byte	0
 20264 29f0 00000000 		.4byte	0
 20265              	.LLST440:
 20266 29f4 5C140000 		.4byte	.LVL390-.Ltext0
 20267 29f8 C2140000 		.4byte	.LVL399-.Ltext0
 20268 29fc 0100     		.2byte	0x1
 20269 29fe 5B       		.byte	0x5b
 20270 29ff C2140000 		.4byte	.LVL399-.Ltext0
 20271 2a03 2A180000 		.4byte	.LVL477-.Ltext0
 20272 2a07 1A00     		.2byte	0x1a
 20273 2a09 91       		.byte	0x91
 20274 2a0a B07F     		.sleb128 -80
 20275 2a0c F6       		.byte	0xf6
 20276 2a0d 04       		.byte	0x4
 20277 2a0e 25       		.uleb128 0x25
 20278 2a0f 91       		.byte	0x91
 20279 2a10 B07F     		.sleb128 -80
 20280 2a12 F6       		.byte	0xf6
 20281 2a13 04       		.byte	0x4
 20282 2a14 25       		.uleb128 0x25
 20283 2a15 F7       		.byte	0xf7
 20284 2a16 2C       		.uleb128 0x2c
 20285 2a17 F7       		.byte	0xf7
 20286 2a18 25       		.uleb128 0x25
 20287 2a19 1C       		.byte	0x1c
 20288 2a1a F5       		.byte	0xf5
ARM GAS  /tmp/ccJJl1OT.s 			page 357


 20289 2a1b 47       		.uleb128 0x47
 20290 2a1c 25       		.uleb128 0x25
 20291 2a1d 1E       		.byte	0x1e
 20292 2a1e F7       		.byte	0xf7
 20293 2a1f 25       		.uleb128 0x25
 20294 2a20 F7       		.byte	0xf7
 20295 2a21 2C       		.uleb128 0x2c
 20296 2a22 9F       		.byte	0x9f
 20297 2a23 00000000 		.4byte	0
 20298 2a27 00000000 		.4byte	0
 20299              	.LLST441:
 20300 2a2b 5C140000 		.4byte	.LVL390-.Ltext0
 20301 2a2f 70140000 		.4byte	.LVL391-.Ltext0
 20302 2a33 0100     		.2byte	0x1
 20303 2a35 5B       		.byte	0x5b
 20304 2a36 70140000 		.4byte	.LVL391-.Ltext0
 20305 2a3a 82140000 		.4byte	.LVL394-.Ltext0
 20306 2a3e 0100     		.2byte	0x1
 20307 2a40 5A       		.byte	0x5a
 20308 2a41 00000000 		.4byte	0
 20309 2a45 00000000 		.4byte	0
 20310              	.LLST442:
 20311 2a49 5C140000 		.4byte	.LVL390-.Ltext0
 20312 2a4d 76140000 		.4byte	.LVL392-.Ltext0
 20313 2a51 0300     		.2byte	0x3
 20314 2a53 7B       		.byte	0x7b
 20315 2a54 01       		.sleb128 1
 20316 2a55 9F       		.byte	0x9f
 20317 2a56 76140000 		.4byte	.LVL392-.Ltext0
 20318 2a5a 7E140000 		.4byte	.LVL393-.Ltext0
 20319 2a5e 0100     		.2byte	0x1
 20320 2a60 57       		.byte	0x57
 20321 2a61 00000000 		.4byte	0
 20322 2a65 00000000 		.4byte	0
 20323              	.LLST443:
 20324 2a69 5C140000 		.4byte	.LVL390-.Ltext0
 20325 2a6d 76140000 		.4byte	.LVL392-.Ltext0
 20326 2a71 0600     		.2byte	0x6
 20327 2a73 9E       		.byte	0x9e
 20328 2a74 04       		.uleb128 0x4
 20329 2a75 0000803F 		.4byte	0x3f800000
 20330 2a79 76140000 		.4byte	.LVL392-.Ltext0
 20331 2a7d AA140000 		.4byte	.LVL396-.Ltext0
 20332 2a81 0600     		.2byte	0x6
 20333 2a83 9E       		.byte	0x9e
 20334 2a84 04       		.uleb128 0x4
 20335 2a85 000080BF 		.4byte	0xbf800000
 20336 2a89 00000000 		.4byte	0
 20337 2a8d 00000000 		.4byte	0
 20338              	.LLST444:
 20339 2a91 AA140000 		.4byte	.LVL396-.Ltext0
 20340 2a95 BE140000 		.4byte	.LVL398-.Ltext0
 20341 2a99 0200     		.2byte	0x2
 20342 2a9b 90       		.byte	0x90
 20343 2a9c 4C       		.uleb128 0x4c
 20344 2a9d BE140000 		.4byte	.LVL398-.Ltext0
 20345 2aa1 10150000 		.4byte	.LVL405-.Ltext0
ARM GAS  /tmp/ccJJl1OT.s 			page 358


 20346 2aa5 0300     		.2byte	0x3
 20347 2aa7 91       		.byte	0x91
 20348 2aa8 B47F     		.sleb128 -76
 20349 2aaa 00000000 		.4byte	0
 20350 2aae 00000000 		.4byte	0
 20351              	.LLST445:
 20352 2ab2 AA140000 		.4byte	.LVL396-.Ltext0
 20353 2ab6 BE140000 		.4byte	.LVL398-.Ltext0
 20354 2aba 0C00     		.2byte	0xc
 20355 2abc F5       		.byte	0xf5
 20356 2abd 4C       		.uleb128 0x4c
 20357 2abe 25       		.uleb128 0x25
 20358 2abf F5       		.byte	0xf5
 20359 2ac0 4C       		.uleb128 0x4c
 20360 2ac1 25       		.uleb128 0x25
 20361 2ac2 F7       		.byte	0xf7
 20362 2ac3 2C       		.uleb128 0x2c
 20363 2ac4 F7       		.byte	0xf7
 20364 2ac5 25       		.uleb128 0x25
 20365 2ac6 1C       		.byte	0x1c
 20366 2ac7 9F       		.byte	0x9f
 20367 2ac8 BE140000 		.4byte	.LVL398-.Ltext0
 20368 2acc 10150000 		.4byte	.LVL405-.Ltext0
 20369 2ad0 1200     		.2byte	0x12
 20370 2ad2 91       		.byte	0x91
 20371 2ad3 B47F     		.sleb128 -76
 20372 2ad5 F6       		.byte	0xf6
 20373 2ad6 04       		.byte	0x4
 20374 2ad7 25       		.uleb128 0x25
 20375 2ad8 91       		.byte	0x91
 20376 2ad9 B47F     		.sleb128 -76
 20377 2adb F6       		.byte	0xf6
 20378 2adc 04       		.byte	0x4
 20379 2add 25       		.uleb128 0x25
 20380 2ade F7       		.byte	0xf7
 20381 2adf 2C       		.uleb128 0x2c
 20382 2ae0 F7       		.byte	0xf7
 20383 2ae1 25       		.uleb128 0x25
 20384 2ae2 1C       		.byte	0x1c
 20385 2ae3 9F       		.byte	0x9f
 20386 2ae4 00000000 		.4byte	0
 20387 2ae8 00000000 		.4byte	0
 20388              	.LLST446:
 20389 2aec BA140000 		.4byte	.LVL397-.Ltext0
 20390 2af0 F0140000 		.4byte	.LVL404-.Ltext0
 20391 2af4 0200     		.2byte	0x2
 20392 2af6 90       		.byte	0x90
 20393 2af7 4D       		.uleb128 0x4d
 20394 2af8 F0140000 		.4byte	.LVL404-.Ltext0
 20395 2afc 10150000 		.4byte	.LVL405-.Ltext0
 20396 2b00 1600     		.2byte	0x16
 20397 2b02 91       		.byte	0x91
 20398 2b03 B47F     		.sleb128 -76
 20399 2b05 F6       		.byte	0xf6
 20400 2b06 04       		.byte	0x4
 20401 2b07 25       		.uleb128 0x25
 20402 2b08 91       		.byte	0x91
ARM GAS  /tmp/ccJJl1OT.s 			page 359


 20403 2b09 B47F     		.sleb128 -76
 20404 2b0b F6       		.byte	0xf6
 20405 2b0c 04       		.byte	0x4
 20406 2b0d 25       		.uleb128 0x25
 20407 2b0e F7       		.byte	0xf7
 20408 2b0f 2C       		.uleb128 0x2c
 20409 2b10 F7       		.byte	0xf7
 20410 2b11 25       		.uleb128 0x25
 20411 2b12 1C       		.byte	0x1c
 20412 2b13 F5       		.byte	0xf5
 20413 2b14 47       		.uleb128 0x47
 20414 2b15 25       		.uleb128 0x25
 20415 2b16 1E       		.byte	0x1e
 20416 2b17 9F       		.byte	0x9f
 20417 2b18 00000000 		.4byte	0
 20418 2b1c 00000000 		.4byte	0
 20419              	.LLST447:
 20420 2b20 C2140000 		.4byte	.LVL399-.Ltext0
 20421 2b24 28150000 		.4byte	.LVL408-.Ltext0
 20422 2b28 0100     		.2byte	0x1
 20423 2b2a 5B       		.byte	0x5b
 20424 2b2b 28150000 		.4byte	.LVL408-.Ltext0
 20425 2b2f 2A180000 		.4byte	.LVL477-.Ltext0
 20426 2b33 1A00     		.2byte	0x1a
 20427 2b35 91       		.byte	0x91
 20428 2b36 B47F     		.sleb128 -76
 20429 2b38 F6       		.byte	0xf6
 20430 2b39 04       		.byte	0x4
 20431 2b3a 25       		.uleb128 0x25
 20432 2b3b 91       		.byte	0x91
 20433 2b3c B47F     		.sleb128 -76
 20434 2b3e F6       		.byte	0xf6
 20435 2b3f 04       		.byte	0x4
 20436 2b40 25       		.uleb128 0x25
 20437 2b41 F7       		.byte	0xf7
 20438 2b42 2C       		.uleb128 0x2c
 20439 2b43 F7       		.byte	0xf7
 20440 2b44 25       		.uleb128 0x25
 20441 2b45 1C       		.byte	0x1c
 20442 2b46 F5       		.byte	0xf5
 20443 2b47 47       		.uleb128 0x47
 20444 2b48 25       		.uleb128 0x25
 20445 2b49 1E       		.byte	0x1e
 20446 2b4a F7       		.byte	0xf7
 20447 2b4b 25       		.uleb128 0x25
 20448 2b4c F7       		.byte	0xf7
 20449 2b4d 2C       		.uleb128 0x2c
 20450 2b4e 9F       		.byte	0x9f
 20451 2b4f 00000000 		.4byte	0
 20452 2b53 00000000 		.4byte	0
 20453              	.LLST448:
 20454 2b57 C2140000 		.4byte	.LVL399-.Ltext0
 20455 2b5b D6140000 		.4byte	.LVL400-.Ltext0
 20456 2b5f 0100     		.2byte	0x1
 20457 2b61 5B       		.byte	0x5b
 20458 2b62 D6140000 		.4byte	.LVL400-.Ltext0
 20459 2b66 E8140000 		.4byte	.LVL403-.Ltext0
ARM GAS  /tmp/ccJJl1OT.s 			page 360


 20460 2b6a 0100     		.2byte	0x1
 20461 2b6c 5A       		.byte	0x5a
 20462 2b6d 00000000 		.4byte	0
 20463 2b71 00000000 		.4byte	0
 20464              	.LLST449:
 20465 2b75 C2140000 		.4byte	.LVL399-.Ltext0
 20466 2b79 DC140000 		.4byte	.LVL401-.Ltext0
 20467 2b7d 0300     		.2byte	0x3
 20468 2b7f 7B       		.byte	0x7b
 20469 2b80 01       		.sleb128 1
 20470 2b81 9F       		.byte	0x9f
 20471 2b82 DC140000 		.4byte	.LVL401-.Ltext0
 20472 2b86 E4140000 		.4byte	.LVL402-.Ltext0
 20473 2b8a 0100     		.2byte	0x1
 20474 2b8c 57       		.byte	0x57
 20475 2b8d 00000000 		.4byte	0
 20476 2b91 00000000 		.4byte	0
 20477              	.LLST450:
 20478 2b95 C2140000 		.4byte	.LVL399-.Ltext0
 20479 2b99 DC140000 		.4byte	.LVL401-.Ltext0
 20480 2b9d 0600     		.2byte	0x6
 20481 2b9f 9E       		.byte	0x9e
 20482 2ba0 04       		.uleb128 0x4
 20483 2ba1 0000803F 		.4byte	0x3f800000
 20484 2ba5 DC140000 		.4byte	.LVL401-.Ltext0
 20485 2ba9 10150000 		.4byte	.LVL405-.Ltext0
 20486 2bad 0600     		.2byte	0x6
 20487 2baf 9E       		.byte	0x9e
 20488 2bb0 04       		.uleb128 0x4
 20489 2bb1 000080BF 		.4byte	0xbf800000
 20490 2bb5 00000000 		.4byte	0
 20491 2bb9 00000000 		.4byte	0
 20492              	.LLST451:
 20493 2bbd 10150000 		.4byte	.LVL405-.Ltext0
 20494 2bc1 24150000 		.4byte	.LVL407-.Ltext0
 20495 2bc5 0200     		.2byte	0x2
 20496 2bc7 90       		.byte	0x90
 20497 2bc8 4C       		.uleb128 0x4c
 20498 2bc9 24150000 		.4byte	.LVL407-.Ltext0
 20499 2bcd 76150000 		.4byte	.LVL414-.Ltext0
 20500 2bd1 0300     		.2byte	0x3
 20501 2bd3 91       		.byte	0x91
 20502 2bd4 B87F     		.sleb128 -72
 20503 2bd6 00000000 		.4byte	0
 20504 2bda 00000000 		.4byte	0
 20505              	.LLST452:
 20506 2bde 10150000 		.4byte	.LVL405-.Ltext0
 20507 2be2 24150000 		.4byte	.LVL407-.Ltext0
 20508 2be6 0C00     		.2byte	0xc
 20509 2be8 F5       		.byte	0xf5
 20510 2be9 4C       		.uleb128 0x4c
 20511 2bea 25       		.uleb128 0x25
 20512 2beb F5       		.byte	0xf5
 20513 2bec 4C       		.uleb128 0x4c
 20514 2bed 25       		.uleb128 0x25
 20515 2bee F7       		.byte	0xf7
 20516 2bef 2C       		.uleb128 0x2c
ARM GAS  /tmp/ccJJl1OT.s 			page 361


 20517 2bf0 F7       		.byte	0xf7
 20518 2bf1 25       		.uleb128 0x25
 20519 2bf2 1C       		.byte	0x1c
 20520 2bf3 9F       		.byte	0x9f
 20521 2bf4 24150000 		.4byte	.LVL407-.Ltext0
 20522 2bf8 76150000 		.4byte	.LVL414-.Ltext0
 20523 2bfc 1200     		.2byte	0x12
 20524 2bfe 91       		.byte	0x91
 20525 2bff B87F     		.sleb128 -72
 20526 2c01 F6       		.byte	0xf6
 20527 2c02 04       		.byte	0x4
 20528 2c03 25       		.uleb128 0x25
 20529 2c04 91       		.byte	0x91
 20530 2c05 B87F     		.sleb128 -72
 20531 2c07 F6       		.byte	0xf6
 20532 2c08 04       		.byte	0x4
 20533 2c09 25       		.uleb128 0x25
 20534 2c0a F7       		.byte	0xf7
 20535 2c0b 2C       		.uleb128 0x2c
 20536 2c0c F7       		.byte	0xf7
 20537 2c0d 25       		.uleb128 0x25
 20538 2c0e 1C       		.byte	0x1c
 20539 2c0f 9F       		.byte	0x9f
 20540 2c10 00000000 		.4byte	0
 20541 2c14 00000000 		.4byte	0
 20542              	.LLST453:
 20543 2c18 20150000 		.4byte	.LVL406-.Ltext0
 20544 2c1c 56150000 		.4byte	.LVL413-.Ltext0
 20545 2c20 0200     		.2byte	0x2
 20546 2c22 90       		.byte	0x90
 20547 2c23 4D       		.uleb128 0x4d
 20548 2c24 56150000 		.4byte	.LVL413-.Ltext0
 20549 2c28 76150000 		.4byte	.LVL414-.Ltext0
 20550 2c2c 1600     		.2byte	0x16
 20551 2c2e 91       		.byte	0x91
 20552 2c2f B87F     		.sleb128 -72
 20553 2c31 F6       		.byte	0xf6
 20554 2c32 04       		.byte	0x4
 20555 2c33 25       		.uleb128 0x25
 20556 2c34 91       		.byte	0x91
 20557 2c35 B87F     		.sleb128 -72
 20558 2c37 F6       		.byte	0xf6
 20559 2c38 04       		.byte	0x4
 20560 2c39 25       		.uleb128 0x25
 20561 2c3a F7       		.byte	0xf7
 20562 2c3b 2C       		.uleb128 0x2c
 20563 2c3c F7       		.byte	0xf7
 20564 2c3d 25       		.uleb128 0x25
 20565 2c3e 1C       		.byte	0x1c
 20566 2c3f F5       		.byte	0xf5
 20567 2c40 47       		.uleb128 0x47
 20568 2c41 25       		.uleb128 0x25
 20569 2c42 1E       		.byte	0x1e
 20570 2c43 9F       		.byte	0x9f
 20571 2c44 00000000 		.4byte	0
 20572 2c48 00000000 		.4byte	0
 20573              	.LLST454:
ARM GAS  /tmp/ccJJl1OT.s 			page 362


 20574 2c4c 28150000 		.4byte	.LVL408-.Ltext0
 20575 2c50 8E150000 		.4byte	.LVL417-.Ltext0
 20576 2c54 0100     		.2byte	0x1
 20577 2c56 5B       		.byte	0x5b
 20578 2c57 8E150000 		.4byte	.LVL417-.Ltext0
 20579 2c5b 2A180000 		.4byte	.LVL477-.Ltext0
 20580 2c5f 1A00     		.2byte	0x1a
 20581 2c61 91       		.byte	0x91
 20582 2c62 B87F     		.sleb128 -72
 20583 2c64 F6       		.byte	0xf6
 20584 2c65 04       		.byte	0x4
 20585 2c66 25       		.uleb128 0x25
 20586 2c67 91       		.byte	0x91
 20587 2c68 B87F     		.sleb128 -72
 20588 2c6a F6       		.byte	0xf6
 20589 2c6b 04       		.byte	0x4
 20590 2c6c 25       		.uleb128 0x25
 20591 2c6d F7       		.byte	0xf7
 20592 2c6e 2C       		.uleb128 0x2c
 20593 2c6f F7       		.byte	0xf7
 20594 2c70 25       		.uleb128 0x25
 20595 2c71 1C       		.byte	0x1c
 20596 2c72 F5       		.byte	0xf5
 20597 2c73 47       		.uleb128 0x47
 20598 2c74 25       		.uleb128 0x25
 20599 2c75 1E       		.byte	0x1e
 20600 2c76 F7       		.byte	0xf7
 20601 2c77 25       		.uleb128 0x25
 20602 2c78 F7       		.byte	0xf7
 20603 2c79 2C       		.uleb128 0x2c
 20604 2c7a 9F       		.byte	0x9f
 20605 2c7b 00000000 		.4byte	0
 20606 2c7f 00000000 		.4byte	0
 20607              	.LLST455:
 20608 2c83 28150000 		.4byte	.LVL408-.Ltext0
 20609 2c87 3C150000 		.4byte	.LVL409-.Ltext0
 20610 2c8b 0100     		.2byte	0x1
 20611 2c8d 5B       		.byte	0x5b
 20612 2c8e 3C150000 		.4byte	.LVL409-.Ltext0
 20613 2c92 4E150000 		.4byte	.LVL412-.Ltext0
 20614 2c96 0100     		.2byte	0x1
 20615 2c98 5A       		.byte	0x5a
 20616 2c99 00000000 		.4byte	0
 20617 2c9d 00000000 		.4byte	0
 20618              	.LLST456:
 20619 2ca1 28150000 		.4byte	.LVL408-.Ltext0
 20620 2ca5 42150000 		.4byte	.LVL410-.Ltext0
 20621 2ca9 0300     		.2byte	0x3
 20622 2cab 7B       		.byte	0x7b
 20623 2cac 01       		.sleb128 1
 20624 2cad 9F       		.byte	0x9f
 20625 2cae 42150000 		.4byte	.LVL410-.Ltext0
 20626 2cb2 4A150000 		.4byte	.LVL411-.Ltext0
 20627 2cb6 0100     		.2byte	0x1
 20628 2cb8 57       		.byte	0x57
 20629 2cb9 00000000 		.4byte	0
 20630 2cbd 00000000 		.4byte	0
ARM GAS  /tmp/ccJJl1OT.s 			page 363


 20631              	.LLST457:
 20632 2cc1 28150000 		.4byte	.LVL408-.Ltext0
 20633 2cc5 42150000 		.4byte	.LVL410-.Ltext0
 20634 2cc9 0600     		.2byte	0x6
 20635 2ccb 9E       		.byte	0x9e
 20636 2ccc 04       		.uleb128 0x4
 20637 2ccd 0000803F 		.4byte	0x3f800000
 20638 2cd1 42150000 		.4byte	.LVL410-.Ltext0
 20639 2cd5 76150000 		.4byte	.LVL414-.Ltext0
 20640 2cd9 0600     		.2byte	0x6
 20641 2cdb 9E       		.byte	0x9e
 20642 2cdc 04       		.uleb128 0x4
 20643 2cdd 000080BF 		.4byte	0xbf800000
 20644 2ce1 00000000 		.4byte	0
 20645 2ce5 00000000 		.4byte	0
 20646              	.LLST458:
 20647 2ce9 76150000 		.4byte	.LVL414-.Ltext0
 20648 2ced 8A150000 		.4byte	.LVL416-.Ltext0
 20649 2cf1 0200     		.2byte	0x2
 20650 2cf3 90       		.byte	0x90
 20651 2cf4 4C       		.uleb128 0x4c
 20652 2cf5 8A150000 		.4byte	.LVL416-.Ltext0
 20653 2cf9 DC150000 		.4byte	.LVL423-.Ltext0
 20654 2cfd 0300     		.2byte	0x3
 20655 2cff 91       		.byte	0x91
 20656 2d00 BC7F     		.sleb128 -68
 20657 2d02 00000000 		.4byte	0
 20658 2d06 00000000 		.4byte	0
 20659              	.LLST459:
 20660 2d0a 76150000 		.4byte	.LVL414-.Ltext0
 20661 2d0e 8A150000 		.4byte	.LVL416-.Ltext0
 20662 2d12 0C00     		.2byte	0xc
 20663 2d14 F5       		.byte	0xf5
 20664 2d15 4C       		.uleb128 0x4c
 20665 2d16 25       		.uleb128 0x25
 20666 2d17 F5       		.byte	0xf5
 20667 2d18 4C       		.uleb128 0x4c
 20668 2d19 25       		.uleb128 0x25
 20669 2d1a F7       		.byte	0xf7
 20670 2d1b 2C       		.uleb128 0x2c
 20671 2d1c F7       		.byte	0xf7
 20672 2d1d 25       		.uleb128 0x25
 20673 2d1e 1C       		.byte	0x1c
 20674 2d1f 9F       		.byte	0x9f
 20675 2d20 8A150000 		.4byte	.LVL416-.Ltext0
 20676 2d24 DC150000 		.4byte	.LVL423-.Ltext0
 20677 2d28 1200     		.2byte	0x12
 20678 2d2a 91       		.byte	0x91
 20679 2d2b BC7F     		.sleb128 -68
 20680 2d2d F6       		.byte	0xf6
 20681 2d2e 04       		.byte	0x4
 20682 2d2f 25       		.uleb128 0x25
 20683 2d30 91       		.byte	0x91
 20684 2d31 BC7F     		.sleb128 -68
 20685 2d33 F6       		.byte	0xf6
 20686 2d34 04       		.byte	0x4
 20687 2d35 25       		.uleb128 0x25
ARM GAS  /tmp/ccJJl1OT.s 			page 364


 20688 2d36 F7       		.byte	0xf7
 20689 2d37 2C       		.uleb128 0x2c
 20690 2d38 F7       		.byte	0xf7
 20691 2d39 25       		.uleb128 0x25
 20692 2d3a 1C       		.byte	0x1c
 20693 2d3b 9F       		.byte	0x9f
 20694 2d3c 00000000 		.4byte	0
 20695 2d40 00000000 		.4byte	0
 20696              	.LLST460:
 20697 2d44 86150000 		.4byte	.LVL415-.Ltext0
 20698 2d48 BC150000 		.4byte	.LVL422-.Ltext0
 20699 2d4c 0200     		.2byte	0x2
 20700 2d4e 90       		.byte	0x90
 20701 2d4f 4D       		.uleb128 0x4d
 20702 2d50 BC150000 		.4byte	.LVL422-.Ltext0
 20703 2d54 DC150000 		.4byte	.LVL423-.Ltext0
 20704 2d58 1600     		.2byte	0x16
 20705 2d5a 91       		.byte	0x91
 20706 2d5b BC7F     		.sleb128 -68
 20707 2d5d F6       		.byte	0xf6
 20708 2d5e 04       		.byte	0x4
 20709 2d5f 25       		.uleb128 0x25
 20710 2d60 91       		.byte	0x91
 20711 2d61 BC7F     		.sleb128 -68
 20712 2d63 F6       		.byte	0xf6
 20713 2d64 04       		.byte	0x4
 20714 2d65 25       		.uleb128 0x25
 20715 2d66 F7       		.byte	0xf7
 20716 2d67 2C       		.uleb128 0x2c
 20717 2d68 F7       		.byte	0xf7
 20718 2d69 25       		.uleb128 0x25
 20719 2d6a 1C       		.byte	0x1c
 20720 2d6b F5       		.byte	0xf5
 20721 2d6c 47       		.uleb128 0x47
 20722 2d6d 25       		.uleb128 0x25
 20723 2d6e 1E       		.byte	0x1e
 20724 2d6f 9F       		.byte	0x9f
 20725 2d70 00000000 		.4byte	0
 20726 2d74 00000000 		.4byte	0
 20727              	.LLST461:
 20728 2d78 8E150000 		.4byte	.LVL417-.Ltext0
 20729 2d7c F4150000 		.4byte	.LVL426-.Ltext0
 20730 2d80 0100     		.2byte	0x1
 20731 2d82 5B       		.byte	0x5b
 20732 2d83 F4150000 		.4byte	.LVL426-.Ltext0
 20733 2d87 2A180000 		.4byte	.LVL477-.Ltext0
 20734 2d8b 1A00     		.2byte	0x1a
 20735 2d8d 91       		.byte	0x91
 20736 2d8e BC7F     		.sleb128 -68
 20737 2d90 F6       		.byte	0xf6
 20738 2d91 04       		.byte	0x4
 20739 2d92 25       		.uleb128 0x25
 20740 2d93 91       		.byte	0x91
 20741 2d94 BC7F     		.sleb128 -68
 20742 2d96 F6       		.byte	0xf6
 20743 2d97 04       		.byte	0x4
 20744 2d98 25       		.uleb128 0x25
ARM GAS  /tmp/ccJJl1OT.s 			page 365


 20745 2d99 F7       		.byte	0xf7
 20746 2d9a 2C       		.uleb128 0x2c
 20747 2d9b F7       		.byte	0xf7
 20748 2d9c 25       		.uleb128 0x25
 20749 2d9d 1C       		.byte	0x1c
 20750 2d9e F5       		.byte	0xf5
 20751 2d9f 47       		.uleb128 0x47
 20752 2da0 25       		.uleb128 0x25
 20753 2da1 1E       		.byte	0x1e
 20754 2da2 F7       		.byte	0xf7
 20755 2da3 25       		.uleb128 0x25
 20756 2da4 F7       		.byte	0xf7
 20757 2da5 2C       		.uleb128 0x2c
 20758 2da6 9F       		.byte	0x9f
 20759 2da7 00000000 		.4byte	0
 20760 2dab 00000000 		.4byte	0
 20761              	.LLST462:
 20762 2daf 8E150000 		.4byte	.LVL417-.Ltext0
 20763 2db3 A2150000 		.4byte	.LVL418-.Ltext0
 20764 2db7 0100     		.2byte	0x1
 20765 2db9 5B       		.byte	0x5b
 20766 2dba A2150000 		.4byte	.LVL418-.Ltext0
 20767 2dbe B4150000 		.4byte	.LVL421-.Ltext0
 20768 2dc2 0100     		.2byte	0x1
 20769 2dc4 5A       		.byte	0x5a
 20770 2dc5 00000000 		.4byte	0
 20771 2dc9 00000000 		.4byte	0
 20772              	.LLST463:
 20773 2dcd 8E150000 		.4byte	.LVL417-.Ltext0
 20774 2dd1 A8150000 		.4byte	.LVL419-.Ltext0
 20775 2dd5 0300     		.2byte	0x3
 20776 2dd7 7B       		.byte	0x7b
 20777 2dd8 01       		.sleb128 1
 20778 2dd9 9F       		.byte	0x9f
 20779 2dda A8150000 		.4byte	.LVL419-.Ltext0
 20780 2dde B0150000 		.4byte	.LVL420-.Ltext0
 20781 2de2 0100     		.2byte	0x1
 20782 2de4 57       		.byte	0x57
 20783 2de5 00000000 		.4byte	0
 20784 2de9 00000000 		.4byte	0
 20785              	.LLST464:
 20786 2ded 8E150000 		.4byte	.LVL417-.Ltext0
 20787 2df1 A8150000 		.4byte	.LVL419-.Ltext0
 20788 2df5 0600     		.2byte	0x6
 20789 2df7 9E       		.byte	0x9e
 20790 2df8 04       		.uleb128 0x4
 20791 2df9 0000803F 		.4byte	0x3f800000
 20792 2dfd A8150000 		.4byte	.LVL419-.Ltext0
 20793 2e01 DC150000 		.4byte	.LVL423-.Ltext0
 20794 2e05 0600     		.2byte	0x6
 20795 2e07 9E       		.byte	0x9e
 20796 2e08 04       		.uleb128 0x4
 20797 2e09 000080BF 		.4byte	0xbf800000
 20798 2e0d 00000000 		.4byte	0
 20799 2e11 00000000 		.4byte	0
 20800              	.LLST465:
 20801 2e15 DC150000 		.4byte	.LVL423-.Ltext0
ARM GAS  /tmp/ccJJl1OT.s 			page 366


 20802 2e19 F0150000 		.4byte	.LVL425-.Ltext0
 20803 2e1d 0200     		.2byte	0x2
 20804 2e1f 90       		.byte	0x90
 20805 2e20 4C       		.uleb128 0x4c
 20806 2e21 F0150000 		.4byte	.LVL425-.Ltext0
 20807 2e25 42160000 		.4byte	.LVL432-.Ltext0
 20808 2e29 0200     		.2byte	0x2
 20809 2e2b 91       		.byte	0x91
 20810 2e2c 40       		.sleb128 -64
 20811 2e2d 00000000 		.4byte	0
 20812 2e31 00000000 		.4byte	0
 20813              	.LLST466:
 20814 2e35 DC150000 		.4byte	.LVL423-.Ltext0
 20815 2e39 F0150000 		.4byte	.LVL425-.Ltext0
 20816 2e3d 0C00     		.2byte	0xc
 20817 2e3f F5       		.byte	0xf5
 20818 2e40 4C       		.uleb128 0x4c
 20819 2e41 25       		.uleb128 0x25
 20820 2e42 F5       		.byte	0xf5
 20821 2e43 4C       		.uleb128 0x4c
 20822 2e44 25       		.uleb128 0x25
 20823 2e45 F7       		.byte	0xf7
 20824 2e46 2C       		.uleb128 0x2c
 20825 2e47 F7       		.byte	0xf7
 20826 2e48 25       		.uleb128 0x25
 20827 2e49 1C       		.byte	0x1c
 20828 2e4a 9F       		.byte	0x9f
 20829 2e4b F0150000 		.4byte	.LVL425-.Ltext0
 20830 2e4f 42160000 		.4byte	.LVL432-.Ltext0
 20831 2e53 1000     		.2byte	0x10
 20832 2e55 91       		.byte	0x91
 20833 2e56 40       		.sleb128 -64
 20834 2e57 F6       		.byte	0xf6
 20835 2e58 04       		.byte	0x4
 20836 2e59 25       		.uleb128 0x25
 20837 2e5a 91       		.byte	0x91
 20838 2e5b 40       		.sleb128 -64
 20839 2e5c F6       		.byte	0xf6
 20840 2e5d 04       		.byte	0x4
 20841 2e5e 25       		.uleb128 0x25
 20842 2e5f F7       		.byte	0xf7
 20843 2e60 2C       		.uleb128 0x2c
 20844 2e61 F7       		.byte	0xf7
 20845 2e62 25       		.uleb128 0x25
 20846 2e63 1C       		.byte	0x1c
 20847 2e64 9F       		.byte	0x9f
 20848 2e65 00000000 		.4byte	0
 20849 2e69 00000000 		.4byte	0
 20850              	.LLST467:
 20851 2e6d EC150000 		.4byte	.LVL424-.Ltext0
 20852 2e71 22160000 		.4byte	.LVL431-.Ltext0
 20853 2e75 0200     		.2byte	0x2
 20854 2e77 90       		.byte	0x90
 20855 2e78 4D       		.uleb128 0x4d
 20856 2e79 22160000 		.4byte	.LVL431-.Ltext0
 20857 2e7d 42160000 		.4byte	.LVL432-.Ltext0
 20858 2e81 1400     		.2byte	0x14
ARM GAS  /tmp/ccJJl1OT.s 			page 367


 20859 2e83 91       		.byte	0x91
 20860 2e84 40       		.sleb128 -64
 20861 2e85 F6       		.byte	0xf6
 20862 2e86 04       		.byte	0x4
 20863 2e87 25       		.uleb128 0x25
 20864 2e88 91       		.byte	0x91
 20865 2e89 40       		.sleb128 -64
 20866 2e8a F6       		.byte	0xf6
 20867 2e8b 04       		.byte	0x4
 20868 2e8c 25       		.uleb128 0x25
 20869 2e8d F7       		.byte	0xf7
 20870 2e8e 2C       		.uleb128 0x2c
 20871 2e8f F7       		.byte	0xf7
 20872 2e90 25       		.uleb128 0x25
 20873 2e91 1C       		.byte	0x1c
 20874 2e92 F5       		.byte	0xf5
 20875 2e93 47       		.uleb128 0x47
 20876 2e94 25       		.uleb128 0x25
 20877 2e95 1E       		.byte	0x1e
 20878 2e96 9F       		.byte	0x9f
 20879 2e97 00000000 		.4byte	0
 20880 2e9b 00000000 		.4byte	0
 20881              	.LLST468:
 20882 2e9f F4150000 		.4byte	.LVL426-.Ltext0
 20883 2ea3 5A160000 		.4byte	.LVL435-.Ltext0
 20884 2ea7 0100     		.2byte	0x1
 20885 2ea9 5B       		.byte	0x5b
 20886 2eaa 5A160000 		.4byte	.LVL435-.Ltext0
 20887 2eae 2A180000 		.4byte	.LVL477-.Ltext0
 20888 2eb2 1800     		.2byte	0x18
 20889 2eb4 91       		.byte	0x91
 20890 2eb5 40       		.sleb128 -64
 20891 2eb6 F6       		.byte	0xf6
 20892 2eb7 04       		.byte	0x4
 20893 2eb8 25       		.uleb128 0x25
 20894 2eb9 91       		.byte	0x91
 20895 2eba 40       		.sleb128 -64
 20896 2ebb F6       		.byte	0xf6
 20897 2ebc 04       		.byte	0x4
 20898 2ebd 25       		.uleb128 0x25
 20899 2ebe F7       		.byte	0xf7
 20900 2ebf 2C       		.uleb128 0x2c
 20901 2ec0 F7       		.byte	0xf7
 20902 2ec1 25       		.uleb128 0x25
 20903 2ec2 1C       		.byte	0x1c
 20904 2ec3 F5       		.byte	0xf5
 20905 2ec4 47       		.uleb128 0x47
 20906 2ec5 25       		.uleb128 0x25
 20907 2ec6 1E       		.byte	0x1e
 20908 2ec7 F7       		.byte	0xf7
 20909 2ec8 25       		.uleb128 0x25
 20910 2ec9 F7       		.byte	0xf7
 20911 2eca 2C       		.uleb128 0x2c
 20912 2ecb 9F       		.byte	0x9f
 20913 2ecc 00000000 		.4byte	0
 20914 2ed0 00000000 		.4byte	0
 20915              	.LLST469:
ARM GAS  /tmp/ccJJl1OT.s 			page 368


 20916 2ed4 F4150000 		.4byte	.LVL426-.Ltext0
 20917 2ed8 08160000 		.4byte	.LVL427-.Ltext0
 20918 2edc 0100     		.2byte	0x1
 20919 2ede 5B       		.byte	0x5b
 20920 2edf 08160000 		.4byte	.LVL427-.Ltext0
 20921 2ee3 1A160000 		.4byte	.LVL430-.Ltext0
 20922 2ee7 0100     		.2byte	0x1
 20923 2ee9 5A       		.byte	0x5a
 20924 2eea 00000000 		.4byte	0
 20925 2eee 00000000 		.4byte	0
 20926              	.LLST470:
 20927 2ef2 F4150000 		.4byte	.LVL426-.Ltext0
 20928 2ef6 0E160000 		.4byte	.LVL428-.Ltext0
 20929 2efa 0300     		.2byte	0x3
 20930 2efc 7B       		.byte	0x7b
 20931 2efd 01       		.sleb128 1
 20932 2efe 9F       		.byte	0x9f
 20933 2eff 0E160000 		.4byte	.LVL428-.Ltext0
 20934 2f03 16160000 		.4byte	.LVL429-.Ltext0
 20935 2f07 0100     		.2byte	0x1
 20936 2f09 57       		.byte	0x57
 20937 2f0a 00000000 		.4byte	0
 20938 2f0e 00000000 		.4byte	0
 20939              	.LLST471:
 20940 2f12 F4150000 		.4byte	.LVL426-.Ltext0
 20941 2f16 0E160000 		.4byte	.LVL428-.Ltext0
 20942 2f1a 0600     		.2byte	0x6
 20943 2f1c 9E       		.byte	0x9e
 20944 2f1d 04       		.uleb128 0x4
 20945 2f1e 0000803F 		.4byte	0x3f800000
 20946 2f22 0E160000 		.4byte	.LVL428-.Ltext0
 20947 2f26 42160000 		.4byte	.LVL432-.Ltext0
 20948 2f2a 0600     		.2byte	0x6
 20949 2f2c 9E       		.byte	0x9e
 20950 2f2d 04       		.uleb128 0x4
 20951 2f2e 000080BF 		.4byte	0xbf800000
 20952 2f32 00000000 		.4byte	0
 20953 2f36 00000000 		.4byte	0
 20954              	.LLST472:
 20955 2f3a 42160000 		.4byte	.LVL432-.Ltext0
 20956 2f3e 56160000 		.4byte	.LVL434-.Ltext0
 20957 2f42 0200     		.2byte	0x2
 20958 2f44 90       		.byte	0x90
 20959 2f45 4C       		.uleb128 0x4c
 20960 2f46 56160000 		.4byte	.LVL434-.Ltext0
 20961 2f4a A8160000 		.4byte	.LVL441-.Ltext0
 20962 2f4e 0200     		.2byte	0x2
 20963 2f50 91       		.byte	0x91
 20964 2f51 44       		.sleb128 -60
 20965 2f52 00000000 		.4byte	0
 20966 2f56 00000000 		.4byte	0
 20967              	.LLST473:
 20968 2f5a 42160000 		.4byte	.LVL432-.Ltext0
 20969 2f5e 56160000 		.4byte	.LVL434-.Ltext0
 20970 2f62 0C00     		.2byte	0xc
 20971 2f64 F5       		.byte	0xf5
 20972 2f65 4C       		.uleb128 0x4c
ARM GAS  /tmp/ccJJl1OT.s 			page 369


 20973 2f66 25       		.uleb128 0x25
 20974 2f67 F5       		.byte	0xf5
 20975 2f68 4C       		.uleb128 0x4c
 20976 2f69 25       		.uleb128 0x25
 20977 2f6a F7       		.byte	0xf7
 20978 2f6b 2C       		.uleb128 0x2c
 20979 2f6c F7       		.byte	0xf7
 20980 2f6d 25       		.uleb128 0x25
 20981 2f6e 1C       		.byte	0x1c
 20982 2f6f 9F       		.byte	0x9f
 20983 2f70 56160000 		.4byte	.LVL434-.Ltext0
 20984 2f74 A8160000 		.4byte	.LVL441-.Ltext0
 20985 2f78 1000     		.2byte	0x10
 20986 2f7a 91       		.byte	0x91
 20987 2f7b 44       		.sleb128 -60
 20988 2f7c F6       		.byte	0xf6
 20989 2f7d 04       		.byte	0x4
 20990 2f7e 25       		.uleb128 0x25
 20991 2f7f 91       		.byte	0x91
 20992 2f80 44       		.sleb128 -60
 20993 2f81 F6       		.byte	0xf6
 20994 2f82 04       		.byte	0x4
 20995 2f83 25       		.uleb128 0x25
 20996 2f84 F7       		.byte	0xf7
 20997 2f85 2C       		.uleb128 0x2c
 20998 2f86 F7       		.byte	0xf7
 20999 2f87 25       		.uleb128 0x25
 21000 2f88 1C       		.byte	0x1c
 21001 2f89 9F       		.byte	0x9f
 21002 2f8a 00000000 		.4byte	0
 21003 2f8e 00000000 		.4byte	0
 21004              	.LLST474:
 21005 2f92 52160000 		.4byte	.LVL433-.Ltext0
 21006 2f96 88160000 		.4byte	.LVL440-.Ltext0
 21007 2f9a 0200     		.2byte	0x2
 21008 2f9c 90       		.byte	0x90
 21009 2f9d 4D       		.uleb128 0x4d
 21010 2f9e 88160000 		.4byte	.LVL440-.Ltext0
 21011 2fa2 A8160000 		.4byte	.LVL441-.Ltext0
 21012 2fa6 1400     		.2byte	0x14
 21013 2fa8 91       		.byte	0x91
 21014 2fa9 44       		.sleb128 -60
 21015 2faa F6       		.byte	0xf6
 21016 2fab 04       		.byte	0x4
 21017 2fac 25       		.uleb128 0x25
 21018 2fad 91       		.byte	0x91
 21019 2fae 44       		.sleb128 -60
 21020 2faf F6       		.byte	0xf6
 21021 2fb0 04       		.byte	0x4
 21022 2fb1 25       		.uleb128 0x25
 21023 2fb2 F7       		.byte	0xf7
 21024 2fb3 2C       		.uleb128 0x2c
 21025 2fb4 F7       		.byte	0xf7
 21026 2fb5 25       		.uleb128 0x25
 21027 2fb6 1C       		.byte	0x1c
 21028 2fb7 F5       		.byte	0xf5
 21029 2fb8 47       		.uleb128 0x47
ARM GAS  /tmp/ccJJl1OT.s 			page 370


 21030 2fb9 25       		.uleb128 0x25
 21031 2fba 1E       		.byte	0x1e
 21032 2fbb 9F       		.byte	0x9f
 21033 2fbc 00000000 		.4byte	0
 21034 2fc0 00000000 		.4byte	0
 21035              	.LLST475:
 21036 2fc4 5A160000 		.4byte	.LVL435-.Ltext0
 21037 2fc8 C0160000 		.4byte	.LVL444-.Ltext0
 21038 2fcc 0100     		.2byte	0x1
 21039 2fce 5B       		.byte	0x5b
 21040 2fcf C0160000 		.4byte	.LVL444-.Ltext0
 21041 2fd3 2A180000 		.4byte	.LVL477-.Ltext0
 21042 2fd7 1800     		.2byte	0x18
 21043 2fd9 91       		.byte	0x91
 21044 2fda 44       		.sleb128 -60
 21045 2fdb F6       		.byte	0xf6
 21046 2fdc 04       		.byte	0x4
 21047 2fdd 25       		.uleb128 0x25
 21048 2fde 91       		.byte	0x91
 21049 2fdf 44       		.sleb128 -60
 21050 2fe0 F6       		.byte	0xf6
 21051 2fe1 04       		.byte	0x4
 21052 2fe2 25       		.uleb128 0x25
 21053 2fe3 F7       		.byte	0xf7
 21054 2fe4 2C       		.uleb128 0x2c
 21055 2fe5 F7       		.byte	0xf7
 21056 2fe6 25       		.uleb128 0x25
 21057 2fe7 1C       		.byte	0x1c
 21058 2fe8 F5       		.byte	0xf5
 21059 2fe9 47       		.uleb128 0x47
 21060 2fea 25       		.uleb128 0x25
 21061 2feb 1E       		.byte	0x1e
 21062 2fec F7       		.byte	0xf7
 21063 2fed 25       		.uleb128 0x25
 21064 2fee F7       		.byte	0xf7
 21065 2fef 2C       		.uleb128 0x2c
 21066 2ff0 9F       		.byte	0x9f
 21067 2ff1 00000000 		.4byte	0
 21068 2ff5 00000000 		.4byte	0
 21069              	.LLST476:
 21070 2ff9 5A160000 		.4byte	.LVL435-.Ltext0
 21071 2ffd 6E160000 		.4byte	.LVL436-.Ltext0
 21072 3001 0100     		.2byte	0x1
 21073 3003 5B       		.byte	0x5b
 21074 3004 6E160000 		.4byte	.LVL436-.Ltext0
 21075 3008 80160000 		.4byte	.LVL439-.Ltext0
 21076 300c 0100     		.2byte	0x1
 21077 300e 5A       		.byte	0x5a
 21078 300f 00000000 		.4byte	0
 21079 3013 00000000 		.4byte	0
 21080              	.LLST477:
 21081 3017 5A160000 		.4byte	.LVL435-.Ltext0
 21082 301b 74160000 		.4byte	.LVL437-.Ltext0
 21083 301f 0300     		.2byte	0x3
 21084 3021 7B       		.byte	0x7b
 21085 3022 01       		.sleb128 1
 21086 3023 9F       		.byte	0x9f
ARM GAS  /tmp/ccJJl1OT.s 			page 371


 21087 3024 74160000 		.4byte	.LVL437-.Ltext0
 21088 3028 7C160000 		.4byte	.LVL438-.Ltext0
 21089 302c 0100     		.2byte	0x1
 21090 302e 57       		.byte	0x57
 21091 302f 00000000 		.4byte	0
 21092 3033 00000000 		.4byte	0
 21093              	.LLST478:
 21094 3037 5A160000 		.4byte	.LVL435-.Ltext0
 21095 303b 74160000 		.4byte	.LVL437-.Ltext0
 21096 303f 0600     		.2byte	0x6
 21097 3041 9E       		.byte	0x9e
 21098 3042 04       		.uleb128 0x4
 21099 3043 0000803F 		.4byte	0x3f800000
 21100 3047 74160000 		.4byte	.LVL437-.Ltext0
 21101 304b A8160000 		.4byte	.LVL441-.Ltext0
 21102 304f 0600     		.2byte	0x6
 21103 3051 9E       		.byte	0x9e
 21104 3052 04       		.uleb128 0x4
 21105 3053 000080BF 		.4byte	0xbf800000
 21106 3057 00000000 		.4byte	0
 21107 305b 00000000 		.4byte	0
 21108              	.LLST479:
 21109 305f A8160000 		.4byte	.LVL441-.Ltext0
 21110 3063 BC160000 		.4byte	.LVL443-.Ltext0
 21111 3067 0200     		.2byte	0x2
 21112 3069 90       		.byte	0x90
 21113 306a 4C       		.uleb128 0x4c
 21114 306b BC160000 		.4byte	.LVL443-.Ltext0
 21115 306f 0E170000 		.4byte	.LVL450-.Ltext0
 21116 3073 0200     		.2byte	0x2
 21117 3075 91       		.byte	0x91
 21118 3076 48       		.sleb128 -56
 21119 3077 00000000 		.4byte	0
 21120 307b 00000000 		.4byte	0
 21121              	.LLST480:
 21122 307f A8160000 		.4byte	.LVL441-.Ltext0
 21123 3083 BC160000 		.4byte	.LVL443-.Ltext0
 21124 3087 0C00     		.2byte	0xc
 21125 3089 F5       		.byte	0xf5
 21126 308a 4C       		.uleb128 0x4c
 21127 308b 25       		.uleb128 0x25
 21128 308c F5       		.byte	0xf5
 21129 308d 4C       		.uleb128 0x4c
 21130 308e 25       		.uleb128 0x25
 21131 308f F7       		.byte	0xf7
 21132 3090 2C       		.uleb128 0x2c
 21133 3091 F7       		.byte	0xf7
 21134 3092 25       		.uleb128 0x25
 21135 3093 1C       		.byte	0x1c
 21136 3094 9F       		.byte	0x9f
 21137 3095 BC160000 		.4byte	.LVL443-.Ltext0
 21138 3099 0E170000 		.4byte	.LVL450-.Ltext0
 21139 309d 1000     		.2byte	0x10
 21140 309f 91       		.byte	0x91
 21141 30a0 48       		.sleb128 -56
 21142 30a1 F6       		.byte	0xf6
 21143 30a2 04       		.byte	0x4
ARM GAS  /tmp/ccJJl1OT.s 			page 372


 21144 30a3 25       		.uleb128 0x25
 21145 30a4 91       		.byte	0x91
 21146 30a5 48       		.sleb128 -56
 21147 30a6 F6       		.byte	0xf6
 21148 30a7 04       		.byte	0x4
 21149 30a8 25       		.uleb128 0x25
 21150 30a9 F7       		.byte	0xf7
 21151 30aa 2C       		.uleb128 0x2c
 21152 30ab F7       		.byte	0xf7
 21153 30ac 25       		.uleb128 0x25
 21154 30ad 1C       		.byte	0x1c
 21155 30ae 9F       		.byte	0x9f
 21156 30af 00000000 		.4byte	0
 21157 30b3 00000000 		.4byte	0
 21158              	.LLST481:
 21159 30b7 B8160000 		.4byte	.LVL442-.Ltext0
 21160 30bb EE160000 		.4byte	.LVL449-.Ltext0
 21161 30bf 0200     		.2byte	0x2
 21162 30c1 90       		.byte	0x90
 21163 30c2 4D       		.uleb128 0x4d
 21164 30c3 EE160000 		.4byte	.LVL449-.Ltext0
 21165 30c7 0E170000 		.4byte	.LVL450-.Ltext0
 21166 30cb 1400     		.2byte	0x14
 21167 30cd 91       		.byte	0x91
 21168 30ce 48       		.sleb128 -56
 21169 30cf F6       		.byte	0xf6
 21170 30d0 04       		.byte	0x4
 21171 30d1 25       		.uleb128 0x25
 21172 30d2 91       		.byte	0x91
 21173 30d3 48       		.sleb128 -56
 21174 30d4 F6       		.byte	0xf6
 21175 30d5 04       		.byte	0x4
 21176 30d6 25       		.uleb128 0x25
 21177 30d7 F7       		.byte	0xf7
 21178 30d8 2C       		.uleb128 0x2c
 21179 30d9 F7       		.byte	0xf7
 21180 30da 25       		.uleb128 0x25
 21181 30db 1C       		.byte	0x1c
 21182 30dc F5       		.byte	0xf5
 21183 30dd 47       		.uleb128 0x47
 21184 30de 25       		.uleb128 0x25
 21185 30df 1E       		.byte	0x1e
 21186 30e0 9F       		.byte	0x9f
 21187 30e1 00000000 		.4byte	0
 21188 30e5 00000000 		.4byte	0
 21189              	.LLST482:
 21190 30e9 C0160000 		.4byte	.LVL444-.Ltext0
 21191 30ed 26170000 		.4byte	.LVL453-.Ltext0
 21192 30f1 0100     		.2byte	0x1
 21193 30f3 5B       		.byte	0x5b
 21194 30f4 26170000 		.4byte	.LVL453-.Ltext0
 21195 30f8 2A180000 		.4byte	.LVL477-.Ltext0
 21196 30fc 1800     		.2byte	0x18
 21197 30fe 91       		.byte	0x91
 21198 30ff 48       		.sleb128 -56
 21199 3100 F6       		.byte	0xf6
 21200 3101 04       		.byte	0x4
ARM GAS  /tmp/ccJJl1OT.s 			page 373


 21201 3102 25       		.uleb128 0x25
 21202 3103 91       		.byte	0x91
 21203 3104 48       		.sleb128 -56
 21204 3105 F6       		.byte	0xf6
 21205 3106 04       		.byte	0x4
 21206 3107 25       		.uleb128 0x25
 21207 3108 F7       		.byte	0xf7
 21208 3109 2C       		.uleb128 0x2c
 21209 310a F7       		.byte	0xf7
 21210 310b 25       		.uleb128 0x25
 21211 310c 1C       		.byte	0x1c
 21212 310d F5       		.byte	0xf5
 21213 310e 47       		.uleb128 0x47
 21214 310f 25       		.uleb128 0x25
 21215 3110 1E       		.byte	0x1e
 21216 3111 F7       		.byte	0xf7
 21217 3112 25       		.uleb128 0x25
 21218 3113 F7       		.byte	0xf7
 21219 3114 2C       		.uleb128 0x2c
 21220 3115 9F       		.byte	0x9f
 21221 3116 00000000 		.4byte	0
 21222 311a 00000000 		.4byte	0
 21223              	.LLST483:
 21224 311e C0160000 		.4byte	.LVL444-.Ltext0
 21225 3122 D4160000 		.4byte	.LVL445-.Ltext0
 21226 3126 0100     		.2byte	0x1
 21227 3128 5B       		.byte	0x5b
 21228 3129 D4160000 		.4byte	.LVL445-.Ltext0
 21229 312d E6160000 		.4byte	.LVL448-.Ltext0
 21230 3131 0100     		.2byte	0x1
 21231 3133 5A       		.byte	0x5a
 21232 3134 00000000 		.4byte	0
 21233 3138 00000000 		.4byte	0
 21234              	.LLST484:
 21235 313c C0160000 		.4byte	.LVL444-.Ltext0
 21236 3140 DA160000 		.4byte	.LVL446-.Ltext0
 21237 3144 0300     		.2byte	0x3
 21238 3146 7B       		.byte	0x7b
 21239 3147 01       		.sleb128 1
 21240 3148 9F       		.byte	0x9f
 21241 3149 DA160000 		.4byte	.LVL446-.Ltext0
 21242 314d E2160000 		.4byte	.LVL447-.Ltext0
 21243 3151 0100     		.2byte	0x1
 21244 3153 57       		.byte	0x57
 21245 3154 00000000 		.4byte	0
 21246 3158 00000000 		.4byte	0
 21247              	.LLST485:
 21248 315c C0160000 		.4byte	.LVL444-.Ltext0
 21249 3160 DA160000 		.4byte	.LVL446-.Ltext0
 21250 3164 0600     		.2byte	0x6
 21251 3166 9E       		.byte	0x9e
 21252 3167 04       		.uleb128 0x4
 21253 3168 0000803F 		.4byte	0x3f800000
 21254 316c DA160000 		.4byte	.LVL446-.Ltext0
 21255 3170 0E170000 		.4byte	.LVL450-.Ltext0
 21256 3174 0600     		.2byte	0x6
 21257 3176 9E       		.byte	0x9e
ARM GAS  /tmp/ccJJl1OT.s 			page 374


 21258 3177 04       		.uleb128 0x4
 21259 3178 000080BF 		.4byte	0xbf800000
 21260 317c 00000000 		.4byte	0
 21261 3180 00000000 		.4byte	0
 21262              	.LLST486:
 21263 3184 0E170000 		.4byte	.LVL450-.Ltext0
 21264 3188 22170000 		.4byte	.LVL452-.Ltext0
 21265 318c 0200     		.2byte	0x2
 21266 318e 90       		.byte	0x90
 21267 318f 4C       		.uleb128 0x4c
 21268 3190 22170000 		.4byte	.LVL452-.Ltext0
 21269 3194 74170000 		.4byte	.LVL459-.Ltext0
 21270 3198 0200     		.2byte	0x2
 21271 319a 91       		.byte	0x91
 21272 319b 4C       		.sleb128 -52
 21273 319c 00000000 		.4byte	0
 21274 31a0 00000000 		.4byte	0
 21275              	.LLST487:
 21276 31a4 0E170000 		.4byte	.LVL450-.Ltext0
 21277 31a8 22170000 		.4byte	.LVL452-.Ltext0
 21278 31ac 0C00     		.2byte	0xc
 21279 31ae F5       		.byte	0xf5
 21280 31af 4C       		.uleb128 0x4c
 21281 31b0 25       		.uleb128 0x25
 21282 31b1 F5       		.byte	0xf5
 21283 31b2 4C       		.uleb128 0x4c
 21284 31b3 25       		.uleb128 0x25
 21285 31b4 F7       		.byte	0xf7
 21286 31b5 2C       		.uleb128 0x2c
 21287 31b6 F7       		.byte	0xf7
 21288 31b7 25       		.uleb128 0x25
 21289 31b8 1C       		.byte	0x1c
 21290 31b9 9F       		.byte	0x9f
 21291 31ba 22170000 		.4byte	.LVL452-.Ltext0
 21292 31be 74170000 		.4byte	.LVL459-.Ltext0
 21293 31c2 1000     		.2byte	0x10
 21294 31c4 91       		.byte	0x91
 21295 31c5 4C       		.sleb128 -52
 21296 31c6 F6       		.byte	0xf6
 21297 31c7 04       		.byte	0x4
 21298 31c8 25       		.uleb128 0x25
 21299 31c9 91       		.byte	0x91
 21300 31ca 4C       		.sleb128 -52
 21301 31cb F6       		.byte	0xf6
 21302 31cc 04       		.byte	0x4
 21303 31cd 25       		.uleb128 0x25
 21304 31ce F7       		.byte	0xf7
 21305 31cf 2C       		.uleb128 0x2c
 21306 31d0 F7       		.byte	0xf7
 21307 31d1 25       		.uleb128 0x25
 21308 31d2 1C       		.byte	0x1c
 21309 31d3 9F       		.byte	0x9f
 21310 31d4 00000000 		.4byte	0
 21311 31d8 00000000 		.4byte	0
 21312              	.LLST488:
 21313 31dc 1E170000 		.4byte	.LVL451-.Ltext0
 21314 31e0 54170000 		.4byte	.LVL458-.Ltext0
ARM GAS  /tmp/ccJJl1OT.s 			page 375


 21315 31e4 0200     		.2byte	0x2
 21316 31e6 90       		.byte	0x90
 21317 31e7 4D       		.uleb128 0x4d
 21318 31e8 54170000 		.4byte	.LVL458-.Ltext0
 21319 31ec 74170000 		.4byte	.LVL459-.Ltext0
 21320 31f0 1400     		.2byte	0x14
 21321 31f2 91       		.byte	0x91
 21322 31f3 4C       		.sleb128 -52
 21323 31f4 F6       		.byte	0xf6
 21324 31f5 04       		.byte	0x4
 21325 31f6 25       		.uleb128 0x25
 21326 31f7 91       		.byte	0x91
 21327 31f8 4C       		.sleb128 -52
 21328 31f9 F6       		.byte	0xf6
 21329 31fa 04       		.byte	0x4
 21330 31fb 25       		.uleb128 0x25
 21331 31fc F7       		.byte	0xf7
 21332 31fd 2C       		.uleb128 0x2c
 21333 31fe F7       		.byte	0xf7
 21334 31ff 25       		.uleb128 0x25
 21335 3200 1C       		.byte	0x1c
 21336 3201 F5       		.byte	0xf5
 21337 3202 47       		.uleb128 0x47
 21338 3203 25       		.uleb128 0x25
 21339 3204 1E       		.byte	0x1e
 21340 3205 9F       		.byte	0x9f
 21341 3206 00000000 		.4byte	0
 21342 320a 00000000 		.4byte	0
 21343              	.LLST489:
 21344 320e 26170000 		.4byte	.LVL453-.Ltext0
 21345 3212 8C170000 		.4byte	.LVL462-.Ltext0
 21346 3216 0100     		.2byte	0x1
 21347 3218 5B       		.byte	0x5b
 21348 3219 8C170000 		.4byte	.LVL462-.Ltext0
 21349 321d 2A180000 		.4byte	.LVL477-.Ltext0
 21350 3221 1800     		.2byte	0x18
 21351 3223 91       		.byte	0x91
 21352 3224 4C       		.sleb128 -52
 21353 3225 F6       		.byte	0xf6
 21354 3226 04       		.byte	0x4
 21355 3227 25       		.uleb128 0x25
 21356 3228 91       		.byte	0x91
 21357 3229 4C       		.sleb128 -52
 21358 322a F6       		.byte	0xf6
 21359 322b 04       		.byte	0x4
 21360 322c 25       		.uleb128 0x25
 21361 322d F7       		.byte	0xf7
 21362 322e 2C       		.uleb128 0x2c
 21363 322f F7       		.byte	0xf7
 21364 3230 25       		.uleb128 0x25
 21365 3231 1C       		.byte	0x1c
 21366 3232 F5       		.byte	0xf5
 21367 3233 47       		.uleb128 0x47
 21368 3234 25       		.uleb128 0x25
 21369 3235 1E       		.byte	0x1e
 21370 3236 F7       		.byte	0xf7
 21371 3237 25       		.uleb128 0x25
ARM GAS  /tmp/ccJJl1OT.s 			page 376


 21372 3238 F7       		.byte	0xf7
 21373 3239 2C       		.uleb128 0x2c
 21374 323a 9F       		.byte	0x9f
 21375 323b 00000000 		.4byte	0
 21376 323f 00000000 		.4byte	0
 21377              	.LLST490:
 21378 3243 26170000 		.4byte	.LVL453-.Ltext0
 21379 3247 3A170000 		.4byte	.LVL454-.Ltext0
 21380 324b 0100     		.2byte	0x1
 21381 324d 5B       		.byte	0x5b
 21382 324e 3A170000 		.4byte	.LVL454-.Ltext0
 21383 3252 4C170000 		.4byte	.LVL457-.Ltext0
 21384 3256 0100     		.2byte	0x1
 21385 3258 5A       		.byte	0x5a
 21386 3259 00000000 		.4byte	0
 21387 325d 00000000 		.4byte	0
 21388              	.LLST491:
 21389 3261 26170000 		.4byte	.LVL453-.Ltext0
 21390 3265 40170000 		.4byte	.LVL455-.Ltext0
 21391 3269 0300     		.2byte	0x3
 21392 326b 7B       		.byte	0x7b
 21393 326c 01       		.sleb128 1
 21394 326d 9F       		.byte	0x9f
 21395 326e 40170000 		.4byte	.LVL455-.Ltext0
 21396 3272 48170000 		.4byte	.LVL456-.Ltext0
 21397 3276 0100     		.2byte	0x1
 21398 3278 57       		.byte	0x57
 21399 3279 00000000 		.4byte	0
 21400 327d 00000000 		.4byte	0
 21401              	.LLST492:
 21402 3281 26170000 		.4byte	.LVL453-.Ltext0
 21403 3285 40170000 		.4byte	.LVL455-.Ltext0
 21404 3289 0600     		.2byte	0x6
 21405 328b 9E       		.byte	0x9e
 21406 328c 04       		.uleb128 0x4
 21407 328d 0000803F 		.4byte	0x3f800000
 21408 3291 40170000 		.4byte	.LVL455-.Ltext0
 21409 3295 74170000 		.4byte	.LVL459-.Ltext0
 21410 3299 0600     		.2byte	0x6
 21411 329b 9E       		.byte	0x9e
 21412 329c 04       		.uleb128 0x4
 21413 329d 000080BF 		.4byte	0xbf800000
 21414 32a1 00000000 		.4byte	0
 21415 32a5 00000000 		.4byte	0
 21416              	.LLST493:
 21417 32a9 74170000 		.4byte	.LVL459-.Ltext0
 21418 32ad 88170000 		.4byte	.LVL461-.Ltext0
 21419 32b1 0200     		.2byte	0x2
 21420 32b3 90       		.byte	0x90
 21421 32b4 4C       		.uleb128 0x4c
 21422 32b5 88170000 		.4byte	.LVL461-.Ltext0
 21423 32b9 DA170000 		.4byte	.LVL468-.Ltext0
 21424 32bd 0200     		.2byte	0x2
 21425 32bf 91       		.byte	0x91
 21426 32c0 50       		.sleb128 -48
 21427 32c1 00000000 		.4byte	0
 21428 32c5 00000000 		.4byte	0
ARM GAS  /tmp/ccJJl1OT.s 			page 377


 21429              	.LLST494:
 21430 32c9 74170000 		.4byte	.LVL459-.Ltext0
 21431 32cd 88170000 		.4byte	.LVL461-.Ltext0
 21432 32d1 0C00     		.2byte	0xc
 21433 32d3 F5       		.byte	0xf5
 21434 32d4 4C       		.uleb128 0x4c
 21435 32d5 25       		.uleb128 0x25
 21436 32d6 F5       		.byte	0xf5
 21437 32d7 4C       		.uleb128 0x4c
 21438 32d8 25       		.uleb128 0x25
 21439 32d9 F7       		.byte	0xf7
 21440 32da 2C       		.uleb128 0x2c
 21441 32db F7       		.byte	0xf7
 21442 32dc 25       		.uleb128 0x25
 21443 32dd 1C       		.byte	0x1c
 21444 32de 9F       		.byte	0x9f
 21445 32df 88170000 		.4byte	.LVL461-.Ltext0
 21446 32e3 DA170000 		.4byte	.LVL468-.Ltext0
 21447 32e7 1000     		.2byte	0x10
 21448 32e9 91       		.byte	0x91
 21449 32ea 50       		.sleb128 -48
 21450 32eb F6       		.byte	0xf6
 21451 32ec 04       		.byte	0x4
 21452 32ed 25       		.uleb128 0x25
 21453 32ee 91       		.byte	0x91
 21454 32ef 50       		.sleb128 -48
 21455 32f0 F6       		.byte	0xf6
 21456 32f1 04       		.byte	0x4
 21457 32f2 25       		.uleb128 0x25
 21458 32f3 F7       		.byte	0xf7
 21459 32f4 2C       		.uleb128 0x2c
 21460 32f5 F7       		.byte	0xf7
 21461 32f6 25       		.uleb128 0x25
 21462 32f7 1C       		.byte	0x1c
 21463 32f8 9F       		.byte	0x9f
 21464 32f9 00000000 		.4byte	0
 21465 32fd 00000000 		.4byte	0
 21466              	.LLST495:
 21467 3301 84170000 		.4byte	.LVL460-.Ltext0
 21468 3305 BA170000 		.4byte	.LVL467-.Ltext0
 21469 3309 0200     		.2byte	0x2
 21470 330b 90       		.byte	0x90
 21471 330c 4D       		.uleb128 0x4d
 21472 330d BA170000 		.4byte	.LVL467-.Ltext0
 21473 3311 DA170000 		.4byte	.LVL468-.Ltext0
 21474 3315 1400     		.2byte	0x14
 21475 3317 91       		.byte	0x91
 21476 3318 50       		.sleb128 -48
 21477 3319 F6       		.byte	0xf6
 21478 331a 04       		.byte	0x4
 21479 331b 25       		.uleb128 0x25
 21480 331c 91       		.byte	0x91
 21481 331d 50       		.sleb128 -48
 21482 331e F6       		.byte	0xf6
 21483 331f 04       		.byte	0x4
 21484 3320 25       		.uleb128 0x25
 21485 3321 F7       		.byte	0xf7
ARM GAS  /tmp/ccJJl1OT.s 			page 378


 21486 3322 2C       		.uleb128 0x2c
 21487 3323 F7       		.byte	0xf7
 21488 3324 25       		.uleb128 0x25
 21489 3325 1C       		.byte	0x1c
 21490 3326 F5       		.byte	0xf5
 21491 3327 47       		.uleb128 0x47
 21492 3328 25       		.uleb128 0x25
 21493 3329 1E       		.byte	0x1e
 21494 332a 9F       		.byte	0x9f
 21495 332b 00000000 		.4byte	0
 21496 332f 00000000 		.4byte	0
 21497              	.LLST496:
 21498 3333 8C170000 		.4byte	.LVL462-.Ltext0
 21499 3337 F2170000 		.4byte	.LVL471-.Ltext0
 21500 333b 0100     		.2byte	0x1
 21501 333d 5B       		.byte	0x5b
 21502 333e F2170000 		.4byte	.LVL471-.Ltext0
 21503 3342 2A180000 		.4byte	.LVL477-.Ltext0
 21504 3346 1800     		.2byte	0x18
 21505 3348 91       		.byte	0x91
 21506 3349 50       		.sleb128 -48
 21507 334a F6       		.byte	0xf6
 21508 334b 04       		.byte	0x4
 21509 334c 25       		.uleb128 0x25
 21510 334d 91       		.byte	0x91
 21511 334e 50       		.sleb128 -48
 21512 334f F6       		.byte	0xf6
 21513 3350 04       		.byte	0x4
 21514 3351 25       		.uleb128 0x25
 21515 3352 F7       		.byte	0xf7
 21516 3353 2C       		.uleb128 0x2c
 21517 3354 F7       		.byte	0xf7
 21518 3355 25       		.uleb128 0x25
 21519 3356 1C       		.byte	0x1c
 21520 3357 F5       		.byte	0xf5
 21521 3358 47       		.uleb128 0x47
 21522 3359 25       		.uleb128 0x25
 21523 335a 1E       		.byte	0x1e
 21524 335b F7       		.byte	0xf7
 21525 335c 25       		.uleb128 0x25
 21526 335d F7       		.byte	0xf7
 21527 335e 2C       		.uleb128 0x2c
 21528 335f 9F       		.byte	0x9f
 21529 3360 00000000 		.4byte	0
 21530 3364 00000000 		.4byte	0
 21531              	.LLST497:
 21532 3368 8C170000 		.4byte	.LVL462-.Ltext0
 21533 336c A0170000 		.4byte	.LVL463-.Ltext0
 21534 3370 0100     		.2byte	0x1
 21535 3372 5B       		.byte	0x5b
 21536 3373 A0170000 		.4byte	.LVL463-.Ltext0
 21537 3377 B2170000 		.4byte	.LVL466-.Ltext0
 21538 337b 0100     		.2byte	0x1
 21539 337d 5A       		.byte	0x5a
 21540 337e 00000000 		.4byte	0
 21541 3382 00000000 		.4byte	0
 21542              	.LLST498:
ARM GAS  /tmp/ccJJl1OT.s 			page 379


 21543 3386 8C170000 		.4byte	.LVL462-.Ltext0
 21544 338a A6170000 		.4byte	.LVL464-.Ltext0
 21545 338e 0300     		.2byte	0x3
 21546 3390 7B       		.byte	0x7b
 21547 3391 01       		.sleb128 1
 21548 3392 9F       		.byte	0x9f
 21549 3393 A6170000 		.4byte	.LVL464-.Ltext0
 21550 3397 AE170000 		.4byte	.LVL465-.Ltext0
 21551 339b 0100     		.2byte	0x1
 21552 339d 57       		.byte	0x57
 21553 339e 00000000 		.4byte	0
 21554 33a2 00000000 		.4byte	0
 21555              	.LLST499:
 21556 33a6 8C170000 		.4byte	.LVL462-.Ltext0
 21557 33aa A6170000 		.4byte	.LVL464-.Ltext0
 21558 33ae 0600     		.2byte	0x6
 21559 33b0 9E       		.byte	0x9e
 21560 33b1 04       		.uleb128 0x4
 21561 33b2 0000803F 		.4byte	0x3f800000
 21562 33b6 A6170000 		.4byte	.LVL464-.Ltext0
 21563 33ba DA170000 		.4byte	.LVL468-.Ltext0
 21564 33be 0600     		.2byte	0x6
 21565 33c0 9E       		.byte	0x9e
 21566 33c1 04       		.uleb128 0x4
 21567 33c2 000080BF 		.4byte	0xbf800000
 21568 33c6 00000000 		.4byte	0
 21569 33ca 00000000 		.4byte	0
 21570              	.LLST500:
 21571 33ce DA170000 		.4byte	.LVL468-.Ltext0
 21572 33d2 EE170000 		.4byte	.LVL470-.Ltext0
 21573 33d6 0200     		.2byte	0x2
 21574 33d8 90       		.byte	0x90
 21575 33d9 4C       		.uleb128 0x4c
 21576 33da EE170000 		.4byte	.LVL470-.Ltext0
 21577 33de 26180000 		.4byte	.LVL476-.Ltext0
 21578 33e2 0200     		.2byte	0x2
 21579 33e4 91       		.byte	0x91
 21580 33e5 54       		.sleb128 -44
 21581 33e6 00000000 		.4byte	0
 21582 33ea 00000000 		.4byte	0
 21583              	.LLST501:
 21584 33ee DA170000 		.4byte	.LVL468-.Ltext0
 21585 33f2 EE170000 		.4byte	.LVL470-.Ltext0
 21586 33f6 0C00     		.2byte	0xc
 21587 33f8 F5       		.byte	0xf5
 21588 33f9 4C       		.uleb128 0x4c
 21589 33fa 25       		.uleb128 0x25
 21590 33fb F5       		.byte	0xf5
 21591 33fc 4C       		.uleb128 0x4c
 21592 33fd 25       		.uleb128 0x25
 21593 33fe F7       		.byte	0xf7
 21594 33ff 2C       		.uleb128 0x2c
 21595 3400 F7       		.byte	0xf7
 21596 3401 25       		.uleb128 0x25
 21597 3402 1C       		.byte	0x1c
 21598 3403 9F       		.byte	0x9f
 21599 3404 EE170000 		.4byte	.LVL470-.Ltext0
ARM GAS  /tmp/ccJJl1OT.s 			page 380


 21600 3408 26180000 		.4byte	.LVL476-.Ltext0
 21601 340c 1000     		.2byte	0x10
 21602 340e 91       		.byte	0x91
 21603 340f 54       		.sleb128 -44
 21604 3410 F6       		.byte	0xf6
 21605 3411 04       		.byte	0x4
 21606 3412 25       		.uleb128 0x25
 21607 3413 91       		.byte	0x91
 21608 3414 54       		.sleb128 -44
 21609 3415 F6       		.byte	0xf6
 21610 3416 04       		.byte	0x4
 21611 3417 25       		.uleb128 0x25
 21612 3418 F7       		.byte	0xf7
 21613 3419 2C       		.uleb128 0x2c
 21614 341a F7       		.byte	0xf7
 21615 341b 25       		.uleb128 0x25
 21616 341c 1C       		.byte	0x1c
 21617 341d 9F       		.byte	0x9f
 21618 341e 00000000 		.4byte	0
 21619 3422 00000000 		.4byte	0
 21620              	.LLST502:
 21621 3426 EA170000 		.4byte	.LVL469-.Ltext0
 21622 342a 1C180000 		.4byte	.LVL475-.Ltext0
 21623 342e 0200     		.2byte	0x2
 21624 3430 90       		.byte	0x90
 21625 3431 4D       		.uleb128 0x4d
 21626 3432 1C180000 		.4byte	.LVL475-.Ltext0
 21627 3436 26180000 		.4byte	.LVL476-.Ltext0
 21628 343a 1400     		.2byte	0x14
 21629 343c 91       		.byte	0x91
 21630 343d 54       		.sleb128 -44
 21631 343e F6       		.byte	0xf6
 21632 343f 04       		.byte	0x4
 21633 3440 25       		.uleb128 0x25
 21634 3441 91       		.byte	0x91
 21635 3442 54       		.sleb128 -44
 21636 3443 F6       		.byte	0xf6
 21637 3444 04       		.byte	0x4
 21638 3445 25       		.uleb128 0x25
 21639 3446 F7       		.byte	0xf7
 21640 3447 2C       		.uleb128 0x2c
 21641 3448 F7       		.byte	0xf7
 21642 3449 25       		.uleb128 0x25
 21643 344a 1C       		.byte	0x1c
 21644 344b F5       		.byte	0xf5
 21645 344c 47       		.uleb128 0x47
 21646 344d 25       		.uleb128 0x25
 21647 344e 1E       		.byte	0x1e
 21648 344f 9F       		.byte	0x9f
 21649 3450 00000000 		.4byte	0
 21650 3454 00000000 		.4byte	0
 21651              	.LLST503:
 21652 3458 F2170000 		.4byte	.LVL471-.Ltext0
 21653 345c 2A180000 		.4byte	.LVL477-.Ltext0
 21654 3460 0100     		.2byte	0x1
 21655 3462 5B       		.byte	0x5b
 21656 3463 00000000 		.4byte	0
ARM GAS  /tmp/ccJJl1OT.s 			page 381


 21657 3467 00000000 		.4byte	0
 21658              	.LLST504:
 21659 346b F2170000 		.4byte	.LVL471-.Ltext0
 21660 346f 02180000 		.4byte	.LVL472-.Ltext0
 21661 3473 0100     		.2byte	0x1
 21662 3475 5B       		.byte	0x5b
 21663 3476 02180000 		.4byte	.LVL472-.Ltext0
 21664 347a 0A180000 		.4byte	.LVL473-.Ltext0
 21665 347e 0100     		.2byte	0x1
 21666 3480 5A       		.byte	0x5a
 21667 3481 00000000 		.4byte	0
 21668 3485 00000000 		.4byte	0
 21669              	.LLST505:
 21670 3489 F2170000 		.4byte	.LVL471-.Ltext0
 21671 348d 14180000 		.4byte	.LVL474-.Ltext0
 21672 3491 0300     		.2byte	0x3
 21673 3493 7B       		.byte	0x7b
 21674 3494 01       		.sleb128 1
 21675 3495 9F       		.byte	0x9f
 21676 3496 14180000 		.4byte	.LVL474-.Ltext0
 21677 349a 26180000 		.4byte	.LVL476-.Ltext0
 21678 349e 0100     		.2byte	0x1
 21679 34a0 57       		.byte	0x57
 21680 34a1 00000000 		.4byte	0
 21681 34a5 00000000 		.4byte	0
 21682              	.LLST506:
 21683 34a9 F2170000 		.4byte	.LVL471-.Ltext0
 21684 34ad 14180000 		.4byte	.LVL474-.Ltext0
 21685 34b1 0600     		.2byte	0x6
 21686 34b3 9E       		.byte	0x9e
 21687 34b4 04       		.uleb128 0x4
 21688 34b5 0000803F 		.4byte	0x3f800000
 21689 34b9 14180000 		.4byte	.LVL474-.Ltext0
 21690 34bd 26180000 		.4byte	.LVL476-.Ltext0
 21691 34c1 0600     		.2byte	0x6
 21692 34c3 9E       		.byte	0x9e
 21693 34c4 04       		.uleb128 0x4
 21694 34c5 000080BF 		.4byte	0xbf800000
 21695 34c9 00000000 		.4byte	0
 21696 34cd 00000000 		.4byte	0
 21697              	.LLST507:
 21698 34d1 3E180000 		.4byte	.LVL478-.Ltext0
 21699 34d5 5A180000 		.4byte	.LVL480-.Ltext0
 21700 34d9 0200     		.2byte	0x2
 21701 34db 90       		.byte	0x90
 21702 34dc 4F       		.uleb128 0x4f
 21703 34dd 5C180000 		.4byte	.LVL481-.Ltext0
 21704 34e1 60180000 		.4byte	.LVL482-.Ltext0
 21705 34e5 0200     		.2byte	0x2
 21706 34e7 90       		.byte	0x90
 21707 34e8 4F       		.uleb128 0x4f
 21708 34e9 00000000 		.4byte	0
 21709 34ed 00000000 		.4byte	0
 21710              	.LLST508:
 21711 34f1 3E180000 		.4byte	.LVL478-.Ltext0
 21712 34f5 62180000 		.4byte	.LVL483-.Ltext0
 21713 34f9 0600     		.2byte	0x6
ARM GAS  /tmp/ccJJl1OT.s 			page 382


 21714 34fb 9E       		.byte	0x9e
 21715 34fc 04       		.uleb128 0x4
 21716 34fd CDCC4C3D 		.4byte	0x3d4ccccd
 21717 3501 00000000 		.4byte	0
 21718 3505 00000000 		.4byte	0
 21719              	.LLST510:
 21720 3509 3E180000 		.4byte	.LVL478-.Ltext0
 21721 350d 60180000 		.4byte	.LVL482-.Ltext0
 21722 3511 0600     		.2byte	0x6
 21723 3513 9E       		.byte	0x9e
 21724 3514 04       		.uleb128 0x4
 21725 3515 0000803F 		.4byte	0x3f800000
 21726 3519 00000000 		.4byte	0
 21727 351d 00000000 		.4byte	0
 21728              	.LLST511:
 21729 3521 3E180000 		.4byte	.LVL478-.Ltext0
 21730 3525 48180000 		.4byte	.LVL479-.Ltext0
 21731 3529 0200     		.2byte	0x2
 21732 352b 90       		.byte	0x90
 21733 352c 4F       		.uleb128 0x4f
 21734 352d 5C180000 		.4byte	.LVL481-.Ltext0
 21735 3531 60180000 		.4byte	.LVL482-.Ltext0
 21736 3535 0200     		.2byte	0x2
 21737 3537 90       		.byte	0x90
 21738 3538 4F       		.uleb128 0x4f
 21739 3539 00000000 		.4byte	0
 21740 353d 00000000 		.4byte	0
 21741              	.LLST512:
 21742 3541 3E180000 		.4byte	.LVL478-.Ltext0
 21743 3545 60180000 		.4byte	.LVL482-.Ltext0
 21744 3549 0600     		.2byte	0x6
 21745 354b 9E       		.byte	0x9e
 21746 354c 04       		.uleb128 0x4
 21747 354d 000080BF 		.4byte	0xbf800000
 21748 3551 00000000 		.4byte	0
 21749 3555 00000000 		.4byte	0
 21750              	.LLST513:
 21751 3559 3E180000 		.4byte	.LVL478-.Ltext0
 21752 355d 48180000 		.4byte	.LVL479-.Ltext0
 21753 3561 0600     		.2byte	0x6
 21754 3563 9E       		.byte	0x9e
 21755 3564 04       		.uleb128 0x4
 21756 3565 000080BF 		.4byte	0xbf800000
 21757 3569 5C180000 		.4byte	.LVL481-.Ltext0
 21758 356d 62180000 		.4byte	.LVL483-.Ltext0
 21759 3571 0600     		.2byte	0x6
 21760 3573 9E       		.byte	0x9e
 21761 3574 04       		.uleb128 0x4
 21762 3575 000080BF 		.4byte	0xbf800000
 21763 3579 00000000 		.4byte	0
 21764 357d 00000000 		.4byte	0
 21765              	.LLST515:
 21766 3581 3E180000 		.4byte	.LVL478-.Ltext0
 21767 3585 48180000 		.4byte	.LVL479-.Ltext0
 21768 3589 0C00     		.2byte	0xc
 21769 358b F5       		.byte	0xf5
 21770 358c 4F       		.uleb128 0x4f
ARM GAS  /tmp/ccJJl1OT.s 			page 383


 21771 358d 25       		.uleb128 0x25
 21772 358e F4       		.byte	0xf4
 21773 358f 25       		.uleb128 0x25
 21774 3590 04       		.byte	0x4
 21775 3591 0000803F 		.4byte	0x3f800000
 21776 3595 22       		.byte	0x22
 21777 3596 9F       		.byte	0x9f
 21778 3597 5C180000 		.4byte	.LVL481-.Ltext0
 21779 359b 60180000 		.4byte	.LVL482-.Ltext0
 21780 359f 0C00     		.2byte	0xc
 21781 35a1 F5       		.byte	0xf5
 21782 35a2 4F       		.uleb128 0x4f
 21783 35a3 25       		.uleb128 0x25
 21784 35a4 F4       		.byte	0xf4
 21785 35a5 25       		.uleb128 0x25
 21786 35a6 04       		.byte	0x4
 21787 35a7 0000803F 		.4byte	0x3f800000
 21788 35ab 22       		.byte	0x22
 21789 35ac 9F       		.byte	0x9f
 21790 35ad 00000000 		.4byte	0
 21791 35b1 00000000 		.4byte	0
 21792              	.LLST516:
 21793 35b5 48180000 		.4byte	.LVL479-.Ltext0
 21794 35b9 5C180000 		.4byte	.LVL481-.Ltext0
 21795 35bd 0600     		.2byte	0x6
 21796 35bf 9E       		.byte	0x9e
 21797 35c0 04       		.uleb128 0x4
 21798 35c1 0000803F 		.4byte	0x3f800000
 21799 35c5 00000000 		.4byte	0
 21800 35c9 00000000 		.4byte	0
 21801              	.LLST517:
 21802 35cd 48180000 		.4byte	.LVL479-.Ltext0
 21803 35d1 5A180000 		.4byte	.LVL480-.Ltext0
 21804 35d5 0C00     		.2byte	0xc
 21805 35d7 F5       		.byte	0xf5
 21806 35d8 4F       		.uleb128 0x4f
 21807 35d9 25       		.uleb128 0x25
 21808 35da F4       		.byte	0xf4
 21809 35db 25       		.uleb128 0x25
 21810 35dc 04       		.byte	0x4
 21811 35dd 0000803F 		.4byte	0x3f800000
 21812 35e1 1C       		.byte	0x1c
 21813 35e2 9F       		.byte	0x9f
 21814 35e3 00000000 		.4byte	0
 21815 35e7 00000000 		.4byte	0
 21816              	.LLST518:
 21817 35eb BA180000 		.4byte	.LVL495-.Ltext0
 21818 35ef 06190000 		.4byte	.LVL505-.Ltext0
 21819 35f3 0200     		.2byte	0x2
 21820 35f5 90       		.byte	0x90
 21821 35f6 44       		.uleb128 0x44
 21822 35f7 00000000 		.4byte	0
 21823 35fb 00000000 		.4byte	0
 21824              	.LLST519:
 21825 35ff BA180000 		.4byte	.LVL495-.Ltext0
 21826 3603 06190000 		.4byte	.LVL505-.Ltext0
 21827 3607 0C00     		.2byte	0xc
ARM GAS  /tmp/ccJJl1OT.s 			page 384


 21828 3609 F5       		.byte	0xf5
 21829 360a 44       		.uleb128 0x44
 21830 360b 25       		.uleb128 0x25
 21831 360c F5       		.byte	0xf5
 21832 360d 44       		.uleb128 0x44
 21833 360e 25       		.uleb128 0x25
 21834 360f F7       		.byte	0xf7
 21835 3610 2C       		.uleb128 0x2c
 21836 3611 F7       		.byte	0xf7
 21837 3612 25       		.uleb128 0x25
 21838 3613 1C       		.byte	0x1c
 21839 3614 9F       		.byte	0x9f
 21840 3615 00000000 		.4byte	0
 21841 3619 00000000 		.4byte	0
 21842              	.LLST520:
 21843 361d C6180000 		.4byte	.LVL496-.Ltext0
 21844 3621 F0180000 		.4byte	.LVL503-.Ltext0
 21845 3625 0200     		.2byte	0x2
 21846 3627 90       		.byte	0x90
 21847 3628 49       		.uleb128 0x49
 21848 3629 F0180000 		.4byte	.LVL503-.Ltext0
 21849 362d 06190000 		.4byte	.LVL505-.Ltext0
 21850 3631 1000     		.2byte	0x10
 21851 3633 F5       		.byte	0xf5
 21852 3634 44       		.uleb128 0x44
 21853 3635 25       		.uleb128 0x25
 21854 3636 F5       		.byte	0xf5
 21855 3637 44       		.uleb128 0x44
 21856 3638 25       		.uleb128 0x25
 21857 3639 F7       		.byte	0xf7
 21858 363a 2C       		.uleb128 0x2c
 21859 363b F7       		.byte	0xf7
 21860 363c 25       		.uleb128 0x25
 21861 363d 1C       		.byte	0x1c
 21862 363e F5       		.byte	0xf5
 21863 363f 47       		.uleb128 0x47
 21864 3640 25       		.uleb128 0x25
 21865 3641 1E       		.byte	0x1e
 21866 3642 9F       		.byte	0x9f
 21867 3643 00000000 		.4byte	0
 21868 3647 00000000 		.4byte	0
 21869              	.LLST521:
 21870 364b CE180000 		.4byte	.LVL497-.Ltext0
 21871 364f 06190000 		.4byte	.LVL505-.Ltext0
 21872 3653 0100     		.2byte	0x1
 21873 3655 5B       		.byte	0x5b
 21874 3656 00000000 		.4byte	0
 21875 365a 00000000 		.4byte	0
 21876              	.LLST522:
 21877 365e D2180000 		.4byte	.LVL498-.Ltext0
 21878 3662 DC180000 		.4byte	.LVL499-.Ltext0
 21879 3666 0100     		.2byte	0x1
 21880 3668 57       		.byte	0x57
 21881 3669 DC180000 		.4byte	.LVL499-.Ltext0
 21882 366d E4180000 		.4byte	.LVL500-.Ltext0
 21883 3671 0300     		.2byte	0x3
 21884 3673 77       		.byte	0x77
ARM GAS  /tmp/ccJJl1OT.s 			page 385


 21885 3674 7F       		.sleb128 -1
 21886 3675 9F       		.byte	0x9f
 21887 3676 E4180000 		.4byte	.LVL500-.Ltext0
 21888 367a 06190000 		.4byte	.LVL505-.Ltext0
 21889 367e 0600     		.2byte	0x6
 21890 3680 7B       		.byte	0x7b
 21891 3681 00       		.sleb128 0
 21892 3682 08       		.byte	0x8
 21893 3683 7F       		.byte	0x7f
 21894 3684 1A       		.byte	0x1a
 21895 3685 9F       		.byte	0x9f
 21896 3686 00000000 		.4byte	0
 21897 368a 00000000 		.4byte	0
 21898              	.LLST523:
 21899 368e D2180000 		.4byte	.LVL498-.Ltext0
 21900 3692 DC180000 		.4byte	.LVL499-.Ltext0
 21901 3696 0600     		.2byte	0x6
 21902 3698 77       		.byte	0x77
 21903 3699 01       		.sleb128 1
 21904 369a 08       		.byte	0x8
 21905 369b 7F       		.byte	0x7f
 21906 369c 1A       		.byte	0x1a
 21907 369d 9F       		.byte	0x9f
 21908 369e DC180000 		.4byte	.LVL499-.Ltext0
 21909 36a2 E4180000 		.4byte	.LVL500-.Ltext0
 21910 36a6 0600     		.2byte	0x6
 21911 36a8 77       		.byte	0x77
 21912 36a9 00       		.sleb128 0
 21913 36aa 08       		.byte	0x8
 21914 36ab 7F       		.byte	0x7f
 21915 36ac 1A       		.byte	0x1a
 21916 36ad 9F       		.byte	0x9f
 21917 36ae E4180000 		.4byte	.LVL500-.Ltext0
 21918 36b2 E8180000 		.4byte	.LVL501-.Ltext0
 21919 36b6 0100     		.2byte	0x1
 21920 36b8 57       		.byte	0x57
 21921 36b9 E8180000 		.4byte	.LVL501-.Ltext0
 21922 36bd 06190000 		.4byte	.LVL505-.Ltext0
 21923 36c1 0600     		.2byte	0x6
 21924 36c3 7B       		.byte	0x7b
 21925 36c4 01       		.sleb128 1
 21926 36c5 08       		.byte	0x8
 21927 36c6 7F       		.byte	0x7f
 21928 36c7 1A       		.byte	0x1a
 21929 36c8 9F       		.byte	0x9f
 21930 36c9 00000000 		.4byte	0
 21931 36cd 00000000 		.4byte	0
 21932              	.LLST524:
 21933 36d1 EC180000 		.4byte	.LVL502-.Ltext0
 21934 36d5 00190000 		.4byte	.LVL504-.Ltext0
 21935 36d9 0200     		.2byte	0x2
 21936 36db 90       		.byte	0x90
 21937 36dc 4F       		.uleb128 0x4f
 21938 36dd 00000000 		.4byte	0
 21939 36e1 00000000 		.4byte	0
 21940              	.LLST525:
 21941 36e5 EC180000 		.4byte	.LVL502-.Ltext0
ARM GAS  /tmp/ccJJl1OT.s 			page 386


 21942 36e9 F0180000 		.4byte	.LVL503-.Ltext0
 21943 36ed 0B00     		.2byte	0xb
 21944 36ef F5       		.byte	0xf5
 21945 36f0 49       		.uleb128 0x49
 21946 36f1 25       		.uleb128 0x25
 21947 36f2 7B       		.byte	0x7b
 21948 36f3 00       		.sleb128 0
 21949 36f4 F7       		.byte	0xf7
 21950 36f5 2C       		.uleb128 0x2c
 21951 36f6 F7       		.byte	0xf7
 21952 36f7 25       		.uleb128 0x25
 21953 36f8 1C       		.byte	0x1c
 21954 36f9 9F       		.byte	0x9f
 21955 36fa F0180000 		.4byte	.LVL503-.Ltext0
 21956 36fe 00190000 		.4byte	.LVL504-.Ltext0
 21957 3702 0200     		.2byte	0x2
 21958 3704 90       		.byte	0x90
 21959 3705 49       		.uleb128 0x49
 21960 3706 00000000 		.4byte	0
 21961 370a 00000000 		.4byte	0
 21962              	.LLST526:
 21963 370e 0E190000 		.4byte	.LVL506-.Ltext0
 21964 3712 22190000 		.4byte	.LVL508-.Ltext0
 21965 3716 0200     		.2byte	0x2
 21966 3718 90       		.byte	0x90
 21967 3719 4F       		.uleb128 0x4f
 21968 371a 22190000 		.4byte	.LVL508-.Ltext0
 21969 371e 62190000 		.4byte	.LVL517-.Ltext0
 21970 3722 0300     		.2byte	0x3
 21971 3724 91       		.byte	0x91
 21972 3725 B07F     		.sleb128 -80
 21973 3727 00000000 		.4byte	0
 21974 372b 00000000 		.4byte	0
 21975              	.LLST527:
 21976 372f 0E190000 		.4byte	.LVL506-.Ltext0
 21977 3733 22190000 		.4byte	.LVL508-.Ltext0
 21978 3737 0C00     		.2byte	0xc
 21979 3739 F5       		.byte	0xf5
 21980 373a 4F       		.uleb128 0x4f
 21981 373b 25       		.uleb128 0x25
 21982 373c F5       		.byte	0xf5
 21983 373d 4F       		.uleb128 0x4f
 21984 373e 25       		.uleb128 0x25
 21985 373f F7       		.byte	0xf7
 21986 3740 2C       		.uleb128 0x2c
 21987 3741 F7       		.byte	0xf7
 21988 3742 25       		.uleb128 0x25
 21989 3743 1C       		.byte	0x1c
 21990 3744 9F       		.byte	0x9f
 21991 3745 22190000 		.4byte	.LVL508-.Ltext0
 21992 3749 62190000 		.4byte	.LVL517-.Ltext0
 21993 374d 1200     		.2byte	0x12
 21994 374f 91       		.byte	0x91
 21995 3750 B07F     		.sleb128 -80
 21996 3752 F6       		.byte	0xf6
 21997 3753 04       		.byte	0x4
 21998 3754 25       		.uleb128 0x25
ARM GAS  /tmp/ccJJl1OT.s 			page 387


 21999 3755 91       		.byte	0x91
 22000 3756 B07F     		.sleb128 -80
 22001 3758 F6       		.byte	0xf6
 22002 3759 04       		.byte	0x4
 22003 375a 25       		.uleb128 0x25
 22004 375b F7       		.byte	0xf7
 22005 375c 2C       		.uleb128 0x2c
 22006 375d F7       		.byte	0xf7
 22007 375e 25       		.uleb128 0x25
 22008 375f 1C       		.byte	0x1c
 22009 3760 9F       		.byte	0x9f
 22010 3761 00000000 		.4byte	0
 22011 3765 00000000 		.4byte	0
 22012              	.LLST528:
 22013 3769 1E190000 		.4byte	.LVL507-.Ltext0
 22014 376d 48190000 		.4byte	.LVL515-.Ltext0
 22015 3771 0200     		.2byte	0x2
 22016 3773 90       		.byte	0x90
 22017 3774 44       		.uleb128 0x44
 22018 3775 48190000 		.4byte	.LVL515-.Ltext0
 22019 3779 62190000 		.4byte	.LVL517-.Ltext0
 22020 377d 1600     		.2byte	0x16
 22021 377f 91       		.byte	0x91
 22022 3780 B07F     		.sleb128 -80
 22023 3782 F6       		.byte	0xf6
 22024 3783 04       		.byte	0x4
 22025 3784 25       		.uleb128 0x25
 22026 3785 91       		.byte	0x91
 22027 3786 B07F     		.sleb128 -80
 22028 3788 F6       		.byte	0xf6
 22029 3789 04       		.byte	0x4
 22030 378a 25       		.uleb128 0x25
 22031 378b F7       		.byte	0xf7
 22032 378c 2C       		.uleb128 0x2c
 22033 378d F7       		.byte	0xf7
 22034 378e 25       		.uleb128 0x25
 22035 378f 1C       		.byte	0x1c
 22036 3790 F5       		.byte	0xf5
 22037 3791 47       		.uleb128 0x47
 22038 3792 25       		.uleb128 0x25
 22039 3793 1E       		.byte	0x1e
 22040 3794 9F       		.byte	0x9f
 22041 3795 00000000 		.4byte	0
 22042 3799 00000000 		.4byte	0
 22043              	.LLST529:
 22044 379d 26190000 		.4byte	.LVL509-.Ltext0
 22045 37a1 62190000 		.4byte	.LVL517-.Ltext0
 22046 37a5 0100     		.2byte	0x1
 22047 37a7 5B       		.byte	0x5b
 22048 37a8 00000000 		.4byte	0
 22049 37ac 00000000 		.4byte	0
 22050              	.LLST530:
 22051 37b0 2A190000 		.4byte	.LVL510-.Ltext0
 22052 37b4 34190000 		.4byte	.LVL511-.Ltext0
 22053 37b8 0100     		.2byte	0x1
 22054 37ba 57       		.byte	0x57
 22055 37bb 34190000 		.4byte	.LVL511-.Ltext0
ARM GAS  /tmp/ccJJl1OT.s 			page 388


 22056 37bf 3C190000 		.4byte	.LVL512-.Ltext0
 22057 37c3 0300     		.2byte	0x3
 22058 37c5 77       		.byte	0x77
 22059 37c6 7F       		.sleb128 -1
 22060 37c7 9F       		.byte	0x9f
 22061 37c8 3C190000 		.4byte	.LVL512-.Ltext0
 22062 37cc 62190000 		.4byte	.LVL517-.Ltext0
 22063 37d0 0600     		.2byte	0x6
 22064 37d2 7B       		.byte	0x7b
 22065 37d3 00       		.sleb128 0
 22066 37d4 08       		.byte	0x8
 22067 37d5 7F       		.byte	0x7f
 22068 37d6 1A       		.byte	0x1a
 22069 37d7 9F       		.byte	0x9f
 22070 37d8 00000000 		.4byte	0
 22071 37dc 00000000 		.4byte	0
 22072              	.LLST531:
 22073 37e0 2A190000 		.4byte	.LVL510-.Ltext0
 22074 37e4 34190000 		.4byte	.LVL511-.Ltext0
 22075 37e8 0600     		.2byte	0x6
 22076 37ea 77       		.byte	0x77
 22077 37eb 01       		.sleb128 1
 22078 37ec 08       		.byte	0x8
 22079 37ed 7F       		.byte	0x7f
 22080 37ee 1A       		.byte	0x1a
 22081 37ef 9F       		.byte	0x9f
 22082 37f0 34190000 		.4byte	.LVL511-.Ltext0
 22083 37f4 3C190000 		.4byte	.LVL512-.Ltext0
 22084 37f8 0600     		.2byte	0x6
 22085 37fa 77       		.byte	0x77
 22086 37fb 00       		.sleb128 0
 22087 37fc 08       		.byte	0x8
 22088 37fd 7F       		.byte	0x7f
 22089 37fe 1A       		.byte	0x1a
 22090 37ff 9F       		.byte	0x9f
 22091 3800 3C190000 		.4byte	.LVL512-.Ltext0
 22092 3804 40190000 		.4byte	.LVL513-.Ltext0
 22093 3808 0100     		.2byte	0x1
 22094 380a 57       		.byte	0x57
 22095 380b 40190000 		.4byte	.LVL513-.Ltext0
 22096 380f 62190000 		.4byte	.LVL517-.Ltext0
 22097 3813 0600     		.2byte	0x6
 22098 3815 7B       		.byte	0x7b
 22099 3816 01       		.sleb128 1
 22100 3817 08       		.byte	0x8
 22101 3818 7F       		.byte	0x7f
 22102 3819 1A       		.byte	0x1a
 22103 381a 9F       		.byte	0x9f
 22104 381b 00000000 		.4byte	0
 22105 381f 00000000 		.4byte	0
 22106              	.LLST532:
 22107 3823 44190000 		.4byte	.LVL514-.Ltext0
 22108 3827 58190000 		.4byte	.LVL516-.Ltext0
 22109 382b 0200     		.2byte	0x2
 22110 382d 90       		.byte	0x90
 22111 382e 4F       		.uleb128 0x4f
 22112 382f 00000000 		.4byte	0
ARM GAS  /tmp/ccJJl1OT.s 			page 389


 22113 3833 00000000 		.4byte	0
 22114              	.LLST533:
 22115 3837 44190000 		.4byte	.LVL514-.Ltext0
 22116 383b 48190000 		.4byte	.LVL515-.Ltext0
 22117 383f 0B00     		.2byte	0xb
 22118 3841 F5       		.byte	0xf5
 22119 3842 44       		.uleb128 0x44
 22120 3843 25       		.uleb128 0x25
 22121 3844 7B       		.byte	0x7b
 22122 3845 00       		.sleb128 0
 22123 3846 F7       		.byte	0xf7
 22124 3847 2C       		.uleb128 0x2c
 22125 3848 F7       		.byte	0xf7
 22126 3849 25       		.uleb128 0x25
 22127 384a 1C       		.byte	0x1c
 22128 384b 9F       		.byte	0x9f
 22129 384c 48190000 		.4byte	.LVL515-.Ltext0
 22130 3850 58190000 		.4byte	.LVL516-.Ltext0
 22131 3854 0200     		.2byte	0x2
 22132 3856 90       		.byte	0x90
 22133 3857 44       		.uleb128 0x44
 22134 3858 00000000 		.4byte	0
 22135 385c 00000000 		.4byte	0
 22136              	.LLST534:
 22137 3860 6A190000 		.4byte	.LVL518-.Ltext0
 22138 3864 7E190000 		.4byte	.LVL520-.Ltext0
 22139 3868 0200     		.2byte	0x2
 22140 386a 90       		.byte	0x90
 22141 386b 4F       		.uleb128 0x4f
 22142 386c 7E190000 		.4byte	.LVL520-.Ltext0
 22143 3870 B6190000 		.4byte	.LVL529-.Ltext0
 22144 3874 0300     		.2byte	0x3
 22145 3876 91       		.byte	0x91
 22146 3877 B47F     		.sleb128 -76
 22147 3879 00000000 		.4byte	0
 22148 387d 00000000 		.4byte	0
 22149              	.LLST535:
 22150 3881 6A190000 		.4byte	.LVL518-.Ltext0
 22151 3885 7E190000 		.4byte	.LVL520-.Ltext0
 22152 3889 0C00     		.2byte	0xc
 22153 388b F5       		.byte	0xf5
 22154 388c 4F       		.uleb128 0x4f
 22155 388d 25       		.uleb128 0x25
 22156 388e F5       		.byte	0xf5
 22157 388f 4F       		.uleb128 0x4f
 22158 3890 25       		.uleb128 0x25
 22159 3891 F7       		.byte	0xf7
 22160 3892 2C       		.uleb128 0x2c
 22161 3893 F7       		.byte	0xf7
 22162 3894 25       		.uleb128 0x25
 22163 3895 1C       		.byte	0x1c
 22164 3896 9F       		.byte	0x9f
 22165 3897 7E190000 		.4byte	.LVL520-.Ltext0
 22166 389b B6190000 		.4byte	.LVL529-.Ltext0
 22167 389f 1200     		.2byte	0x12
 22168 38a1 91       		.byte	0x91
 22169 38a2 B47F     		.sleb128 -76
ARM GAS  /tmp/ccJJl1OT.s 			page 390


 22170 38a4 F6       		.byte	0xf6
 22171 38a5 04       		.byte	0x4
 22172 38a6 25       		.uleb128 0x25
 22173 38a7 91       		.byte	0x91
 22174 38a8 B47F     		.sleb128 -76
 22175 38aa F6       		.byte	0xf6
 22176 38ab 04       		.byte	0x4
 22177 38ac 25       		.uleb128 0x25
 22178 38ad F7       		.byte	0xf7
 22179 38ae 2C       		.uleb128 0x2c
 22180 38af F7       		.byte	0xf7
 22181 38b0 25       		.uleb128 0x25
 22182 38b1 1C       		.byte	0x1c
 22183 38b2 9F       		.byte	0x9f
 22184 38b3 00000000 		.4byte	0
 22185 38b7 00000000 		.4byte	0
 22186              	.LLST536:
 22187 38bb 7A190000 		.4byte	.LVL519-.Ltext0
 22188 38bf A0190000 		.4byte	.LVL527-.Ltext0
 22189 38c3 0200     		.2byte	0x2
 22190 38c5 90       		.byte	0x90
 22191 38c6 44       		.uleb128 0x44
 22192 38c7 A0190000 		.4byte	.LVL527-.Ltext0
 22193 38cb B6190000 		.4byte	.LVL529-.Ltext0
 22194 38cf 1600     		.2byte	0x16
 22195 38d1 91       		.byte	0x91
 22196 38d2 B47F     		.sleb128 -76
 22197 38d4 F6       		.byte	0xf6
 22198 38d5 04       		.byte	0x4
 22199 38d6 25       		.uleb128 0x25
 22200 38d7 91       		.byte	0x91
 22201 38d8 B47F     		.sleb128 -76
 22202 38da F6       		.byte	0xf6
 22203 38db 04       		.byte	0x4
 22204 38dc 25       		.uleb128 0x25
 22205 38dd F7       		.byte	0xf7
 22206 38de 2C       		.uleb128 0x2c
 22207 38df F7       		.byte	0xf7
 22208 38e0 25       		.uleb128 0x25
 22209 38e1 1C       		.byte	0x1c
 22210 38e2 F5       		.byte	0xf5
 22211 38e3 47       		.uleb128 0x47
 22212 38e4 25       		.uleb128 0x25
 22213 38e5 1E       		.byte	0x1e
 22214 38e6 9F       		.byte	0x9f
 22215 38e7 00000000 		.4byte	0
 22216 38eb 00000000 		.4byte	0
 22217              	.LLST537:
 22218 38ef 82190000 		.4byte	.LVL521-.Ltext0
 22219 38f3 B6190000 		.4byte	.LVL529-.Ltext0
 22220 38f7 0100     		.2byte	0x1
 22221 38f9 5B       		.byte	0x5b
 22222 38fa 00000000 		.4byte	0
 22223 38fe 00000000 		.4byte	0
 22224              	.LLST538:
 22225 3902 86190000 		.4byte	.LVL522-.Ltext0
 22226 3906 8C190000 		.4byte	.LVL523-.Ltext0
ARM GAS  /tmp/ccJJl1OT.s 			page 391


 22227 390a 0100     		.2byte	0x1
 22228 390c 57       		.byte	0x57
 22229 390d 8C190000 		.4byte	.LVL523-.Ltext0
 22230 3911 94190000 		.4byte	.LVL524-.Ltext0
 22231 3915 0300     		.2byte	0x3
 22232 3917 77       		.byte	0x77
 22233 3918 7F       		.sleb128 -1
 22234 3919 9F       		.byte	0x9f
 22235 391a 94190000 		.4byte	.LVL524-.Ltext0
 22236 391e B6190000 		.4byte	.LVL529-.Ltext0
 22237 3922 0600     		.2byte	0x6
 22238 3924 7B       		.byte	0x7b
 22239 3925 00       		.sleb128 0
 22240 3926 08       		.byte	0x8
 22241 3927 7F       		.byte	0x7f
 22242 3928 1A       		.byte	0x1a
 22243 3929 9F       		.byte	0x9f
 22244 392a 00000000 		.4byte	0
 22245 392e 00000000 		.4byte	0
 22246              	.LLST539:
 22247 3932 86190000 		.4byte	.LVL522-.Ltext0
 22248 3936 8C190000 		.4byte	.LVL523-.Ltext0
 22249 393a 0600     		.2byte	0x6
 22250 393c 77       		.byte	0x77
 22251 393d 01       		.sleb128 1
 22252 393e 08       		.byte	0x8
 22253 393f 7F       		.byte	0x7f
 22254 3940 1A       		.byte	0x1a
 22255 3941 9F       		.byte	0x9f
 22256 3942 8C190000 		.4byte	.LVL523-.Ltext0
 22257 3946 94190000 		.4byte	.LVL524-.Ltext0
 22258 394a 0600     		.2byte	0x6
 22259 394c 77       		.byte	0x77
 22260 394d 00       		.sleb128 0
 22261 394e 08       		.byte	0x8
 22262 394f 7F       		.byte	0x7f
 22263 3950 1A       		.byte	0x1a
 22264 3951 9F       		.byte	0x9f
 22265 3952 94190000 		.4byte	.LVL524-.Ltext0
 22266 3956 98190000 		.4byte	.LVL525-.Ltext0
 22267 395a 0100     		.2byte	0x1
 22268 395c 57       		.byte	0x57
 22269 395d 98190000 		.4byte	.LVL525-.Ltext0
 22270 3961 B6190000 		.4byte	.LVL529-.Ltext0
 22271 3965 0600     		.2byte	0x6
 22272 3967 7B       		.byte	0x7b
 22273 3968 01       		.sleb128 1
 22274 3969 08       		.byte	0x8
 22275 396a 7F       		.byte	0x7f
 22276 396b 1A       		.byte	0x1a
 22277 396c 9F       		.byte	0x9f
 22278 396d 00000000 		.4byte	0
 22279 3971 00000000 		.4byte	0
 22280              	.LLST540:
 22281 3975 9C190000 		.4byte	.LVL526-.Ltext0
 22282 3979 B0190000 		.4byte	.LVL528-.Ltext0
 22283 397d 0200     		.2byte	0x2
ARM GAS  /tmp/ccJJl1OT.s 			page 392


 22284 397f 90       		.byte	0x90
 22285 3980 4C       		.uleb128 0x4c
 22286 3981 00000000 		.4byte	0
 22287 3985 00000000 		.4byte	0
 22288              	.LLST541:
 22289 3989 B6190000 		.4byte	.LVL529-.Ltext0
 22290 398d CE190000 		.4byte	.LVL531-.Ltext0
 22291 3991 0200     		.2byte	0x2
 22292 3993 90       		.byte	0x90
 22293 3994 4D       		.uleb128 0x4d
 22294 3995 CE190000 		.4byte	.LVL531-.Ltext0
 22295 3999 0A1A0000 		.4byte	.LVL540-.Ltext0
 22296 399d 0300     		.2byte	0x3
 22297 399f 91       		.byte	0x91
 22298 39a0 B87F     		.sleb128 -72
 22299 39a2 00000000 		.4byte	0
 22300 39a6 00000000 		.4byte	0
 22301              	.LLST542:
 22302 39aa B6190000 		.4byte	.LVL529-.Ltext0
 22303 39ae CE190000 		.4byte	.LVL531-.Ltext0
 22304 39b2 0C00     		.2byte	0xc
 22305 39b4 F5       		.byte	0xf5
 22306 39b5 4D       		.uleb128 0x4d
 22307 39b6 25       		.uleb128 0x25
 22308 39b7 F5       		.byte	0xf5
 22309 39b8 4D       		.uleb128 0x4d
 22310 39b9 25       		.uleb128 0x25
 22311 39ba F7       		.byte	0xf7
 22312 39bb 2C       		.uleb128 0x2c
 22313 39bc F7       		.byte	0xf7
 22314 39bd 25       		.uleb128 0x25
 22315 39be 1C       		.byte	0x1c
 22316 39bf 9F       		.byte	0x9f
 22317 39c0 CE190000 		.4byte	.LVL531-.Ltext0
 22318 39c4 0A1A0000 		.4byte	.LVL540-.Ltext0
 22319 39c8 1200     		.2byte	0x12
 22320 39ca 91       		.byte	0x91
 22321 39cb B87F     		.sleb128 -72
 22322 39cd F6       		.byte	0xf6
 22323 39ce 04       		.byte	0x4
 22324 39cf 25       		.uleb128 0x25
 22325 39d0 91       		.byte	0x91
 22326 39d1 B87F     		.sleb128 -72
 22327 39d3 F6       		.byte	0xf6
 22328 39d4 04       		.byte	0x4
 22329 39d5 25       		.uleb128 0x25
 22330 39d6 F7       		.byte	0xf7
 22331 39d7 2C       		.uleb128 0x2c
 22332 39d8 F7       		.byte	0xf7
 22333 39d9 25       		.uleb128 0x25
 22334 39da 1C       		.byte	0x1c
 22335 39db 9F       		.byte	0x9f
 22336 39dc 00000000 		.4byte	0
 22337 39e0 00000000 		.4byte	0
 22338              	.LLST543:
 22339 39e4 CA190000 		.4byte	.LVL530-.Ltext0
 22340 39e8 F4190000 		.4byte	.LVL538-.Ltext0
ARM GAS  /tmp/ccJJl1OT.s 			page 393


 22341 39ec 0200     		.2byte	0x2
 22342 39ee 90       		.byte	0x90
 22343 39ef 4B       		.uleb128 0x4b
 22344 39f0 F4190000 		.4byte	.LVL538-.Ltext0
 22345 39f4 0A1A0000 		.4byte	.LVL540-.Ltext0
 22346 39f8 1600     		.2byte	0x16
 22347 39fa 91       		.byte	0x91
 22348 39fb B87F     		.sleb128 -72
 22349 39fd F6       		.byte	0xf6
 22350 39fe 04       		.byte	0x4
 22351 39ff 25       		.uleb128 0x25
 22352 3a00 91       		.byte	0x91
 22353 3a01 B87F     		.sleb128 -72
 22354 3a03 F6       		.byte	0xf6
 22355 3a04 04       		.byte	0x4
 22356 3a05 25       		.uleb128 0x25
 22357 3a06 F7       		.byte	0xf7
 22358 3a07 2C       		.uleb128 0x2c
 22359 3a08 F7       		.byte	0xf7
 22360 3a09 25       		.uleb128 0x25
 22361 3a0a 1C       		.byte	0x1c
 22362 3a0b F5       		.byte	0xf5
 22363 3a0c 47       		.uleb128 0x47
 22364 3a0d 25       		.uleb128 0x25
 22365 3a0e 1E       		.byte	0x1e
 22366 3a0f 9F       		.byte	0x9f
 22367 3a10 00000000 		.4byte	0
 22368 3a14 00000000 		.4byte	0
 22369              	.LLST544:
 22370 3a18 D2190000 		.4byte	.LVL532-.Ltext0
 22371 3a1c 0A1A0000 		.4byte	.LVL540-.Ltext0
 22372 3a20 0100     		.2byte	0x1
 22373 3a22 5B       		.byte	0x5b
 22374 3a23 00000000 		.4byte	0
 22375 3a27 00000000 		.4byte	0
 22376              	.LLST545:
 22377 3a2b D6190000 		.4byte	.LVL533-.Ltext0
 22378 3a2f E0190000 		.4byte	.LVL534-.Ltext0
 22379 3a33 0100     		.2byte	0x1
 22380 3a35 57       		.byte	0x57
 22381 3a36 E0190000 		.4byte	.LVL534-.Ltext0
 22382 3a3a E8190000 		.4byte	.LVL535-.Ltext0
 22383 3a3e 0300     		.2byte	0x3
 22384 3a40 77       		.byte	0x77
 22385 3a41 7F       		.sleb128 -1
 22386 3a42 9F       		.byte	0x9f
 22387 3a43 E8190000 		.4byte	.LVL535-.Ltext0
 22388 3a47 0A1A0000 		.4byte	.LVL540-.Ltext0
 22389 3a4b 0600     		.2byte	0x6
 22390 3a4d 7B       		.byte	0x7b
 22391 3a4e 00       		.sleb128 0
 22392 3a4f 08       		.byte	0x8
 22393 3a50 7F       		.byte	0x7f
 22394 3a51 1A       		.byte	0x1a
 22395 3a52 9F       		.byte	0x9f
 22396 3a53 00000000 		.4byte	0
 22397 3a57 00000000 		.4byte	0
ARM GAS  /tmp/ccJJl1OT.s 			page 394


 22398              	.LLST546:
 22399 3a5b D6190000 		.4byte	.LVL533-.Ltext0
 22400 3a5f E0190000 		.4byte	.LVL534-.Ltext0
 22401 3a63 0600     		.2byte	0x6
 22402 3a65 77       		.byte	0x77
 22403 3a66 01       		.sleb128 1
 22404 3a67 08       		.byte	0x8
 22405 3a68 7F       		.byte	0x7f
 22406 3a69 1A       		.byte	0x1a
 22407 3a6a 9F       		.byte	0x9f
 22408 3a6b E0190000 		.4byte	.LVL534-.Ltext0
 22409 3a6f E8190000 		.4byte	.LVL535-.Ltext0
 22410 3a73 0600     		.2byte	0x6
 22411 3a75 77       		.byte	0x77
 22412 3a76 00       		.sleb128 0
 22413 3a77 08       		.byte	0x8
 22414 3a78 7F       		.byte	0x7f
 22415 3a79 1A       		.byte	0x1a
 22416 3a7a 9F       		.byte	0x9f
 22417 3a7b E8190000 		.4byte	.LVL535-.Ltext0
 22418 3a7f EC190000 		.4byte	.LVL536-.Ltext0
 22419 3a83 0100     		.2byte	0x1
 22420 3a85 57       		.byte	0x57
 22421 3a86 EC190000 		.4byte	.LVL536-.Ltext0
 22422 3a8a 0A1A0000 		.4byte	.LVL540-.Ltext0
 22423 3a8e 0600     		.2byte	0x6
 22424 3a90 7B       		.byte	0x7b
 22425 3a91 01       		.sleb128 1
 22426 3a92 08       		.byte	0x8
 22427 3a93 7F       		.byte	0x7f
 22428 3a94 1A       		.byte	0x1a
 22429 3a95 9F       		.byte	0x9f
 22430 3a96 00000000 		.4byte	0
 22431 3a9a 00000000 		.4byte	0
 22432              	.LLST547:
 22433 3a9e F0190000 		.4byte	.LVL537-.Ltext0
 22434 3aa2 041A0000 		.4byte	.LVL539-.Ltext0
 22435 3aa6 0200     		.2byte	0x2
 22436 3aa8 90       		.byte	0x90
 22437 3aa9 4D       		.uleb128 0x4d
 22438 3aaa 00000000 		.4byte	0
 22439 3aae 00000000 		.4byte	0
 22440              	.LLST548:
 22441 3ab2 F0190000 		.4byte	.LVL537-.Ltext0
 22442 3ab6 F4190000 		.4byte	.LVL538-.Ltext0
 22443 3aba 0B00     		.2byte	0xb
 22444 3abc F5       		.byte	0xf5
 22445 3abd 4B       		.uleb128 0x4b
 22446 3abe 25       		.uleb128 0x25
 22447 3abf 7B       		.byte	0x7b
 22448 3ac0 00       		.sleb128 0
 22449 3ac1 F7       		.byte	0xf7
 22450 3ac2 2C       		.uleb128 0x2c
 22451 3ac3 F7       		.byte	0xf7
 22452 3ac4 25       		.uleb128 0x25
 22453 3ac5 1C       		.byte	0x1c
 22454 3ac6 9F       		.byte	0x9f
ARM GAS  /tmp/ccJJl1OT.s 			page 395


 22455 3ac7 F4190000 		.4byte	.LVL538-.Ltext0
 22456 3acb 041A0000 		.4byte	.LVL539-.Ltext0
 22457 3acf 0200     		.2byte	0x2
 22458 3ad1 90       		.byte	0x90
 22459 3ad2 4B       		.uleb128 0x4b
 22460 3ad3 00000000 		.4byte	0
 22461 3ad7 00000000 		.4byte	0
 22462              	.LLST549:
 22463 3adb 121A0000 		.4byte	.LVL541-.Ltext0
 22464 3adf 261A0000 		.4byte	.LVL543-.Ltext0
 22465 3ae3 0200     		.2byte	0x2
 22466 3ae5 90       		.byte	0x90
 22467 3ae6 4F       		.uleb128 0x4f
 22468 3ae7 261A0000 		.4byte	.LVL543-.Ltext0
 22469 3aeb 661A0000 		.4byte	.LVL552-.Ltext0
 22470 3aef 0300     		.2byte	0x3
 22471 3af1 91       		.byte	0x91
 22472 3af2 BC7F     		.sleb128 -68
 22473 3af4 00000000 		.4byte	0
 22474 3af8 00000000 		.4byte	0
 22475              	.LLST550:
 22476 3afc 121A0000 		.4byte	.LVL541-.Ltext0
 22477 3b00 261A0000 		.4byte	.LVL543-.Ltext0
 22478 3b04 0C00     		.2byte	0xc
 22479 3b06 F5       		.byte	0xf5
 22480 3b07 4F       		.uleb128 0x4f
 22481 3b08 25       		.uleb128 0x25
 22482 3b09 F5       		.byte	0xf5
 22483 3b0a 4F       		.uleb128 0x4f
 22484 3b0b 25       		.uleb128 0x25
 22485 3b0c F7       		.byte	0xf7
 22486 3b0d 2C       		.uleb128 0x2c
 22487 3b0e F7       		.byte	0xf7
 22488 3b0f 25       		.uleb128 0x25
 22489 3b10 1C       		.byte	0x1c
 22490 3b11 9F       		.byte	0x9f
 22491 3b12 261A0000 		.4byte	.LVL543-.Ltext0
 22492 3b16 661A0000 		.4byte	.LVL552-.Ltext0
 22493 3b1a 1200     		.2byte	0x12
 22494 3b1c 91       		.byte	0x91
 22495 3b1d BC7F     		.sleb128 -68
 22496 3b1f F6       		.byte	0xf6
 22497 3b20 04       		.byte	0x4
 22498 3b21 25       		.uleb128 0x25
 22499 3b22 91       		.byte	0x91
 22500 3b23 BC7F     		.sleb128 -68
 22501 3b25 F6       		.byte	0xf6
 22502 3b26 04       		.byte	0x4
 22503 3b27 25       		.uleb128 0x25
 22504 3b28 F7       		.byte	0xf7
 22505 3b29 2C       		.uleb128 0x2c
 22506 3b2a F7       		.byte	0xf7
 22507 3b2b 25       		.uleb128 0x25
 22508 3b2c 1C       		.byte	0x1c
 22509 3b2d 9F       		.byte	0x9f
 22510 3b2e 00000000 		.4byte	0
 22511 3b32 00000000 		.4byte	0
ARM GAS  /tmp/ccJJl1OT.s 			page 396


 22512              	.LLST551:
 22513 3b36 221A0000 		.4byte	.LVL542-.Ltext0
 22514 3b3a 481A0000 		.4byte	.LVL550-.Ltext0
 22515 3b3e 0200     		.2byte	0x2
 22516 3b40 90       		.byte	0x90
 22517 3b41 44       		.uleb128 0x44
 22518 3b42 481A0000 		.4byte	.LVL550-.Ltext0
 22519 3b46 661A0000 		.4byte	.LVL552-.Ltext0
 22520 3b4a 1600     		.2byte	0x16
 22521 3b4c 91       		.byte	0x91
 22522 3b4d BC7F     		.sleb128 -68
 22523 3b4f F6       		.byte	0xf6
 22524 3b50 04       		.byte	0x4
 22525 3b51 25       		.uleb128 0x25
 22526 3b52 91       		.byte	0x91
 22527 3b53 BC7F     		.sleb128 -68
 22528 3b55 F6       		.byte	0xf6
 22529 3b56 04       		.byte	0x4
 22530 3b57 25       		.uleb128 0x25
 22531 3b58 F7       		.byte	0xf7
 22532 3b59 2C       		.uleb128 0x2c
 22533 3b5a F7       		.byte	0xf7
 22534 3b5b 25       		.uleb128 0x25
 22535 3b5c 1C       		.byte	0x1c
 22536 3b5d F5       		.byte	0xf5
 22537 3b5e 47       		.uleb128 0x47
 22538 3b5f 25       		.uleb128 0x25
 22539 3b60 1E       		.byte	0x1e
 22540 3b61 9F       		.byte	0x9f
 22541 3b62 00000000 		.4byte	0
 22542 3b66 00000000 		.4byte	0
 22543              	.LLST552:
 22544 3b6a 2A1A0000 		.4byte	.LVL544-.Ltext0
 22545 3b6e 661A0000 		.4byte	.LVL552-.Ltext0
 22546 3b72 0100     		.2byte	0x1
 22547 3b74 5B       		.byte	0x5b
 22548 3b75 00000000 		.4byte	0
 22549 3b79 00000000 		.4byte	0
 22550              	.LLST553:
 22551 3b7d 2E1A0000 		.4byte	.LVL545-.Ltext0
 22552 3b81 341A0000 		.4byte	.LVL546-.Ltext0
 22553 3b85 0100     		.2byte	0x1
 22554 3b87 57       		.byte	0x57
 22555 3b88 341A0000 		.4byte	.LVL546-.Ltext0
 22556 3b8c 3C1A0000 		.4byte	.LVL547-.Ltext0
 22557 3b90 0300     		.2byte	0x3
 22558 3b92 77       		.byte	0x77
 22559 3b93 7F       		.sleb128 -1
 22560 3b94 9F       		.byte	0x9f
 22561 3b95 3C1A0000 		.4byte	.LVL547-.Ltext0
 22562 3b99 661A0000 		.4byte	.LVL552-.Ltext0
 22563 3b9d 0600     		.2byte	0x6
 22564 3b9f 7B       		.byte	0x7b
 22565 3ba0 00       		.sleb128 0
 22566 3ba1 08       		.byte	0x8
 22567 3ba2 7F       		.byte	0x7f
 22568 3ba3 1A       		.byte	0x1a
ARM GAS  /tmp/ccJJl1OT.s 			page 397


 22569 3ba4 9F       		.byte	0x9f
 22570 3ba5 00000000 		.4byte	0
 22571 3ba9 00000000 		.4byte	0
 22572              	.LLST554:
 22573 3bad 2E1A0000 		.4byte	.LVL545-.Ltext0
 22574 3bb1 341A0000 		.4byte	.LVL546-.Ltext0
 22575 3bb5 0600     		.2byte	0x6
 22576 3bb7 77       		.byte	0x77
 22577 3bb8 01       		.sleb128 1
 22578 3bb9 08       		.byte	0x8
 22579 3bba 7F       		.byte	0x7f
 22580 3bbb 1A       		.byte	0x1a
 22581 3bbc 9F       		.byte	0x9f
 22582 3bbd 341A0000 		.4byte	.LVL546-.Ltext0
 22583 3bc1 3C1A0000 		.4byte	.LVL547-.Ltext0
 22584 3bc5 0600     		.2byte	0x6
 22585 3bc7 77       		.byte	0x77
 22586 3bc8 00       		.sleb128 0
 22587 3bc9 08       		.byte	0x8
 22588 3bca 7F       		.byte	0x7f
 22589 3bcb 1A       		.byte	0x1a
 22590 3bcc 9F       		.byte	0x9f
 22591 3bcd 3C1A0000 		.4byte	.LVL547-.Ltext0
 22592 3bd1 401A0000 		.4byte	.LVL548-.Ltext0
 22593 3bd5 0100     		.2byte	0x1
 22594 3bd7 57       		.byte	0x57
 22595 3bd8 401A0000 		.4byte	.LVL548-.Ltext0
 22596 3bdc 661A0000 		.4byte	.LVL552-.Ltext0
 22597 3be0 0600     		.2byte	0x6
 22598 3be2 7B       		.byte	0x7b
 22599 3be3 01       		.sleb128 1
 22600 3be4 08       		.byte	0x8
 22601 3be5 7F       		.byte	0x7f
 22602 3be6 1A       		.byte	0x1a
 22603 3be7 9F       		.byte	0x9f
 22604 3be8 00000000 		.4byte	0
 22605 3bec 00000000 		.4byte	0
 22606              	.LLST555:
 22607 3bf0 441A0000 		.4byte	.LVL549-.Ltext0
 22608 3bf4 581A0000 		.4byte	.LVL551-.Ltext0
 22609 3bf8 0200     		.2byte	0x2
 22610 3bfa 90       		.byte	0x90
 22611 3bfb 49       		.uleb128 0x49
 22612 3bfc 00000000 		.4byte	0
 22613 3c00 00000000 		.4byte	0
 22614              	.LLST556:
 22615 3c04 661A0000 		.4byte	.LVL552-.Ltext0
 22616 3c08 7A1A0000 		.4byte	.LVL554-.Ltext0
 22617 3c0c 0200     		.2byte	0x2
 22618 3c0e 90       		.byte	0x90
 22619 3c0f 4F       		.uleb128 0x4f
 22620 3c10 7A1A0000 		.4byte	.LVL554-.Ltext0
 22621 3c14 BA1A0000 		.4byte	.LVL563-.Ltext0
 22622 3c18 0200     		.2byte	0x2
 22623 3c1a 91       		.byte	0x91
 22624 3c1b 40       		.sleb128 -64
 22625 3c1c 00000000 		.4byte	0
ARM GAS  /tmp/ccJJl1OT.s 			page 398


 22626 3c20 00000000 		.4byte	0
 22627              	.LLST557:
 22628 3c24 661A0000 		.4byte	.LVL552-.Ltext0
 22629 3c28 7A1A0000 		.4byte	.LVL554-.Ltext0
 22630 3c2c 0C00     		.2byte	0xc
 22631 3c2e F5       		.byte	0xf5
 22632 3c2f 4F       		.uleb128 0x4f
 22633 3c30 25       		.uleb128 0x25
 22634 3c31 F5       		.byte	0xf5
 22635 3c32 4F       		.uleb128 0x4f
 22636 3c33 25       		.uleb128 0x25
 22637 3c34 F7       		.byte	0xf7
 22638 3c35 2C       		.uleb128 0x2c
 22639 3c36 F7       		.byte	0xf7
 22640 3c37 25       		.uleb128 0x25
 22641 3c38 1C       		.byte	0x1c
 22642 3c39 9F       		.byte	0x9f
 22643 3c3a 7A1A0000 		.4byte	.LVL554-.Ltext0
 22644 3c3e BA1A0000 		.4byte	.LVL563-.Ltext0
 22645 3c42 1000     		.2byte	0x10
 22646 3c44 91       		.byte	0x91
 22647 3c45 40       		.sleb128 -64
 22648 3c46 F6       		.byte	0xf6
 22649 3c47 04       		.byte	0x4
 22650 3c48 25       		.uleb128 0x25
 22651 3c49 91       		.byte	0x91
 22652 3c4a 40       		.sleb128 -64
 22653 3c4b F6       		.byte	0xf6
 22654 3c4c 04       		.byte	0x4
 22655 3c4d 25       		.uleb128 0x25
 22656 3c4e F7       		.byte	0xf7
 22657 3c4f 2C       		.uleb128 0x2c
 22658 3c50 F7       		.byte	0xf7
 22659 3c51 25       		.uleb128 0x25
 22660 3c52 1C       		.byte	0x1c
 22661 3c53 9F       		.byte	0x9f
 22662 3c54 00000000 		.4byte	0
 22663 3c58 00000000 		.4byte	0
 22664              	.LLST558:
 22665 3c5c 761A0000 		.4byte	.LVL553-.Ltext0
 22666 3c60 9C1A0000 		.4byte	.LVL561-.Ltext0
 22667 3c64 0200     		.2byte	0x2
 22668 3c66 90       		.byte	0x90
 22669 3c67 44       		.uleb128 0x44
 22670 3c68 9C1A0000 		.4byte	.LVL561-.Ltext0
 22671 3c6c BA1A0000 		.4byte	.LVL563-.Ltext0
 22672 3c70 1400     		.2byte	0x14
 22673 3c72 91       		.byte	0x91
 22674 3c73 40       		.sleb128 -64
 22675 3c74 F6       		.byte	0xf6
 22676 3c75 04       		.byte	0x4
 22677 3c76 25       		.uleb128 0x25
 22678 3c77 91       		.byte	0x91
 22679 3c78 40       		.sleb128 -64
 22680 3c79 F6       		.byte	0xf6
 22681 3c7a 04       		.byte	0x4
 22682 3c7b 25       		.uleb128 0x25
ARM GAS  /tmp/ccJJl1OT.s 			page 399


 22683 3c7c F7       		.byte	0xf7
 22684 3c7d 2C       		.uleb128 0x2c
 22685 3c7e F7       		.byte	0xf7
 22686 3c7f 25       		.uleb128 0x25
 22687 3c80 1C       		.byte	0x1c
 22688 3c81 F5       		.byte	0xf5
 22689 3c82 47       		.uleb128 0x47
 22690 3c83 25       		.uleb128 0x25
 22691 3c84 1E       		.byte	0x1e
 22692 3c85 9F       		.byte	0x9f
 22693 3c86 00000000 		.4byte	0
 22694 3c8a 00000000 		.4byte	0
 22695              	.LLST559:
 22696 3c8e 7E1A0000 		.4byte	.LVL555-.Ltext0
 22697 3c92 BA1A0000 		.4byte	.LVL563-.Ltext0
 22698 3c96 0100     		.2byte	0x1
 22699 3c98 5B       		.byte	0x5b
 22700 3c99 00000000 		.4byte	0
 22701 3c9d 00000000 		.4byte	0
 22702              	.LLST560:
 22703 3ca1 821A0000 		.4byte	.LVL556-.Ltext0
 22704 3ca5 881A0000 		.4byte	.LVL557-.Ltext0
 22705 3ca9 0100     		.2byte	0x1
 22706 3cab 57       		.byte	0x57
 22707 3cac 881A0000 		.4byte	.LVL557-.Ltext0
 22708 3cb0 901A0000 		.4byte	.LVL558-.Ltext0
 22709 3cb4 0300     		.2byte	0x3
 22710 3cb6 77       		.byte	0x77
 22711 3cb7 7F       		.sleb128 -1
 22712 3cb8 9F       		.byte	0x9f
 22713 3cb9 901A0000 		.4byte	.LVL558-.Ltext0
 22714 3cbd BA1A0000 		.4byte	.LVL563-.Ltext0
 22715 3cc1 0600     		.2byte	0x6
 22716 3cc3 7B       		.byte	0x7b
 22717 3cc4 00       		.sleb128 0
 22718 3cc5 08       		.byte	0x8
 22719 3cc6 7F       		.byte	0x7f
 22720 3cc7 1A       		.byte	0x1a
 22721 3cc8 9F       		.byte	0x9f
 22722 3cc9 00000000 		.4byte	0
 22723 3ccd 00000000 		.4byte	0
 22724              	.LLST561:
 22725 3cd1 821A0000 		.4byte	.LVL556-.Ltext0
 22726 3cd5 881A0000 		.4byte	.LVL557-.Ltext0
 22727 3cd9 0600     		.2byte	0x6
 22728 3cdb 77       		.byte	0x77
 22729 3cdc 01       		.sleb128 1
 22730 3cdd 08       		.byte	0x8
 22731 3cde 7F       		.byte	0x7f
 22732 3cdf 1A       		.byte	0x1a
 22733 3ce0 9F       		.byte	0x9f
 22734 3ce1 881A0000 		.4byte	.LVL557-.Ltext0
 22735 3ce5 901A0000 		.4byte	.LVL558-.Ltext0
 22736 3ce9 0600     		.2byte	0x6
 22737 3ceb 77       		.byte	0x77
 22738 3cec 00       		.sleb128 0
 22739 3ced 08       		.byte	0x8
ARM GAS  /tmp/ccJJl1OT.s 			page 400


 22740 3cee 7F       		.byte	0x7f
 22741 3cef 1A       		.byte	0x1a
 22742 3cf0 9F       		.byte	0x9f
 22743 3cf1 901A0000 		.4byte	.LVL558-.Ltext0
 22744 3cf5 941A0000 		.4byte	.LVL559-.Ltext0
 22745 3cf9 0100     		.2byte	0x1
 22746 3cfb 57       		.byte	0x57
 22747 3cfc 941A0000 		.4byte	.LVL559-.Ltext0
 22748 3d00 BA1A0000 		.4byte	.LVL563-.Ltext0
 22749 3d04 0600     		.2byte	0x6
 22750 3d06 7B       		.byte	0x7b
 22751 3d07 01       		.sleb128 1
 22752 3d08 08       		.byte	0x8
 22753 3d09 7F       		.byte	0x7f
 22754 3d0a 1A       		.byte	0x1a
 22755 3d0b 9F       		.byte	0x9f
 22756 3d0c 00000000 		.4byte	0
 22757 3d10 00000000 		.4byte	0
 22758              	.LLST562:
 22759 3d14 981A0000 		.4byte	.LVL560-.Ltext0
 22760 3d18 AC1A0000 		.4byte	.LVL562-.Ltext0
 22761 3d1c 0200     		.2byte	0x2
 22762 3d1e 90       		.byte	0x90
 22763 3d1f 4A       		.uleb128 0x4a
 22764 3d20 00000000 		.4byte	0
 22765 3d24 00000000 		.4byte	0
 22766              	.LLST563:
 22767 3d28 BA1A0000 		.4byte	.LVL563-.Ltext0
 22768 3d2c CE1A0000 		.4byte	.LVL565-.Ltext0
 22769 3d30 0200     		.2byte	0x2
 22770 3d32 90       		.byte	0x90
 22771 3d33 4F       		.uleb128 0x4f
 22772 3d34 CE1A0000 		.4byte	.LVL565-.Ltext0
 22773 3d38 0E1B0000 		.4byte	.LVL574-.Ltext0
 22774 3d3c 0200     		.2byte	0x2
 22775 3d3e 91       		.byte	0x91
 22776 3d3f 44       		.sleb128 -60
 22777 3d40 00000000 		.4byte	0
 22778 3d44 00000000 		.4byte	0
 22779              	.LLST564:
 22780 3d48 BA1A0000 		.4byte	.LVL563-.Ltext0
 22781 3d4c CE1A0000 		.4byte	.LVL565-.Ltext0
 22782 3d50 0C00     		.2byte	0xc
 22783 3d52 F5       		.byte	0xf5
 22784 3d53 4F       		.uleb128 0x4f
 22785 3d54 25       		.uleb128 0x25
 22786 3d55 F5       		.byte	0xf5
 22787 3d56 4F       		.uleb128 0x4f
 22788 3d57 25       		.uleb128 0x25
 22789 3d58 F7       		.byte	0xf7
 22790 3d59 2C       		.uleb128 0x2c
 22791 3d5a F7       		.byte	0xf7
 22792 3d5b 25       		.uleb128 0x25
 22793 3d5c 1C       		.byte	0x1c
 22794 3d5d 9F       		.byte	0x9f
 22795 3d5e CE1A0000 		.4byte	.LVL565-.Ltext0
 22796 3d62 0E1B0000 		.4byte	.LVL574-.Ltext0
ARM GAS  /tmp/ccJJl1OT.s 			page 401


 22797 3d66 1000     		.2byte	0x10
 22798 3d68 91       		.byte	0x91
 22799 3d69 44       		.sleb128 -60
 22800 3d6a F6       		.byte	0xf6
 22801 3d6b 04       		.byte	0x4
 22802 3d6c 25       		.uleb128 0x25
 22803 3d6d 91       		.byte	0x91
 22804 3d6e 44       		.sleb128 -60
 22805 3d6f F6       		.byte	0xf6
 22806 3d70 04       		.byte	0x4
 22807 3d71 25       		.uleb128 0x25
 22808 3d72 F7       		.byte	0xf7
 22809 3d73 2C       		.uleb128 0x2c
 22810 3d74 F7       		.byte	0xf7
 22811 3d75 25       		.uleb128 0x25
 22812 3d76 1C       		.byte	0x1c
 22813 3d77 9F       		.byte	0x9f
 22814 3d78 00000000 		.4byte	0
 22815 3d7c 00000000 		.4byte	0
 22816              	.LLST565:
 22817 3d80 CA1A0000 		.4byte	.LVL564-.Ltext0
 22818 3d84 F41A0000 		.4byte	.LVL572-.Ltext0
 22819 3d88 0200     		.2byte	0x2
 22820 3d8a 90       		.byte	0x90
 22821 3d8b 44       		.uleb128 0x44
 22822 3d8c F41A0000 		.4byte	.LVL572-.Ltext0
 22823 3d90 0E1B0000 		.4byte	.LVL574-.Ltext0
 22824 3d94 1400     		.2byte	0x14
 22825 3d96 91       		.byte	0x91
 22826 3d97 44       		.sleb128 -60
 22827 3d98 F6       		.byte	0xf6
 22828 3d99 04       		.byte	0x4
 22829 3d9a 25       		.uleb128 0x25
 22830 3d9b 91       		.byte	0x91
 22831 3d9c 44       		.sleb128 -60
 22832 3d9d F6       		.byte	0xf6
 22833 3d9e 04       		.byte	0x4
 22834 3d9f 25       		.uleb128 0x25
 22835 3da0 F7       		.byte	0xf7
 22836 3da1 2C       		.uleb128 0x2c
 22837 3da2 F7       		.byte	0xf7
 22838 3da3 25       		.uleb128 0x25
 22839 3da4 1C       		.byte	0x1c
 22840 3da5 F5       		.byte	0xf5
 22841 3da6 47       		.uleb128 0x47
 22842 3da7 25       		.uleb128 0x25
 22843 3da8 1E       		.byte	0x1e
 22844 3da9 9F       		.byte	0x9f
 22845 3daa 00000000 		.4byte	0
 22846 3dae 00000000 		.4byte	0
 22847              	.LLST566:
 22848 3db2 D21A0000 		.4byte	.LVL566-.Ltext0
 22849 3db6 0E1B0000 		.4byte	.LVL574-.Ltext0
 22850 3dba 0100     		.2byte	0x1
 22851 3dbc 5B       		.byte	0x5b
 22852 3dbd 00000000 		.4byte	0
 22853 3dc1 00000000 		.4byte	0
ARM GAS  /tmp/ccJJl1OT.s 			page 402


 22854              	.LLST567:
 22855 3dc5 D61A0000 		.4byte	.LVL567-.Ltext0
 22856 3dc9 E01A0000 		.4byte	.LVL568-.Ltext0
 22857 3dcd 0100     		.2byte	0x1
 22858 3dcf 57       		.byte	0x57
 22859 3dd0 E01A0000 		.4byte	.LVL568-.Ltext0
 22860 3dd4 E81A0000 		.4byte	.LVL569-.Ltext0
 22861 3dd8 0300     		.2byte	0x3
 22862 3dda 77       		.byte	0x77
 22863 3ddb 7F       		.sleb128 -1
 22864 3ddc 9F       		.byte	0x9f
 22865 3ddd E81A0000 		.4byte	.LVL569-.Ltext0
 22866 3de1 0E1B0000 		.4byte	.LVL574-.Ltext0
 22867 3de5 0600     		.2byte	0x6
 22868 3de7 7B       		.byte	0x7b
 22869 3de8 00       		.sleb128 0
 22870 3de9 08       		.byte	0x8
 22871 3dea 7F       		.byte	0x7f
 22872 3deb 1A       		.byte	0x1a
 22873 3dec 9F       		.byte	0x9f
 22874 3ded 00000000 		.4byte	0
 22875 3df1 00000000 		.4byte	0
 22876              	.LLST568:
 22877 3df5 D61A0000 		.4byte	.LVL567-.Ltext0
 22878 3df9 E01A0000 		.4byte	.LVL568-.Ltext0
 22879 3dfd 0600     		.2byte	0x6
 22880 3dff 77       		.byte	0x77
 22881 3e00 01       		.sleb128 1
 22882 3e01 08       		.byte	0x8
 22883 3e02 7F       		.byte	0x7f
 22884 3e03 1A       		.byte	0x1a
 22885 3e04 9F       		.byte	0x9f
 22886 3e05 E01A0000 		.4byte	.LVL568-.Ltext0
 22887 3e09 E81A0000 		.4byte	.LVL569-.Ltext0
 22888 3e0d 0600     		.2byte	0x6
 22889 3e0f 77       		.byte	0x77
 22890 3e10 00       		.sleb128 0
 22891 3e11 08       		.byte	0x8
 22892 3e12 7F       		.byte	0x7f
 22893 3e13 1A       		.byte	0x1a
 22894 3e14 9F       		.byte	0x9f
 22895 3e15 E81A0000 		.4byte	.LVL569-.Ltext0
 22896 3e19 EC1A0000 		.4byte	.LVL570-.Ltext0
 22897 3e1d 0100     		.2byte	0x1
 22898 3e1f 57       		.byte	0x57
 22899 3e20 EC1A0000 		.4byte	.LVL570-.Ltext0
 22900 3e24 0E1B0000 		.4byte	.LVL574-.Ltext0
 22901 3e28 0600     		.2byte	0x6
 22902 3e2a 7B       		.byte	0x7b
 22903 3e2b 01       		.sleb128 1
 22904 3e2c 08       		.byte	0x8
 22905 3e2d 7F       		.byte	0x7f
 22906 3e2e 1A       		.byte	0x1a
 22907 3e2f 9F       		.byte	0x9f
 22908 3e30 00000000 		.4byte	0
 22909 3e34 00000000 		.4byte	0
 22910              	.LLST569:
ARM GAS  /tmp/ccJJl1OT.s 			page 403


 22911 3e38 F01A0000 		.4byte	.LVL571-.Ltext0
 22912 3e3c 041B0000 		.4byte	.LVL573-.Ltext0
 22913 3e40 0200     		.2byte	0x2
 22914 3e42 90       		.byte	0x90
 22915 3e43 4F       		.uleb128 0x4f
 22916 3e44 00000000 		.4byte	0
 22917 3e48 00000000 		.4byte	0
 22918              	.LLST570:
 22919 3e4c F01A0000 		.4byte	.LVL571-.Ltext0
 22920 3e50 F41A0000 		.4byte	.LVL572-.Ltext0
 22921 3e54 0B00     		.2byte	0xb
 22922 3e56 F5       		.byte	0xf5
 22923 3e57 44       		.uleb128 0x44
 22924 3e58 25       		.uleb128 0x25
 22925 3e59 7B       		.byte	0x7b
 22926 3e5a 00       		.sleb128 0
 22927 3e5b F7       		.byte	0xf7
 22928 3e5c 2C       		.uleb128 0x2c
 22929 3e5d F7       		.byte	0xf7
 22930 3e5e 25       		.uleb128 0x25
 22931 3e5f 1C       		.byte	0x1c
 22932 3e60 9F       		.byte	0x9f
 22933 3e61 F41A0000 		.4byte	.LVL572-.Ltext0
 22934 3e65 041B0000 		.4byte	.LVL573-.Ltext0
 22935 3e69 0200     		.2byte	0x2
 22936 3e6b 90       		.byte	0x90
 22937 3e6c 44       		.uleb128 0x44
 22938 3e6d 00000000 		.4byte	0
 22939 3e71 00000000 		.4byte	0
 22940              	.LLST571:
 22941 3e75 161B0000 		.4byte	.LVL575-.Ltext0
 22942 3e79 2A1B0000 		.4byte	.LVL577-.Ltext0
 22943 3e7d 0200     		.2byte	0x2
 22944 3e7f 90       		.byte	0x90
 22945 3e80 4F       		.uleb128 0x4f
 22946 3e81 2A1B0000 		.4byte	.LVL577-.Ltext0
 22947 3e85 621B0000 		.4byte	.LVL586-.Ltext0
 22948 3e89 0200     		.2byte	0x2
 22949 3e8b 91       		.byte	0x91
 22950 3e8c 48       		.sleb128 -56
 22951 3e8d 00000000 		.4byte	0
 22952 3e91 00000000 		.4byte	0
 22953              	.LLST572:
 22954 3e95 161B0000 		.4byte	.LVL575-.Ltext0
 22955 3e99 2A1B0000 		.4byte	.LVL577-.Ltext0
 22956 3e9d 0C00     		.2byte	0xc
 22957 3e9f F5       		.byte	0xf5
 22958 3ea0 4F       		.uleb128 0x4f
 22959 3ea1 25       		.uleb128 0x25
 22960 3ea2 F5       		.byte	0xf5
 22961 3ea3 4F       		.uleb128 0x4f
 22962 3ea4 25       		.uleb128 0x25
 22963 3ea5 F7       		.byte	0xf7
 22964 3ea6 2C       		.uleb128 0x2c
 22965 3ea7 F7       		.byte	0xf7
 22966 3ea8 25       		.uleb128 0x25
 22967 3ea9 1C       		.byte	0x1c
ARM GAS  /tmp/ccJJl1OT.s 			page 404


 22968 3eaa 9F       		.byte	0x9f
 22969 3eab 2A1B0000 		.4byte	.LVL577-.Ltext0
 22970 3eaf 621B0000 		.4byte	.LVL586-.Ltext0
 22971 3eb3 1000     		.2byte	0x10
 22972 3eb5 91       		.byte	0x91
 22973 3eb6 48       		.sleb128 -56
 22974 3eb7 F6       		.byte	0xf6
 22975 3eb8 04       		.byte	0x4
 22976 3eb9 25       		.uleb128 0x25
 22977 3eba 91       		.byte	0x91
 22978 3ebb 48       		.sleb128 -56
 22979 3ebc F6       		.byte	0xf6
 22980 3ebd 04       		.byte	0x4
 22981 3ebe 25       		.uleb128 0x25
 22982 3ebf F7       		.byte	0xf7
 22983 3ec0 2C       		.uleb128 0x2c
 22984 3ec1 F7       		.byte	0xf7
 22985 3ec2 25       		.uleb128 0x25
 22986 3ec3 1C       		.byte	0x1c
 22987 3ec4 9F       		.byte	0x9f
 22988 3ec5 00000000 		.4byte	0
 22989 3ec9 00000000 		.4byte	0
 22990              	.LLST573:
 22991 3ecd 261B0000 		.4byte	.LVL576-.Ltext0
 22992 3ed1 4C1B0000 		.4byte	.LVL584-.Ltext0
 22993 3ed5 0200     		.2byte	0x2
 22994 3ed7 90       		.byte	0x90
 22995 3ed8 49       		.uleb128 0x49
 22996 3ed9 4C1B0000 		.4byte	.LVL584-.Ltext0
 22997 3edd 621B0000 		.4byte	.LVL586-.Ltext0
 22998 3ee1 1400     		.2byte	0x14
 22999 3ee3 91       		.byte	0x91
 23000 3ee4 48       		.sleb128 -56
 23001 3ee5 F6       		.byte	0xf6
 23002 3ee6 04       		.byte	0x4
 23003 3ee7 25       		.uleb128 0x25
 23004 3ee8 91       		.byte	0x91
 23005 3ee9 48       		.sleb128 -56
 23006 3eea F6       		.byte	0xf6
 23007 3eeb 04       		.byte	0x4
 23008 3eec 25       		.uleb128 0x25
 23009 3eed F7       		.byte	0xf7
 23010 3eee 2C       		.uleb128 0x2c
 23011 3eef F7       		.byte	0xf7
 23012 3ef0 25       		.uleb128 0x25
 23013 3ef1 1C       		.byte	0x1c
 23014 3ef2 F5       		.byte	0xf5
 23015 3ef3 47       		.uleb128 0x47
 23016 3ef4 25       		.uleb128 0x25
 23017 3ef5 1E       		.byte	0x1e
 23018 3ef6 9F       		.byte	0x9f
 23019 3ef7 00000000 		.4byte	0
 23020 3efb 00000000 		.4byte	0
 23021              	.LLST574:
 23022 3eff 2E1B0000 		.4byte	.LVL578-.Ltext0
 23023 3f03 621B0000 		.4byte	.LVL586-.Ltext0
 23024 3f07 0100     		.2byte	0x1
ARM GAS  /tmp/ccJJl1OT.s 			page 405


 23025 3f09 5B       		.byte	0x5b
 23026 3f0a 00000000 		.4byte	0
 23027 3f0e 00000000 		.4byte	0
 23028              	.LLST575:
 23029 3f12 321B0000 		.4byte	.LVL579-.Ltext0
 23030 3f16 381B0000 		.4byte	.LVL580-.Ltext0
 23031 3f1a 0100     		.2byte	0x1
 23032 3f1c 57       		.byte	0x57
 23033 3f1d 381B0000 		.4byte	.LVL580-.Ltext0
 23034 3f21 401B0000 		.4byte	.LVL581-.Ltext0
 23035 3f25 0300     		.2byte	0x3
 23036 3f27 77       		.byte	0x77
 23037 3f28 7F       		.sleb128 -1
 23038 3f29 9F       		.byte	0x9f
 23039 3f2a 401B0000 		.4byte	.LVL581-.Ltext0
 23040 3f2e 621B0000 		.4byte	.LVL586-.Ltext0
 23041 3f32 0600     		.2byte	0x6
 23042 3f34 7B       		.byte	0x7b
 23043 3f35 00       		.sleb128 0
 23044 3f36 08       		.byte	0x8
 23045 3f37 7F       		.byte	0x7f
 23046 3f38 1A       		.byte	0x1a
 23047 3f39 9F       		.byte	0x9f
 23048 3f3a 00000000 		.4byte	0
 23049 3f3e 00000000 		.4byte	0
 23050              	.LLST576:
 23051 3f42 321B0000 		.4byte	.LVL579-.Ltext0
 23052 3f46 381B0000 		.4byte	.LVL580-.Ltext0
 23053 3f4a 0600     		.2byte	0x6
 23054 3f4c 77       		.byte	0x77
 23055 3f4d 01       		.sleb128 1
 23056 3f4e 08       		.byte	0x8
 23057 3f4f 7F       		.byte	0x7f
 23058 3f50 1A       		.byte	0x1a
 23059 3f51 9F       		.byte	0x9f
 23060 3f52 381B0000 		.4byte	.LVL580-.Ltext0
 23061 3f56 401B0000 		.4byte	.LVL581-.Ltext0
 23062 3f5a 0600     		.2byte	0x6
 23063 3f5c 77       		.byte	0x77
 23064 3f5d 00       		.sleb128 0
 23065 3f5e 08       		.byte	0x8
 23066 3f5f 7F       		.byte	0x7f
 23067 3f60 1A       		.byte	0x1a
 23068 3f61 9F       		.byte	0x9f
 23069 3f62 401B0000 		.4byte	.LVL581-.Ltext0
 23070 3f66 441B0000 		.4byte	.LVL582-.Ltext0
 23071 3f6a 0100     		.2byte	0x1
 23072 3f6c 57       		.byte	0x57
 23073 3f6d 441B0000 		.4byte	.LVL582-.Ltext0
 23074 3f71 621B0000 		.4byte	.LVL586-.Ltext0
 23075 3f75 0600     		.2byte	0x6
 23076 3f77 7B       		.byte	0x7b
 23077 3f78 01       		.sleb128 1
 23078 3f79 08       		.byte	0x8
 23079 3f7a 7F       		.byte	0x7f
 23080 3f7b 1A       		.byte	0x1a
 23081 3f7c 9F       		.byte	0x9f
ARM GAS  /tmp/ccJJl1OT.s 			page 406


 23082 3f7d 00000000 		.4byte	0
 23083 3f81 00000000 		.4byte	0
 23084              	.LLST577:
 23085 3f85 481B0000 		.4byte	.LVL583-.Ltext0
 23086 3f89 5C1B0000 		.4byte	.LVL585-.Ltext0
 23087 3f8d 0200     		.2byte	0x2
 23088 3f8f 90       		.byte	0x90
 23089 3f90 4B       		.uleb128 0x4b
 23090 3f91 00000000 		.4byte	0
 23091 3f95 00000000 		.4byte	0
 23092              	.LLST578:
 23093 3f99 621B0000 		.4byte	.LVL586-.Ltext0
 23094 3f9d 7A1B0000 		.4byte	.LVL588-.Ltext0
 23095 3fa1 0200     		.2byte	0x2
 23096 3fa3 90       		.byte	0x90
 23097 3fa4 4D       		.uleb128 0x4d
 23098 3fa5 7A1B0000 		.4byte	.LVL588-.Ltext0
 23099 3fa9 B21B0000 		.4byte	.LVL597-.Ltext0
 23100 3fad 0200     		.2byte	0x2
 23101 3faf 91       		.byte	0x91
 23102 3fb0 4C       		.sleb128 -52
 23103 3fb1 00000000 		.4byte	0
 23104 3fb5 00000000 		.4byte	0
 23105              	.LLST579:
 23106 3fb9 621B0000 		.4byte	.LVL586-.Ltext0
 23107 3fbd 7A1B0000 		.4byte	.LVL588-.Ltext0
 23108 3fc1 0C00     		.2byte	0xc
 23109 3fc3 F5       		.byte	0xf5
 23110 3fc4 4D       		.uleb128 0x4d
 23111 3fc5 25       		.uleb128 0x25
 23112 3fc6 F5       		.byte	0xf5
 23113 3fc7 4D       		.uleb128 0x4d
 23114 3fc8 25       		.uleb128 0x25
 23115 3fc9 F7       		.byte	0xf7
 23116 3fca 2C       		.uleb128 0x2c
 23117 3fcb F7       		.byte	0xf7
 23118 3fcc 25       		.uleb128 0x25
 23119 3fcd 1C       		.byte	0x1c
 23120 3fce 9F       		.byte	0x9f
 23121 3fcf 7A1B0000 		.4byte	.LVL588-.Ltext0
 23122 3fd3 B21B0000 		.4byte	.LVL597-.Ltext0
 23123 3fd7 1000     		.2byte	0x10
 23124 3fd9 91       		.byte	0x91
 23125 3fda 4C       		.sleb128 -52
 23126 3fdb F6       		.byte	0xf6
 23127 3fdc 04       		.byte	0x4
 23128 3fdd 25       		.uleb128 0x25
 23129 3fde 91       		.byte	0x91
 23130 3fdf 4C       		.sleb128 -52
 23131 3fe0 F6       		.byte	0xf6
 23132 3fe1 04       		.byte	0x4
 23133 3fe2 25       		.uleb128 0x25
 23134 3fe3 F7       		.byte	0xf7
 23135 3fe4 2C       		.uleb128 0x2c
 23136 3fe5 F7       		.byte	0xf7
 23137 3fe6 25       		.uleb128 0x25
 23138 3fe7 1C       		.byte	0x1c
ARM GAS  /tmp/ccJJl1OT.s 			page 407


 23139 3fe8 9F       		.byte	0x9f
 23140 3fe9 00000000 		.4byte	0
 23141 3fed 00000000 		.4byte	0
 23142              	.LLST580:
 23143 3ff1 761B0000 		.4byte	.LVL587-.Ltext0
 23144 3ff5 9C1B0000 		.4byte	.LVL595-.Ltext0
 23145 3ff9 0200     		.2byte	0x2
 23146 3ffb 90       		.byte	0x90
 23147 3ffc 4A       		.uleb128 0x4a
 23148 3ffd 9C1B0000 		.4byte	.LVL595-.Ltext0
 23149 4001 B21B0000 		.4byte	.LVL597-.Ltext0
 23150 4005 1400     		.2byte	0x14
 23151 4007 91       		.byte	0x91
 23152 4008 4C       		.sleb128 -52
 23153 4009 F6       		.byte	0xf6
 23154 400a 04       		.byte	0x4
 23155 400b 25       		.uleb128 0x25
 23156 400c 91       		.byte	0x91
 23157 400d 4C       		.sleb128 -52
 23158 400e F6       		.byte	0xf6
 23159 400f 04       		.byte	0x4
 23160 4010 25       		.uleb128 0x25
 23161 4011 F7       		.byte	0xf7
 23162 4012 2C       		.uleb128 0x2c
 23163 4013 F7       		.byte	0xf7
 23164 4014 25       		.uleb128 0x25
 23165 4015 1C       		.byte	0x1c
 23166 4016 F5       		.byte	0xf5
 23167 4017 47       		.uleb128 0x47
 23168 4018 25       		.uleb128 0x25
 23169 4019 1E       		.byte	0x1e
 23170 401a 9F       		.byte	0x9f
 23171 401b 00000000 		.4byte	0
 23172 401f 00000000 		.4byte	0
 23173              	.LLST581:
 23174 4023 7E1B0000 		.4byte	.LVL589-.Ltext0
 23175 4027 B21B0000 		.4byte	.LVL597-.Ltext0
 23176 402b 0100     		.2byte	0x1
 23177 402d 5B       		.byte	0x5b
 23178 402e 00000000 		.4byte	0
 23179 4032 00000000 		.4byte	0
 23180              	.LLST582:
 23181 4036 821B0000 		.4byte	.LVL590-.Ltext0
 23182 403a 881B0000 		.4byte	.LVL591-.Ltext0
 23183 403e 0100     		.2byte	0x1
 23184 4040 57       		.byte	0x57
 23185 4041 881B0000 		.4byte	.LVL591-.Ltext0
 23186 4045 901B0000 		.4byte	.LVL592-.Ltext0
 23187 4049 0300     		.2byte	0x3
 23188 404b 77       		.byte	0x77
 23189 404c 7F       		.sleb128 -1
 23190 404d 9F       		.byte	0x9f
 23191 404e 901B0000 		.4byte	.LVL592-.Ltext0
 23192 4052 B21B0000 		.4byte	.LVL597-.Ltext0
 23193 4056 0600     		.2byte	0x6
 23194 4058 7B       		.byte	0x7b
 23195 4059 00       		.sleb128 0
ARM GAS  /tmp/ccJJl1OT.s 			page 408


 23196 405a 08       		.byte	0x8
 23197 405b 7F       		.byte	0x7f
 23198 405c 1A       		.byte	0x1a
 23199 405d 9F       		.byte	0x9f
 23200 405e 00000000 		.4byte	0
 23201 4062 00000000 		.4byte	0
 23202              	.LLST583:
 23203 4066 821B0000 		.4byte	.LVL590-.Ltext0
 23204 406a 881B0000 		.4byte	.LVL591-.Ltext0
 23205 406e 0600     		.2byte	0x6
 23206 4070 77       		.byte	0x77
 23207 4071 01       		.sleb128 1
 23208 4072 08       		.byte	0x8
 23209 4073 7F       		.byte	0x7f
 23210 4074 1A       		.byte	0x1a
 23211 4075 9F       		.byte	0x9f
 23212 4076 881B0000 		.4byte	.LVL591-.Ltext0
 23213 407a 901B0000 		.4byte	.LVL592-.Ltext0
 23214 407e 0600     		.2byte	0x6
 23215 4080 77       		.byte	0x77
 23216 4081 00       		.sleb128 0
 23217 4082 08       		.byte	0x8
 23218 4083 7F       		.byte	0x7f
 23219 4084 1A       		.byte	0x1a
 23220 4085 9F       		.byte	0x9f
 23221 4086 901B0000 		.4byte	.LVL592-.Ltext0
 23222 408a 941B0000 		.4byte	.LVL593-.Ltext0
 23223 408e 0100     		.2byte	0x1
 23224 4090 57       		.byte	0x57
 23225 4091 941B0000 		.4byte	.LVL593-.Ltext0
 23226 4095 B21B0000 		.4byte	.LVL597-.Ltext0
 23227 4099 0600     		.2byte	0x6
 23228 409b 7B       		.byte	0x7b
 23229 409c 01       		.sleb128 1
 23230 409d 08       		.byte	0x8
 23231 409e 7F       		.byte	0x7f
 23232 409f 1A       		.byte	0x1a
 23233 40a0 9F       		.byte	0x9f
 23234 40a1 00000000 		.4byte	0
 23235 40a5 00000000 		.4byte	0
 23236              	.LLST584:
 23237 40a9 981B0000 		.4byte	.LVL594-.Ltext0
 23238 40ad AC1B0000 		.4byte	.LVL596-.Ltext0
 23239 40b1 0200     		.2byte	0x2
 23240 40b3 90       		.byte	0x90
 23241 40b4 4C       		.uleb128 0x4c
 23242 40b5 00000000 		.4byte	0
 23243 40b9 00000000 		.4byte	0
 23244              	.LLST585:
 23245 40bd BA1B0000 		.4byte	.LVL598-.Ltext0
 23246 40c1 CE1B0000 		.4byte	.LVL600-.Ltext0
 23247 40c5 0200     		.2byte	0x2
 23248 40c7 90       		.byte	0x90
 23249 40c8 4F       		.uleb128 0x4f
 23250 40c9 CE1B0000 		.4byte	.LVL600-.Ltext0
 23251 40cd 0A1C0000 		.4byte	.LVL609-.Ltext0
 23252 40d1 0200     		.2byte	0x2
ARM GAS  /tmp/ccJJl1OT.s 			page 409


 23253 40d3 91       		.byte	0x91
 23254 40d4 50       		.sleb128 -48
 23255 40d5 00000000 		.4byte	0
 23256 40d9 00000000 		.4byte	0
 23257              	.LLST586:
 23258 40dd BA1B0000 		.4byte	.LVL598-.Ltext0
 23259 40e1 CE1B0000 		.4byte	.LVL600-.Ltext0
 23260 40e5 0C00     		.2byte	0xc
 23261 40e7 F5       		.byte	0xf5
 23262 40e8 4F       		.uleb128 0x4f
 23263 40e9 25       		.uleb128 0x25
 23264 40ea F5       		.byte	0xf5
 23265 40eb 4F       		.uleb128 0x4f
 23266 40ec 25       		.uleb128 0x25
 23267 40ed F7       		.byte	0xf7
 23268 40ee 2C       		.uleb128 0x2c
 23269 40ef F7       		.byte	0xf7
 23270 40f0 25       		.uleb128 0x25
 23271 40f1 1C       		.byte	0x1c
 23272 40f2 9F       		.byte	0x9f
 23273 40f3 CE1B0000 		.4byte	.LVL600-.Ltext0
 23274 40f7 0A1C0000 		.4byte	.LVL609-.Ltext0
 23275 40fb 1000     		.2byte	0x10
 23276 40fd 91       		.byte	0x91
 23277 40fe 50       		.sleb128 -48
 23278 40ff F6       		.byte	0xf6
 23279 4100 04       		.byte	0x4
 23280 4101 25       		.uleb128 0x25
 23281 4102 91       		.byte	0x91
 23282 4103 50       		.sleb128 -48
 23283 4104 F6       		.byte	0xf6
 23284 4105 04       		.byte	0x4
 23285 4106 25       		.uleb128 0x25
 23286 4107 F7       		.byte	0xf7
 23287 4108 2C       		.uleb128 0x2c
 23288 4109 F7       		.byte	0xf7
 23289 410a 25       		.uleb128 0x25
 23290 410b 1C       		.byte	0x1c
 23291 410c 9F       		.byte	0x9f
 23292 410d 00000000 		.4byte	0
 23293 4111 00000000 		.4byte	0
 23294              	.LLST587:
 23295 4115 CA1B0000 		.4byte	.LVL599-.Ltext0
 23296 4119 F01B0000 		.4byte	.LVL607-.Ltext0
 23297 411d 0200     		.2byte	0x2
 23298 411f 90       		.byte	0x90
 23299 4120 4A       		.uleb128 0x4a
 23300 4121 F01B0000 		.4byte	.LVL607-.Ltext0
 23301 4125 0A1C0000 		.4byte	.LVL609-.Ltext0
 23302 4129 1400     		.2byte	0x14
 23303 412b 91       		.byte	0x91
 23304 412c 50       		.sleb128 -48
 23305 412d F6       		.byte	0xf6
 23306 412e 04       		.byte	0x4
 23307 412f 25       		.uleb128 0x25
 23308 4130 91       		.byte	0x91
 23309 4131 50       		.sleb128 -48
ARM GAS  /tmp/ccJJl1OT.s 			page 410


 23310 4132 F6       		.byte	0xf6
 23311 4133 04       		.byte	0x4
 23312 4134 25       		.uleb128 0x25
 23313 4135 F7       		.byte	0xf7
 23314 4136 2C       		.uleb128 0x2c
 23315 4137 F7       		.byte	0xf7
 23316 4138 25       		.uleb128 0x25
 23317 4139 1C       		.byte	0x1c
 23318 413a F5       		.byte	0xf5
 23319 413b 47       		.uleb128 0x47
 23320 413c 25       		.uleb128 0x25
 23321 413d 1E       		.byte	0x1e
 23322 413e 9F       		.byte	0x9f
 23323 413f 00000000 		.4byte	0
 23324 4143 00000000 		.4byte	0
 23325              	.LLST588:
 23326 4147 D21B0000 		.4byte	.LVL601-.Ltext0
 23327 414b 0A1C0000 		.4byte	.LVL609-.Ltext0
 23328 414f 0100     		.2byte	0x1
 23329 4151 5B       		.byte	0x5b
 23330 4152 00000000 		.4byte	0
 23331 4156 00000000 		.4byte	0
 23332              	.LLST589:
 23333 415a D61B0000 		.4byte	.LVL602-.Ltext0
 23334 415e DC1B0000 		.4byte	.LVL603-.Ltext0
 23335 4162 0100     		.2byte	0x1
 23336 4164 57       		.byte	0x57
 23337 4165 DC1B0000 		.4byte	.LVL603-.Ltext0
 23338 4169 E41B0000 		.4byte	.LVL604-.Ltext0
 23339 416d 0300     		.2byte	0x3
 23340 416f 77       		.byte	0x77
 23341 4170 7F       		.sleb128 -1
 23342 4171 9F       		.byte	0x9f
 23343 4172 E41B0000 		.4byte	.LVL604-.Ltext0
 23344 4176 0A1C0000 		.4byte	.LVL609-.Ltext0
 23345 417a 0600     		.2byte	0x6
 23346 417c 7B       		.byte	0x7b
 23347 417d 00       		.sleb128 0
 23348 417e 08       		.byte	0x8
 23349 417f 7F       		.byte	0x7f
 23350 4180 1A       		.byte	0x1a
 23351 4181 9F       		.byte	0x9f
 23352 4182 00000000 		.4byte	0
 23353 4186 00000000 		.4byte	0
 23354              	.LLST590:
 23355 418a D61B0000 		.4byte	.LVL602-.Ltext0
 23356 418e DC1B0000 		.4byte	.LVL603-.Ltext0
 23357 4192 0600     		.2byte	0x6
 23358 4194 77       		.byte	0x77
 23359 4195 01       		.sleb128 1
 23360 4196 08       		.byte	0x8
 23361 4197 7F       		.byte	0x7f
 23362 4198 1A       		.byte	0x1a
 23363 4199 9F       		.byte	0x9f
 23364 419a DC1B0000 		.4byte	.LVL603-.Ltext0
 23365 419e E41B0000 		.4byte	.LVL604-.Ltext0
 23366 41a2 0600     		.2byte	0x6
ARM GAS  /tmp/ccJJl1OT.s 			page 411


 23367 41a4 77       		.byte	0x77
 23368 41a5 00       		.sleb128 0
 23369 41a6 08       		.byte	0x8
 23370 41a7 7F       		.byte	0x7f
 23371 41a8 1A       		.byte	0x1a
 23372 41a9 9F       		.byte	0x9f
 23373 41aa E41B0000 		.4byte	.LVL604-.Ltext0
 23374 41ae E81B0000 		.4byte	.LVL605-.Ltext0
 23375 41b2 0100     		.2byte	0x1
 23376 41b4 57       		.byte	0x57
 23377 41b5 E81B0000 		.4byte	.LVL605-.Ltext0
 23378 41b9 0A1C0000 		.4byte	.LVL609-.Ltext0
 23379 41bd 0600     		.2byte	0x6
 23380 41bf 7B       		.byte	0x7b
 23381 41c0 01       		.sleb128 1
 23382 41c1 08       		.byte	0x8
 23383 41c2 7F       		.byte	0x7f
 23384 41c3 1A       		.byte	0x1a
 23385 41c4 9F       		.byte	0x9f
 23386 41c5 00000000 		.4byte	0
 23387 41c9 00000000 		.4byte	0
 23388              	.LLST591:
 23389 41cd EC1B0000 		.4byte	.LVL606-.Ltext0
 23390 41d1 001C0000 		.4byte	.LVL608-.Ltext0
 23391 41d5 0200     		.2byte	0x2
 23392 41d7 90       		.byte	0x90
 23393 41d8 4D       		.uleb128 0x4d
 23394 41d9 00000000 		.4byte	0
 23395 41dd 00000000 		.4byte	0
 23396              	.LLST592:
 23397 41e1 0A1C0000 		.4byte	.LVL609-.Ltext0
 23398 41e5 221C0000 		.4byte	.LVL611-.Ltext0
 23399 41e9 0200     		.2byte	0x2
 23400 41eb 90       		.byte	0x90
 23401 41ec 4F       		.uleb128 0x4f
 23402 41ed 221C0000 		.4byte	.LVL611-.Ltext0
 23403 41f1 5E1C0000 		.4byte	.LVL620-.Ltext0
 23404 41f5 0200     		.2byte	0x2
 23405 41f7 91       		.byte	0x91
 23406 41f8 54       		.sleb128 -44
 23407 41f9 00000000 		.4byte	0
 23408 41fd 00000000 		.4byte	0
 23409              	.LLST593:
 23410 4201 0A1C0000 		.4byte	.LVL609-.Ltext0
 23411 4205 221C0000 		.4byte	.LVL611-.Ltext0
 23412 4209 0C00     		.2byte	0xc
 23413 420b F5       		.byte	0xf5
 23414 420c 4F       		.uleb128 0x4f
 23415 420d 25       		.uleb128 0x25
 23416 420e F5       		.byte	0xf5
 23417 420f 4F       		.uleb128 0x4f
 23418 4210 25       		.uleb128 0x25
 23419 4211 F7       		.byte	0xf7
 23420 4212 2C       		.uleb128 0x2c
 23421 4213 F7       		.byte	0xf7
 23422 4214 25       		.uleb128 0x25
 23423 4215 1C       		.byte	0x1c
ARM GAS  /tmp/ccJJl1OT.s 			page 412


 23424 4216 9F       		.byte	0x9f
 23425 4217 221C0000 		.4byte	.LVL611-.Ltext0
 23426 421b 5E1C0000 		.4byte	.LVL620-.Ltext0
 23427 421f 1000     		.2byte	0x10
 23428 4221 91       		.byte	0x91
 23429 4222 54       		.sleb128 -44
 23430 4223 F6       		.byte	0xf6
 23431 4224 04       		.byte	0x4
 23432 4225 25       		.uleb128 0x25
 23433 4226 91       		.byte	0x91
 23434 4227 54       		.sleb128 -44
 23435 4228 F6       		.byte	0xf6
 23436 4229 04       		.byte	0x4
 23437 422a 25       		.uleb128 0x25
 23438 422b F7       		.byte	0xf7
 23439 422c 2C       		.uleb128 0x2c
 23440 422d F7       		.byte	0xf7
 23441 422e 25       		.uleb128 0x25
 23442 422f 1C       		.byte	0x1c
 23443 4230 9F       		.byte	0x9f
 23444 4231 00000000 		.4byte	0
 23445 4235 00000000 		.4byte	0
 23446              	.LLST594:
 23447 4239 1E1C0000 		.4byte	.LVL610-.Ltext0
 23448 423d 441C0000 		.4byte	.LVL618-.Ltext0
 23449 4241 0200     		.2byte	0x2
 23450 4243 90       		.byte	0x90
 23451 4244 4B       		.uleb128 0x4b
 23452 4245 441C0000 		.4byte	.LVL618-.Ltext0
 23453 4249 5E1C0000 		.4byte	.LVL620-.Ltext0
 23454 424d 1400     		.2byte	0x14
 23455 424f 91       		.byte	0x91
 23456 4250 54       		.sleb128 -44
 23457 4251 F6       		.byte	0xf6
 23458 4252 04       		.byte	0x4
 23459 4253 25       		.uleb128 0x25
 23460 4254 91       		.byte	0x91
 23461 4255 54       		.sleb128 -44
 23462 4256 F6       		.byte	0xf6
 23463 4257 04       		.byte	0x4
 23464 4258 25       		.uleb128 0x25
 23465 4259 F7       		.byte	0xf7
 23466 425a 2C       		.uleb128 0x2c
 23467 425b F7       		.byte	0xf7
 23468 425c 25       		.uleb128 0x25
 23469 425d 1C       		.byte	0x1c
 23470 425e F5       		.byte	0xf5
 23471 425f 47       		.uleb128 0x47
 23472 4260 25       		.uleb128 0x25
 23473 4261 1E       		.byte	0x1e
 23474 4262 9F       		.byte	0x9f
 23475 4263 00000000 		.4byte	0
 23476 4267 00000000 		.4byte	0
 23477              	.LLST595:
 23478 426b 261C0000 		.4byte	.LVL612-.Ltext0
 23479 426f 5E1C0000 		.4byte	.LVL620-.Ltext0
 23480 4273 0100     		.2byte	0x1
ARM GAS  /tmp/ccJJl1OT.s 			page 413


 23481 4275 5B       		.byte	0x5b
 23482 4276 00000000 		.4byte	0
 23483 427a 00000000 		.4byte	0
 23484              	.LLST596:
 23485 427e 2A1C0000 		.4byte	.LVL613-.Ltext0
 23486 4282 301C0000 		.4byte	.LVL614-.Ltext0
 23487 4286 0100     		.2byte	0x1
 23488 4288 57       		.byte	0x57
 23489 4289 301C0000 		.4byte	.LVL614-.Ltext0
 23490 428d 381C0000 		.4byte	.LVL615-.Ltext0
 23491 4291 0300     		.2byte	0x3
 23492 4293 77       		.byte	0x77
 23493 4294 7F       		.sleb128 -1
 23494 4295 9F       		.byte	0x9f
 23495 4296 381C0000 		.4byte	.LVL615-.Ltext0
 23496 429a 5E1C0000 		.4byte	.LVL620-.Ltext0
 23497 429e 0600     		.2byte	0x6
 23498 42a0 7B       		.byte	0x7b
 23499 42a1 00       		.sleb128 0
 23500 42a2 08       		.byte	0x8
 23501 42a3 7F       		.byte	0x7f
 23502 42a4 1A       		.byte	0x1a
 23503 42a5 9F       		.byte	0x9f
 23504 42a6 00000000 		.4byte	0
 23505 42aa 00000000 		.4byte	0
 23506              	.LLST597:
 23507 42ae 2A1C0000 		.4byte	.LVL613-.Ltext0
 23508 42b2 301C0000 		.4byte	.LVL614-.Ltext0
 23509 42b6 0600     		.2byte	0x6
 23510 42b8 77       		.byte	0x77
 23511 42b9 01       		.sleb128 1
 23512 42ba 08       		.byte	0x8
 23513 42bb 7F       		.byte	0x7f
 23514 42bc 1A       		.byte	0x1a
 23515 42bd 9F       		.byte	0x9f
 23516 42be 301C0000 		.4byte	.LVL614-.Ltext0
 23517 42c2 381C0000 		.4byte	.LVL615-.Ltext0
 23518 42c6 0600     		.2byte	0x6
 23519 42c8 77       		.byte	0x77
 23520 42c9 00       		.sleb128 0
 23521 42ca 08       		.byte	0x8
 23522 42cb 7F       		.byte	0x7f
 23523 42cc 1A       		.byte	0x1a
 23524 42cd 9F       		.byte	0x9f
 23525 42ce 381C0000 		.4byte	.LVL615-.Ltext0
 23526 42d2 3C1C0000 		.4byte	.LVL616-.Ltext0
 23527 42d6 0100     		.2byte	0x1
 23528 42d8 57       		.byte	0x57
 23529 42d9 3C1C0000 		.4byte	.LVL616-.Ltext0
 23530 42dd 5E1C0000 		.4byte	.LVL620-.Ltext0
 23531 42e1 0600     		.2byte	0x6
 23532 42e3 7B       		.byte	0x7b
 23533 42e4 01       		.sleb128 1
 23534 42e5 08       		.byte	0x8
 23535 42e6 7F       		.byte	0x7f
 23536 42e7 1A       		.byte	0x1a
 23537 42e8 9F       		.byte	0x9f
ARM GAS  /tmp/ccJJl1OT.s 			page 414


 23538 42e9 00000000 		.4byte	0
 23539 42ed 00000000 		.4byte	0
 23540              	.LLST598:
 23541 42f1 401C0000 		.4byte	.LVL617-.Ltext0
 23542 42f5 541C0000 		.4byte	.LVL619-.Ltext0
 23543 42f9 0200     		.2byte	0x2
 23544 42fb 90       		.byte	0x90
 23545 42fc 4D       		.uleb128 0x4d
 23546 42fd 00000000 		.4byte	0
 23547 4301 00000000 		.4byte	0
 23548              	.LLST599:
 23549 4305 661C0000 		.4byte	.LVL621-.Ltext0
 23550 4309 821C0000 		.4byte	.LVL623-.Ltext0
 23551 430d 0200     		.2byte	0x2
 23552 430f 90       		.byte	0x90
 23553 4310 4D       		.uleb128 0x4d
 23554 4311 00000000 		.4byte	0
 23555 4315 00000000 		.4byte	0
 23556              	.LLST600:
 23557 4319 661C0000 		.4byte	.LVL621-.Ltext0
 23558 431d 821C0000 		.4byte	.LVL623-.Ltext0
 23559 4321 0600     		.2byte	0x6
 23560 4323 9E       		.byte	0x9e
 23561 4324 04       		.uleb128 0x4
 23562 4325 CDCC4C3D 		.4byte	0x3d4ccccd
 23563 4329 00000000 		.4byte	0
 23564 432d 00000000 		.4byte	0
 23565              	.LLST602:
 23566 4331 661C0000 		.4byte	.LVL621-.Ltext0
 23567 4335 821C0000 		.4byte	.LVL623-.Ltext0
 23568 4339 0600     		.2byte	0x6
 23569 433b 9E       		.byte	0x9e
 23570 433c 04       		.uleb128 0x4
 23571 433d 0000803F 		.4byte	0x3f800000
 23572 4341 00000000 		.4byte	0
 23573 4345 00000000 		.4byte	0
 23574              	.LLST603:
 23575 4349 661C0000 		.4byte	.LVL621-.Ltext0
 23576 434d 701C0000 		.4byte	.LVL622-.Ltext0
 23577 4351 0200     		.2byte	0x2
 23578 4353 90       		.byte	0x90
 23579 4354 4D       		.uleb128 0x4d
 23580 4355 00000000 		.4byte	0
 23581 4359 00000000 		.4byte	0
 23582              	.LLST604:
 23583 435d 661C0000 		.4byte	.LVL621-.Ltext0
 23584 4361 821C0000 		.4byte	.LVL623-.Ltext0
 23585 4365 0600     		.2byte	0x6
 23586 4367 9E       		.byte	0x9e
 23587 4368 04       		.uleb128 0x4
 23588 4369 000080BF 		.4byte	0xbf800000
 23589 436d 00000000 		.4byte	0
 23590 4371 00000000 		.4byte	0
 23591              	.LLST605:
 23592 4375 661C0000 		.4byte	.LVL621-.Ltext0
 23593 4379 701C0000 		.4byte	.LVL622-.Ltext0
 23594 437d 0600     		.2byte	0x6
ARM GAS  /tmp/ccJJl1OT.s 			page 415


 23595 437f 9E       		.byte	0x9e
 23596 4380 04       		.uleb128 0x4
 23597 4381 000080BF 		.4byte	0xbf800000
 23598 4385 00000000 		.4byte	0
 23599 4389 00000000 		.4byte	0
 23600              	.LLST607:
 23601 438d 661C0000 		.4byte	.LVL621-.Ltext0
 23602 4391 701C0000 		.4byte	.LVL622-.Ltext0
 23603 4395 0C00     		.2byte	0xc
 23604 4397 F5       		.byte	0xf5
 23605 4398 4D       		.uleb128 0x4d
 23606 4399 25       		.uleb128 0x25
 23607 439a F4       		.byte	0xf4
 23608 439b 25       		.uleb128 0x25
 23609 439c 04       		.byte	0x4
 23610 439d 0000803F 		.4byte	0x3f800000
 23611 43a1 22       		.byte	0x22
 23612 43a2 9F       		.byte	0x9f
 23613 43a3 00000000 		.4byte	0
 23614 43a7 00000000 		.4byte	0
 23615              	.LLST608:
 23616 43ab 701C0000 		.4byte	.LVL622-.Ltext0
 23617 43af 821C0000 		.4byte	.LVL623-.Ltext0
 23618 43b3 0600     		.2byte	0x6
 23619 43b5 9E       		.byte	0x9e
 23620 43b6 04       		.uleb128 0x4
 23621 43b7 0000803F 		.4byte	0x3f800000
 23622 43bb 00000000 		.4byte	0
 23623 43bf 00000000 		.4byte	0
 23624              	.LLST609:
 23625 43c3 701C0000 		.4byte	.LVL622-.Ltext0
 23626 43c7 821C0000 		.4byte	.LVL623-.Ltext0
 23627 43cb 0C00     		.2byte	0xc
 23628 43cd F5       		.byte	0xf5
 23629 43ce 4D       		.uleb128 0x4d
 23630 43cf 25       		.uleb128 0x25
 23631 43d0 F4       		.byte	0xf4
 23632 43d1 25       		.uleb128 0x25
 23633 43d2 04       		.byte	0x4
 23634 43d3 0000803F 		.4byte	0x3f800000
 23635 43d7 1C       		.byte	0x1c
 23636 43d8 9F       		.byte	0x9f
 23637 43d9 00000000 		.4byte	0
 23638 43dd 00000000 		.4byte	0
 23639              	.LLST610:
 23640 43e1 001D0000 		.4byte	.LVL632-.Ltext0
 23641 43e5 1A1D0000 		.4byte	.LVL633-.Ltext0
 23642 43e9 0200     		.2byte	0x2
 23643 43eb 90       		.byte	0x90
 23644 43ec 4F       		.uleb128 0x4f
 23645 43ed 1A1D0000 		.4byte	.LVL633-.Ltext0
 23646 43f1 1E1D0000 		.4byte	.LVL634-.Ltext0
 23647 43f5 0C00     		.2byte	0xc
 23648 43f7 F5       		.byte	0xf5
 23649 43f8 4E       		.uleb128 0x4e
 23650 43f9 25       		.uleb128 0x25
 23651 43fa F4       		.byte	0xf4
ARM GAS  /tmp/ccJJl1OT.s 			page 416


 23652 43fb 25       		.uleb128 0x25
 23653 43fc 04       		.byte	0x4
 23654 43fd 0820803A 		.4byte	0x3a802008
 23655 4401 1E       		.byte	0x1e
 23656 4402 9F       		.byte	0x9f
 23657 4403 1E1D0000 		.4byte	.LVL634-.Ltext0
 23658 4407 2E1D0000 		.4byte	.LVL635-.Ltext0
 23659 440b 0F00     		.2byte	0xf
 23660 440d 71       		.byte	0x71
 23661 440e 00       		.sleb128 0
 23662 440f F7       		.byte	0xf7
 23663 4410 33       		.uleb128 0x33
 23664 4411 F7       		.byte	0xf7
 23665 4412 25       		.uleb128 0x25
 23666 4413 F4       		.byte	0xf4
 23667 4414 25       		.uleb128 0x25
 23668 4415 04       		.byte	0x4
 23669 4416 0820803A 		.4byte	0x3a802008
 23670 441a 1E       		.byte	0x1e
 23671 441b 9F       		.byte	0x9f
 23672 441c 2E1D0000 		.4byte	.LVL635-.Ltext0
 23673 4420 381D0000 		.4byte	.LVL636-.Ltext0
 23674 4424 0200     		.2byte	0x2
 23675 4426 90       		.byte	0x90
 23676 4427 4F       		.uleb128 0x4f
 23677 4428 381D0000 		.4byte	.LVL636-.Ltext0
 23678 442c 3E1D0000 		.4byte	.LVL637-.Ltext0
 23679 4430 0F00     		.2byte	0xf
 23680 4432 71       		.byte	0x71
 23681 4433 00       		.sleb128 0
 23682 4434 F7       		.byte	0xf7
 23683 4435 33       		.uleb128 0x33
 23684 4436 F7       		.byte	0xf7
 23685 4437 25       		.uleb128 0x25
 23686 4438 F4       		.byte	0xf4
 23687 4439 25       		.uleb128 0x25
 23688 443a 04       		.byte	0x4
 23689 443b 0820803A 		.4byte	0x3a802008
 23690 443f 1E       		.byte	0x1e
 23691 4440 9F       		.byte	0x9f
 23692 4441 3E1D0000 		.4byte	.LVL637-.Ltext0
 23693 4445 461D0000 		.4byte	.LVL638-.Ltext0
 23694 4449 0200     		.2byte	0x2
 23695 444b 90       		.byte	0x90
 23696 444c 4F       		.uleb128 0x4f
 23697 444d 461D0000 		.4byte	.LVL638-.Ltext0
 23698 4451 541D0000 		.4byte	.LVL639-.Ltext0
 23699 4455 0F00     		.2byte	0xf
 23700 4457 71       		.byte	0x71
 23701 4458 00       		.sleb128 0
 23702 4459 F7       		.byte	0xf7
 23703 445a 33       		.uleb128 0x33
 23704 445b F7       		.byte	0xf7
 23705 445c 25       		.uleb128 0x25
 23706 445d F4       		.byte	0xf4
 23707 445e 25       		.uleb128 0x25
 23708 445f 04       		.byte	0x4
ARM GAS  /tmp/ccJJl1OT.s 			page 417


 23709 4460 0820803A 		.4byte	0x3a802008
 23710 4464 1E       		.byte	0x1e
 23711 4465 9F       		.byte	0x9f
 23712 4466 541D0000 		.4byte	.LVL639-.Ltext0
 23713 446a 5C1D0000 		.4byte	.LVL640-.Ltext0
 23714 446e 0200     		.2byte	0x2
 23715 4470 90       		.byte	0x90
 23716 4471 4F       		.uleb128 0x4f
 23717 4472 5C1D0000 		.4byte	.LVL640-.Ltext0
 23718 4476 7C1D0000 		.4byte	.LFE243-.Ltext0
 23719 447a 0F00     		.2byte	0xf
 23720 447c 71       		.byte	0x71
 23721 447d 00       		.sleb128 0
 23722 447e F7       		.byte	0xf7
 23723 447f 33       		.uleb128 0x33
 23724 4480 F7       		.byte	0xf7
 23725 4481 25       		.uleb128 0x25
 23726 4482 F4       		.byte	0xf4
 23727 4483 25       		.uleb128 0x25
 23728 4484 04       		.byte	0x4
 23729 4485 0820803A 		.4byte	0x3a802008
 23730 4489 1E       		.byte	0x1e
 23731 448a 9F       		.byte	0x9f
 23732 448b 00000000 		.4byte	0
 23733 448f 00000000 		.4byte	0
 23734              		.section	.debug_aranges,"",%progbits
 23735 0000 1C000000 		.4byte	0x1c
 23736 0004 0200     		.2byte	0x2
 23737 0006 00000000 		.4byte	.Ldebug_info0
 23738 000a 04       		.byte	0x4
 23739 000b 00       		.byte	0
 23740 000c 0000     		.2byte	0
 23741 000e 0000     		.2byte	0
 23742 0010 00000000 		.4byte	.Ltext0
 23743 0014 7C1D0000 		.4byte	.Letext0-.Ltext0
 23744 0018 00000000 		.4byte	0
 23745 001c 00000000 		.4byte	0
 23746              		.section	.debug_ranges,"",%progbits
 23747              	.Ldebug_ranges0:
 23748 0000 28000000 		.4byte	.LBB993-.Ltext0
 23749 0004 32000000 		.4byte	.LBE993-.Ltext0
 23750 0008 34000000 		.4byte	.LBB994-.Ltext0
 23751 000c 60000000 		.4byte	.LBE994-.Ltext0
 23752 0010 00000000 		.4byte	0
 23753 0014 00000000 		.4byte	0
 23754 0018 94000000 		.4byte	.LBB995-.Ltext0
 23755 001c 9E000000 		.4byte	.LBE995-.Ltext0
 23756 0020 B6000000 		.4byte	.LBB1021-.Ltext0
 23757 0024 B8000000 		.4byte	.LBE1021-.Ltext0
 23758 0028 CC000000 		.4byte	.LBB1022-.Ltext0
 23759 002c 1A010000 		.4byte	.LBE1022-.Ltext0
 23760 0030 00000000 		.4byte	0
 23761 0034 00000000 		.4byte	0
 23762 0038 94000000 		.4byte	.LBB997-.Ltext0
 23763 003c 96000000 		.4byte	.LBE997-.Ltext0
 23764 0040 B6000000 		.4byte	.LBB1008-.Ltext0
 23765 0044 B8000000 		.4byte	.LBE1008-.Ltext0
ARM GAS  /tmp/ccJJl1OT.s 			page 418


 23766 0048 CC000000 		.4byte	.LBB1009-.Ltext0
 23767 004c DA000000 		.4byte	.LBE1009-.Ltext0
 23768 0050 00000000 		.4byte	0
 23769 0054 00000000 		.4byte	0
 23770 0058 B6000000 		.4byte	.LBB999-.Ltext0
 23771 005c B8000000 		.4byte	.LBE999-.Ltext0
 23772 0060 CC000000 		.4byte	.LBB1002-.Ltext0
 23773 0064 D2000000 		.4byte	.LBE1002-.Ltext0
 23774 0068 00000000 		.4byte	0
 23775 006c 00000000 		.4byte	0
 23776 0070 96000000 		.4byte	.LBB1005-.Ltext0
 23777 0074 9A000000 		.4byte	.LBE1005-.Ltext0
 23778 0078 EC000000 		.4byte	.LBB1014-.Ltext0
 23779 007c 04010000 		.4byte	.LBE1014-.Ltext0
 23780 0080 00000000 		.4byte	0
 23781 0084 00000000 		.4byte	0
 23782 0088 1A010000 		.4byte	.LBB1023-.Ltext0
 23783 008c 1E010000 		.4byte	.LBE1023-.Ltext0
 23784 0090 42010000 		.4byte	.LBB1084-.Ltext0
 23785 0094 46010000 		.4byte	.LBE1084-.Ltext0
 23786 0098 4A010000 		.4byte	.LBB1103-.Ltext0
 23787 009c 4E010000 		.4byte	.LBE1103-.Ltext0
 23788 00a0 52010000 		.4byte	.LBB1121-.Ltext0
 23789 00a4 56010000 		.4byte	.LBE1121-.Ltext0
 23790 00a8 5A010000 		.4byte	.LBB1122-.Ltext0
 23791 00ac 66010000 		.4byte	.LBE1122-.Ltext0
 23792 00b0 6A010000 		.4byte	.LBB1123-.Ltext0
 23793 00b4 74010000 		.4byte	.LBE1123-.Ltext0
 23794 00b8 00000000 		.4byte	0
 23795 00bc 00000000 		.4byte	0
 23796 00c0 1A010000 		.4byte	.LBB1025-.Ltext0
 23797 00c4 1E010000 		.4byte	.LBE1025-.Ltext0
 23798 00c8 42010000 		.4byte	.LBB1031-.Ltext0
 23799 00cc 46010000 		.4byte	.LBE1031-.Ltext0
 23800 00d0 4A010000 		.4byte	.LBB1032-.Ltext0
 23801 00d4 4E010000 		.4byte	.LBE1032-.Ltext0
 23802 00d8 52010000 		.4byte	.LBB1033-.Ltext0
 23803 00dc 56010000 		.4byte	.LBE1033-.Ltext0
 23804 00e0 62010000 		.4byte	.LBB1041-.Ltext0
 23805 00e4 66010000 		.4byte	.LBE1041-.Ltext0
 23806 00e8 00000000 		.4byte	0
 23807 00ec 00000000 		.4byte	0
 23808 00f0 5A010000 		.4byte	.LBB1034-.Ltext0
 23809 00f4 62010000 		.4byte	.LBE1034-.Ltext0
 23810 00f8 6A010000 		.4byte	.LBB1042-.Ltext0
 23811 00fc 70010000 		.4byte	.LBE1042-.Ltext0
 23812 0100 00000000 		.4byte	0
 23813 0104 00000000 		.4byte	0
 23814 0108 2A010000 		.4byte	.LBB1048-.Ltext0
 23815 010c 2E010000 		.4byte	.LBE1048-.Ltext0
 23816 0110 98010000 		.4byte	.LBB1124-.Ltext0
 23817 0114 B0010000 		.4byte	.LBE1124-.Ltext0
 23818 0118 B4010000 		.4byte	.LBB1125-.Ltext0
 23819 011c BE010000 		.4byte	.LBE1125-.Ltext0
 23820 0120 00000000 		.4byte	0
 23821 0124 00000000 		.4byte	0
 23822 0128 2A010000 		.4byte	.LBB1050-.Ltext0
ARM GAS  /tmp/ccJJl1OT.s 			page 419


 23823 012c 2E010000 		.4byte	.LBE1050-.Ltext0
 23824 0130 98010000 		.4byte	.LBB1054-.Ltext0
 23825 0134 A4010000 		.4byte	.LBE1054-.Ltext0
 23826 0138 AC010000 		.4byte	.LBB1062-.Ltext0
 23827 013c B0010000 		.4byte	.LBE1062-.Ltext0
 23828 0140 00000000 		.4byte	0
 23829 0144 00000000 		.4byte	0
 23830 0148 A4010000 		.4byte	.LBB1055-.Ltext0
 23831 014c AC010000 		.4byte	.LBE1055-.Ltext0
 23832 0150 B4010000 		.4byte	.LBB1063-.Ltext0
 23833 0154 BA010000 		.4byte	.LBE1063-.Ltext0
 23834 0158 00000000 		.4byte	0
 23835 015c 00000000 		.4byte	0
 23836 0160 32010000 		.4byte	.LBB1066-.Ltext0
 23837 0164 36010000 		.4byte	.LBE1066-.Ltext0
 23838 0168 E2010000 		.4byte	.LBB1126-.Ltext0
 23839 016c FA010000 		.4byte	.LBE1126-.Ltext0
 23840 0170 FE010000 		.4byte	.LBB1127-.Ltext0
 23841 0174 08020000 		.4byte	.LBE1127-.Ltext0
 23842 0178 00000000 		.4byte	0
 23843 017c 00000000 		.4byte	0
 23844 0180 32010000 		.4byte	.LBB1068-.Ltext0
 23845 0184 36010000 		.4byte	.LBE1068-.Ltext0
 23846 0188 E2010000 		.4byte	.LBB1072-.Ltext0
 23847 018c EE010000 		.4byte	.LBE1072-.Ltext0
 23848 0190 F6010000 		.4byte	.LBB1080-.Ltext0
 23849 0194 FA010000 		.4byte	.LBE1080-.Ltext0
 23850 0198 00000000 		.4byte	0
 23851 019c 00000000 		.4byte	0
 23852 01a0 EE010000 		.4byte	.LBB1073-.Ltext0
 23853 01a4 F6010000 		.4byte	.LBE1073-.Ltext0
 23854 01a8 FE010000 		.4byte	.LBB1081-.Ltext0
 23855 01ac 04020000 		.4byte	.LBE1081-.Ltext0
 23856 01b0 00000000 		.4byte	0
 23857 01b4 00000000 		.4byte	0
 23858 01b8 46010000 		.4byte	.LBB1085-.Ltext0
 23859 01bc 4A010000 		.4byte	.LBE1085-.Ltext0
 23860 01c0 2C020000 		.4byte	.LBB1128-.Ltext0
 23861 01c4 44020000 		.4byte	.LBE1128-.Ltext0
 23862 01c8 48020000 		.4byte	.LBB1129-.Ltext0
 23863 01cc 52020000 		.4byte	.LBE1129-.Ltext0
 23864 01d0 00000000 		.4byte	0
 23865 01d4 00000000 		.4byte	0
 23866 01d8 46010000 		.4byte	.LBB1087-.Ltext0
 23867 01dc 4A010000 		.4byte	.LBE1087-.Ltext0
 23868 01e0 2C020000 		.4byte	.LBB1091-.Ltext0
 23869 01e4 38020000 		.4byte	.LBE1091-.Ltext0
 23870 01e8 40020000 		.4byte	.LBB1099-.Ltext0
 23871 01ec 44020000 		.4byte	.LBE1099-.Ltext0
 23872 01f0 00000000 		.4byte	0
 23873 01f4 00000000 		.4byte	0
 23874 01f8 38020000 		.4byte	.LBB1092-.Ltext0
 23875 01fc 40020000 		.4byte	.LBE1092-.Ltext0
 23876 0200 48020000 		.4byte	.LBB1100-.Ltext0
 23877 0204 4E020000 		.4byte	.LBE1100-.Ltext0
 23878 0208 00000000 		.4byte	0
 23879 020c 00000000 		.4byte	0
ARM GAS  /tmp/ccJJl1OT.s 			page 420


 23880 0210 4E010000 		.4byte	.LBB1104-.Ltext0
 23881 0214 52010000 		.4byte	.LBE1104-.Ltext0
 23882 0218 7A020000 		.4byte	.LBB1130-.Ltext0
 23883 021c 9C020000 		.4byte	.LBE1130-.Ltext0
 23884 0220 00000000 		.4byte	0
 23885 0224 00000000 		.4byte	0
 23886 0228 4E010000 		.4byte	.LBB1106-.Ltext0
 23887 022c 52010000 		.4byte	.LBE1106-.Ltext0
 23888 0230 7A020000 		.4byte	.LBB1110-.Ltext0
 23889 0234 86020000 		.4byte	.LBE1110-.Ltext0
 23890 0238 8E020000 		.4byte	.LBB1118-.Ltext0
 23891 023c 92020000 		.4byte	.LBE1118-.Ltext0
 23892 0240 00000000 		.4byte	0
 23893 0244 00000000 		.4byte	0
 23894 0248 86020000 		.4byte	.LBB1111-.Ltext0
 23895 024c 8E020000 		.4byte	.LBE1111-.Ltext0
 23896 0250 92020000 		.4byte	.LBB1119-.Ltext0
 23897 0254 98020000 		.4byte	.LBE1119-.Ltext0
 23898 0258 00000000 		.4byte	0
 23899 025c 00000000 		.4byte	0
 23900 0260 A8020000 		.4byte	.LBB1131-.Ltext0
 23901 0264 AC020000 		.4byte	.LBE1131-.Ltext0
 23902 0268 B8020000 		.4byte	.LBB1148-.Ltext0
 23903 026c DA020000 		.4byte	.LBE1148-.Ltext0
 23904 0270 00000000 		.4byte	0
 23905 0274 00000000 		.4byte	0
 23906 0278 A8020000 		.4byte	.LBB1133-.Ltext0
 23907 027c AC020000 		.4byte	.LBE1133-.Ltext0
 23908 0280 B8020000 		.4byte	.LBB1137-.Ltext0
 23909 0284 C4020000 		.4byte	.LBE1137-.Ltext0
 23910 0288 CC020000 		.4byte	.LBB1145-.Ltext0
 23911 028c D0020000 		.4byte	.LBE1145-.Ltext0
 23912 0290 00000000 		.4byte	0
 23913 0294 00000000 		.4byte	0
 23914 0298 C4020000 		.4byte	.LBB1138-.Ltext0
 23915 029c CC020000 		.4byte	.LBE1138-.Ltext0
 23916 02a0 D0020000 		.4byte	.LBB1146-.Ltext0
 23917 02a4 D6020000 		.4byte	.LBE1146-.Ltext0
 23918 02a8 00000000 		.4byte	0
 23919 02ac 00000000 		.4byte	0
 23920 02b0 E6020000 		.4byte	.LBB1149-.Ltext0
 23921 02b4 EA020000 		.4byte	.LBE1149-.Ltext0
 23922 02b8 F6020000 		.4byte	.LBB1166-.Ltext0
 23923 02bc 18030000 		.4byte	.LBE1166-.Ltext0
 23924 02c0 00000000 		.4byte	0
 23925 02c4 00000000 		.4byte	0
 23926 02c8 E6020000 		.4byte	.LBB1151-.Ltext0
 23927 02cc EA020000 		.4byte	.LBE1151-.Ltext0
 23928 02d0 F6020000 		.4byte	.LBB1155-.Ltext0
 23929 02d4 02030000 		.4byte	.LBE1155-.Ltext0
 23930 02d8 0A030000 		.4byte	.LBB1163-.Ltext0
 23931 02dc 0E030000 		.4byte	.LBE1163-.Ltext0
 23932 02e0 00000000 		.4byte	0
 23933 02e4 00000000 		.4byte	0
 23934 02e8 02030000 		.4byte	.LBB1156-.Ltext0
 23935 02ec 0A030000 		.4byte	.LBE1156-.Ltext0
 23936 02f0 0E030000 		.4byte	.LBB1164-.Ltext0
ARM GAS  /tmp/ccJJl1OT.s 			page 421


 23937 02f4 14030000 		.4byte	.LBE1164-.Ltext0
 23938 02f8 00000000 		.4byte	0
 23939 02fc 00000000 		.4byte	0
 23940 0300 24030000 		.4byte	.LBB1167-.Ltext0
 23941 0304 28030000 		.4byte	.LBE1167-.Ltext0
 23942 0308 34030000 		.4byte	.LBB1184-.Ltext0
 23943 030c 56030000 		.4byte	.LBE1184-.Ltext0
 23944 0310 00000000 		.4byte	0
 23945 0314 00000000 		.4byte	0
 23946 0318 24030000 		.4byte	.LBB1169-.Ltext0
 23947 031c 28030000 		.4byte	.LBE1169-.Ltext0
 23948 0320 34030000 		.4byte	.LBB1173-.Ltext0
 23949 0324 40030000 		.4byte	.LBE1173-.Ltext0
 23950 0328 48030000 		.4byte	.LBB1181-.Ltext0
 23951 032c 4C030000 		.4byte	.LBE1181-.Ltext0
 23952 0330 00000000 		.4byte	0
 23953 0334 00000000 		.4byte	0
 23954 0338 40030000 		.4byte	.LBB1174-.Ltext0
 23955 033c 48030000 		.4byte	.LBE1174-.Ltext0
 23956 0340 4C030000 		.4byte	.LBB1182-.Ltext0
 23957 0344 52030000 		.4byte	.LBE1182-.Ltext0
 23958 0348 00000000 		.4byte	0
 23959 034c 00000000 		.4byte	0
 23960 0350 62030000 		.4byte	.LBB1185-.Ltext0
 23961 0354 66030000 		.4byte	.LBE1185-.Ltext0
 23962 0358 72030000 		.4byte	.LBB1205-.Ltext0
 23963 035c 76030000 		.4byte	.LBE1205-.Ltext0
 23964 0360 7A030000 		.4byte	.LBB1206-.Ltext0
 23965 0364 98030000 		.4byte	.LBE1206-.Ltext0
 23966 0368 00000000 		.4byte	0
 23967 036c 00000000 		.4byte	0
 23968 0370 62030000 		.4byte	.LBB1187-.Ltext0
 23969 0374 66030000 		.4byte	.LBE1187-.Ltext0
 23970 0378 72030000 		.4byte	.LBB1192-.Ltext0
 23971 037c 76030000 		.4byte	.LBE1192-.Ltext0
 23972 0380 7A030000 		.4byte	.LBB1193-.Ltext0
 23973 0384 82030000 		.4byte	.LBE1193-.Ltext0
 23974 0388 8A030000 		.4byte	.LBB1201-.Ltext0
 23975 038c 8E030000 		.4byte	.LBE1201-.Ltext0
 23976 0390 00000000 		.4byte	0
 23977 0394 00000000 		.4byte	0
 23978 0398 82030000 		.4byte	.LBB1194-.Ltext0
 23979 039c 8A030000 		.4byte	.LBE1194-.Ltext0
 23980 03a0 8E030000 		.4byte	.LBB1202-.Ltext0
 23981 03a4 94030000 		.4byte	.LBE1202-.Ltext0
 23982 03a8 00000000 		.4byte	0
 23983 03ac 00000000 		.4byte	0
 23984 03b0 CE030000 		.4byte	.LBB1215-.Ltext0
 23985 03b4 D0030000 		.4byte	.LBE1215-.Ltext0
 23986 03b8 DC030000 		.4byte	.LBB1244-.Ltext0
 23987 03bc E0030000 		.4byte	.LBE1244-.Ltext0
 23988 03c0 E8030000 		.4byte	.LBB1245-.Ltext0
 23989 03c4 EE030000 		.4byte	.LBE1245-.Ltext0
 23990 03c8 F2030000 		.4byte	.LBB1246-.Ltext0
 23991 03cc 28040000 		.4byte	.LBE1246-.Ltext0
 23992 03d0 00000000 		.4byte	0
 23993 03d4 00000000 		.4byte	0
ARM GAS  /tmp/ccJJl1OT.s 			page 422


 23994 03d8 CE030000 		.4byte	.LBB1217-.Ltext0
 23995 03dc D0030000 		.4byte	.LBE1217-.Ltext0
 23996 03e0 DC030000 		.4byte	.LBB1226-.Ltext0
 23997 03e4 E0030000 		.4byte	.LBE1226-.Ltext0
 23998 03e8 F2030000 		.4byte	.LBB1232-.Ltext0
 23999 03ec F6030000 		.4byte	.LBE1232-.Ltext0
 24000 03f0 FA030000 		.4byte	.LBB1234-.Ltext0
 24001 03f4 FE030000 		.4byte	.LBE1234-.Ltext0
 24002 03f8 00000000 		.4byte	0
 24003 03fc 00000000 		.4byte	0
 24004 0400 CE030000 		.4byte	.LBB1219-.Ltext0
 24005 0404 D0030000 		.4byte	.LBE1219-.Ltext0
 24006 0408 DC030000 		.4byte	.LBB1222-.Ltext0
 24007 040c E0030000 		.4byte	.LBE1222-.Ltext0
 24008 0410 00000000 		.4byte	0
 24009 0414 00000000 		.4byte	0
 24010 0418 E8030000 		.4byte	.LBB1227-.Ltext0
 24011 041c EE030000 		.4byte	.LBE1227-.Ltext0
 24012 0420 F6030000 		.4byte	.LBB1233-.Ltext0
 24013 0424 FA030000 		.4byte	.LBE1233-.Ltext0
 24014 0428 00000000 		.4byte	0
 24015 042c 00000000 		.4byte	0
 24016 0430 64040000 		.4byte	.LBB1247-.Ltext0
 24017 0434 6E040000 		.4byte	.LBE1247-.Ltext0
 24018 0438 90040000 		.4byte	.LBB1287-.Ltext0
 24019 043c 92040000 		.4byte	.LBE1287-.Ltext0
 24020 0440 9A040000 		.4byte	.LBB1288-.Ltext0
 24021 0444 A6040000 		.4byte	.LBE1288-.Ltext0
 24022 0448 AA040000 		.4byte	.LBB1289-.Ltext0
 24023 044c DE040000 		.4byte	.LBE1289-.Ltext0
 24024 0450 E2040000 		.4byte	.LBB1290-.Ltext0
 24025 0454 F4040000 		.4byte	.LBE1290-.Ltext0
 24026 0458 00000000 		.4byte	0
 24027 045c 00000000 		.4byte	0
 24028 0460 64040000 		.4byte	.LBB1249-.Ltext0
 24029 0464 66040000 		.4byte	.LBE1249-.Ltext0
 24030 0468 90040000 		.4byte	.LBB1258-.Ltext0
 24031 046c 92040000 		.4byte	.LBE1258-.Ltext0
 24032 0470 AA040000 		.4byte	.LBB1266-.Ltext0
 24033 0474 B4040000 		.4byte	.LBE1266-.Ltext0
 24034 0478 B8040000 		.4byte	.LBB1274-.Ltext0
 24035 047c BC040000 		.4byte	.LBE1274-.Ltext0
 24036 0480 00000000 		.4byte	0
 24037 0484 00000000 		.4byte	0
 24038 0488 90040000 		.4byte	.LBB1251-.Ltext0
 24039 048c 92040000 		.4byte	.LBE1251-.Ltext0
 24040 0490 AA040000 		.4byte	.LBB1254-.Ltext0
 24041 0494 B0040000 		.4byte	.LBE1254-.Ltext0
 24042 0498 00000000 		.4byte	0
 24043 049c 00000000 		.4byte	0
 24044 04a0 9A040000 		.4byte	.LBB1259-.Ltext0
 24045 04a4 9E040000 		.4byte	.LBE1259-.Ltext0
 24046 04a8 E2040000 		.4byte	.LBB1282-.Ltext0
 24047 04ac F0040000 		.4byte	.LBE1282-.Ltext0
 24048 04b0 00000000 		.4byte	0
 24049 04b4 00000000 		.4byte	0
 24050 04b8 B4040000 		.4byte	.LBB1267-.Ltext0
ARM GAS  /tmp/ccJJl1OT.s 			page 423


 24051 04bc B8040000 		.4byte	.LBE1267-.Ltext0
 24052 04c0 BC040000 		.4byte	.LBB1275-.Ltext0
 24053 04c4 C6040000 		.4byte	.LBE1275-.Ltext0
 24054 04c8 00000000 		.4byte	0
 24055 04cc 00000000 		.4byte	0
 24056 04d0 B4040000 		.4byte	.LBB1269-.Ltext0
 24057 04d4 B8040000 		.4byte	.LBE1269-.Ltext0
 24058 04d8 BC040000 		.4byte	.LBB1272-.Ltext0
 24059 04dc C2040000 		.4byte	.LBE1272-.Ltext0
 24060 04e0 00000000 		.4byte	0
 24061 04e4 00000000 		.4byte	0
 24062 04e8 C6040000 		.4byte	.LBB1276-.Ltext0
 24063 04ec CA040000 		.4byte	.LBE1276-.Ltext0
 24064 04f0 CE040000 		.4byte	.LBB1280-.Ltext0
 24065 04f4 D2040000 		.4byte	.LBE1280-.Ltext0
 24066 04f8 D6040000 		.4byte	.LBB1281-.Ltext0
 24067 04fc DE040000 		.4byte	.LBE1281-.Ltext0
 24068 0500 00000000 		.4byte	0
 24069 0504 00000000 		.4byte	0
 24070 0508 1C050000 		.4byte	.LBB1293-.Ltext0
 24071 050c 20050000 		.4byte	.LBE1293-.Ltext0
 24072 0510 24050000 		.4byte	.LBB1296-.Ltext0
 24073 0514 28050000 		.4byte	.LBE1296-.Ltext0
 24074 0518 00000000 		.4byte	0
 24075 051c 00000000 		.4byte	0
 24076 0520 62050000 		.4byte	.LBB1303-.Ltext0
 24077 0524 66050000 		.4byte	.LBE1303-.Ltext0
 24078 0528 6A050000 		.4byte	.LBB1306-.Ltext0
 24079 052c 6E050000 		.4byte	.LBE1306-.Ltext0
 24080 0530 00000000 		.4byte	0
 24081 0534 00000000 		.4byte	0
 24082 0538 9C050000 		.4byte	.LBB1313-.Ltext0
 24083 053c A0050000 		.4byte	.LBE1313-.Ltext0
 24084 0540 A4050000 		.4byte	.LBB1316-.Ltext0
 24085 0544 A8050000 		.4byte	.LBE1316-.Ltext0
 24086 0548 00000000 		.4byte	0
 24087 054c 00000000 		.4byte	0
 24088 0550 F0050000 		.4byte	.LBB1329-.Ltext0
 24089 0554 F2050000 		.4byte	.LBE1329-.Ltext0
 24090 0558 FE050000 		.4byte	.LBB1367-.Ltext0
 24091 055c 02060000 		.4byte	.LBE1367-.Ltext0
 24092 0560 06060000 		.4byte	.LBB1368-.Ltext0
 24093 0564 0E060000 		.4byte	.LBE1368-.Ltext0
 24094 0568 12060000 		.4byte	.LBB1369-.Ltext0
 24095 056c 16060000 		.4byte	.LBE1369-.Ltext0
 24096 0570 1A060000 		.4byte	.LBB1370-.Ltext0
 24097 0574 26060000 		.4byte	.LBE1370-.Ltext0
 24098 0578 28060000 		.4byte	.LBB1371-.Ltext0
 24099 057c 34060000 		.4byte	.LBE1371-.Ltext0
 24100 0580 36060000 		.4byte	.LBB1372-.Ltext0
 24101 0584 3A060000 		.4byte	.LBE1372-.Ltext0
 24102 0588 3C060000 		.4byte	.LBB1373-.Ltext0
 24103 058c 4A060000 		.4byte	.LBE1373-.Ltext0
 24104 0590 50060000 		.4byte	.LBB1407-.Ltext0
 24105 0594 54060000 		.4byte	.LBE1407-.Ltext0
 24106 0598 00000000 		.4byte	0
 24107 059c 00000000 		.4byte	0
ARM GAS  /tmp/ccJJl1OT.s 			page 424


 24108 05a0 F0050000 		.4byte	.LBB1331-.Ltext0
 24109 05a4 F2050000 		.4byte	.LBE1331-.Ltext0
 24110 05a8 FE050000 		.4byte	.LBB1339-.Ltext0
 24111 05ac 02060000 		.4byte	.LBE1339-.Ltext0
 24112 05b0 06060000 		.4byte	.LBB1340-.Ltext0
 24113 05b4 0E060000 		.4byte	.LBE1340-.Ltext0
 24114 05b8 00000000 		.4byte	0
 24115 05bc 00000000 		.4byte	0
 24116 05c0 F0050000 		.4byte	.LBB1333-.Ltext0
 24117 05c4 F2050000 		.4byte	.LBE1333-.Ltext0
 24118 05c8 FE050000 		.4byte	.LBB1336-.Ltext0
 24119 05cc 02060000 		.4byte	.LBE1336-.Ltext0
 24120 05d0 00000000 		.4byte	0
 24121 05d4 00000000 		.4byte	0
 24122 05d8 12060000 		.4byte	.LBB1341-.Ltext0
 24123 05dc 16060000 		.4byte	.LBE1341-.Ltext0
 24124 05e0 1A060000 		.4byte	.LBB1348-.Ltext0
 24125 05e4 22060000 		.4byte	.LBE1348-.Ltext0
 24126 05e8 00000000 		.4byte	0
 24127 05ec 00000000 		.4byte	0
 24128 05f0 12060000 		.4byte	.LBB1343-.Ltext0
 24129 05f4 16060000 		.4byte	.LBE1343-.Ltext0
 24130 05f8 1A060000 		.4byte	.LBB1346-.Ltext0
 24131 05fc 1E060000 		.4byte	.LBE1346-.Ltext0
 24132 0600 00000000 		.4byte	0
 24133 0604 00000000 		.4byte	0
 24134 0608 22060000 		.4byte	.LBB1349-.Ltext0
 24135 060c 26060000 		.4byte	.LBE1349-.Ltext0
 24136 0610 2C060000 		.4byte	.LBB1353-.Ltext0
 24137 0614 30060000 		.4byte	.LBE1353-.Ltext0
 24138 0618 36060000 		.4byte	.LBB1354-.Ltext0
 24139 061c 3A060000 		.4byte	.LBE1354-.Ltext0
 24140 0620 00000000 		.4byte	0
 24141 0624 00000000 		.4byte	0
 24142 0628 4A060000 		.4byte	.LBB1374-.Ltext0
 24143 062c 50060000 		.4byte	.LBE1374-.Ltext0
 24144 0630 54060000 		.4byte	.LBB1408-.Ltext0
 24145 0634 5C060000 		.4byte	.LBE1408-.Ltext0
 24146 0638 64060000 		.4byte	.LBB1409-.Ltext0
 24147 063c 7E060000 		.4byte	.LBE1409-.Ltext0
 24148 0640 82060000 		.4byte	.LBB1410-.Ltext0
 24149 0644 A4060000 		.4byte	.LBE1410-.Ltext0
 24150 0648 00000000 		.4byte	0
 24151 064c 00000000 		.4byte	0
 24152 0650 4A060000 		.4byte	.LBB1376-.Ltext0
 24153 0654 50060000 		.4byte	.LBE1376-.Ltext0
 24154 0658 54060000 		.4byte	.LBB1384-.Ltext0
 24155 065c 5C060000 		.4byte	.LBE1384-.Ltext0
 24156 0660 64060000 		.4byte	.LBB1385-.Ltext0
 24157 0664 68060000 		.4byte	.LBE1385-.Ltext0
 24158 0668 00000000 		.4byte	0
 24159 066c 00000000 		.4byte	0
 24160 0670 4A060000 		.4byte	.LBB1378-.Ltext0
 24161 0674 50060000 		.4byte	.LBE1378-.Ltext0
 24162 0678 54060000 		.4byte	.LBB1381-.Ltext0
 24163 067c 58060000 		.4byte	.LBE1381-.Ltext0
 24164 0680 00000000 		.4byte	0
ARM GAS  /tmp/ccJJl1OT.s 			page 425


 24165 0684 00000000 		.4byte	0
 24166 0688 7A060000 		.4byte	.LBB1390-.Ltext0
 24167 068c 7E060000 		.4byte	.LBE1390-.Ltext0
 24168 0690 82060000 		.4byte	.LBB1394-.Ltext0
 24169 0694 8E060000 		.4byte	.LBE1394-.Ltext0
 24170 0698 96060000 		.4byte	.LBB1402-.Ltext0
 24171 069c 9A060000 		.4byte	.LBE1402-.Ltext0
 24172 06a0 00000000 		.4byte	0
 24173 06a4 00000000 		.4byte	0
 24174 06a8 8E060000 		.4byte	.LBB1395-.Ltext0
 24175 06ac 96060000 		.4byte	.LBE1395-.Ltext0
 24176 06b0 9A060000 		.4byte	.LBB1403-.Ltext0
 24177 06b4 A0060000 		.4byte	.LBE1403-.Ltext0
 24178 06b8 00000000 		.4byte	0
 24179 06bc 00000000 		.4byte	0
 24180 06c0 F0060000 		.4byte	.LBB1427-.Ltext0
 24181 06c4 F8060000 		.4byte	.LBE1427-.Ltext0
 24182 06c8 FC060000 		.4byte	.LBB1457-.Ltext0
 24183 06cc 04070000 		.4byte	.LBE1457-.Ltext0
 24184 06d0 08070000 		.4byte	.LBB1459-.Ltext0
 24185 06d4 0E070000 		.4byte	.LBE1459-.Ltext0
 24186 06d8 40070000 		.4byte	.LBB1498-.Ltext0
 24187 06dc 44070000 		.4byte	.LBE1498-.Ltext0
 24188 06e0 00000000 		.4byte	0
 24189 06e4 00000000 		.4byte	0
 24190 06e8 FC060000 		.4byte	.LBB1431-.Ltext0
 24191 06ec 04070000 		.4byte	.LBE1431-.Ltext0
 24192 06f0 08070000 		.4byte	.LBB1438-.Ltext0
 24193 06f4 0E070000 		.4byte	.LBE1438-.Ltext0
 24194 06f8 00000000 		.4byte	0
 24195 06fc 00000000 		.4byte	0
 24196 0700 F8060000 		.4byte	.LBB1442-.Ltext0
 24197 0704 FC060000 		.4byte	.LBE1442-.Ltext0
 24198 0708 04070000 		.4byte	.LBB1458-.Ltext0
 24199 070c 08070000 		.4byte	.LBE1458-.Ltext0
 24200 0710 0E070000 		.4byte	.LBB1460-.Ltext0
 24201 0714 18070000 		.4byte	.LBE1460-.Ltext0
 24202 0718 1A070000 		.4byte	.LBB1495-.Ltext0
 24203 071c 1E070000 		.4byte	.LBE1495-.Ltext0
 24204 0720 00000000 		.4byte	0
 24205 0724 00000000 		.4byte	0
 24206 0728 04070000 		.4byte	.LBB1446-.Ltext0
 24207 072c 08070000 		.4byte	.LBE1446-.Ltext0
 24208 0730 0E070000 		.4byte	.LBB1453-.Ltext0
 24209 0734 18070000 		.4byte	.LBE1453-.Ltext0
 24210 0738 00000000 		.4byte	0
 24211 073c 00000000 		.4byte	0
 24212 0740 18070000 		.4byte	.LBB1461-.Ltext0
 24213 0744 1A070000 		.4byte	.LBE1461-.Ltext0
 24214 0748 1E070000 		.4byte	.LBB1496-.Ltext0
 24215 074c 2C070000 		.4byte	.LBE1496-.Ltext0
 24216 0750 34070000 		.4byte	.LBB1497-.Ltext0
 24217 0754 40070000 		.4byte	.LBE1497-.Ltext0
 24218 0758 44070000 		.4byte	.LBB1499-.Ltext0
 24219 075c 48070000 		.4byte	.LBE1499-.Ltext0
 24220 0760 50070000 		.4byte	.LBB1500-.Ltext0
 24221 0764 74070000 		.4byte	.LBE1500-.Ltext0
ARM GAS  /tmp/ccJJl1OT.s 			page 426


 24222 0768 00000000 		.4byte	0
 24223 076c 00000000 		.4byte	0
 24224 0770 18070000 		.4byte	.LBB1463-.Ltext0
 24225 0774 1A070000 		.4byte	.LBE1463-.Ltext0
 24226 0778 1E070000 		.4byte	.LBB1472-.Ltext0
 24227 077c 22070000 		.4byte	.LBE1472-.Ltext0
 24228 0780 24070000 		.4byte	.LBB1481-.Ltext0
 24229 0784 28070000 		.4byte	.LBE1481-.Ltext0
 24230 0788 34070000 		.4byte	.LBB1483-.Ltext0
 24231 078c 38070000 		.4byte	.LBE1483-.Ltext0
 24232 0790 00000000 		.4byte	0
 24233 0794 00000000 		.4byte	0
 24234 0798 18070000 		.4byte	.LBB1465-.Ltext0
 24235 079c 1A070000 		.4byte	.LBE1465-.Ltext0
 24236 07a0 1E070000 		.4byte	.LBB1468-.Ltext0
 24237 07a4 22070000 		.4byte	.LBE1468-.Ltext0
 24238 07a8 00000000 		.4byte	0
 24239 07ac 00000000 		.4byte	0
 24240 07b0 22070000 		.4byte	.LBB1473-.Ltext0
 24241 07b4 24070000 		.4byte	.LBE1473-.Ltext0
 24242 07b8 28070000 		.4byte	.LBB1482-.Ltext0
 24243 07bc 2C070000 		.4byte	.LBE1482-.Ltext0
 24244 07c0 38070000 		.4byte	.LBB1484-.Ltext0
 24245 07c4 3C070000 		.4byte	.LBE1484-.Ltext0
 24246 07c8 00000000 		.4byte	0
 24247 07cc 00000000 		.4byte	0
 24248 07d0 22070000 		.4byte	.LBB1475-.Ltext0
 24249 07d4 24070000 		.4byte	.LBE1475-.Ltext0
 24250 07d8 28070000 		.4byte	.LBB1478-.Ltext0
 24251 07dc 2C070000 		.4byte	.LBE1478-.Ltext0
 24252 07e0 00000000 		.4byte	0
 24253 07e4 00000000 		.4byte	0
 24254 07e8 3C070000 		.4byte	.LBB1485-.Ltext0
 24255 07ec 40070000 		.4byte	.LBE1485-.Ltext0
 24256 07f0 44070000 		.4byte	.LBB1489-.Ltext0
 24257 07f4 48070000 		.4byte	.LBE1489-.Ltext0
 24258 07f8 50070000 		.4byte	.LBB1490-.Ltext0
 24259 07fc 74070000 		.4byte	.LBE1490-.Ltext0
 24260 0800 00000000 		.4byte	0
 24261 0804 00000000 		.4byte	0
 24262 0808 7C070000 		.4byte	.LBB1501-.Ltext0
 24263 080c 84070000 		.4byte	.LBE1501-.Ltext0
 24264 0810 9C070000 		.4byte	.LBB1533-.Ltext0
 24265 0814 9E070000 		.4byte	.LBE1533-.Ltext0
 24266 0818 A6070000 		.4byte	.LBB1534-.Ltext0
 24267 081c AA070000 		.4byte	.LBE1534-.Ltext0
 24268 0820 AE070000 		.4byte	.LBB1535-.Ltext0
 24269 0824 F0070000 		.4byte	.LBE1535-.Ltext0
 24270 0828 F4070000 		.4byte	.LBB1536-.Ltext0
 24271 082c 06080000 		.4byte	.LBE1536-.Ltext0
 24272 0830 00000000 		.4byte	0
 24273 0834 00000000 		.4byte	0
 24274 0838 9C070000 		.4byte	.LBB1503-.Ltext0
 24275 083c 9E070000 		.4byte	.LBE1503-.Ltext0
 24276 0840 AE070000 		.4byte	.LBB1517-.Ltext0
 24277 0844 C0070000 		.4byte	.LBE1517-.Ltext0
 24278 0848 00000000 		.4byte	0
ARM GAS  /tmp/ccJJl1OT.s 			page 427


 24279 084c 00000000 		.4byte	0
 24280 0850 9C070000 		.4byte	.LBB1505-.Ltext0
 24281 0854 9E070000 		.4byte	.LBE1505-.Ltext0
 24282 0858 B0070000 		.4byte	.LBB1508-.Ltext0
 24283 085c B8070000 		.4byte	.LBE1508-.Ltext0
 24284 0860 00000000 		.4byte	0
 24285 0864 00000000 		.4byte	0
 24286 0868 A6070000 		.4byte	.LBB1510-.Ltext0
 24287 086c AA070000 		.4byte	.LBE1510-.Ltext0
 24288 0870 F4070000 		.4byte	.LBB1528-.Ltext0
 24289 0874 02080000 		.4byte	.LBE1528-.Ltext0
 24290 0878 00000000 		.4byte	0
 24291 087c 00000000 		.4byte	0
 24292 0880 D8070000 		.4byte	.LBB1522-.Ltext0
 24293 0884 DC070000 		.4byte	.LBE1522-.Ltext0
 24294 0888 E0070000 		.4byte	.LBB1526-.Ltext0
 24295 088c E4070000 		.4byte	.LBE1526-.Ltext0
 24296 0890 E8070000 		.4byte	.LBB1527-.Ltext0
 24297 0894 F0070000 		.4byte	.LBE1527-.Ltext0
 24298 0898 00000000 		.4byte	0
 24299 089c 00000000 		.4byte	0
 24300 08a0 2E080000 		.4byte	.LBB1539-.Ltext0
 24301 08a4 32080000 		.4byte	.LBE1539-.Ltext0
 24302 08a8 36080000 		.4byte	.LBB1542-.Ltext0
 24303 08ac 3A080000 		.4byte	.LBE1542-.Ltext0
 24304 08b0 00000000 		.4byte	0
 24305 08b4 00000000 		.4byte	0
 24306 08b8 82080000 		.4byte	.LBB1555-.Ltext0
 24307 08bc 84080000 		.4byte	.LBE1555-.Ltext0
 24308 08c0 90080000 		.4byte	.LBB1595-.Ltext0
 24309 08c4 94080000 		.4byte	.LBE1595-.Ltext0
 24310 08c8 98080000 		.4byte	.LBB1596-.Ltext0
 24311 08cc 9C080000 		.4byte	.LBE1596-.Ltext0
 24312 08d0 A4080000 		.4byte	.LBB1597-.Ltext0
 24313 08d4 AC080000 		.4byte	.LBE1597-.Ltext0
 24314 08d8 B0080000 		.4byte	.LBB1598-.Ltext0
 24315 08dc BC080000 		.4byte	.LBE1598-.Ltext0
 24316 08e0 BE080000 		.4byte	.LBB1599-.Ltext0
 24317 08e4 CA080000 		.4byte	.LBE1599-.Ltext0
 24318 08e8 CC080000 		.4byte	.LBB1600-.Ltext0
 24319 08ec D0080000 		.4byte	.LBE1600-.Ltext0
 24320 08f0 D2080000 		.4byte	.LBB1601-.Ltext0
 24321 08f4 E0080000 		.4byte	.LBE1601-.Ltext0
 24322 08f8 E6080000 		.4byte	.LBB1626-.Ltext0
 24323 08fc EA080000 		.4byte	.LBE1626-.Ltext0
 24324 0900 00000000 		.4byte	0
 24325 0904 00000000 		.4byte	0
 24326 0908 82080000 		.4byte	.LBB1557-.Ltext0
 24327 090c 84080000 		.4byte	.LBE1557-.Ltext0
 24328 0910 90080000 		.4byte	.LBB1566-.Ltext0
 24329 0914 94080000 		.4byte	.LBE1566-.Ltext0
 24330 0918 98080000 		.4byte	.LBB1567-.Ltext0
 24331 091c 9C080000 		.4byte	.LBE1567-.Ltext0
 24332 0920 A4080000 		.4byte	.LBB1568-.Ltext0
 24333 0924 A8080000 		.4byte	.LBE1568-.Ltext0
 24334 0928 00000000 		.4byte	0
 24335 092c 00000000 		.4byte	0
ARM GAS  /tmp/ccJJl1OT.s 			page 428


 24336 0930 82080000 		.4byte	.LBB1559-.Ltext0
 24337 0934 84080000 		.4byte	.LBE1559-.Ltext0
 24338 0938 90080000 		.4byte	.LBB1562-.Ltext0
 24339 093c 94080000 		.4byte	.LBE1562-.Ltext0
 24340 0940 00000000 		.4byte	0
 24341 0944 00000000 		.4byte	0
 24342 0948 A8080000 		.4byte	.LBB1569-.Ltext0
 24343 094c AC080000 		.4byte	.LBE1569-.Ltext0
 24344 0950 B0080000 		.4byte	.LBB1576-.Ltext0
 24345 0954 B8080000 		.4byte	.LBE1576-.Ltext0
 24346 0958 00000000 		.4byte	0
 24347 095c 00000000 		.4byte	0
 24348 0960 A8080000 		.4byte	.LBB1571-.Ltext0
 24349 0964 AC080000 		.4byte	.LBE1571-.Ltext0
 24350 0968 B0080000 		.4byte	.LBB1574-.Ltext0
 24351 096c B4080000 		.4byte	.LBE1574-.Ltext0
 24352 0970 00000000 		.4byte	0
 24353 0974 00000000 		.4byte	0
 24354 0978 B8080000 		.4byte	.LBB1577-.Ltext0
 24355 097c BC080000 		.4byte	.LBE1577-.Ltext0
 24356 0980 C2080000 		.4byte	.LBB1581-.Ltext0
 24357 0984 C6080000 		.4byte	.LBE1581-.Ltext0
 24358 0988 CC080000 		.4byte	.LBB1582-.Ltext0
 24359 098c D0080000 		.4byte	.LBE1582-.Ltext0
 24360 0990 00000000 		.4byte	0
 24361 0994 00000000 		.4byte	0
 24362 0998 E0080000 		.4byte	.LBB1602-.Ltext0
 24363 099c E6080000 		.4byte	.LBE1602-.Ltext0
 24364 09a0 EA080000 		.4byte	.LBB1627-.Ltext0
 24365 09a4 F4080000 		.4byte	.LBE1627-.Ltext0
 24366 09a8 FC080000 		.4byte	.LBB1628-.Ltext0
 24367 09ac 3A090000 		.4byte	.LBE1628-.Ltext0
 24368 09b0 00000000 		.4byte	0
 24369 09b4 00000000 		.4byte	0
 24370 09b8 E0080000 		.4byte	.LBB1604-.Ltext0
 24371 09bc E6080000 		.4byte	.LBE1604-.Ltext0
 24372 09c0 EA080000 		.4byte	.LBB1612-.Ltext0
 24373 09c4 F4080000 		.4byte	.LBE1612-.Ltext0
 24374 09c8 FC080000 		.4byte	.LBB1613-.Ltext0
 24375 09cc 00090000 		.4byte	.LBE1613-.Ltext0
 24376 09d0 00000000 		.4byte	0
 24377 09d4 00000000 		.4byte	0
 24378 09d8 E0080000 		.4byte	.LBB1606-.Ltext0
 24379 09dc E6080000 		.4byte	.LBE1606-.Ltext0
 24380 09e0 EA080000 		.4byte	.LBB1609-.Ltext0
 24381 09e4 F0080000 		.4byte	.LBE1609-.Ltext0
 24382 09e8 00000000 		.4byte	0
 24383 09ec 00000000 		.4byte	0
 24384 09f0 42090000 		.4byte	.LBB1629-.Ltext0
 24385 09f4 4A090000 		.4byte	.LBE1629-.Ltext0
 24386 09f8 4E090000 		.4byte	.LBB1659-.Ltext0
 24387 09fc 56090000 		.4byte	.LBE1659-.Ltext0
 24388 0a00 5A090000 		.4byte	.LBB1661-.Ltext0
 24389 0a04 60090000 		.4byte	.LBE1661-.Ltext0
 24390 0a08 74090000 		.4byte	.LBB1697-.Ltext0
 24391 0a0c 78090000 		.4byte	.LBE1697-.Ltext0
 24392 0a10 00000000 		.4byte	0
ARM GAS  /tmp/ccJJl1OT.s 			page 429


 24393 0a14 00000000 		.4byte	0
 24394 0a18 4E090000 		.4byte	.LBB1633-.Ltext0
 24395 0a1c 56090000 		.4byte	.LBE1633-.Ltext0
 24396 0a20 5A090000 		.4byte	.LBB1640-.Ltext0
 24397 0a24 60090000 		.4byte	.LBE1640-.Ltext0
 24398 0a28 00000000 		.4byte	0
 24399 0a2c 00000000 		.4byte	0
 24400 0a30 4A090000 		.4byte	.LBB1644-.Ltext0
 24401 0a34 4E090000 		.4byte	.LBE1644-.Ltext0
 24402 0a38 56090000 		.4byte	.LBB1660-.Ltext0
 24403 0a3c 5A090000 		.4byte	.LBE1660-.Ltext0
 24404 0a40 60090000 		.4byte	.LBB1662-.Ltext0
 24405 0a44 6A090000 		.4byte	.LBE1662-.Ltext0
 24406 0a48 78090000 		.4byte	.LBB1698-.Ltext0
 24407 0a4c 7C090000 		.4byte	.LBE1698-.Ltext0
 24408 0a50 00000000 		.4byte	0
 24409 0a54 00000000 		.4byte	0
 24410 0a58 56090000 		.4byte	.LBB1648-.Ltext0
 24411 0a5c 5A090000 		.4byte	.LBE1648-.Ltext0
 24412 0a60 60090000 		.4byte	.LBB1655-.Ltext0
 24413 0a64 6A090000 		.4byte	.LBE1655-.Ltext0
 24414 0a68 00000000 		.4byte	0
 24415 0a6c 00000000 		.4byte	0
 24416 0a70 6A090000 		.4byte	.LBB1663-.Ltext0
 24417 0a74 74090000 		.4byte	.LBE1663-.Ltext0
 24418 0a78 7C090000 		.4byte	.LBB1699-.Ltext0
 24419 0a7c 8A090000 		.4byte	.LBE1699-.Ltext0
 24420 0a80 9A090000 		.4byte	.LBB1700-.Ltext0
 24421 0a84 A2090000 		.4byte	.LBE1700-.Ltext0
 24422 0a88 A4090000 		.4byte	.LBB1701-.Ltext0
 24423 0a8c A8090000 		.4byte	.LBE1701-.Ltext0
 24424 0a90 AA090000 		.4byte	.LBB1702-.Ltext0
 24425 0a94 AE090000 		.4byte	.LBE1702-.Ltext0
 24426 0a98 B0090000 		.4byte	.LBB1703-.Ltext0
 24427 0a9c BE090000 		.4byte	.LBE1703-.Ltext0
 24428 0aa0 C4090000 		.4byte	.LBB1737-.Ltext0
 24429 0aa4 C8090000 		.4byte	.LBE1737-.Ltext0
 24430 0aa8 00000000 		.4byte	0
 24431 0aac 00000000 		.4byte	0
 24432 0ab0 6A090000 		.4byte	.LBB1665-.Ltext0
 24433 0ab4 70090000 		.4byte	.LBE1665-.Ltext0
 24434 0ab8 86090000 		.4byte	.LBB1679-.Ltext0
 24435 0abc 8A090000 		.4byte	.LBE1679-.Ltext0
 24436 0ac0 9A090000 		.4byte	.LBB1680-.Ltext0
 24437 0ac4 9E090000 		.4byte	.LBE1680-.Ltext0
 24438 0ac8 00000000 		.4byte	0
 24439 0acc 00000000 		.4byte	0
 24440 0ad0 70090000 		.4byte	.LBB1671-.Ltext0
 24441 0ad4 74090000 		.4byte	.LBE1671-.Ltext0
 24442 0ad8 7C090000 		.4byte	.LBB1678-.Ltext0
 24443 0adc 86090000 		.4byte	.LBE1678-.Ltext0
 24444 0ae0 00000000 		.4byte	0
 24445 0ae4 00000000 		.4byte	0
 24446 0ae8 70090000 		.4byte	.LBB1673-.Ltext0
 24447 0aec 74090000 		.4byte	.LBE1673-.Ltext0
 24448 0af0 7C090000 		.4byte	.LBB1676-.Ltext0
 24449 0af4 82090000 		.4byte	.LBE1676-.Ltext0
ARM GAS  /tmp/ccJJl1OT.s 			page 430


 24450 0af8 00000000 		.4byte	0
 24451 0afc 00000000 		.4byte	0
 24452 0b00 9E090000 		.4byte	.LBB1681-.Ltext0
 24453 0b04 A2090000 		.4byte	.LBE1681-.Ltext0
 24454 0b08 A4090000 		.4byte	.LBB1685-.Ltext0
 24455 0b0c A8090000 		.4byte	.LBE1685-.Ltext0
 24456 0b10 AA090000 		.4byte	.LBB1686-.Ltext0
 24457 0b14 AE090000 		.4byte	.LBE1686-.Ltext0
 24458 0b18 00000000 		.4byte	0
 24459 0b1c 00000000 		.4byte	0
 24460 0b20 BE090000 		.4byte	.LBB1704-.Ltext0
 24461 0b24 C4090000 		.4byte	.LBE1704-.Ltext0
 24462 0b28 C8090000 		.4byte	.LBB1738-.Ltext0
 24463 0b2c D0090000 		.4byte	.LBE1738-.Ltext0
 24464 0b30 D8090000 		.4byte	.LBB1739-.Ltext0
 24465 0b34 F2090000 		.4byte	.LBE1739-.Ltext0
 24466 0b38 F6090000 		.4byte	.LBB1740-.Ltext0
 24467 0b3c 180A0000 		.4byte	.LBE1740-.Ltext0
 24468 0b40 00000000 		.4byte	0
 24469 0b44 00000000 		.4byte	0
 24470 0b48 BE090000 		.4byte	.LBB1706-.Ltext0
 24471 0b4c C4090000 		.4byte	.LBE1706-.Ltext0
 24472 0b50 C8090000 		.4byte	.LBB1714-.Ltext0
 24473 0b54 D0090000 		.4byte	.LBE1714-.Ltext0
 24474 0b58 D8090000 		.4byte	.LBB1715-.Ltext0
 24475 0b5c DC090000 		.4byte	.LBE1715-.Ltext0
 24476 0b60 00000000 		.4byte	0
 24477 0b64 00000000 		.4byte	0
 24478 0b68 BE090000 		.4byte	.LBB1708-.Ltext0
 24479 0b6c C4090000 		.4byte	.LBE1708-.Ltext0
 24480 0b70 C8090000 		.4byte	.LBB1711-.Ltext0
 24481 0b74 CC090000 		.4byte	.LBE1711-.Ltext0
 24482 0b78 00000000 		.4byte	0
 24483 0b7c 00000000 		.4byte	0
 24484 0b80 EE090000 		.4byte	.LBB1720-.Ltext0
 24485 0b84 F2090000 		.4byte	.LBE1720-.Ltext0
 24486 0b88 F6090000 		.4byte	.LBB1724-.Ltext0
 24487 0b8c 020A0000 		.4byte	.LBE1724-.Ltext0
 24488 0b90 0A0A0000 		.4byte	.LBB1732-.Ltext0
 24489 0b94 0E0A0000 		.4byte	.LBE1732-.Ltext0
 24490 0b98 00000000 		.4byte	0
 24491 0b9c 00000000 		.4byte	0
 24492 0ba0 020A0000 		.4byte	.LBB1725-.Ltext0
 24493 0ba4 0A0A0000 		.4byte	.LBE1725-.Ltext0
 24494 0ba8 0E0A0000 		.4byte	.LBB1733-.Ltext0
 24495 0bac 140A0000 		.4byte	.LBE1733-.Ltext0
 24496 0bb0 00000000 		.4byte	0
 24497 0bb4 00000000 		.4byte	0
 24498 0bb8 200A0000 		.4byte	.LBB1741-.Ltext0
 24499 0bbc 280A0000 		.4byte	.LBE1741-.Ltext0
 24500 0bc0 2C0A0000 		.4byte	.LBB1773-.Ltext0
 24501 0bc4 380A0000 		.4byte	.LBE1773-.Ltext0
 24502 0bc8 3C0A0000 		.4byte	.LBB1775-.Ltext0
 24503 0bcc 420A0000 		.4byte	.LBE1775-.Ltext0
 24504 0bd0 780A0000 		.4byte	.LBB1814-.Ltext0
 24505 0bd4 7C0A0000 		.4byte	.LBE1814-.Ltext0
 24506 0bd8 00000000 		.4byte	0
ARM GAS  /tmp/ccJJl1OT.s 			page 431


 24507 0bdc 00000000 		.4byte	0
 24508 0be0 200A0000 		.4byte	.LBB1743-.Ltext0
 24509 0be4 280A0000 		.4byte	.LBE1743-.Ltext0
 24510 0be8 340A0000 		.4byte	.LBB1753-.Ltext0
 24511 0bec 380A0000 		.4byte	.LBE1753-.Ltext0
 24512 0bf0 00000000 		.4byte	0
 24513 0bf4 00000000 		.4byte	0
 24514 0bf8 2C0A0000 		.4byte	.LBB1746-.Ltext0
 24515 0bfc 340A0000 		.4byte	.LBE1746-.Ltext0
 24516 0c00 3C0A0000 		.4byte	.LBB1754-.Ltext0
 24517 0c04 420A0000 		.4byte	.LBE1754-.Ltext0
 24518 0c08 00000000 		.4byte	0
 24519 0c0c 00000000 		.4byte	0
 24520 0c10 280A0000 		.4byte	.LBB1758-.Ltext0
 24521 0c14 2C0A0000 		.4byte	.LBE1758-.Ltext0
 24522 0c18 380A0000 		.4byte	.LBB1774-.Ltext0
 24523 0c1c 3C0A0000 		.4byte	.LBE1774-.Ltext0
 24524 0c20 420A0000 		.4byte	.LBB1776-.Ltext0
 24525 0c24 4C0A0000 		.4byte	.LBE1776-.Ltext0
 24526 0c28 540A0000 		.4byte	.LBB1811-.Ltext0
 24527 0c2c 580A0000 		.4byte	.LBE1811-.Ltext0
 24528 0c30 00000000 		.4byte	0
 24529 0c34 00000000 		.4byte	0
 24530 0c38 380A0000 		.4byte	.LBB1762-.Ltext0
 24531 0c3c 3C0A0000 		.4byte	.LBE1762-.Ltext0
 24532 0c40 420A0000 		.4byte	.LBB1769-.Ltext0
 24533 0c44 4C0A0000 		.4byte	.LBE1769-.Ltext0
 24534 0c48 00000000 		.4byte	0
 24535 0c4c 00000000 		.4byte	0
 24536 0c50 4C0A0000 		.4byte	.LBB1777-.Ltext0
 24537 0c54 540A0000 		.4byte	.LBE1777-.Ltext0
 24538 0c58 580A0000 		.4byte	.LBB1812-.Ltext0
 24539 0c5c 640A0000 		.4byte	.LBE1812-.Ltext0
 24540 0c60 6C0A0000 		.4byte	.LBB1813-.Ltext0
 24541 0c64 780A0000 		.4byte	.LBE1813-.Ltext0
 24542 0c68 7C0A0000 		.4byte	.LBB1815-.Ltext0
 24543 0c6c 800A0000 		.4byte	.LBE1815-.Ltext0
 24544 0c70 880A0000 		.4byte	.LBB1816-.Ltext0
 24545 0c74 9A0A0000 		.4byte	.LBE1816-.Ltext0
 24546 0c78 00000000 		.4byte	0
 24547 0c7c 00000000 		.4byte	0
 24548 0c80 4C0A0000 		.4byte	.LBB1779-.Ltext0
 24549 0c84 520A0000 		.4byte	.LBE1779-.Ltext0
 24550 0c88 5C0A0000 		.4byte	.LBB1794-.Ltext0
 24551 0c8c 600A0000 		.4byte	.LBE1794-.Ltext0
 24552 0c90 700A0000 		.4byte	.LBB1800-.Ltext0
 24553 0c94 740A0000 		.4byte	.LBE1800-.Ltext0
 24554 0c98 00000000 		.4byte	0
 24555 0c9c 00000000 		.4byte	0
 24556 0ca0 520A0000 		.4byte	.LBB1785-.Ltext0
 24557 0ca4 540A0000 		.4byte	.LBE1785-.Ltext0
 24558 0ca8 580A0000 		.4byte	.LBB1793-.Ltext0
 24559 0cac 5C0A0000 		.4byte	.LBE1793-.Ltext0
 24560 0cb0 600A0000 		.4byte	.LBB1795-.Ltext0
 24561 0cb4 640A0000 		.4byte	.LBE1795-.Ltext0
 24562 0cb8 00000000 		.4byte	0
 24563 0cbc 00000000 		.4byte	0
ARM GAS  /tmp/ccJJl1OT.s 			page 432


 24564 0cc0 520A0000 		.4byte	.LBB1787-.Ltext0
 24565 0cc4 540A0000 		.4byte	.LBE1787-.Ltext0
 24566 0cc8 580A0000 		.4byte	.LBB1790-.Ltext0
 24567 0ccc 5C0A0000 		.4byte	.LBE1790-.Ltext0
 24568 0cd0 00000000 		.4byte	0
 24569 0cd4 00000000 		.4byte	0
 24570 0cd8 6C0A0000 		.4byte	.LBB1796-.Ltext0
 24571 0cdc 700A0000 		.4byte	.LBE1796-.Ltext0
 24572 0ce0 740A0000 		.4byte	.LBB1801-.Ltext0
 24573 0ce4 780A0000 		.4byte	.LBE1801-.Ltext0
 24574 0ce8 7C0A0000 		.4byte	.LBB1802-.Ltext0
 24575 0cec 800A0000 		.4byte	.LBE1802-.Ltext0
 24576 0cf0 00000000 		.4byte	0
 24577 0cf4 00000000 		.4byte	0
 24578 0cf8 C00A0000 		.4byte	.LBB1817-.Ltext0
 24579 0cfc C80A0000 		.4byte	.LBE1817-.Ltext0
 24580 0d00 E00A0000 		.4byte	.LBB1856-.Ltext0
 24581 0d04 E20A0000 		.4byte	.LBE1856-.Ltext0
 24582 0d08 EA0A0000 		.4byte	.LBB1857-.Ltext0
 24583 0d0c EE0A0000 		.4byte	.LBE1857-.Ltext0
 24584 0d10 F20A0000 		.4byte	.LBB1858-.Ltext0
 24585 0d14 2C0B0000 		.4byte	.LBE1858-.Ltext0
 24586 0d18 300B0000 		.4byte	.LBB1874-.Ltext0
 24587 0d1c 380B0000 		.4byte	.LBE1874-.Ltext0
 24588 0d20 3C0B0000 		.4byte	.LBB1876-.Ltext0
 24589 0d24 440B0000 		.4byte	.LBE1876-.Ltext0
 24590 0d28 480B0000 		.4byte	.LBB1878-.Ltext0
 24591 0d2c 4E0B0000 		.4byte	.LBE1878-.Ltext0
 24592 0d30 8A0B0000 		.4byte	.LBB1924-.Ltext0
 24593 0d34 8E0B0000 		.4byte	.LBE1924-.Ltext0
 24594 0d38 00000000 		.4byte	0
 24595 0d3c 00000000 		.4byte	0
 24596 0d40 E00A0000 		.4byte	.LBB1819-.Ltext0
 24597 0d44 E20A0000 		.4byte	.LBE1819-.Ltext0
 24598 0d48 F20A0000 		.4byte	.LBB1836-.Ltext0
 24599 0d4c 040B0000 		.4byte	.LBE1836-.Ltext0
 24600 0d50 00000000 		.4byte	0
 24601 0d54 00000000 		.4byte	0
 24602 0d58 E00A0000 		.4byte	.LBB1821-.Ltext0
 24603 0d5c E20A0000 		.4byte	.LBE1821-.Ltext0
 24604 0d60 F40A0000 		.4byte	.LBB1824-.Ltext0
 24605 0d64 FC0A0000 		.4byte	.LBE1824-.Ltext0
 24606 0d68 00000000 		.4byte	0
 24607 0d6c 00000000 		.4byte	0
 24608 0d70 EA0A0000 		.4byte	.LBB1826-.Ltext0
 24609 0d74 EE0A0000 		.4byte	.LBE1826-.Ltext0
 24610 0d78 3C0B0000 		.4byte	.LBB1847-.Ltext0
 24611 0d7c 440B0000 		.4byte	.LBE1847-.Ltext0
 24612 0d80 480B0000 		.4byte	.LBB1848-.Ltext0
 24613 0d84 4E0B0000 		.4byte	.LBE1848-.Ltext0
 24614 0d88 00000000 		.4byte	0
 24615 0d8c 00000000 		.4byte	0
 24616 0d90 1C0B0000 		.4byte	.LBB1841-.Ltext0
 24617 0d94 200B0000 		.4byte	.LBE1841-.Ltext0
 24618 0d98 240B0000 		.4byte	.LBB1845-.Ltext0
 24619 0d9c 280B0000 		.4byte	.LBE1845-.Ltext0
 24620 0da0 300B0000 		.4byte	.LBB1846-.Ltext0
ARM GAS  /tmp/ccJJl1OT.s 			page 433


 24621 0da4 380B0000 		.4byte	.LBE1846-.Ltext0
 24622 0da8 00000000 		.4byte	0
 24623 0dac 00000000 		.4byte	0
 24624 0db0 2C0B0000 		.4byte	.LBB1859-.Ltext0
 24625 0db4 300B0000 		.4byte	.LBE1859-.Ltext0
 24626 0db8 380B0000 		.4byte	.LBB1875-.Ltext0
 24627 0dbc 3C0B0000 		.4byte	.LBE1875-.Ltext0
 24628 0dc0 440B0000 		.4byte	.LBB1877-.Ltext0
 24629 0dc4 480B0000 		.4byte	.LBE1877-.Ltext0
 24630 0dc8 4E0B0000 		.4byte	.LBB1879-.Ltext0
 24631 0dcc 5C0B0000 		.4byte	.LBE1879-.Ltext0
 24632 0dd0 00000000 		.4byte	0
 24633 0dd4 00000000 		.4byte	0
 24634 0dd8 440B0000 		.4byte	.LBB1863-.Ltext0
 24635 0ddc 480B0000 		.4byte	.LBE1863-.Ltext0
 24636 0de0 4E0B0000 		.4byte	.LBB1870-.Ltext0
 24637 0de4 580B0000 		.4byte	.LBE1870-.Ltext0
 24638 0de8 00000000 		.4byte	0
 24639 0dec 00000000 		.4byte	0
 24640 0df0 600B0000 		.4byte	.LBB1880-.Ltext0
 24641 0df4 620B0000 		.4byte	.LBE1880-.Ltext0
 24642 0df8 6E0B0000 		.4byte	.LBB1921-.Ltext0
 24643 0dfc 720B0000 		.4byte	.LBE1921-.Ltext0
 24644 0e00 760B0000 		.4byte	.LBB1922-.Ltext0
 24645 0e04 7A0B0000 		.4byte	.LBE1922-.Ltext0
 24646 0e08 7E0B0000 		.4byte	.LBB1923-.Ltext0
 24647 0e0c 860B0000 		.4byte	.LBE1923-.Ltext0
 24648 0e10 8E0B0000 		.4byte	.LBB1925-.Ltext0
 24649 0e14 960B0000 		.4byte	.LBE1925-.Ltext0
 24650 0e18 9E0B0000 		.4byte	.LBB1926-.Ltext0
 24651 0e1c A60B0000 		.4byte	.LBE1926-.Ltext0
 24652 0e20 A80B0000 		.4byte	.LBB1927-.Ltext0
 24653 0e24 B00B0000 		.4byte	.LBE1927-.Ltext0
 24654 0e28 B20B0000 		.4byte	.LBB1928-.Ltext0
 24655 0e2c B60B0000 		.4byte	.LBE1928-.Ltext0
 24656 0e30 B80B0000 		.4byte	.LBB1929-.Ltext0
 24657 0e34 C60B0000 		.4byte	.LBE1929-.Ltext0
 24658 0e38 CC0B0000 		.4byte	.LBB1961-.Ltext0
 24659 0e3c D00B0000 		.4byte	.LBE1961-.Ltext0
 24660 0e40 00000000 		.4byte	0
 24661 0e44 00000000 		.4byte	0
 24662 0e48 600B0000 		.4byte	.LBB1882-.Ltext0
 24663 0e4c 620B0000 		.4byte	.LBE1882-.Ltext0
 24664 0e50 6E0B0000 		.4byte	.LBB1891-.Ltext0
 24665 0e54 720B0000 		.4byte	.LBE1891-.Ltext0
 24666 0e58 760B0000 		.4byte	.LBB1892-.Ltext0
 24667 0e5c 7A0B0000 		.4byte	.LBE1892-.Ltext0
 24668 0e60 7E0B0000 		.4byte	.LBB1893-.Ltext0
 24669 0e64 820B0000 		.4byte	.LBE1893-.Ltext0
 24670 0e68 00000000 		.4byte	0
 24671 0e6c 00000000 		.4byte	0
 24672 0e70 600B0000 		.4byte	.LBB1884-.Ltext0
 24673 0e74 620B0000 		.4byte	.LBE1884-.Ltext0
 24674 0e78 6E0B0000 		.4byte	.LBB1887-.Ltext0
 24675 0e7c 720B0000 		.4byte	.LBE1887-.Ltext0
 24676 0e80 00000000 		.4byte	0
 24677 0e84 00000000 		.4byte	0
ARM GAS  /tmp/ccJJl1OT.s 			page 434


 24678 0e88 820B0000 		.4byte	.LBB1894-.Ltext0
 24679 0e8c 860B0000 		.4byte	.LBE1894-.Ltext0
 24680 0e90 8E0B0000 		.4byte	.LBB1901-.Ltext0
 24681 0e94 960B0000 		.4byte	.LBE1901-.Ltext0
 24682 0e98 00000000 		.4byte	0
 24683 0e9c 00000000 		.4byte	0
 24684 0ea0 820B0000 		.4byte	.LBB1896-.Ltext0
 24685 0ea4 860B0000 		.4byte	.LBE1896-.Ltext0
 24686 0ea8 8E0B0000 		.4byte	.LBB1899-.Ltext0
 24687 0eac 920B0000 		.4byte	.LBE1899-.Ltext0
 24688 0eb0 00000000 		.4byte	0
 24689 0eb4 00000000 		.4byte	0
 24690 0eb8 A20B0000 		.4byte	.LBB1902-.Ltext0
 24691 0ebc A60B0000 		.4byte	.LBE1902-.Ltext0
 24692 0ec0 AC0B0000 		.4byte	.LBB1906-.Ltext0
 24693 0ec4 B00B0000 		.4byte	.LBE1906-.Ltext0
 24694 0ec8 B20B0000 		.4byte	.LBB1907-.Ltext0
 24695 0ecc B60B0000 		.4byte	.LBE1907-.Ltext0
 24696 0ed0 00000000 		.4byte	0
 24697 0ed4 00000000 		.4byte	0
 24698 0ed8 C60B0000 		.4byte	.LBB1930-.Ltext0
 24699 0edc CC0B0000 		.4byte	.LBE1930-.Ltext0
 24700 0ee0 D00B0000 		.4byte	.LBB1962-.Ltext0
 24701 0ee4 DA0B0000 		.4byte	.LBE1962-.Ltext0
 24702 0ee8 E20B0000 		.4byte	.LBB1963-.Ltext0
 24703 0eec 0E0C0000 		.4byte	.LBE1963-.Ltext0
 24704 0ef0 120C0000 		.4byte	.LBB1979-.Ltext0
 24705 0ef4 1A0C0000 		.4byte	.LBE1979-.Ltext0
 24706 0ef8 1E0C0000 		.4byte	.LBB1981-.Ltext0
 24707 0efc 240C0000 		.4byte	.LBE1981-.Ltext0
 24708 0f00 380C0000 		.4byte	.LBB2018-.Ltext0
 24709 0f04 3C0C0000 		.4byte	.LBE2018-.Ltext0
 24710 0f08 00000000 		.4byte	0
 24711 0f0c 00000000 		.4byte	0
 24712 0f10 C60B0000 		.4byte	.LBB1932-.Ltext0
 24713 0f14 CC0B0000 		.4byte	.LBE1932-.Ltext0
 24714 0f18 D00B0000 		.4byte	.LBB1940-.Ltext0
 24715 0f1c DA0B0000 		.4byte	.LBE1940-.Ltext0
 24716 0f20 E20B0000 		.4byte	.LBB1941-.Ltext0
 24717 0f24 E60B0000 		.4byte	.LBE1941-.Ltext0
 24718 0f28 00000000 		.4byte	0
 24719 0f2c 00000000 		.4byte	0
 24720 0f30 C60B0000 		.4byte	.LBB1934-.Ltext0
 24721 0f34 CC0B0000 		.4byte	.LBE1934-.Ltext0
 24722 0f38 D00B0000 		.4byte	.LBB1937-.Ltext0
 24723 0f3c D60B0000 		.4byte	.LBE1937-.Ltext0
 24724 0f40 00000000 		.4byte	0
 24725 0f44 00000000 		.4byte	0
 24726 0f48 120C0000 		.4byte	.LBB1948-.Ltext0
 24727 0f4c 1A0C0000 		.4byte	.LBE1948-.Ltext0
 24728 0f50 1E0C0000 		.4byte	.LBB1955-.Ltext0
 24729 0f54 240C0000 		.4byte	.LBE1955-.Ltext0
 24730 0f58 00000000 		.4byte	0
 24731 0f5c 00000000 		.4byte	0
 24732 0f60 0E0C0000 		.4byte	.LBB1964-.Ltext0
 24733 0f64 120C0000 		.4byte	.LBE1964-.Ltext0
 24734 0f68 1A0C0000 		.4byte	.LBB1980-.Ltext0
ARM GAS  /tmp/ccJJl1OT.s 			page 435


 24735 0f6c 1E0C0000 		.4byte	.LBE1980-.Ltext0
 24736 0f70 240C0000 		.4byte	.LBB1982-.Ltext0
 24737 0f74 2E0C0000 		.4byte	.LBE1982-.Ltext0
 24738 0f78 3C0C0000 		.4byte	.LBB2019-.Ltext0
 24739 0f7c 400C0000 		.4byte	.LBE2019-.Ltext0
 24740 0f80 00000000 		.4byte	0
 24741 0f84 00000000 		.4byte	0
 24742 0f88 1A0C0000 		.4byte	.LBB1968-.Ltext0
 24743 0f8c 1E0C0000 		.4byte	.LBE1968-.Ltext0
 24744 0f90 240C0000 		.4byte	.LBB1975-.Ltext0
 24745 0f94 2E0C0000 		.4byte	.LBE1975-.Ltext0
 24746 0f98 00000000 		.4byte	0
 24747 0f9c 00000000 		.4byte	0
 24748 0fa0 2E0C0000 		.4byte	.LBB1983-.Ltext0
 24749 0fa4 380C0000 		.4byte	.LBE1983-.Ltext0
 24750 0fa8 400C0000 		.4byte	.LBB2020-.Ltext0
 24751 0fac 4E0C0000 		.4byte	.LBE2020-.Ltext0
 24752 0fb0 5A0C0000 		.4byte	.LBB2021-.Ltext0
 24753 0fb4 5E0C0000 		.4byte	.LBE2021-.Ltext0
 24754 0fb8 620C0000 		.4byte	.LBB2022-.Ltext0
 24755 0fbc 660C0000 		.4byte	.LBE2022-.Ltext0
 24756 0fc0 680C0000 		.4byte	.LBB2023-.Ltext0
 24757 0fc4 6C0C0000 		.4byte	.LBE2023-.Ltext0
 24758 0fc8 6E0C0000 		.4byte	.LBB2024-.Ltext0
 24759 0fcc 720C0000 		.4byte	.LBE2024-.Ltext0
 24760 0fd0 740C0000 		.4byte	.LBB2025-.Ltext0
 24761 0fd4 820C0000 		.4byte	.LBE2025-.Ltext0
 24762 0fd8 880C0000 		.4byte	.LBB2057-.Ltext0
 24763 0fdc 8C0C0000 		.4byte	.LBE2057-.Ltext0
 24764 0fe0 00000000 		.4byte	0
 24765 0fe4 00000000 		.4byte	0
 24766 0fe8 2E0C0000 		.4byte	.LBB1985-.Ltext0
 24767 0fec 340C0000 		.4byte	.LBE1985-.Ltext0
 24768 0ff0 4A0C0000 		.4byte	.LBB1999-.Ltext0
 24769 0ff4 4E0C0000 		.4byte	.LBE1999-.Ltext0
 24770 0ff8 620C0000 		.4byte	.LBB2004-.Ltext0
 24771 0ffc 660C0000 		.4byte	.LBE2004-.Ltext0
 24772 1000 00000000 		.4byte	0
 24773 1004 00000000 		.4byte	0
 24774 1008 340C0000 		.4byte	.LBB1991-.Ltext0
 24775 100c 380C0000 		.4byte	.LBE1991-.Ltext0
 24776 1010 400C0000 		.4byte	.LBB1998-.Ltext0
 24777 1014 4A0C0000 		.4byte	.LBE1998-.Ltext0
 24778 1018 00000000 		.4byte	0
 24779 101c 00000000 		.4byte	0
 24780 1020 340C0000 		.4byte	.LBB1993-.Ltext0
 24781 1024 380C0000 		.4byte	.LBE1993-.Ltext0
 24782 1028 400C0000 		.4byte	.LBB1996-.Ltext0
 24783 102c 460C0000 		.4byte	.LBE1996-.Ltext0
 24784 1030 00000000 		.4byte	0
 24785 1034 00000000 		.4byte	0
 24786 1038 5A0C0000 		.4byte	.LBB2000-.Ltext0
 24787 103c 5E0C0000 		.4byte	.LBE2000-.Ltext0
 24788 1040 680C0000 		.4byte	.LBB2005-.Ltext0
 24789 1044 6C0C0000 		.4byte	.LBE2005-.Ltext0
 24790 1048 6E0C0000 		.4byte	.LBB2006-.Ltext0
 24791 104c 720C0000 		.4byte	.LBE2006-.Ltext0
ARM GAS  /tmp/ccJJl1OT.s 			page 436


 24792 1050 00000000 		.4byte	0
 24793 1054 00000000 		.4byte	0
 24794 1058 820C0000 		.4byte	.LBB2026-.Ltext0
 24795 105c 880C0000 		.4byte	.LBE2026-.Ltext0
 24796 1060 8C0C0000 		.4byte	.LBB2058-.Ltext0
 24797 1064 960C0000 		.4byte	.LBE2058-.Ltext0
 24798 1068 9E0C0000 		.4byte	.LBB2059-.Ltext0
 24799 106c CA0C0000 		.4byte	.LBE2059-.Ltext0
 24800 1070 CE0C0000 		.4byte	.LBB2075-.Ltext0
 24801 1074 D60C0000 		.4byte	.LBE2075-.Ltext0
 24802 1078 DA0C0000 		.4byte	.LBB2077-.Ltext0
 24803 107c E00C0000 		.4byte	.LBE2077-.Ltext0
 24804 1080 F40C0000 		.4byte	.LBB2114-.Ltext0
 24805 1084 F80C0000 		.4byte	.LBE2114-.Ltext0
 24806 1088 00000000 		.4byte	0
 24807 108c 00000000 		.4byte	0
 24808 1090 820C0000 		.4byte	.LBB2028-.Ltext0
 24809 1094 880C0000 		.4byte	.LBE2028-.Ltext0
 24810 1098 8C0C0000 		.4byte	.LBB2036-.Ltext0
 24811 109c 960C0000 		.4byte	.LBE2036-.Ltext0
 24812 10a0 9E0C0000 		.4byte	.LBB2037-.Ltext0
 24813 10a4 A20C0000 		.4byte	.LBE2037-.Ltext0
 24814 10a8 00000000 		.4byte	0
 24815 10ac 00000000 		.4byte	0
 24816 10b0 820C0000 		.4byte	.LBB2030-.Ltext0
 24817 10b4 880C0000 		.4byte	.LBE2030-.Ltext0
 24818 10b8 8C0C0000 		.4byte	.LBB2033-.Ltext0
 24819 10bc 920C0000 		.4byte	.LBE2033-.Ltext0
 24820 10c0 00000000 		.4byte	0
 24821 10c4 00000000 		.4byte	0
 24822 10c8 CE0C0000 		.4byte	.LBB2044-.Ltext0
 24823 10cc D60C0000 		.4byte	.LBE2044-.Ltext0
 24824 10d0 DA0C0000 		.4byte	.LBB2051-.Ltext0
 24825 10d4 E00C0000 		.4byte	.LBE2051-.Ltext0
 24826 10d8 00000000 		.4byte	0
 24827 10dc 00000000 		.4byte	0
 24828 10e0 CA0C0000 		.4byte	.LBB2060-.Ltext0
 24829 10e4 CE0C0000 		.4byte	.LBE2060-.Ltext0
 24830 10e8 D60C0000 		.4byte	.LBB2076-.Ltext0
 24831 10ec DA0C0000 		.4byte	.LBE2076-.Ltext0
 24832 10f0 E00C0000 		.4byte	.LBB2078-.Ltext0
 24833 10f4 EA0C0000 		.4byte	.LBE2078-.Ltext0
 24834 10f8 F80C0000 		.4byte	.LBB2115-.Ltext0
 24835 10fc FC0C0000 		.4byte	.LBE2115-.Ltext0
 24836 1100 00000000 		.4byte	0
 24837 1104 00000000 		.4byte	0
 24838 1108 D60C0000 		.4byte	.LBB2064-.Ltext0
 24839 110c DA0C0000 		.4byte	.LBE2064-.Ltext0
 24840 1110 E00C0000 		.4byte	.LBB2071-.Ltext0
 24841 1114 EA0C0000 		.4byte	.LBE2071-.Ltext0
 24842 1118 00000000 		.4byte	0
 24843 111c 00000000 		.4byte	0
 24844 1120 EA0C0000 		.4byte	.LBB2079-.Ltext0
 24845 1124 F40C0000 		.4byte	.LBE2079-.Ltext0
 24846 1128 FC0C0000 		.4byte	.LBB2116-.Ltext0
 24847 112c 0A0D0000 		.4byte	.LBE2116-.Ltext0
 24848 1130 120D0000 		.4byte	.LBB2117-.Ltext0
ARM GAS  /tmp/ccJJl1OT.s 			page 437


 24849 1134 160D0000 		.4byte	.LBE2117-.Ltext0
 24850 1138 1E0D0000 		.4byte	.LBB2118-.Ltext0
 24851 113c 220D0000 		.4byte	.LBE2118-.Ltext0
 24852 1140 240D0000 		.4byte	.LBB2119-.Ltext0
 24853 1144 280D0000 		.4byte	.LBE2119-.Ltext0
 24854 1148 2A0D0000 		.4byte	.LBB2120-.Ltext0
 24855 114c 2E0D0000 		.4byte	.LBE2120-.Ltext0
 24856 1150 300D0000 		.4byte	.LBB2121-.Ltext0
 24857 1154 3E0D0000 		.4byte	.LBE2121-.Ltext0
 24858 1158 440D0000 		.4byte	.LBB2158-.Ltext0
 24859 115c 480D0000 		.4byte	.LBE2158-.Ltext0
 24860 1160 00000000 		.4byte	0
 24861 1164 00000000 		.4byte	0
 24862 1168 EA0C0000 		.4byte	.LBB2081-.Ltext0
 24863 116c F00C0000 		.4byte	.LBE2081-.Ltext0
 24864 1170 060D0000 		.4byte	.LBB2095-.Ltext0
 24865 1174 0A0D0000 		.4byte	.LBE2095-.Ltext0
 24866 1178 1E0D0000 		.4byte	.LBB2100-.Ltext0
 24867 117c 220D0000 		.4byte	.LBE2100-.Ltext0
 24868 1180 00000000 		.4byte	0
 24869 1184 00000000 		.4byte	0
 24870 1188 F00C0000 		.4byte	.LBB2087-.Ltext0
 24871 118c F40C0000 		.4byte	.LBE2087-.Ltext0
 24872 1190 FC0C0000 		.4byte	.LBB2094-.Ltext0
 24873 1194 060D0000 		.4byte	.LBE2094-.Ltext0
 24874 1198 00000000 		.4byte	0
 24875 119c 00000000 		.4byte	0
 24876 11a0 F00C0000 		.4byte	.LBB2089-.Ltext0
 24877 11a4 F40C0000 		.4byte	.LBE2089-.Ltext0
 24878 11a8 FC0C0000 		.4byte	.LBB2092-.Ltext0
 24879 11ac 020D0000 		.4byte	.LBE2092-.Ltext0
 24880 11b0 00000000 		.4byte	0
 24881 11b4 00000000 		.4byte	0
 24882 11b8 120D0000 		.4byte	.LBB2096-.Ltext0
 24883 11bc 160D0000 		.4byte	.LBE2096-.Ltext0
 24884 11c0 240D0000 		.4byte	.LBB2101-.Ltext0
 24885 11c4 280D0000 		.4byte	.LBE2101-.Ltext0
 24886 11c8 2A0D0000 		.4byte	.LBB2102-.Ltext0
 24887 11cc 2E0D0000 		.4byte	.LBE2102-.Ltext0
 24888 11d0 00000000 		.4byte	0
 24889 11d4 00000000 		.4byte	0
 24890 11d8 3E0D0000 		.4byte	.LBB2122-.Ltext0
 24891 11dc 440D0000 		.4byte	.LBE2122-.Ltext0
 24892 11e0 480D0000 		.4byte	.LBB2159-.Ltext0
 24893 11e4 500D0000 		.4byte	.LBE2159-.Ltext0
 24894 11e8 580D0000 		.4byte	.LBB2160-.Ltext0
 24895 11ec 720D0000 		.4byte	.LBE2160-.Ltext0
 24896 11f0 760D0000 		.4byte	.LBB2161-.Ltext0
 24897 11f4 820D0000 		.4byte	.LBE2161-.Ltext0
 24898 11f8 860D0000 		.4byte	.LBB2177-.Ltext0
 24899 11fc 920D0000 		.4byte	.LBE2177-.Ltext0
 24900 1200 960D0000 		.4byte	.LBB2179-.Ltext0
 24901 1204 9C0D0000 		.4byte	.LBE2179-.Ltext0
 24902 1208 D20D0000 		.4byte	.LBB2223-.Ltext0
 24903 120c D60D0000 		.4byte	.LBE2223-.Ltext0
 24904 1210 00000000 		.4byte	0
 24905 1214 00000000 		.4byte	0
ARM GAS  /tmp/ccJJl1OT.s 			page 438


 24906 1218 3E0D0000 		.4byte	.LBB2124-.Ltext0
 24907 121c 440D0000 		.4byte	.LBE2124-.Ltext0
 24908 1220 480D0000 		.4byte	.LBB2132-.Ltext0
 24909 1224 500D0000 		.4byte	.LBE2132-.Ltext0
 24910 1228 580D0000 		.4byte	.LBB2133-.Ltext0
 24911 122c 5C0D0000 		.4byte	.LBE2133-.Ltext0
 24912 1230 00000000 		.4byte	0
 24913 1234 00000000 		.4byte	0
 24914 1238 3E0D0000 		.4byte	.LBB2126-.Ltext0
 24915 123c 440D0000 		.4byte	.LBE2126-.Ltext0
 24916 1240 480D0000 		.4byte	.LBB2129-.Ltext0
 24917 1244 4C0D0000 		.4byte	.LBE2129-.Ltext0
 24918 1248 00000000 		.4byte	0
 24919 124c 00000000 		.4byte	0
 24920 1250 6E0D0000 		.4byte	.LBB2138-.Ltext0
 24921 1254 720D0000 		.4byte	.LBE2138-.Ltext0
 24922 1258 760D0000 		.4byte	.LBB2142-.Ltext0
 24923 125c 820D0000 		.4byte	.LBE2142-.Ltext0
 24924 1260 8E0D0000 		.4byte	.LBB2150-.Ltext0
 24925 1264 920D0000 		.4byte	.LBE2150-.Ltext0
 24926 1268 00000000 		.4byte	0
 24927 126c 00000000 		.4byte	0
 24928 1270 860D0000 		.4byte	.LBB2143-.Ltext0
 24929 1274 8E0D0000 		.4byte	.LBE2143-.Ltext0
 24930 1278 960D0000 		.4byte	.LBB2151-.Ltext0
 24931 127c 9C0D0000 		.4byte	.LBE2151-.Ltext0
 24932 1280 00000000 		.4byte	0
 24933 1284 00000000 		.4byte	0
 24934 1288 820D0000 		.4byte	.LBB2162-.Ltext0
 24935 128c 860D0000 		.4byte	.LBE2162-.Ltext0
 24936 1290 920D0000 		.4byte	.LBB2178-.Ltext0
 24937 1294 960D0000 		.4byte	.LBE2178-.Ltext0
 24938 1298 9C0D0000 		.4byte	.LBB2180-.Ltext0
 24939 129c A60D0000 		.4byte	.LBE2180-.Ltext0
 24940 12a0 AE0D0000 		.4byte	.LBB2220-.Ltext0
 24941 12a4 B20D0000 		.4byte	.LBE2220-.Ltext0
 24942 12a8 00000000 		.4byte	0
 24943 12ac 00000000 		.4byte	0
 24944 12b0 920D0000 		.4byte	.LBB2166-.Ltext0
 24945 12b4 960D0000 		.4byte	.LBE2166-.Ltext0
 24946 12b8 9C0D0000 		.4byte	.LBB2173-.Ltext0
 24947 12bc A60D0000 		.4byte	.LBE2173-.Ltext0
 24948 12c0 00000000 		.4byte	0
 24949 12c4 00000000 		.4byte	0
 24950 12c8 A60D0000 		.4byte	.LBB2181-.Ltext0
 24951 12cc AE0D0000 		.4byte	.LBE2181-.Ltext0
 24952 12d0 B20D0000 		.4byte	.LBB2221-.Ltext0
 24953 12d4 BE0D0000 		.4byte	.LBE2221-.Ltext0
 24954 12d8 C60D0000 		.4byte	.LBB2222-.Ltext0
 24955 12dc D20D0000 		.4byte	.LBE2222-.Ltext0
 24956 12e0 D60D0000 		.4byte	.LBB2224-.Ltext0
 24957 12e4 DA0D0000 		.4byte	.LBE2224-.Ltext0
 24958 12e8 DE0D0000 		.4byte	.LBB2225-.Ltext0
 24959 12ec F00D0000 		.4byte	.LBE2225-.Ltext0
 24960 12f0 040E0000 		.4byte	.LBB2226-.Ltext0
 24961 12f4 0C0E0000 		.4byte	.LBE2226-.Ltext0
 24962 12f8 00000000 		.4byte	0
ARM GAS  /tmp/ccJJl1OT.s 			page 439


 24963 12fc 00000000 		.4byte	0
 24964 1300 A60D0000 		.4byte	.LBB2183-.Ltext0
 24965 1304 AC0D0000 		.4byte	.LBE2183-.Ltext0
 24966 1308 B60D0000 		.4byte	.LBB2198-.Ltext0
 24967 130c BA0D0000 		.4byte	.LBE2198-.Ltext0
 24968 1310 CA0D0000 		.4byte	.LBB2204-.Ltext0
 24969 1314 CE0D0000 		.4byte	.LBE2204-.Ltext0
 24970 1318 00000000 		.4byte	0
 24971 131c 00000000 		.4byte	0
 24972 1320 AC0D0000 		.4byte	.LBB2189-.Ltext0
 24973 1324 AE0D0000 		.4byte	.LBE2189-.Ltext0
 24974 1328 B20D0000 		.4byte	.LBB2197-.Ltext0
 24975 132c B60D0000 		.4byte	.LBE2197-.Ltext0
 24976 1330 BA0D0000 		.4byte	.LBB2199-.Ltext0
 24977 1334 BE0D0000 		.4byte	.LBE2199-.Ltext0
 24978 1338 00000000 		.4byte	0
 24979 133c 00000000 		.4byte	0
 24980 1340 AC0D0000 		.4byte	.LBB2191-.Ltext0
 24981 1344 AE0D0000 		.4byte	.LBE2191-.Ltext0
 24982 1348 B20D0000 		.4byte	.LBB2194-.Ltext0
 24983 134c B60D0000 		.4byte	.LBE2194-.Ltext0
 24984 1350 00000000 		.4byte	0
 24985 1354 00000000 		.4byte	0
 24986 1358 C60D0000 		.4byte	.LBB2200-.Ltext0
 24987 135c CA0D0000 		.4byte	.LBE2200-.Ltext0
 24988 1360 CE0D0000 		.4byte	.LBB2205-.Ltext0
 24989 1364 D20D0000 		.4byte	.LBE2205-.Ltext0
 24990 1368 D60D0000 		.4byte	.LBB2206-.Ltext0
 24991 136c DA0D0000 		.4byte	.LBE2206-.Ltext0
 24992 1370 00000000 		.4byte	0
 24993 1374 00000000 		.4byte	0
 24994 1378 DE0D0000 		.4byte	.LBB2207-.Ltext0
 24995 137c EC0D0000 		.4byte	.LBE2207-.Ltext0
 24996 1380 040E0000 		.4byte	.LBB2214-.Ltext0
 24997 1384 0C0E0000 		.4byte	.LBE2214-.Ltext0
 24998 1388 00000000 		.4byte	0
 24999 138c 00000000 		.4byte	0
 25000 1390 480E0000 		.4byte	.LBB2229-.Ltext0
 25001 1394 5C0E0000 		.4byte	.LBE2229-.Ltext0
 25002 1398 780E0000 		.4byte	.LBB2663-.Ltext0
 25003 139c CC1C0000 		.4byte	.LBE2663-.Ltext0
 25004 13a0 00000000 		.4byte	0
 25005 13a4 00000000 		.4byte	0
 25006 13a8 480E0000 		.4byte	.LBB2230-.Ltext0
 25007 13ac 500E0000 		.4byte	.LBE2230-.Ltext0
 25008 13b0 6A180000 		.4byte	.LBB2526-.Ltext0
 25009 13b4 B0180000 		.4byte	.LBE2526-.Ltext0
 25010 13b8 B4180000 		.4byte	.LBB2538-.Ltext0
 25011 13bc BA180000 		.4byte	.LBE2538-.Ltext0
 25012 13c0 00000000 		.4byte	0
 25013 13c4 00000000 		.4byte	0
 25014 13c8 8C180000 		.4byte	.LBB2232-.Ltext0
 25015 13cc 90180000 		.4byte	.LBE2232-.Ltext0
 25016 13d0 9C180000 		.4byte	.LBB2236-.Ltext0
 25017 13d4 A8180000 		.4byte	.LBE2236-.Ltext0
 25018 13d8 AC180000 		.4byte	.LBB2237-.Ltext0
 25019 13dc B0180000 		.4byte	.LBE2237-.Ltext0
ARM GAS  /tmp/ccJJl1OT.s 			page 440


 25020 13e0 00000000 		.4byte	0
 25021 13e4 00000000 		.4byte	0
 25022 13e8 500E0000 		.4byte	.LBB2240-.Ltext0
 25023 13ec 540E0000 		.4byte	.LBE2240-.Ltext0
 25024 13f0 70130000 		.4byte	.LBB2383-.Ltext0
 25025 13f4 D0130000 		.4byte	.LBE2383-.Ltext0
 25026 13f8 D8130000 		.4byte	.LBB2391-.Ltext0
 25027 13fc DE130000 		.4byte	.LBE2391-.Ltext0
 25028 1400 E2130000 		.4byte	.LBB2393-.Ltext0
 25029 1404 E6130000 		.4byte	.LBE2393-.Ltext0
 25030 1408 00000000 		.4byte	0
 25031 140c 00000000 		.4byte	0
 25032 1410 540E0000 		.4byte	.LBB2245-.Ltext0
 25033 1414 580E0000 		.4byte	.LBE2245-.Ltext0
 25034 1418 B00E0000 		.4byte	.LBB2250-.Ltext0
 25035 141c 100F0000 		.4byte	.LBE2250-.Ltext0
 25036 1420 180F0000 		.4byte	.LBB2258-.Ltext0
 25037 1424 1E0F0000 		.4byte	.LBE2258-.Ltext0
 25038 1428 220F0000 		.4byte	.LBB2260-.Ltext0
 25039 142c 260F0000 		.4byte	.LBE2260-.Ltext0
 25040 1430 00000000 		.4byte	0
 25041 1434 00000000 		.4byte	0
 25042 1438 140F0000 		.4byte	.LBB2251-.Ltext0
 25043 143c 180F0000 		.4byte	.LBE2251-.Ltext0
 25044 1440 1E0F0000 		.4byte	.LBB2259-.Ltext0
 25045 1444 220F0000 		.4byte	.LBE2259-.Ltext0
 25046 1448 260F0000 		.4byte	.LBB2261-.Ltext0
 25047 144c 500F0000 		.4byte	.LBE2261-.Ltext0
 25048 1450 540F0000 		.4byte	.LBB2262-.Ltext0
 25049 1454 600F0000 		.4byte	.LBE2262-.Ltext0
 25050 1458 6C0F0000 		.4byte	.LBB2263-.Ltext0
 25051 145c 720F0000 		.4byte	.LBE2263-.Ltext0
 25052 1460 7E0F0000 		.4byte	.LBB2271-.Ltext0
 25053 1464 840F0000 		.4byte	.LBE2271-.Ltext0
 25054 1468 00000000 		.4byte	0
 25055 146c 00000000 		.4byte	0
 25056 1470 7A0F0000 		.4byte	.LBB2264-.Ltext0
 25057 1474 7E0F0000 		.4byte	.LBE2264-.Ltext0
 25058 1478 840F0000 		.4byte	.LBB2272-.Ltext0
 25059 147c 880F0000 		.4byte	.LBE2272-.Ltext0
 25060 1480 8C0F0000 		.4byte	.LBB2273-.Ltext0
 25061 1484 B60F0000 		.4byte	.LBE2273-.Ltext0
 25062 1488 BA0F0000 		.4byte	.LBB2274-.Ltext0
 25063 148c C60F0000 		.4byte	.LBE2274-.Ltext0
 25064 1490 D20F0000 		.4byte	.LBB2275-.Ltext0
 25065 1494 D80F0000 		.4byte	.LBE2275-.Ltext0
 25066 1498 E40F0000 		.4byte	.LBB2283-.Ltext0
 25067 149c EA0F0000 		.4byte	.LBE2283-.Ltext0
 25068 14a0 00000000 		.4byte	0
 25069 14a4 00000000 		.4byte	0
 25070 14a8 E00F0000 		.4byte	.LBB2276-.Ltext0
 25071 14ac E40F0000 		.4byte	.LBE2276-.Ltext0
 25072 14b0 EA0F0000 		.4byte	.LBB2284-.Ltext0
 25073 14b4 EE0F0000 		.4byte	.LBE2284-.Ltext0
 25074 14b8 F20F0000 		.4byte	.LBB2285-.Ltext0
 25075 14bc 1C100000 		.4byte	.LBE2285-.Ltext0
 25076 14c0 20100000 		.4byte	.LBB2286-.Ltext0
ARM GAS  /tmp/ccJJl1OT.s 			page 441


 25077 14c4 2C100000 		.4byte	.LBE2286-.Ltext0
 25078 14c8 38100000 		.4byte	.LBB2287-.Ltext0
 25079 14cc 3E100000 		.4byte	.LBE2287-.Ltext0
 25080 14d0 4A100000 		.4byte	.LBB2295-.Ltext0
 25081 14d4 50100000 		.4byte	.LBE2295-.Ltext0
 25082 14d8 00000000 		.4byte	0
 25083 14dc 00000000 		.4byte	0
 25084 14e0 46100000 		.4byte	.LBB2288-.Ltext0
 25085 14e4 4A100000 		.4byte	.LBE2288-.Ltext0
 25086 14e8 50100000 		.4byte	.LBB2296-.Ltext0
 25087 14ec 54100000 		.4byte	.LBE2296-.Ltext0
 25088 14f0 58100000 		.4byte	.LBB2297-.Ltext0
 25089 14f4 82100000 		.4byte	.LBE2297-.Ltext0
 25090 14f8 86100000 		.4byte	.LBB2298-.Ltext0
 25091 14fc 92100000 		.4byte	.LBE2298-.Ltext0
 25092 1500 9E100000 		.4byte	.LBB2299-.Ltext0
 25093 1504 A4100000 		.4byte	.LBE2299-.Ltext0
 25094 1508 B0100000 		.4byte	.LBB2307-.Ltext0
 25095 150c B6100000 		.4byte	.LBE2307-.Ltext0
 25096 1510 00000000 		.4byte	0
 25097 1514 00000000 		.4byte	0
 25098 1518 AC100000 		.4byte	.LBB2300-.Ltext0
 25099 151c B0100000 		.4byte	.LBE2300-.Ltext0
 25100 1520 B6100000 		.4byte	.LBB2308-.Ltext0
 25101 1524 BA100000 		.4byte	.LBE2308-.Ltext0
 25102 1528 BE100000 		.4byte	.LBB2309-.Ltext0
 25103 152c E8100000 		.4byte	.LBE2309-.Ltext0
 25104 1530 EC100000 		.4byte	.LBB2310-.Ltext0
 25105 1534 F8100000 		.4byte	.LBE2310-.Ltext0
 25106 1538 04110000 		.4byte	.LBB2311-.Ltext0
 25107 153c 0A110000 		.4byte	.LBE2311-.Ltext0
 25108 1540 16110000 		.4byte	.LBB2319-.Ltext0
 25109 1544 1C110000 		.4byte	.LBE2319-.Ltext0
 25110 1548 00000000 		.4byte	0
 25111 154c 00000000 		.4byte	0
 25112 1550 12110000 		.4byte	.LBB2312-.Ltext0
 25113 1554 16110000 		.4byte	.LBE2312-.Ltext0
 25114 1558 1C110000 		.4byte	.LBB2320-.Ltext0
 25115 155c 20110000 		.4byte	.LBE2320-.Ltext0
 25116 1560 24110000 		.4byte	.LBB2321-.Ltext0
 25117 1564 4E110000 		.4byte	.LBE2321-.Ltext0
 25118 1568 52110000 		.4byte	.LBB2322-.Ltext0
 25119 156c 5E110000 		.4byte	.LBE2322-.Ltext0
 25120 1570 6A110000 		.4byte	.LBB2323-.Ltext0
 25121 1574 70110000 		.4byte	.LBE2323-.Ltext0
 25122 1578 7C110000 		.4byte	.LBB2331-.Ltext0
 25123 157c 82110000 		.4byte	.LBE2331-.Ltext0
 25124 1580 00000000 		.4byte	0
 25125 1584 00000000 		.4byte	0
 25126 1588 78110000 		.4byte	.LBB2324-.Ltext0
 25127 158c 7C110000 		.4byte	.LBE2324-.Ltext0
 25128 1590 82110000 		.4byte	.LBB2332-.Ltext0
 25129 1594 86110000 		.4byte	.LBE2332-.Ltext0
 25130 1598 8A110000 		.4byte	.LBB2333-.Ltext0
 25131 159c B4110000 		.4byte	.LBE2333-.Ltext0
 25132 15a0 B8110000 		.4byte	.LBB2334-.Ltext0
 25133 15a4 C4110000 		.4byte	.LBE2334-.Ltext0
ARM GAS  /tmp/ccJJl1OT.s 			page 442


 25134 15a8 D0110000 		.4byte	.LBB2335-.Ltext0
 25135 15ac D6110000 		.4byte	.LBE2335-.Ltext0
 25136 15b0 E2110000 		.4byte	.LBB2343-.Ltext0
 25137 15b4 E8110000 		.4byte	.LBE2343-.Ltext0
 25138 15b8 00000000 		.4byte	0
 25139 15bc 00000000 		.4byte	0
 25140 15c0 DE110000 		.4byte	.LBB2336-.Ltext0
 25141 15c4 E2110000 		.4byte	.LBE2336-.Ltext0
 25142 15c8 E8110000 		.4byte	.LBB2344-.Ltext0
 25143 15cc EC110000 		.4byte	.LBE2344-.Ltext0
 25144 15d0 F0110000 		.4byte	.LBB2345-.Ltext0
 25145 15d4 1A120000 		.4byte	.LBE2345-.Ltext0
 25146 15d8 1E120000 		.4byte	.LBB2346-.Ltext0
 25147 15dc 2A120000 		.4byte	.LBE2346-.Ltext0
 25148 15e0 36120000 		.4byte	.LBB2347-.Ltext0
 25149 15e4 3C120000 		.4byte	.LBE2347-.Ltext0
 25150 15e8 48120000 		.4byte	.LBB2355-.Ltext0
 25151 15ec 4E120000 		.4byte	.LBE2355-.Ltext0
 25152 15f0 00000000 		.4byte	0
 25153 15f4 00000000 		.4byte	0
 25154 15f8 44120000 		.4byte	.LBB2348-.Ltext0
 25155 15fc 48120000 		.4byte	.LBE2348-.Ltext0
 25156 1600 4E120000 		.4byte	.LBB2356-.Ltext0
 25157 1604 52120000 		.4byte	.LBE2356-.Ltext0
 25158 1608 56120000 		.4byte	.LBB2357-.Ltext0
 25159 160c 80120000 		.4byte	.LBE2357-.Ltext0
 25160 1610 84120000 		.4byte	.LBB2358-.Ltext0
 25161 1614 90120000 		.4byte	.LBE2358-.Ltext0
 25162 1618 9C120000 		.4byte	.LBB2359-.Ltext0
 25163 161c A2120000 		.4byte	.LBE2359-.Ltext0
 25164 1620 AE120000 		.4byte	.LBB2367-.Ltext0
 25165 1624 B4120000 		.4byte	.LBE2367-.Ltext0
 25166 1628 00000000 		.4byte	0
 25167 162c 00000000 		.4byte	0
 25168 1630 AA120000 		.4byte	.LBB2360-.Ltext0
 25169 1634 AE120000 		.4byte	.LBE2360-.Ltext0
 25170 1638 B4120000 		.4byte	.LBB2368-.Ltext0
 25171 163c B8120000 		.4byte	.LBE2368-.Ltext0
 25172 1640 BC120000 		.4byte	.LBB2369-.Ltext0
 25173 1644 E6120000 		.4byte	.LBE2369-.Ltext0
 25174 1648 EA120000 		.4byte	.LBB2370-.Ltext0
 25175 164c F6120000 		.4byte	.LBE2370-.Ltext0
 25176 1650 02130000 		.4byte	.LBB2371-.Ltext0
 25177 1654 08130000 		.4byte	.LBE2371-.Ltext0
 25178 1658 14130000 		.4byte	.LBB2378-.Ltext0
 25179 165c 1A130000 		.4byte	.LBE2378-.Ltext0
 25180 1660 00000000 		.4byte	0
 25181 1664 00000000 		.4byte	0
 25182 1668 10130000 		.4byte	.LBB2372-.Ltext0
 25183 166c 14130000 		.4byte	.LBE2372-.Ltext0
 25184 1670 1A130000 		.4byte	.LBB2379-.Ltext0
 25185 1674 1E130000 		.4byte	.LBE2379-.Ltext0
 25186 1678 22130000 		.4byte	.LBB2380-.Ltext0
 25187 167c 42130000 		.4byte	.LBE2380-.Ltext0
 25188 1680 46130000 		.4byte	.LBB2381-.Ltext0
 25189 1684 62130000 		.4byte	.LBE2381-.Ltext0
 25190 1688 66130000 		.4byte	.LBB2382-.Ltext0
ARM GAS  /tmp/ccJJl1OT.s 			page 443


 25191 168c 6C130000 		.4byte	.LBE2382-.Ltext0
 25192 1690 00000000 		.4byte	0
 25193 1694 00000000 		.4byte	0
 25194 1698 D4130000 		.4byte	.LBB2384-.Ltext0
 25195 169c D8130000 		.4byte	.LBE2384-.Ltext0
 25196 16a0 DE130000 		.4byte	.LBB2392-.Ltext0
 25197 16a4 E2130000 		.4byte	.LBE2392-.Ltext0
 25198 16a8 E6130000 		.4byte	.LBB2394-.Ltext0
 25199 16ac 10140000 		.4byte	.LBE2394-.Ltext0
 25200 16b0 14140000 		.4byte	.LBB2395-.Ltext0
 25201 16b4 20140000 		.4byte	.LBE2395-.Ltext0
 25202 16b8 2C140000 		.4byte	.LBB2396-.Ltext0
 25203 16bc 32140000 		.4byte	.LBE2396-.Ltext0
 25204 16c0 3E140000 		.4byte	.LBB2404-.Ltext0
 25205 16c4 44140000 		.4byte	.LBE2404-.Ltext0
 25206 16c8 00000000 		.4byte	0
 25207 16cc 00000000 		.4byte	0
 25208 16d0 3A140000 		.4byte	.LBB2397-.Ltext0
 25209 16d4 3E140000 		.4byte	.LBE2397-.Ltext0
 25210 16d8 44140000 		.4byte	.LBB2405-.Ltext0
 25211 16dc 48140000 		.4byte	.LBE2405-.Ltext0
 25212 16e0 4C140000 		.4byte	.LBB2406-.Ltext0
 25213 16e4 76140000 		.4byte	.LBE2406-.Ltext0
 25214 16e8 7A140000 		.4byte	.LBB2407-.Ltext0
 25215 16ec 86140000 		.4byte	.LBE2407-.Ltext0
 25216 16f0 92140000 		.4byte	.LBB2408-.Ltext0
 25217 16f4 98140000 		.4byte	.LBE2408-.Ltext0
 25218 16f8 A4140000 		.4byte	.LBB2416-.Ltext0
 25219 16fc AA140000 		.4byte	.LBE2416-.Ltext0
 25220 1700 00000000 		.4byte	0
 25221 1704 00000000 		.4byte	0
 25222 1708 A0140000 		.4byte	.LBB2409-.Ltext0
 25223 170c A4140000 		.4byte	.LBE2409-.Ltext0
 25224 1710 AA140000 		.4byte	.LBB2417-.Ltext0
 25225 1714 AE140000 		.4byte	.LBE2417-.Ltext0
 25226 1718 B2140000 		.4byte	.LBB2418-.Ltext0
 25227 171c DC140000 		.4byte	.LBE2418-.Ltext0
 25228 1720 E0140000 		.4byte	.LBB2419-.Ltext0
 25229 1724 EC140000 		.4byte	.LBE2419-.Ltext0
 25230 1728 F8140000 		.4byte	.LBB2420-.Ltext0
 25231 172c FE140000 		.4byte	.LBE2420-.Ltext0
 25232 1730 0A150000 		.4byte	.LBB2428-.Ltext0
 25233 1734 10150000 		.4byte	.LBE2428-.Ltext0
 25234 1738 00000000 		.4byte	0
 25235 173c 00000000 		.4byte	0
 25236 1740 06150000 		.4byte	.LBB2421-.Ltext0
 25237 1744 0A150000 		.4byte	.LBE2421-.Ltext0
 25238 1748 10150000 		.4byte	.LBB2429-.Ltext0
 25239 174c 14150000 		.4byte	.LBE2429-.Ltext0
 25240 1750 18150000 		.4byte	.LBB2430-.Ltext0
 25241 1754 42150000 		.4byte	.LBE2430-.Ltext0
 25242 1758 46150000 		.4byte	.LBB2431-.Ltext0
 25243 175c 52150000 		.4byte	.LBE2431-.Ltext0
 25244 1760 5E150000 		.4byte	.LBB2432-.Ltext0
 25245 1764 64150000 		.4byte	.LBE2432-.Ltext0
 25246 1768 70150000 		.4byte	.LBB2440-.Ltext0
 25247 176c 76150000 		.4byte	.LBE2440-.Ltext0
ARM GAS  /tmp/ccJJl1OT.s 			page 444


 25248 1770 00000000 		.4byte	0
 25249 1774 00000000 		.4byte	0
 25250 1778 6C150000 		.4byte	.LBB2433-.Ltext0
 25251 177c 70150000 		.4byte	.LBE2433-.Ltext0
 25252 1780 76150000 		.4byte	.LBB2441-.Ltext0
 25253 1784 7A150000 		.4byte	.LBE2441-.Ltext0
 25254 1788 7E150000 		.4byte	.LBB2442-.Ltext0
 25255 178c A8150000 		.4byte	.LBE2442-.Ltext0
 25256 1790 AC150000 		.4byte	.LBB2443-.Ltext0
 25257 1794 B8150000 		.4byte	.LBE2443-.Ltext0
 25258 1798 C4150000 		.4byte	.LBB2444-.Ltext0
 25259 179c CA150000 		.4byte	.LBE2444-.Ltext0
 25260 17a0 D6150000 		.4byte	.LBB2452-.Ltext0
 25261 17a4 DC150000 		.4byte	.LBE2452-.Ltext0
 25262 17a8 00000000 		.4byte	0
 25263 17ac 00000000 		.4byte	0
 25264 17b0 D2150000 		.4byte	.LBB2445-.Ltext0
 25265 17b4 D6150000 		.4byte	.LBE2445-.Ltext0
 25266 17b8 DC150000 		.4byte	.LBB2453-.Ltext0
 25267 17bc E0150000 		.4byte	.LBE2453-.Ltext0
 25268 17c0 E4150000 		.4byte	.LBB2454-.Ltext0
 25269 17c4 0E160000 		.4byte	.LBE2454-.Ltext0
 25270 17c8 12160000 		.4byte	.LBB2455-.Ltext0
 25271 17cc 1E160000 		.4byte	.LBE2455-.Ltext0
 25272 17d0 2A160000 		.4byte	.LBB2456-.Ltext0
 25273 17d4 30160000 		.4byte	.LBE2456-.Ltext0
 25274 17d8 3C160000 		.4byte	.LBB2464-.Ltext0
 25275 17dc 42160000 		.4byte	.LBE2464-.Ltext0
 25276 17e0 00000000 		.4byte	0
 25277 17e4 00000000 		.4byte	0
 25278 17e8 38160000 		.4byte	.LBB2457-.Ltext0
 25279 17ec 3C160000 		.4byte	.LBE2457-.Ltext0
 25280 17f0 42160000 		.4byte	.LBB2465-.Ltext0
 25281 17f4 46160000 		.4byte	.LBE2465-.Ltext0
 25282 17f8 4A160000 		.4byte	.LBB2466-.Ltext0
 25283 17fc 74160000 		.4byte	.LBE2466-.Ltext0
 25284 1800 78160000 		.4byte	.LBB2467-.Ltext0
 25285 1804 84160000 		.4byte	.LBE2467-.Ltext0
 25286 1808 90160000 		.4byte	.LBB2468-.Ltext0
 25287 180c 96160000 		.4byte	.LBE2468-.Ltext0
 25288 1810 A2160000 		.4byte	.LBB2476-.Ltext0
 25289 1814 A8160000 		.4byte	.LBE2476-.Ltext0
 25290 1818 00000000 		.4byte	0
 25291 181c 00000000 		.4byte	0
 25292 1820 9E160000 		.4byte	.LBB2469-.Ltext0
 25293 1824 A2160000 		.4byte	.LBE2469-.Ltext0
 25294 1828 A8160000 		.4byte	.LBB2477-.Ltext0
 25295 182c AC160000 		.4byte	.LBE2477-.Ltext0
 25296 1830 B0160000 		.4byte	.LBB2478-.Ltext0
 25297 1834 DA160000 		.4byte	.LBE2478-.Ltext0
 25298 1838 DE160000 		.4byte	.LBB2479-.Ltext0
 25299 183c EA160000 		.4byte	.LBE2479-.Ltext0
 25300 1840 F6160000 		.4byte	.LBB2480-.Ltext0
 25301 1844 FC160000 		.4byte	.LBE2480-.Ltext0
 25302 1848 08170000 		.4byte	.LBB2488-.Ltext0
 25303 184c 0E170000 		.4byte	.LBE2488-.Ltext0
 25304 1850 00000000 		.4byte	0
ARM GAS  /tmp/ccJJl1OT.s 			page 445


 25305 1854 00000000 		.4byte	0
 25306 1858 04170000 		.4byte	.LBB2481-.Ltext0
 25307 185c 08170000 		.4byte	.LBE2481-.Ltext0
 25308 1860 0E170000 		.4byte	.LBB2489-.Ltext0
 25309 1864 12170000 		.4byte	.LBE2489-.Ltext0
 25310 1868 16170000 		.4byte	.LBB2490-.Ltext0
 25311 186c 40170000 		.4byte	.LBE2490-.Ltext0
 25312 1870 44170000 		.4byte	.LBB2491-.Ltext0
 25313 1874 50170000 		.4byte	.LBE2491-.Ltext0
 25314 1878 5C170000 		.4byte	.LBB2492-.Ltext0
 25315 187c 62170000 		.4byte	.LBE2492-.Ltext0
 25316 1880 6E170000 		.4byte	.LBB2500-.Ltext0
 25317 1884 74170000 		.4byte	.LBE2500-.Ltext0
 25318 1888 00000000 		.4byte	0
 25319 188c 00000000 		.4byte	0
 25320 1890 6A170000 		.4byte	.LBB2493-.Ltext0
 25321 1894 6E170000 		.4byte	.LBE2493-.Ltext0
 25322 1898 74170000 		.4byte	.LBB2501-.Ltext0
 25323 189c 78170000 		.4byte	.LBE2501-.Ltext0
 25324 18a0 7C170000 		.4byte	.LBB2502-.Ltext0
 25325 18a4 A6170000 		.4byte	.LBE2502-.Ltext0
 25326 18a8 AA170000 		.4byte	.LBB2503-.Ltext0
 25327 18ac B6170000 		.4byte	.LBE2503-.Ltext0
 25328 18b0 C2170000 		.4byte	.LBB2504-.Ltext0
 25329 18b4 C8170000 		.4byte	.LBE2504-.Ltext0
 25330 18b8 D4170000 		.4byte	.LBB2511-.Ltext0
 25331 18bc DA170000 		.4byte	.LBE2511-.Ltext0
 25332 18c0 00000000 		.4byte	0
 25333 18c4 00000000 		.4byte	0
 25334 18c8 D0170000 		.4byte	.LBB2505-.Ltext0
 25335 18cc D4170000 		.4byte	.LBE2505-.Ltext0
 25336 18d0 DA170000 		.4byte	.LBB2512-.Ltext0
 25337 18d4 DE170000 		.4byte	.LBE2512-.Ltext0
 25338 18d8 E2170000 		.4byte	.LBB2513-.Ltext0
 25339 18dc 02180000 		.4byte	.LBE2513-.Ltext0
 25340 18e0 06180000 		.4byte	.LBB2514-.Ltext0
 25341 18e4 18180000 		.4byte	.LBE2514-.Ltext0
 25342 18e8 1C180000 		.4byte	.LBB2515-.Ltext0
 25343 18ec 2A180000 		.4byte	.LBE2515-.Ltext0
 25344 18f0 00000000 		.4byte	0
 25345 18f4 00000000 		.4byte	0
 25346 18f8 3E180000 		.4byte	.LBB2520-.Ltext0
 25347 18fc 48180000 		.4byte	.LBE2520-.Ltext0
 25348 1900 4C180000 		.4byte	.LBB2525-.Ltext0
 25349 1904 62180000 		.4byte	.LBE2525-.Ltext0
 25350 1908 00000000 		.4byte	0
 25351 190c 00000000 		.4byte	0
 25352 1910 B0180000 		.4byte	.LBB2527-.Ltext0
 25353 1914 B4180000 		.4byte	.LBE2527-.Ltext0
 25354 1918 BA180000 		.4byte	.LBB2539-.Ltext0
 25355 191c 06190000 		.4byte	.LBE2539-.Ltext0
 25356 1920 00000000 		.4byte	0
 25357 1924 00000000 		.4byte	0
 25358 1928 D2180000 		.4byte	.LBB2529-.Ltext0
 25359 192c D6180000 		.4byte	.LBE2529-.Ltext0
 25360 1930 DC180000 		.4byte	.LBB2534-.Ltext0
 25361 1934 E0180000 		.4byte	.LBE2534-.Ltext0
ARM GAS  /tmp/ccJJl1OT.s 			page 446


 25362 1938 EC180000 		.4byte	.LBB2535-.Ltext0
 25363 193c F8180000 		.4byte	.LBE2535-.Ltext0
 25364 1940 FC180000 		.4byte	.LBB2536-.Ltext0
 25365 1944 00190000 		.4byte	.LBE2536-.Ltext0
 25366 1948 00000000 		.4byte	0
 25367 194c 00000000 		.4byte	0
 25368 1950 0E190000 		.4byte	.LBB2540-.Ltext0
 25369 1954 58190000 		.4byte	.LBE2540-.Ltext0
 25370 1958 5C190000 		.4byte	.LBB2551-.Ltext0
 25371 195c 62190000 		.4byte	.LBE2551-.Ltext0
 25372 1960 00000000 		.4byte	0
 25373 1964 00000000 		.4byte	0
 25374 1968 2A190000 		.4byte	.LBB2542-.Ltext0
 25375 196c 2E190000 		.4byte	.LBE2542-.Ltext0
 25376 1970 34190000 		.4byte	.LBB2547-.Ltext0
 25377 1974 38190000 		.4byte	.LBE2547-.Ltext0
 25378 1978 44190000 		.4byte	.LBB2548-.Ltext0
 25379 197c 50190000 		.4byte	.LBE2548-.Ltext0
 25380 1980 54190000 		.4byte	.LBB2549-.Ltext0
 25381 1984 58190000 		.4byte	.LBE2549-.Ltext0
 25382 1988 00000000 		.4byte	0
 25383 198c 00000000 		.4byte	0
 25384 1990 8C190000 		.4byte	.LBB2554-.Ltext0
 25385 1994 90190000 		.4byte	.LBE2554-.Ltext0
 25386 1998 9C190000 		.4byte	.LBB2558-.Ltext0
 25387 199c A8190000 		.4byte	.LBE2558-.Ltext0
 25388 19a0 AC190000 		.4byte	.LBB2559-.Ltext0
 25389 19a4 B0190000 		.4byte	.LBE2559-.Ltext0
 25390 19a8 00000000 		.4byte	0
 25391 19ac 00000000 		.4byte	0
 25392 19b0 D6190000 		.4byte	.LBB2562-.Ltext0
 25393 19b4 DA190000 		.4byte	.LBE2562-.Ltext0
 25394 19b8 E0190000 		.4byte	.LBB2567-.Ltext0
 25395 19bc E4190000 		.4byte	.LBE2567-.Ltext0
 25396 19c0 F0190000 		.4byte	.LBB2568-.Ltext0
 25397 19c4 FC190000 		.4byte	.LBE2568-.Ltext0
 25398 19c8 001A0000 		.4byte	.LBB2569-.Ltext0
 25399 19cc 041A0000 		.4byte	.LBE2569-.Ltext0
 25400 19d0 00000000 		.4byte	0
 25401 19d4 00000000 		.4byte	0
 25402 19d8 121A0000 		.4byte	.LBB2570-.Ltext0
 25403 19dc 581A0000 		.4byte	.LBE2570-.Ltext0
 25404 19e0 601A0000 		.4byte	.LBB2590-.Ltext0
 25405 19e4 661A0000 		.4byte	.LBE2590-.Ltext0
 25406 19e8 00000000 		.4byte	0
 25407 19ec 00000000 		.4byte	0
 25408 19f0 341A0000 		.4byte	.LBB2572-.Ltext0
 25409 19f4 381A0000 		.4byte	.LBE2572-.Ltext0
 25410 19f8 441A0000 		.4byte	.LBB2576-.Ltext0
 25411 19fc 501A0000 		.4byte	.LBE2576-.Ltext0
 25412 1a00 541A0000 		.4byte	.LBB2577-.Ltext0
 25413 1a04 581A0000 		.4byte	.LBE2577-.Ltext0
 25414 1a08 00000000 		.4byte	0
 25415 1a0c 00000000 		.4byte	0
 25416 1a10 5C1A0000 		.4byte	.LBB2579-.Ltext0
 25417 1a14 601A0000 		.4byte	.LBE2579-.Ltext0
 25418 1a18 661A0000 		.4byte	.LBB2591-.Ltext0
ARM GAS  /tmp/ccJJl1OT.s 			page 447


 25419 1a1c 6A1A0000 		.4byte	.LBE2591-.Ltext0
 25420 1a20 6E1A0000 		.4byte	.LBB2592-.Ltext0
 25421 1a24 AC1A0000 		.4byte	.LBE2592-.Ltext0
 25422 1a28 B41A0000 		.4byte	.LBB2606-.Ltext0
 25423 1a2c BA1A0000 		.4byte	.LBE2606-.Ltext0
 25424 1a30 00000000 		.4byte	0
 25425 1a34 00000000 		.4byte	0
 25426 1a38 881A0000 		.4byte	.LBB2581-.Ltext0
 25427 1a3c 8C1A0000 		.4byte	.LBE2581-.Ltext0
 25428 1a40 981A0000 		.4byte	.LBB2585-.Ltext0
 25429 1a44 A41A0000 		.4byte	.LBE2585-.Ltext0
 25430 1a48 A81A0000 		.4byte	.LBB2586-.Ltext0
 25431 1a4c AC1A0000 		.4byte	.LBE2586-.Ltext0
 25432 1a50 00000000 		.4byte	0
 25433 1a54 00000000 		.4byte	0
 25434 1a58 B01A0000 		.4byte	.LBB2593-.Ltext0
 25435 1a5c B41A0000 		.4byte	.LBE2593-.Ltext0
 25436 1a60 BA1A0000 		.4byte	.LBB2607-.Ltext0
 25437 1a64 BE1A0000 		.4byte	.LBE2607-.Ltext0
 25438 1a68 C21A0000 		.4byte	.LBB2608-.Ltext0
 25439 1a6c 041B0000 		.4byte	.LBE2608-.Ltext0
 25440 1a70 081B0000 		.4byte	.LBB2609-.Ltext0
 25441 1a74 0E1B0000 		.4byte	.LBE2609-.Ltext0
 25442 1a78 00000000 		.4byte	0
 25443 1a7c 00000000 		.4byte	0
 25444 1a80 D61A0000 		.4byte	.LBB2595-.Ltext0
 25445 1a84 DA1A0000 		.4byte	.LBE2595-.Ltext0
 25446 1a88 E01A0000 		.4byte	.LBB2600-.Ltext0
 25447 1a8c E41A0000 		.4byte	.LBE2600-.Ltext0
 25448 1a90 F01A0000 		.4byte	.LBB2601-.Ltext0
 25449 1a94 FC1A0000 		.4byte	.LBE2601-.Ltext0
 25450 1a98 001B0000 		.4byte	.LBB2602-.Ltext0
 25451 1a9c 041B0000 		.4byte	.LBE2602-.Ltext0
 25452 1aa0 00000000 		.4byte	0
 25453 1aa4 00000000 		.4byte	0
 25454 1aa8 381B0000 		.4byte	.LBB2612-.Ltext0
 25455 1aac 3C1B0000 		.4byte	.LBE2612-.Ltext0
 25456 1ab0 481B0000 		.4byte	.LBB2616-.Ltext0
 25457 1ab4 541B0000 		.4byte	.LBE2616-.Ltext0
 25458 1ab8 581B0000 		.4byte	.LBB2617-.Ltext0
 25459 1abc 5C1B0000 		.4byte	.LBE2617-.Ltext0
 25460 1ac0 00000000 		.4byte	0
 25461 1ac4 00000000 		.4byte	0
 25462 1ac8 881B0000 		.4byte	.LBB2620-.Ltext0
 25463 1acc 8C1B0000 		.4byte	.LBE2620-.Ltext0
 25464 1ad0 981B0000 		.4byte	.LBB2624-.Ltext0
 25465 1ad4 A41B0000 		.4byte	.LBE2624-.Ltext0
 25466 1ad8 A81B0000 		.4byte	.LBB2625-.Ltext0
 25467 1adc AC1B0000 		.4byte	.LBE2625-.Ltext0
 25468 1ae0 00000000 		.4byte	0
 25469 1ae4 00000000 		.4byte	0
 25470 1ae8 BA1B0000 		.4byte	.LBB2626-.Ltext0
 25471 1aec 001C0000 		.4byte	.LBE2626-.Ltext0
 25472 1af0 041C0000 		.4byte	.LBB2635-.Ltext0
 25473 1af4 0A1C0000 		.4byte	.LBE2635-.Ltext0
 25474 1af8 00000000 		.4byte	0
 25475 1afc 00000000 		.4byte	0
ARM GAS  /tmp/ccJJl1OT.s 			page 448


 25476 1b00 DC1B0000 		.4byte	.LBB2628-.Ltext0
 25477 1b04 E01B0000 		.4byte	.LBE2628-.Ltext0
 25478 1b08 EC1B0000 		.4byte	.LBB2632-.Ltext0
 25479 1b0c F81B0000 		.4byte	.LBE2632-.Ltext0
 25480 1b10 FC1B0000 		.4byte	.LBB2633-.Ltext0
 25481 1b14 001C0000 		.4byte	.LBE2633-.Ltext0
 25482 1b18 00000000 		.4byte	0
 25483 1b1c 00000000 		.4byte	0
 25484 1b20 0E1C0000 		.4byte	.LBB2636-.Ltext0
 25485 1b24 541C0000 		.4byte	.LBE2636-.Ltext0
 25486 1b28 581C0000 		.4byte	.LBB2660-.Ltext0
 25487 1b2c 5E1C0000 		.4byte	.LBE2660-.Ltext0
 25488 1b30 00000000 		.4byte	0
 25489 1b34 00000000 		.4byte	0
 25490 1b38 301C0000 		.4byte	.LBB2638-.Ltext0
 25491 1b3c 341C0000 		.4byte	.LBE2638-.Ltext0
 25492 1b40 401C0000 		.4byte	.LBB2642-.Ltext0
 25493 1b44 4C1C0000 		.4byte	.LBE2642-.Ltext0
 25494 1b48 501C0000 		.4byte	.LBB2643-.Ltext0
 25495 1b4c 541C0000 		.4byte	.LBE2643-.Ltext0
 25496 1b50 00000000 		.4byte	0
 25497 1b54 00000000 		.4byte	0
 25498 1b58 541C0000 		.4byte	.LBB2645-.Ltext0
 25499 1b5c 581C0000 		.4byte	.LBE2645-.Ltext0
 25500 1b60 661C0000 		.4byte	.LBB2661-.Ltext0
 25501 1b64 9A1C0000 		.4byte	.LBE2661-.Ltext0
 25502 1b68 00000000 		.4byte	0
 25503 1b6c 00000000 		.4byte	0
 25504 1b70 541C0000 		.4byte	.LBB2647-.Ltext0
 25505 1b74 581C0000 		.4byte	.LBE2647-.Ltext0
 25506 1b78 661C0000 		.4byte	.LBB2658-.Ltext0
 25507 1b7c 821C0000 		.4byte	.LBE2658-.Ltext0
 25508 1b80 00000000 		.4byte	0
 25509 1b84 00000000 		.4byte	0
 25510 1b88 541C0000 		.4byte	.LBB2649-.Ltext0
 25511 1b8c 581C0000 		.4byte	.LBE2649-.Ltext0
 25512 1b90 661C0000 		.4byte	.LBB2653-.Ltext0
 25513 1b94 701C0000 		.4byte	.LBE2653-.Ltext0
 25514 1b98 741C0000 		.4byte	.LBB2656-.Ltext0
 25515 1b9c 821C0000 		.4byte	.LBE2656-.Ltext0
 25516 1ba0 00000000 		.4byte	0
 25517 1ba4 00000000 		.4byte	0
 25518              		.section	.debug_line,"",%progbits
 25519              	.Ldebug_line0:
 25520 0000 92130000 		.section	.debug_str,"MS",%progbits,1
 25520      0200EA01 
 25520      00000201 
 25520      FB0E0D00 
 25520      01010101 
 25521              	.LASF70:
 25522 0000 6F73635F 		.ascii	"osc_sinf\000"
 25522      73696E66 
 25522      00
 25523              	.LASF77:
 25524 0009 5F686F6F 		.ascii	"_hook_param\000"
 25524      6B5F7061 
 25524      72616D00 
ARM GAS  /tmp/ccJJl1OT.s 			page 449


 25525              	.LASF87:
 25526 0015 77745F70 		.ascii	"wt_par_lut_f\000"
 25526      61725F6C 
 25526      75745F66 
 25526      00
 25527              	.LASF52:
 25528 0022 70686173 		.ascii	"phase\000"
 25528      6500
 25529              	.LASF49:
 25530 0028 666C6167 		.ascii	"flags\000"
 25530      7300
 25531              	.LASF96:
 25532 002e 474E5520 		.ascii	"GNU C++11 5.4.1 20160919 (release) [ARM/embedded-5-"
 25532      432B2B31 
 25532      3120352E 
 25532      342E3120 
 25532      32303136 
 25533 0061 6272616E 		.ascii	"branch revision 240496] -mcpu=cortex-m4 -mthumb -mn"
 25533      63682072 
 25533      65766973 
 25533      696F6E20 
 25533      32343034 
 25534 0094 6F2D7468 		.ascii	"o-thumb-interwork -mlittle-endian -mfloat-abi=hard "
 25534      756D622D 
 25534      696E7465 
 25534      72776F72 
 25534      6B202D6D 
 25535 00c7 2D6D6670 		.ascii	"-mfpu=fpv4-sp-d16 -g -Os -std=c++11 -fsingle-precis"
 25535      753D6670 
 25535      76342D73 
 25535      702D6431 
 25535      36202D67 
 25536 00fa 696F6E2D 		.ascii	"ion-constant -fcheck-new -fno-rtti -fno-exceptions "
 25536      636F6E73 
 25536      74616E74 
 25536      202D6663 
 25536      6865636B 
 25537 012d 2D666E6F 		.ascii	"-fno-non-call-exceptions\000"
 25537      2D6E6F6E 
 25537      2D63616C 
 25537      6C2D6578 
 25537      63657074 
 25538              	.LASF1:
 25539 0146 756E7369 		.ascii	"unsigned int\000"
 25539      676E6564 
 25539      20696E74 
 25539      00
 25540              	.LASF93:
 25541 0153 62697472 		.ascii	"bitres_lut_f\000"
 25541      65735F6C 
 25541      75745F66 
 25541      00
 25542              	.LASF8:
 25543 0160 5F5F696E 		.ascii	"__int32_t\000"
 25543      7433325F 
 25543      7400
 25544              	.LASF71:
ARM GAS  /tmp/ccJJl1OT.s 			page 450


 25545 016a 706C6174 		.ascii	"platform\000"
 25545      666F726D 
 25545      00
 25546              	.LASF30:
 25547 0173 70697463 		.ascii	"pitch\000"
 25547      6800
 25548              	.LASF44:
 25549 0179 75736572 		.ascii	"user_osc_param_id_t\000"
 25549      5F6F7363 
 25549      5F706172 
 25549      616D5F69 
 25549      645F7400 
 25550              	.LASF46:
 25551 018d 53746174 		.ascii	"State\000"
 25551      6500
 25552              	.LASF35:
 25553 0193 6B5F7573 		.ascii	"k_user_osc_param_id1\000"
 25553      65725F6F 
 25553      73635F70 
 25553      6172616D 
 25553      5F696431 
 25554              	.LASF36:
 25555 01a8 6B5F7573 		.ascii	"k_user_osc_param_id2\000"
 25555      65725F6F 
 25555      73635F70 
 25555      6172616D 
 25555      5F696432 
 25556              	.LASF37:
 25557 01bd 6B5F7573 		.ascii	"k_user_osc_param_id3\000"
 25557      65725F6F 
 25557      73635F70 
 25557      6172616D 
 25557      5F696433 
 25558              	.LASF38:
 25559 01d2 6B5F7573 		.ascii	"k_user_osc_param_id4\000"
 25559      65725F6F 
 25559      73635F70 
 25559      6172616D 
 25559      5F696434 
 25560              	.LASF39:
 25561 01e7 6B5F7573 		.ascii	"k_user_osc_param_id5\000"
 25561      65725F6F 
 25561      73635F70 
 25561      6172616D 
 25561      5F696435 
 25562              	.LASF40:
 25563 01fc 6B5F7573 		.ascii	"k_user_osc_param_id6\000"
 25563      65725F6F 
 25563      73635F70 
 25563      6172616D 
 25563      5F696436 
 25564              	.LASF95:
 25565 0211 735F7374 		.ascii	"s_state\000"
 25565      61746500 
 25566              	.LASF43:
 25567 0219 6B5F6E75 		.ascii	"k_num_user_osc_param_id\000"
 25567      6D5F7573 
ARM GAS  /tmp/ccJJl1OT.s 			page 451


 25567      65725F6F 
 25567      73635F70 
 25567      6172616D 
 25568              	.LASF73:
 25569 0231 5F686F6F 		.ascii	"_hook_cycle\000"
 25569      6B5F6379 
 25569      636C6500 
 25570              	.LASF89:
 25571 023d 74616E70 		.ascii	"tanpi_lut_f\000"
 25571      695F6C75 
 25571      745F6600 
 25572              	.LASF66:
 25573 0249 6F73635F 		.ascii	"osc_softclipf\000"
 25573      736F6674 
 25573      636C6970 
 25573      6600
 25574              	.LASF58:
 25575 0257 636C616D 		.ascii	"clampfsel\000"
 25575      70667365 
 25575      6C00
 25576              	.LASF98:
 25577 0261 2F686F6D 		.ascii	"/home/joshua/nts-1/chords-osc\000"
 25577      652F6A6F 
 25577      73687561 
 25577      2F6E7473 
 25577      2D312F63 
 25578              	.LASF17:
 25579 027f 75696E74 		.ascii	"uint32_t\000"
 25579      33325F74 
 25579      00
 25580              	.LASF80:
 25581 0288 76616C66 		.ascii	"valf\000"
 25581      00
 25582              	.LASF97:
 25583 028d 63686F72 		.ascii	"chords.cpp\000"
 25583      64732E63 
 25583      707000
 25584              	.LASF83:
 25585 0298 6D696469 		.ascii	"midi_to_hz_lut_f\000"
 25585      5F746F5F 
 25585      687A5F6C 
 25585      75745F66 
 25585      00
 25586              	.LASF0:
 25587 02a9 666C6F61 		.ascii	"float\000"
 25587      7400
 25588              	.LASF78:
 25589 02af 696E6465 		.ascii	"index\000"
 25589      7800
 25590              	.LASF25:
 25591 02b5 6B5F7573 		.ascii	"k_user_module_delfx\000"
 25591      65725F6D 
 25591      6F64756C 
 25591      655F6465 
 25591      6C667800 
 25592              	.LASF13:
 25593 02c9 6C6F6E67 		.ascii	"long long unsigned int\000"
ARM GAS  /tmp/ccJJl1OT.s 			page 452


 25593      206C6F6E 
 25593      6720756E 
 25593      7369676E 
 25593      65642069 
 25594              	.LASF6:
 25595 02e0 5F5F7569 		.ascii	"__uint16_t\000"
 25595      6E743136 
 25595      5F7400
 25596              	.LASF45:
 25597 02eb 75736572 		.ascii	"user_osc_param\000"
 25597      5F6F7363 
 25597      5F706172 
 25597      616D00
 25598              	.LASF79:
 25599 02fa 76616C75 		.ascii	"value\000"
 25599      6500
 25600              	.LASF26:
 25601 0300 6B5F7573 		.ascii	"k_user_module_revfx\000"
 25601      65725F6D 
 25601      6F64756C 
 25601      655F7265 
 25601      76667800 
 25602              	.LASF31:
 25603 0314 6375746F 		.ascii	"cutoff\000"
 25603      666600
 25604              	.LASF51:
 25605 031b 6E6F7465 		.ascii	"notes\000"
 25605      7300
 25606              	.LASF20:
 25607 0321 63686172 		.ascii	"char\000"
 25607      00
 25608              	.LASF50:
 25609 0326 65787465 		.ascii	"extension\000"
 25609      6E73696F 
 25609      6E00
 25610              	.LASF67:
 25611 0330 6F73635F 		.ascii	"osc_sawf\000"
 25611      73617766 
 25611      00
 25612              	.LASF54:
 25613 0339 6B5F666C 		.ascii	"k_flags_none\000"
 25613      6167735F 
 25613      6E6F6E65 
 25613      00
 25614              	.LASF101:
 25615 0346 5F686F6F 		.ascii	"_hook_off\000"
 25615      6B5F6F66 
 25615      6600
 25616              	.LASF75:
 25617 0350 6672616D 		.ascii	"frames\000"
 25617      657300
 25618              	.LASF92:
 25619 0357 73636865 		.ascii	"schetzen_lut_f\000"
 25619      747A656E 
 25619      5F6C7574 
 25619      5F6600
 25620              	.LASF69:
ARM GAS  /tmp/ccJJl1OT.s 			page 453


 25621 0366 6F73635F 		.ascii	"osc_sqrf\000"
 25621      73717266 
 25621      00
 25622              	.LASF14:
 25623 036f 75696E74 		.ascii	"uint8_t\000"
 25623      385F7400 
 25624              	.LASF62:
 25625 0377 6F73635F 		.ascii	"osc_notehzf\000"
 25625      6E6F7465 
 25625      687A6600 
 25626              	.LASF88:
 25627 0383 6C6F675F 		.ascii	"log_lut_f\000"
 25627      6C75745F 
 25627      6600
 25628              	.LASF60:
 25629 038d 636C6970 		.ascii	"clipmaxf\000"
 25629      6D617866 
 25629      00
 25630              	.LASF12:
 25631 0396 6C6F6E67 		.ascii	"long long int\000"
 25631      206C6F6E 
 25631      6720696E 
 25631      7400
 25632              	.LASF55:
 25633 03a4 6B5F666C 		.ascii	"k_flag_reset\000"
 25633      61675F72 
 25633      65736574 
 25633      00
 25634              	.LASF76:
 25635 03b1 6C666F5F 		.ascii	"lfo_inc\000"
 25635      696E6300 
 25636              	.LASF53:
 25637 03b9 64657475 		.ascii	"detune\000"
 25637      6E6500
 25638              	.LASF94:
 25639 03c0 65787465 		.ascii	"extensions\000"
 25639      6E73696F 
 25639      6E7300
 25640              	.LASF32:
 25641 03cb 7265736F 		.ascii	"resonance\000"
 25641      6E616E63 
 25641      6500
 25642              	.LASF28:
 25643 03d5 6B5F6E75 		.ascii	"k_num_user_modules\000"
 25643      6D5F7573 
 25643      65725F6D 
 25643      6F64756C 
 25643      657300
 25644              	.LASF59:
 25645 03e8 636C6970 		.ascii	"clipmaxu32\000"
 25645      6D617875 
 25645      333200
 25646              	.LASF85:
 25647 03f3 77745F73 		.ascii	"wt_saw_lut_f\000"
 25647      61775F6C 
 25647      75745F66 
 25647      00
ARM GAS  /tmp/ccJJl1OT.s 			page 454


 25648              	.LASF48:
 25649 0400 77617665 		.ascii	"wave_type\000"
 25649      5F747970 
 25649      6500
 25650              	.LASF27:
 25651 040a 6B5F7573 		.ascii	"k_user_module_osc\000"
 25651      65725F6D 
 25651      6F64756C 
 25651      655F6F73 
 25651      6300
 25652              	.LASF18:
 25653 041c 6C6F6E67 		.ascii	"long double\000"
 25653      20646F75 
 25653      626C6500 
 25654              	.LASF15:
 25655 0428 75696E74 		.ascii	"uint16_t\000"
 25655      31365F74 
 25655      00
 25656              	.LASF42:
 25657 0431 6B5F7573 		.ascii	"k_user_osc_param_shiftshape\000"
 25657      65725F6F 
 25657      73635F70 
 25657      6172616D 
 25657      5F736869 
 25658              	.LASF74:
 25659 044d 70617261 		.ascii	"params\000"
 25659      6D7300
 25660              	.LASF72:
 25661 0454 5F686F6F 		.ascii	"_hook_init\000"
 25661      6B5F696E 
 25661      697400
 25662              	.LASF4:
 25663 045f 73686F72 		.ascii	"short int\000"
 25663      7420696E 
 25663      7400
 25664              	.LASF90:
 25665 0469 73717274 		.ascii	"sqrtm2log_lut_f\000"
 25665      6D326C6F 
 25665      675F6C75 
 25665      745F6600 
 25666              	.LASF91:
 25667 0479 63756269 		.ascii	"cubicsat_lut_f\000"
 25667      63736174 
 25667      5F6C7574 
 25667      5F6600
 25668              	.LASF86:
 25669 0488 77745F73 		.ascii	"wt_sqr_lut_f\000"
 25669      71725F6C 
 25669      75745F66 
 25669      00
 25670              	.LASF9:
 25671 0495 6C6F6E67 		.ascii	"long int\000"
 25671      20696E74 
 25671      00
 25672              	.LASF24:
 25673 049e 6B5F7573 		.ascii	"k_user_module_modfx\000"
 25673      65725F6D 
ARM GAS  /tmp/ccJJl1OT.s 			page 455


 25673      6F64756C 
 25673      655F6D6F 
 25673      64667800 
 25674              	.LASF41:
 25675 04b2 6B5F7573 		.ascii	"k_user_osc_param_shape\000"
 25675      65725F6F 
 25675      73635F70 
 25675      6172616D 
 25675      5F736861 
 25676              	.LASF100:
 25677 04c9 31397573 		.ascii	"19user_osc_param_id_t\000"
 25677      65725F6F 
 25677      73635F70 
 25677      6172616D 
 25677      5F69645F 
 25678              	.LASF68:
 25679 04df 7369676E 		.ascii	"sign\000"
 25679      00
 25680              	.LASF47:
 25681 04e4 6C666F7A 		.ascii	"lfoz\000"
 25681      00
 25682              	.LASF33:
 25683 04e9 72657365 		.ascii	"reserved0\000"
 25683      72766564 
 25683      3000
 25684              	.LASF5:
 25685 04f3 5F5F7569 		.ascii	"__uint8_t\000"
 25685      6E74385F 
 25685      7400
 25686              	.LASF82:
 25687 04fd 6B5F6F73 		.ascii	"k_osc_api_version\000"
 25687      635F6170 
 25687      695F7665 
 25687      7273696F 
 25687      6E00
 25688              	.LASF56:
 25689 050f 6673656C 		.ascii	"fsel\000"
 25689      00
 25690              	.LASF63:
 25691 0514 6E6F7465 		.ascii	"note\000"
 25691      00
 25692              	.LASF22:
 25693 0519 7133315F 		.ascii	"q31_t\000"
 25693      7400
 25694              	.LASF19:
 25695 051f 73697A65 		.ascii	"sizetype\000"
 25695      74797065 
 25695      00
 25696              	.LASF11:
 25697 0528 6C6F6E67 		.ascii	"long unsigned int\000"
 25697      20756E73 
 25697      69676E65 
 25697      6420696E 
 25697      7400
 25698              	.LASF84:
 25699 053a 77745F73 		.ascii	"wt_sine_lut_f\000"
 25699      696E655F 
ARM GAS  /tmp/ccJJl1OT.s 			page 456


 25699      6C75745F 
 25699      6600
 25700              	.LASF16:
 25701 0548 696E7433 		.ascii	"int32_t\000"
 25701      325F7400 
 25702              	.LASF61:
 25703 0550 6C696E69 		.ascii	"linintf\000"
 25703      6E746600 
 25704              	.LASF3:
 25705 0558 756E7369 		.ascii	"unsigned char\000"
 25705      676E6564 
 25705      20636861 
 25705      7200
 25706              	.LASF10:
 25707 0566 5F5F7569 		.ascii	"__uint32_t\000"
 25707      6E743332 
 25707      5F7400
 25708              	.LASF23:
 25709 0571 6B5F7573 		.ascii	"k_user_module_global\000"
 25709      65725F6D 
 25709      6F64756C 
 25709      655F676C 
 25709      6F62616C 
 25710              	.LASF99:
 25711 0586 6465636C 		.ascii	"decltype(nullptr)\000"
 25711      74797065 
 25711      286E756C 
 25711      6C707472 
 25711      2900
 25712              	.LASF2:
 25713 0598 7369676E 		.ascii	"signed char\000"
 25713      65642063 
 25713      68617200 
 25714              	.LASF7:
 25715 05a4 73686F72 		.ascii	"short unsigned int\000"
 25715      7420756E 
 25715      7369676E 
 25715      65642069 
 25715      6E7400
 25716              	.LASF65:
 25717 05b7 6F73635F 		.ascii	"osc_w0f_for_note\000"
 25717      7730665F 
 25717      666F725F 
 25717      6E6F7465 
 25717      00
 25718              	.LASF34:
 25719 05c8 75736572 		.ascii	"user_osc_param_t\000"
 25719      5F6F7363 
 25719      5F706172 
 25719      616D5F74 
 25719      00
 25720              	.LASF21:
 25721 05d9 646F7562 		.ascii	"double\000"
 25721      6C6500
 25722              	.LASF29:
 25723 05e0 73686170 		.ascii	"shape_lfo\000"
 25723      655F6C66 
ARM GAS  /tmp/ccJJl1OT.s 			page 457


 25723      6F00
 25724              	.LASF64:
 25725 05ea 636C6970 		.ascii	"clip1m1f\000"
 25725      316D3166 
 25725      00
 25726              	.LASF57:
 25727 05f3 636C616D 		.ascii	"clampmaxfsel\000"
 25727      706D6178 
 25727      6673656C 
 25727      00
 25728              	.LASF81:
 25729 0600 6B5F6F73 		.ascii	"k_osc_api_platform\000"
 25729      635F6170 
 25729      695F706C 
 25729      6174666F 
 25729      726D00
 25730              		.ident	"GCC: (GNU Tools for ARM Embedded Processors) 5.4.1 20160919 (release) [ARM/embedded-5-bran
ARM GAS  /tmp/ccJJl1OT.s 			page 458


DEFINED SYMBOLS
                            *ABS*:00000000 chords.cpp
     /tmp/ccJJl1OT.s:21     .text:00000000 $t
     /tmp/ccJJl1OT.s:26     .text:00000000 _hook_init
     /tmp/ccJJl1OT.s:61     .text:0000001c $d
     /tmp/ccJJl1OT.s:66     .text:00000024 $t
     /tmp/ccJJl1OT.s:71     .text:00000024 _hook_cycle
     /tmp/ccJJl1OT.s:136    .text:00000078 $d
     /tmp/ccJJl1OT.s:141    .text:00000082 $t
     /tmp/ccJJl1OT.s:145    .text:00000084 $d
     /tmp/ccJJl1OT.s:149    .text:0000008c $t
     /tmp/ccJJl1OT.s:1101   .text:00000434 $d
     /tmp/ccJJl1OT.s:1114   .text:0000045c $t
     /tmp/ccJJl1OT.s:2019   .text:00000758 $d
     /tmp/ccJJl1OT.s:2033   .text:00000774 $t
     /tmp/ccJJl1OT.s:3089   .text:00000aa4 $d
     /tmp/ccJJl1OT.s:3097   .text:00000ab8 $t
     /tmp/ccJJl1OT.s:4451   .text:00000e84 $d
     /tmp/ccJJl1OT.s:4459   .text:00000e8c $d
     /tmp/ccJJl1OT.s:4469   .text:00000eac $t
     /tmp/ccJJl1OT.s:7250   .text:00001ce8 $d
     /tmp/ccJJl1OT.s:7254   .text:00001cec $t
     /tmp/ccJJl1OT.s:7259   .text:00001cec _hook_on
     /tmp/ccJJl1OT.s:7274   .text:00001cee _hook_off
     /tmp/ccJJl1OT.s:7291   .text:00001cf0 _hook_param
     /tmp/ccJJl1OT.s:7310   .text:00001d08 $d
     /tmp/ccJJl1OT.s:7318   .text:00001d10 $t
     /tmp/ccJJl1OT.s:7370   .text:00001d6c $d
     /tmp/ccJJl1OT.s:7378   .rodata:00000000 $d
     /tmp/ccJJl1OT.s:7382   .rodata:00000000 _ZL10extensions
     /tmp/ccJJl1OT.s:7432   .bss:00000000 $d
     /tmp/ccJJl1OT.s:7436   .bss:00000000 _ZL7s_state
                     .debug_frame:00000010 $d

UNDEFINED SYMBOLS
midi_to_hz_lut_f
wt_sine_lut_f
wt_sqr_lut_f
wt_saw_lut_f
