ARM GAS  /tmp/ccJJl1OT.s 			page 1


   1              		.syntax unified
   2              		.cpu cortex-m4
   3              		.eabi_attribute 27, 1
   4              		.eabi_attribute 28, 1
   5              		.fpu fpv4-sp-d16
   6              		.eabi_attribute 20, 1
   7              		.eabi_attribute 21, 1
   8              		.eabi_attribute 23, 3
   9              		.eabi_attribute 24, 1
  10              		.eabi_attribute 25, 1
  11              		.eabi_attribute 26, 1
  12              		.eabi_attribute 30, 4
  13              		.eabi_attribute 34, 1
  14              		.eabi_attribute 18, 4
  15              		.thumb
  16              		.syntax unified
  17              		.file	"chords.cpp"
  18              		.text
  19              	.Ltext0:
  20              		.cfi_sections	.debug_frame
  21              		.align	1
  22              		.global	_hook_init
  23              		.thumb
  24              		.thumb_func
  25              		.type	_hook_init, %function
  26              	_hook_init:
  27              	.LFB239:
  28              		.file 1 "chords.cpp"
  29              		.loc 1 79 0
  30              		.cfi_startproc
  31              		@ args = 0, pretend = 0, frame = 0
  32              		@ frame_needed = 0, uses_anonymous_args = 0
  33              		@ link register save eliminated.
  34              	.LVL0:
  35 0000 064B     		ldr	r3, .L5
  36              	.LBB992:
  37              		.loc 1 82 0
  38 0002 0022     		movs	r2, #0
  39 0004 03F13001 		add	r1, r3, #48
  40              	.LVL1:
  41              	.L2:
  42              		.loc 1 82 0 is_stmt 0 discriminator 2
  43 0008 43F8042B 		str	r2, [r3], #4	@ float
  44              		.loc 1 81 0 is_stmt 1 discriminator 2
  45 000c 8B42     		cmp	r3, r1
  46              		.loc 1 83 0 discriminator 2
  47 000e DA62     		str	r2, [r3, #44]	@ float
  48              		.loc 1 81 0 discriminator 2
  49 0010 FAD1     		bne	.L2
  50              	.LBE992:
  51              		.loc 1 85 0
  52 0012 034B     		ldr	r3, .L5+4
  53 0014 0022     		movs	r2, #0
  54 0016 1A72     		strb	r2, [r3, #8]
  55              		.loc 1 86 0
  56 0018 9A72     		strb	r2, [r3, #10]
  57 001a 7047     		bx	lr
ARM GAS  /tmp/ccJJl1OT.s 			page 2


  58              	.L6:
  59              		.align	2
  60              	.L5:
  61 001c 10000000 		.word	.LANCHOR0+16
  62 0020 00000000 		.word	.LANCHOR0
  63              		.cfi_endproc
  64              	.LFE239:
  65              		.size	_hook_init, .-_hook_init
  66              		.align	1
  67              		.global	_hook_cycle
  68              		.thumb
  69              		.thumb_func
  70              		.type	_hook_cycle, %function
  71              	_hook_cycle:
  72              	.LFB240:
  73              		.loc 1 92 0
  74              		.cfi_startproc
  75              		@ args = 0, pretend = 0, frame = 104
  76              		@ frame_needed = 0, uses_anonymous_args = 0
  77              	.LVL2:
  78 0024 2DE9F04F 		push	{r4, r5, r6, r7, r8, r9, r10, fp, lr}
  79              		.cfi_def_cfa_offset 36
  80              		.cfi_offset 4, -36
  81              		.cfi_offset 5, -32
  82              		.cfi_offset 6, -28
  83              		.cfi_offset 7, -24
  84              		.cfi_offset 8, -20
  85              		.cfi_offset 9, -16
  86              		.cfi_offset 10, -12
  87              		.cfi_offset 11, -8
  88              		.cfi_offset 14, -4
  89              	.LBB993:
  90              		.loc 1 94 0
  91 0028 164B     		ldr	r3, .L403
  92 002a DFF85C80 		ldr	r8, .L403+4
  93 002e 93F80A90 		ldrb	r9, [r3, #10]	@ zero_extendqisi2
  94              	.LBE993:
  95              		.loc 1 92 0
  96 0032 9BB0     		sub	sp, sp, #108
  97              		.cfi_def_cfa_offset 144
  98              	.LBB994:
  99              		.loc 1 93 0
 100 0034 0026     		movs	r6, #0
 101              		.loc 1 94 0
 102 0036 0C27     		movs	r7, #12
 103              	.LVL3:
 104              	.L8:
 105              		.loc 1 94 0 is_stmt 0 discriminator 2
 106 0038 8488     		ldrh	r4, [r0, #4]
 107 003a DFF848E0 		ldr	lr, .L403
 108 003e 09EB1424 		add	r4, r9, r4, lsr #8
 109 0042 94FBF7F5 		sdiv	r5, r4, r7
 110 0046 07FB1544 		mls	r4, r7, r5, r4
 111 004a 06EB8404 		add	r4, r6, r4, lsl #2
 112 004e 03EB060C 		add	ip, r3, r6
 113              		.loc 1 93 0 is_stmt 1 discriminator 2
 114 0052 0136     		adds	r6, r6, #1
ARM GAS  /tmp/ccJJl1OT.s 			page 3


 115              	.LVL4:
 116              		.loc 1 94 0 discriminator 2
 117 0054 58F82440 		ldr	r4, [r8, r4, lsl #2]
 118 0058 8CF80C40 		strb	r4, [ip, #12]
 119              		.loc 1 93 0 discriminator 2
 120 005c 042E     		cmp	r6, #4
 121 005e EBD1     		bne	.L8
 122              	.LBE994:
 123              		.loc 1 98 0
 124 0060 0024     		movs	r4, #0
 125              		.loc 1 97 0
 126 0062 9EF80970 		ldrb	r7, [lr, #9]	@ zero_extendqisi2
 127              	.LVL5:
 128              		.loc 1 98 0
 129 0066 8EF80940 		strb	r4, [lr, #9]
 130              		.loc 1 102 0
 131 006a 9EF80B40 		ldrb	r4, [lr, #11]	@ zero_extendqisi2
 132 006e 042C     		cmp	r4, #4
 133 0070 00F2C486 		bhi	.L9
 134 0074 DFE814F0 		tbh	[pc, r4, lsl #1]
 135              	.L11:
 136 0078 0A00     		.2byte	(.L10-.L11)/2
 137 007a F201     		.2byte	(.L12-.L11)/2
 138 007c 7E03     		.2byte	(.L13-.L11)/2
 139 007e 2005     		.2byte	(.L14-.L11)/2
 140 0080 2005     		.2byte	(.L14-.L11)/2
 141              		.p2align 1
 142              	.L404:
 143 0082 00BF     		.align	2
 144              	.L403:
 145 0084 00000000 		.word	.LANCHOR0
 146 0088 00000000 		.word	.LANCHOR1
 147              	.L10:
 148              		.loc 1 104 0
 149 008c 8588     		ldrh	r5, [r0, #4]
 150 008e 1C7B     		ldrb	r4, [r3, #12]	@ zero_extendqisi2
 151 0090 93ED1C4A 		vldr.32	s8, [r3, #112]
 152              	.LBB995:
 153              	.LBB996:
 154              	.LBB997:
 155              	.LBB998:
 156              		.file 2 "../../logue-sdk/platform/nutekt-digital/inc/osc_api.h"
 157              		.loc 2 115 0
 158 0094 E74E     		ldr	r6, .L405
 159              	.LVL6:
 160              	.LBE998:
 161              	.LBE997:
 162              	.LBB1005:
 163              	.LBB1006:
 164              		.file 3 "../../logue-sdk/platform/nutekt-digital/inc/utils/float_math.h"
 165              		.loc 3 826 0
 166 0096 DFEDE84A 		vldr.32	s9, .L405+4
 167              	.LBE1006:
 168              	.LBE1005:
 169              		.loc 2 130 0
 170 009a 9FEDE85A 		vldr.32	s10, .L405+8
 171              	.LBE996:
ARM GAS  /tmp/ccJJl1OT.s 			page 4


 172              	.LBE995:
 173              		.loc 1 105 0
 174 009e 9FEDE83A 		vldr.32	s6, .L405+12
 175              		.loc 1 104 0
 176 00a2 04EB1524 		add	r4, r4, r5, lsr #8
 177 00a6 EDB2     		uxtb	r5, r5
 178 00a8 07EE105A 		vmov	s14, r5	@ int
 179 00ac B8EEC76A 		vcvt.f32.s32	s12, s14
 180 00b0 E4B2     		uxtb	r4, r4
 181 00b2 36EE047A 		vadd.f32	s14, s12, s8
 182              	.LBB1021:
 183              	.LBB1019:
 184              	.LBB1008:
 185              	.LBB1003:
 186              	.LBB999:
 187              	.LBB1000:
 188              		.file 4 "../../logue-sdk/platform/nutekt-digital/inc/utils/int_math.h"
 189              		.loc 4 85 0
 190 00b6 962C     		cmp	r4, #150
 191              	.LBE1000:
 192              	.LBE999:
 193              	.LBE1003:
 194              	.LBE1008:
 195              	.LBE1019:
 196              	.LBE1021:
 197              		.loc 1 104 0
 198 00b8 BCEEC77A 		vcvt.u32.f32	s14, s14
 199              		.loc 1 105 0
 200 00bc 24EE033A 		vmul.f32	s6, s8, s6
 201              		.loc 1 104 0
 202 00c0 8DED017A 		vstr.32	s14, [sp, #4]	@ int
 203 00c4 9DF80450 		ldrb	r5, [sp, #4]	@ zero_extendqisi2
 204 00c8 07EE105A 		vmov	s14, r5	@ int
 205              	.LVL7:
 206              	.LBB1022:
 207              	.LBB1020:
 208              	.LBB1009:
 209              	.LBB1004:
 210              	.LBB1002:
 211              	.LBB1001:
 212              		.loc 4 85 0
 213 00cc 94BF     		ite	ls
 214 00ce 2546     		movls	r5, r4
 215 00d0 9725     		movhi	r5, #151
 216              	.LVL8:
 217              	.LBE1001:
 218              	.LBE1002:
 219              		.loc 2 115 0
 220 00d2 06EB8505 		add	r5, r6, r5, lsl #2
 221 00d6 D5ED006A 		vldr.32	s13, [r5]
 222              	.LVL9:
 223              	.LBE1004:
 224              	.LBE1009:
 225              		.loc 2 126 0
 226 00da 651C     		adds	r5, r4, #1
 227 00dc EDB2     		uxtb	r5, r5
 228              	.LVL10:
ARM GAS  /tmp/ccJJl1OT.s 			page 5


 229              	.LBB1010:
 230              	.LBB1011:
 231              	.LBB1012:
 232              	.LBB1013:
 233              		.loc 4 85 0
 234 00de 962D     		cmp	r5, #150
 235 00e0 94BF     		ite	ls
 236 00e2 AE46     		movls	lr, r5
 237 00e4 4FF0970E 		movhi	lr, #151
 238              	.LVL11:
 239              	.LBE1013:
 240              	.LBE1012:
 241              		.loc 2 115 0
 242 00e8 06EB8E0E 		add	lr, r6, lr, lsl #2
 243              	.LBE1011:
 244              	.LBE1010:
 245              	.LBB1014:
 246              	.LBB1007:
 247              		.loc 3 826 0
 248 00ec DEED005A 		vldr.32	s11, [lr]
 249 00f0 B8EEC77A 		vcvt.f32.s32	s14, s14
 250              	.LVL12:
 251 00f4 75EEE65A 		vsub.f32	s11, s11, s13
 252 00f8 27EE247A 		vmul.f32	s14, s14, s9
 253 00fc F0EE663A 		vmov.f32	s7, s13
 254 0100 E7EE253A 		vfma.f32	s7, s14, s11
 255              	.LVL13:
 256              	.LBE1007:
 257              	.LBE1014:
 258              	.LBB1015:
 259              	.LBB1016:
 260              	.LBB1017:
 261              	.LBB1018:
 262              		.loc 3 193 0
 263 0104 9FEDCF7A 		vldr.32	s14, .L405+16
 264 0108 F4EEC73A 		vcmpe.f32	s7, s14
 265 010c F1EE10FA 		vmrs	APSR_nzcv, FPSCR
 266 0110 A8BF     		it	ge
 267 0112 F0EE473A 		vmovge.f32	s7, s14
 268              	.LVL14:
 269              	.LBE1018:
 270              	.LBE1017:
 271              	.LBE1016:
 272              	.LBE1015:
 273              		.loc 2 130 0
 274 0116 63EE853A 		vmul.f32	s7, s7, s10
 275              	.LVL15:
 276              	.LBE1020:
 277              	.LBE1022:
 278              	.LBB1023:
 279              	.LBB1024:
 280              	.LBB1025:
 281              	.LBB1026:
 282              		.loc 3 826 0
 283 011a F0EE662A 		vmov.f32	s5, s13
 284              	.LBE1026:
 285              	.LBE1025:
ARM GAS  /tmp/ccJJl1OT.s 			page 6


 286              	.LBE1024:
 287              	.LBE1023:
 288              		.loc 1 104 0
 289 011e C3ED043A 		vstr.32	s7, [r3, #16]
 290 0122 CDED023A 		vstr.32	s7, [sp, #8]
 291              		.loc 1 105 0
 292 0126 76EE033A 		vadd.f32	s7, s12, s6
 293              	.LBB1048:
 294              	.LBB1049:
 295              	.LBB1050:
 296              	.LBB1051:
 297              		.loc 3 826 0
 298 012a B0EE662A 		vmov.f32	s4, s13
 299              	.LBE1051:
 300              	.LBE1050:
 301              	.LBE1049:
 302              	.LBE1048:
 303              		.loc 1 105 0
 304 012e FCEEE33A 		vcvt.u32.f32	s7, s7
 305              	.LBB1066:
 306              	.LBB1067:
 307              	.LBB1068:
 308              	.LBB1069:
 309              		.loc 3 826 0
 310 0132 F0EE661A 		vmov.f32	s3, s13
 311              	.LBE1069:
 312              	.LBE1068:
 313              	.LBE1067:
 314              	.LBE1066:
 315              		.loc 1 105 0
 316 0136 CDED013A 		vstr.32	s7, [sp, #4]	@ int
 317 013a 9DF804E0 		ldrb	lr, [sp, #4]	@ zero_extendqisi2
 318 013e 03EE90EA 		vmov	s7, lr	@ int
 319              	.LVL16:
 320              	.LBB1084:
 321              	.LBB1043:
 322              	.LBB1031:
 323              	.LBB1027:
 324              		.loc 3 826 0
 325 0142 F8EEE33A 		vcvt.f32.s32	s7, s7
 326              	.LBE1027:
 327              	.LBE1031:
 328              	.LBE1043:
 329              	.LBE1084:
 330              	.LBB1085:
 331              	.LBB1086:
 332              	.LBB1087:
 333              	.LBB1088:
 334 0146 B0EE661A 		vmov.f32	s2, s13
 335              	.LBE1088:
 336              	.LBE1087:
 337              	.LBE1086:
 338              	.LBE1085:
 339              	.LBB1103:
 340              	.LBB1044:
 341              	.LBB1032:
 342              	.LBB1028:
ARM GAS  /tmp/ccJJl1OT.s 			page 7


 343 014a 63EEA43A 		vmul.f32	s7, s7, s9
 344              	.LBE1028:
 345              	.LBE1032:
 346              	.LBE1044:
 347              	.LBE1103:
 348              	.LBB1104:
 349              	.LBB1105:
 350              	.LBB1106:
 351              	.LBB1107:
 352 014e F0EE660A 		vmov.f32	s1, s13
 353              	.LBE1107:
 354              	.LBE1106:
 355              	.LBE1105:
 356              	.LBE1104:
 357              	.LBB1121:
 358              	.LBB1045:
 359              	.LBB1033:
 360              	.LBB1029:
 361 0152 E3EEA52A 		vfma.f32	s5, s7, s11
 362              	.LBE1029:
 363              	.LBE1033:
 364              	.LBE1045:
 365              	.LBE1121:
 366              		.loc 1 114 0
 367 0156 36EE433A 		vsub.f32	s6, s12, s6
 368              	.LBB1122:
 369              	.LBB1046:
 370              	.LBB1034:
 371              	.LBB1035:
 372              	.LBB1036:
 373              	.LBB1037:
 374              		.loc 3 193 0
 375 015a F4EEC72A 		vcmpe.f32	s5, s14
 376 015e F1EE10FA 		vmrs	APSR_nzcv, FPSCR
 377              	.LBE1037:
 378              	.LBE1036:
 379              	.LBE1035:
 380              	.LBE1034:
 381              	.LBB1041:
 382              	.LBB1030:
 383              		.loc 3 826 0
 384 0162 F0EE623A 		vmov.f32	s7, s5
 385              	.LVL17:
 386              	.LBE1030:
 387              	.LBE1041:
 388              	.LBE1046:
 389              	.LBE1122:
 390              		.loc 1 106 0
 391 0166 DFEDB82A 		vldr.32	s5, .L405+20
 392              	.LVL18:
 393              	.LBB1123:
 394              	.LBB1047:
 395              	.LBB1042:
 396              	.LBB1040:
 397              	.LBB1039:
 398              	.LBB1038:
 399              		.loc 3 193 0
ARM GAS  /tmp/ccJJl1OT.s 			page 8


 400 016a A8BF     		it	ge
 401 016c F0EE473A 		vmovge.f32	s7, s14
 402              	.LVL19:
 403              	.LBE1038:
 404              	.LBE1039:
 405              	.LBE1040:
 406              	.LBE1042:
 407              		.loc 2 130 0
 408 0170 63EE853A 		vmul.f32	s7, s7, s10
 409              	.LVL20:
 410              	.LBE1047:
 411              	.LBE1123:
 412              		.loc 1 106 0
 413 0174 64EE222A 		vmul.f32	s5, s8, s5
 414              		.loc 1 105 0
 415 0178 C3ED053A 		vstr.32	s7, [r3, #20]
 416 017c CDED033A 		vstr.32	s7, [sp, #12]
 417              		.loc 1 106 0
 418 0180 76EE223A 		vadd.f32	s7, s12, s5
 419              		.loc 1 113 0
 420 0184 76EE622A 		vsub.f32	s5, s12, s5
 421              		.loc 1 106 0
 422 0188 FCEEE33A 		vcvt.u32.f32	s7, s7
 423 018c CDED013A 		vstr.32	s7, [sp, #4]	@ int
 424 0190 9DF804E0 		ldrb	lr, [sp, #4]	@ zero_extendqisi2
 425 0194 03EE90EA 		vmov	s7, lr	@ int
 426              	.LVL21:
 427              	.LBB1124:
 428              	.LBB1064:
 429              	.LBB1054:
 430              	.LBB1052:
 431              		.loc 3 826 0
 432 0198 F8EEE33A 		vcvt.f32.s32	s7, s7
 433 019c 63EEA43A 		vmul.f32	s7, s7, s9
 434 01a0 A3EEA52A 		vfma.f32	s4, s7, s11
 435              	.LBE1052:
 436              	.LBE1054:
 437              	.LBB1055:
 438              	.LBB1056:
 439              	.LBB1057:
 440              	.LBB1058:
 441              		.loc 3 193 0
 442 01a4 B4EEC72A 		vcmpe.f32	s4, s14
 443 01a8 F1EE10FA 		vmrs	APSR_nzcv, FPSCR
 444              	.LBE1058:
 445              	.LBE1057:
 446              	.LBE1056:
 447              	.LBE1055:
 448              	.LBB1062:
 449              	.LBB1053:
 450              		.loc 3 826 0
 451 01ac F0EE423A 		vmov.f32	s7, s4
 452              	.LVL22:
 453              	.LBE1053:
 454              	.LBE1062:
 455              	.LBE1064:
 456              	.LBE1124:
ARM GAS  /tmp/ccJJl1OT.s 			page 9


 457              		.loc 1 107 0
 458 01b0 9FEDA62A 		vldr.32	s4, .L405+24
 459              	.LVL23:
 460              	.LBB1125:
 461              	.LBB1065:
 462              	.LBB1063:
 463              	.LBB1061:
 464              	.LBB1060:
 465              	.LBB1059:
 466              		.loc 3 193 0
 467 01b4 A8BF     		it	ge
 468 01b6 F0EE473A 		vmovge.f32	s7, s14
 469              	.LVL24:
 470              	.LBE1059:
 471              	.LBE1060:
 472              	.LBE1061:
 473              	.LBE1063:
 474              		.loc 2 130 0
 475 01ba 63EE853A 		vmul.f32	s7, s7, s10
 476              	.LVL25:
 477              	.LBE1065:
 478              	.LBE1125:
 479              		.loc 1 107 0
 480 01be 24EE022A 		vmul.f32	s4, s8, s4
 481              		.loc 1 106 0
 482 01c2 C3ED063A 		vstr.32	s7, [r3, #24]
 483 01c6 CDED043A 		vstr.32	s7, [sp, #16]
 484              		.loc 1 107 0
 485 01ca 76EE023A 		vadd.f32	s7, s12, s4
 486              		.loc 1 112 0
 487 01ce 36EE422A 		vsub.f32	s4, s12, s4
 488              		.loc 1 107 0
 489 01d2 FCEEE33A 		vcvt.u32.f32	s7, s7
 490 01d6 CDED013A 		vstr.32	s7, [sp, #4]	@ int
 491 01da 9DF804E0 		ldrb	lr, [sp, #4]	@ zero_extendqisi2
 492 01de 03EE90EA 		vmov	s7, lr	@ int
 493              	.LVL26:
 494              	.LBB1126:
 495              	.LBB1082:
 496              	.LBB1072:
 497              	.LBB1070:
 498              		.loc 3 826 0
 499 01e2 F8EEE33A 		vcvt.f32.s32	s7, s7
 500 01e6 63EEA43A 		vmul.f32	s7, s7, s9
 501 01ea E3EEA51A 		vfma.f32	s3, s7, s11
 502              	.LBE1070:
 503              	.LBE1072:
 504              	.LBB1073:
 505              	.LBB1074:
 506              	.LBB1075:
 507              	.LBB1076:
 508              		.loc 3 193 0
 509 01ee F4EEC71A 		vcmpe.f32	s3, s14
 510 01f2 F1EE10FA 		vmrs	APSR_nzcv, FPSCR
 511              	.LBE1076:
 512              	.LBE1075:
 513              	.LBE1074:
ARM GAS  /tmp/ccJJl1OT.s 			page 10


 514              	.LBE1073:
 515              	.LBB1080:
 516              	.LBB1071:
 517              		.loc 3 826 0
 518 01f6 F0EE613A 		vmov.f32	s7, s3
 519              	.LVL27:
 520              	.LBE1071:
 521              	.LBE1080:
 522              	.LBE1082:
 523              	.LBE1126:
 524              		.loc 1 108 0
 525 01fa DFED951A 		vldr.32	s3, .L405+28
 526              	.LVL28:
 527              	.LBB1127:
 528              	.LBB1083:
 529              	.LBB1081:
 530              	.LBB1079:
 531              	.LBB1078:
 532              	.LBB1077:
 533              		.loc 3 193 0
 534 01fe A8BF     		it	ge
 535 0200 F0EE473A 		vmovge.f32	s7, s14
 536              	.LVL29:
 537              	.LBE1077:
 538              	.LBE1078:
 539              	.LBE1079:
 540              	.LBE1081:
 541              		.loc 2 130 0
 542 0204 63EE853A 		vmul.f32	s7, s7, s10
 543              	.LVL30:
 544              	.LBE1083:
 545              	.LBE1127:
 546              		.loc 1 108 0
 547 0208 64EE211A 		vmul.f32	s3, s8, s3
 548              		.loc 1 107 0
 549 020c C3ED073A 		vstr.32	s7, [r3, #28]
 550 0210 CDED053A 		vstr.32	s7, [sp, #20]
 551              		.loc 1 108 0
 552 0214 76EE213A 		vadd.f32	s7, s12, s3
 553              		.loc 1 111 0
 554 0218 76EE611A 		vsub.f32	s3, s12, s3
 555              		.loc 1 108 0
 556 021c FCEEE33A 		vcvt.u32.f32	s7, s7
 557 0220 CDED013A 		vstr.32	s7, [sp, #4]	@ int
 558 0224 9DF804E0 		ldrb	lr, [sp, #4]	@ zero_extendqisi2
 559 0228 03EE90EA 		vmov	s7, lr	@ int
 560              	.LVL31:
 561              	.LBB1128:
 562              	.LBB1101:
 563              	.LBB1091:
 564              	.LBB1089:
 565              		.loc 3 826 0
 566 022c F8EEE33A 		vcvt.f32.s32	s7, s7
 567 0230 63EEA43A 		vmul.f32	s7, s7, s9
 568 0234 A3EEA51A 		vfma.f32	s2, s7, s11
 569              	.LBE1089:
 570              	.LBE1091:
ARM GAS  /tmp/ccJJl1OT.s 			page 11


 571              	.LBB1092:
 572              	.LBB1093:
 573              	.LBB1094:
 574              	.LBB1095:
 575              		.loc 3 193 0
 576 0238 B4EEC71A 		vcmpe.f32	s2, s14
 577 023c F1EE10FA 		vmrs	APSR_nzcv, FPSCR
 578              	.LBE1095:
 579              	.LBE1094:
 580              	.LBE1093:
 581              	.LBE1092:
 582              	.LBB1099:
 583              	.LBB1090:
 584              		.loc 3 826 0
 585 0240 F0EE413A 		vmov.f32	s7, s2
 586              	.LVL32:
 587              	.LBE1090:
 588              	.LBE1099:
 589              	.LBE1101:
 590              	.LBE1128:
 591              		.loc 1 109 0
 592 0244 9FED831A 		vldr.32	s2, .L405+32
 593              	.LVL33:
 594              	.LBB1129:
 595              	.LBB1102:
 596              	.LBB1100:
 597              	.LBB1098:
 598              	.LBB1097:
 599              	.LBB1096:
 600              		.loc 3 193 0
 601 0248 A8BF     		it	ge
 602 024a F0EE473A 		vmovge.f32	s7, s14
 603              	.LVL34:
 604              	.LBE1096:
 605              	.LBE1097:
 606              	.LBE1098:
 607              	.LBE1100:
 608              		.loc 2 130 0
 609 024e 63EE853A 		vmul.f32	s7, s7, s10
 610              	.LVL35:
 611              	.LBE1102:
 612              	.LBE1129:
 613              		.loc 1 109 0
 614 0252 24EE011A 		vmul.f32	s2, s8, s2
 615              		.loc 1 108 0
 616 0256 C3ED083A 		vstr.32	s7, [r3, #32]
 617 025a CDED063A 		vstr.32	s7, [sp, #24]
 618              		.loc 1 109 0
 619 025e 76EE013A 		vadd.f32	s7, s12, s2
 620              		.loc 1 110 0
 621 0262 36EE411A 		vsub.f32	s2, s12, s2
 622              		.loc 1 109 0
 623 0266 FCEEE33A 		vcvt.u32.f32	s7, s7
 624              		.loc 1 115 0
 625 026a 36EE446A 		vsub.f32	s12, s12, s8
 626              		.loc 1 109 0
 627 026e CDED013A 		vstr.32	s7, [sp, #4]	@ int
ARM GAS  /tmp/ccJJl1OT.s 			page 12


 628 0272 9DF804E0 		ldrb	lr, [sp, #4]	@ zero_extendqisi2
 629 0276 03EE90EA 		vmov	s7, lr	@ int
 630              	.LVL36:
 631              	.LBB1130:
 632              	.LBB1120:
 633              	.LBB1110:
 634              	.LBB1108:
 635              		.loc 3 826 0
 636 027a F8EEE33A 		vcvt.f32.s32	s7, s7
 637 027e 63EEA43A 		vmul.f32	s7, s7, s9
 638 0282 E3EEA50A 		vfma.f32	s1, s7, s11
 639              	.LBE1108:
 640              	.LBE1110:
 641              	.LBB1111:
 642              	.LBB1112:
 643              	.LBB1113:
 644              	.LBB1114:
 645              		.loc 3 193 0
 646 0286 F4EEC70A 		vcmpe.f32	s1, s14
 647 028a F1EE10FA 		vmrs	APSR_nzcv, FPSCR
 648              	.LBE1114:
 649              	.LBE1113:
 650              	.LBE1112:
 651              	.LBE1111:
 652              	.LBB1118:
 653              	.LBB1109:
 654              		.loc 3 826 0
 655 028e F0EE603A 		vmov.f32	s7, s1
 656              	.LVL37:
 657              	.LBE1109:
 658              	.LBE1118:
 659              	.LBB1119:
 660              	.LBB1117:
 661              	.LBB1116:
 662              	.LBB1115:
 663              		.loc 3 193 0
 664 0292 A8BF     		it	ge
 665 0294 F0EE473A 		vmovge.f32	s7, s14
 666              	.LVL38:
 667              	.LBE1115:
 668              	.LBE1116:
 669              	.LBE1117:
 670              	.LBE1119:
 671              		.loc 2 130 0
 672 0298 63EE853A 		vmul.f32	s7, s7, s10
 673              	.LVL39:
 674              	.LBE1120:
 675              	.LBE1130:
 676              		.loc 1 109 0
 677 029c C3ED093A 		vstr.32	s7, [r3, #36]
 678 02a0 CDED073A 		vstr.32	s7, [sp, #28]
 679              		.loc 1 110 0
 680 02a4 FCEEC13A 		vcvt.u32.f32	s7, s2
 681              	.LBB1131:
 682              	.LBB1132:
 683              	.LBB1133:
 684              	.LBB1134:
ARM GAS  /tmp/ccJJl1OT.s 			page 13


 685              		.loc 3 826 0
 686 02a8 B0EE661A 		vmov.f32	s2, s13
 687              	.LBE1134:
 688              	.LBE1133:
 689              	.LBE1132:
 690              	.LBE1131:
 691              		.loc 1 110 0
 692 02ac CDED013A 		vstr.32	s7, [sp, #4]	@ int
 693 02b0 9DF804E0 		ldrb	lr, [sp, #4]	@ zero_extendqisi2
 694 02b4 03EE90EA 		vmov	s7, lr	@ int
 695              	.LVL40:
 696              	.LBB1148:
 697              	.LBB1147:
 698              	.LBB1137:
 699              	.LBB1135:
 700              		.loc 3 826 0
 701 02b8 F8EEE33A 		vcvt.f32.s32	s7, s7
 702 02bc 63EEA43A 		vmul.f32	s7, s7, s9
 703 02c0 A5EEA31A 		vfma.f32	s2, s11, s7
 704              	.LBE1135:
 705              	.LBE1137:
 706              	.LBB1138:
 707              	.LBB1139:
 708              	.LBB1140:
 709              	.LBB1141:
 710              		.loc 3 193 0
 711 02c4 B4EEC71A 		vcmpe.f32	s2, s14
 712 02c8 F1EE10FA 		vmrs	APSR_nzcv, FPSCR
 713              	.LBE1141:
 714              	.LBE1140:
 715              	.LBE1139:
 716              	.LBE1138:
 717              	.LBB1145:
 718              	.LBB1136:
 719              		.loc 3 826 0
 720 02cc F0EE413A 		vmov.f32	s7, s2
 721              	.LVL41:
 722              	.LBE1136:
 723              	.LBE1145:
 724              	.LBB1146:
 725              	.LBB1144:
 726              	.LBB1143:
 727              	.LBB1142:
 728              		.loc 3 193 0
 729 02d0 A8BF     		it	ge
 730 02d2 F0EE473A 		vmovge.f32	s7, s14
 731              	.LVL42:
 732              	.LBE1142:
 733              	.LBE1143:
 734              	.LBE1144:
 735              	.LBE1146:
 736              		.loc 2 130 0
 737 02d6 63EE853A 		vmul.f32	s7, s7, s10
 738              	.LVL43:
 739              	.LBE1147:
 740              	.LBE1148:
 741              		.loc 1 110 0
ARM GAS  /tmp/ccJJl1OT.s 			page 14


 742 02da C3ED0A3A 		vstr.32	s7, [r3, #40]
 743 02de CDED083A 		vstr.32	s7, [sp, #32]
 744              		.loc 1 111 0
 745 02e2 FCEEE13A 		vcvt.u32.f32	s7, s3
 746              	.LBB1149:
 747              	.LBB1150:
 748              	.LBB1151:
 749              	.LBB1152:
 750              		.loc 3 826 0
 751 02e6 F0EE661A 		vmov.f32	s3, s13
 752              	.LBE1152:
 753              	.LBE1151:
 754              	.LBE1150:
 755              	.LBE1149:
 756              		.loc 1 111 0
 757 02ea CDED013A 		vstr.32	s7, [sp, #4]	@ int
 758 02ee 9DF804E0 		ldrb	lr, [sp, #4]	@ zero_extendqisi2
 759 02f2 03EE90EA 		vmov	s7, lr	@ int
 760              	.LVL44:
 761              	.LBB1166:
 762              	.LBB1165:
 763              	.LBB1155:
 764              	.LBB1153:
 765              		.loc 3 826 0
 766 02f6 F8EEE33A 		vcvt.f32.s32	s7, s7
 767 02fa 63EEA43A 		vmul.f32	s7, s7, s9
 768 02fe E5EEA31A 		vfma.f32	s3, s11, s7
 769              	.LBE1153:
 770              	.LBE1155:
 771              	.LBB1156:
 772              	.LBB1157:
 773              	.LBB1158:
 774              	.LBB1159:
 775              		.loc 3 193 0
 776 0302 F4EEC71A 		vcmpe.f32	s3, s14
 777 0306 F1EE10FA 		vmrs	APSR_nzcv, FPSCR
 778              	.LBE1159:
 779              	.LBE1158:
 780              	.LBE1157:
 781              	.LBE1156:
 782              	.LBB1163:
 783              	.LBB1154:
 784              		.loc 3 826 0
 785 030a F0EE613A 		vmov.f32	s7, s3
 786              	.LVL45:
 787              	.LBE1154:
 788              	.LBE1163:
 789              	.LBB1164:
 790              	.LBB1162:
 791              	.LBB1161:
 792              	.LBB1160:
 793              		.loc 3 193 0
 794 030e A8BF     		it	ge
 795 0310 F0EE473A 		vmovge.f32	s7, s14
 796              	.LVL46:
 797              	.LBE1160:
 798              	.LBE1161:
ARM GAS  /tmp/ccJJl1OT.s 			page 15


 799              	.LBE1162:
 800              	.LBE1164:
 801              		.loc 2 130 0
 802 0314 63EE853A 		vmul.f32	s7, s7, s10
 803              	.LVL47:
 804              	.LBE1165:
 805              	.LBE1166:
 806              		.loc 1 111 0
 807 0318 C3ED0B3A 		vstr.32	s7, [r3, #44]
 808 031c CDED093A 		vstr.32	s7, [sp, #36]
 809              		.loc 1 112 0
 810 0320 FCEEC23A 		vcvt.u32.f32	s7, s4
 811              	.LBB1167:
 812              	.LBB1168:
 813              	.LBB1169:
 814              	.LBB1170:
 815              		.loc 3 826 0
 816 0324 B0EE662A 		vmov.f32	s4, s13
 817              	.LBE1170:
 818              	.LBE1169:
 819              	.LBE1168:
 820              	.LBE1167:
 821              		.loc 1 112 0
 822 0328 CDED013A 		vstr.32	s7, [sp, #4]	@ int
 823 032c 9DF804E0 		ldrb	lr, [sp, #4]	@ zero_extendqisi2
 824 0330 03EE90EA 		vmov	s7, lr	@ int
 825              	.LVL48:
 826              	.LBB1184:
 827              	.LBB1183:
 828              	.LBB1173:
 829              	.LBB1171:
 830              		.loc 3 826 0
 831 0334 F8EEE33A 		vcvt.f32.s32	s7, s7
 832 0338 63EEA43A 		vmul.f32	s7, s7, s9
 833 033c A5EEA32A 		vfma.f32	s4, s11, s7
 834              	.LBE1171:
 835              	.LBE1173:
 836              	.LBB1174:
 837              	.LBB1175:
 838              	.LBB1176:
 839              	.LBB1177:
 840              		.loc 3 193 0
 841 0340 B4EEC72A 		vcmpe.f32	s4, s14
 842 0344 F1EE10FA 		vmrs	APSR_nzcv, FPSCR
 843              	.LBE1177:
 844              	.LBE1176:
 845              	.LBE1175:
 846              	.LBE1174:
 847              	.LBB1181:
 848              	.LBB1172:
 849              		.loc 3 826 0
 850 0348 F0EE423A 		vmov.f32	s7, s4
 851              	.LVL49:
 852              	.LBE1172:
 853              	.LBE1181:
 854              	.LBB1182:
 855              	.LBB1180:
ARM GAS  /tmp/ccJJl1OT.s 			page 16


 856              	.LBB1179:
 857              	.LBB1178:
 858              		.loc 3 193 0
 859 034c A8BF     		it	ge
 860 034e F0EE473A 		vmovge.f32	s7, s14
 861              	.LVL50:
 862              	.LBE1178:
 863              	.LBE1179:
 864              	.LBE1180:
 865              	.LBE1182:
 866              		.loc 2 130 0
 867 0352 63EE853A 		vmul.f32	s7, s7, s10
 868              	.LVL51:
 869              	.LBE1183:
 870              	.LBE1184:
 871              		.loc 1 112 0
 872 0356 C3ED0C3A 		vstr.32	s7, [r3, #48]
 873 035a CDED0A3A 		vstr.32	s7, [sp, #40]
 874              		.loc 1 113 0
 875 035e FCEEE23A 		vcvt.u32.f32	s7, s5
 876              	.LBB1185:
 877              	.LBB1186:
 878              	.LBB1187:
 879              	.LBB1188:
 880              		.loc 3 826 0
 881 0362 F0EE662A 		vmov.f32	s5, s13
 882              	.LBE1188:
 883              	.LBE1187:
 884              	.LBE1186:
 885              	.LBE1185:
 886              		.loc 1 113 0
 887 0366 CDED013A 		vstr.32	s7, [sp, #4]	@ int
 888 036a 9DF804E0 		ldrb	lr, [sp, #4]	@ zero_extendqisi2
 889 036e 03EE90EA 		vmov	s7, lr	@ int
 890              	.LVL52:
 891              	.LBB1205:
 892              	.LBB1203:
 893              	.LBB1192:
 894              	.LBB1189:
 895              		.loc 3 826 0
 896 0372 F8EEE33A 		vcvt.f32.s32	s7, s7
 897              	.LBE1189:
 898              	.LBE1192:
 899              	.LBE1203:
 900              	.LBE1205:
 901              		.loc 1 113 0
 902 0376 DFF8E0E0 		ldr	lr, .L405+36
 903              	.LVL53:
 904              	.LBB1206:
 905              	.LBB1204:
 906              	.LBB1193:
 907              	.LBB1190:
 908              		.loc 3 826 0
 909 037a 63EEA43A 		vmul.f32	s7, s7, s9
 910 037e E5EEA32A 		vfma.f32	s5, s11, s7
 911              	.LBE1190:
 912              	.LBE1193:
ARM GAS  /tmp/ccJJl1OT.s 			page 17


 913              	.LBB1194:
 914              	.LBB1195:
 915              	.LBB1196:
 916              	.LBB1197:
 917              		.loc 3 193 0
 918 0382 F4EEC72A 		vcmpe.f32	s5, s14
 919 0386 F1EE10FA 		vmrs	APSR_nzcv, FPSCR
 920              	.LBE1197:
 921              	.LBE1196:
 922              	.LBE1195:
 923              	.LBE1194:
 924              	.LBB1201:
 925              	.LBB1191:
 926              		.loc 3 826 0
 927 038a F0EE623A 		vmov.f32	s7, s5
 928              	.LVL54:
 929              	.LBE1191:
 930              	.LBE1201:
 931              	.LBB1202:
 932              	.LBB1200:
 933              	.LBB1199:
 934              	.LBB1198:
 935              		.loc 3 193 0
 936 038e A8BF     		it	ge
 937 0390 F0EE473A 		vmovge.f32	s7, s14
 938              	.LVL55:
 939              	.LBE1198:
 940              	.LBE1199:
 941              	.LBE1200:
 942              	.LBE1202:
 943              		.loc 2 130 0
 944 0394 63EE853A 		vmul.f32	s7, s7, s10
 945              	.LVL56:
 946              	.LBE1204:
 947              	.LBE1206:
 948              		.loc 1 113 0
 949 0398 CEED0D3A 		vstr.32	s7, [lr, #52]
 950 039c CDED0B3A 		vstr.32	s7, [sp, #44]
 951              		.loc 1 114 0
 952 03a0 FCEEC33A 		vcvt.u32.f32	s7, s6
 953 03a4 CDED013A 		vstr.32	s7, [sp, #4]	@ int
 954 03a8 9DF804C0 		ldrb	ip, [sp, #4]	@ zero_extendqisi2
 955 03ac 03EE90CA 		vmov	s7, ip	@ int
 956              	.LVL57:
 957              	.LBB1207:
 958              	.LBB1208:
 959              	.LBB1209:
 960              	.LBB1210:
 961              		.loc 3 826 0
 962 03b0 F8EEE33A 		vcvt.f32.s32	s7, s7
 963 03b4 63EEA43A 		vmul.f32	s7, s7, s9
 964 03b8 E5EEA36A 		vfma.f32	s13, s11, s7
 965              	.LVL58:
 966              	.LBE1210:
 967              	.LBE1209:
 968              	.LBB1211:
 969              	.LBB1212:
ARM GAS  /tmp/ccJJl1OT.s 			page 18


 970              	.LBB1213:
 971              	.LBB1214:
 972              		.loc 3 193 0
 973 03bc F4EEC76A 		vcmpe.f32	s13, s14
 974 03c0 F1EE10FA 		vmrs	APSR_nzcv, FPSCR
 975 03c4 A8BF     		it	ge
 976 03c6 F0EE476A 		vmovge.f32	s13, s14
 977              	.LVL59:
 978              	.LBE1214:
 979              	.LBE1213:
 980              	.LBE1212:
 981              	.LBE1211:
 982              		.loc 2 130 0
 983 03ca 66EE856A 		vmul.f32	s13, s13, s10
 984              	.LVL60:
 985              	.LBE1208:
 986              	.LBE1207:
 987              	.LBB1215:
 988              	.LBB1216:
 989              	.LBB1217:
 990              	.LBB1218:
 991              	.LBB1219:
 992              	.LBB1220:
 993              		.loc 4 85 0
 994 03ce 972C     		cmp	r4, #151
 995              	.LBE1220:
 996              	.LBE1219:
 997              	.LBE1218:
 998              	.LBE1217:
 999              	.LBE1216:
 1000              	.LBE1215:
 1001              		.loc 1 114 0
 1002 03d0 CEED0E6A 		vstr.32	s13, [lr, #56]
 1003 03d4 CDED0C6A 		vstr.32	s13, [sp, #48]
 1004              		.loc 1 115 0
 1005 03d8 FCEEC66A 		vcvt.u32.f32	s13, s12
 1006              	.LBB1244:
 1007              	.LBB1241:
 1008              	.LBB1226:
 1009              	.LBB1223:
 1010              	.LBB1222:
 1011              	.LBB1221:
 1012              		.loc 4 85 0
 1013 03dc 28BF     		it	cs
 1014 03de 9724     		movcs	r4, #151
 1015              	.LBE1221:
 1016              	.LBE1222:
 1017              	.LBE1223:
 1018              	.LBE1226:
 1019              	.LBE1241:
 1020              	.LBE1244:
 1021              		.loc 1 115 0
 1022 03e0 CDED016A 		vstr.32	s13, [sp, #4]	@ int
 1023 03e4 9DF804C0 		ldrb	ip, [sp, #4]	@ zero_extendqisi2
 1024              	.LBB1245:
 1025              	.LBB1242:
 1026              	.LBB1227:
ARM GAS  /tmp/ccJJl1OT.s 			page 19


 1027              	.LBB1228:
 1028              	.LBB1229:
 1029              	.LBB1230:
 1030              		.loc 4 85 0
 1031 03e8 972D     		cmp	r5, #151
 1032 03ea 28BF     		it	cs
 1033 03ec 9725     		movcs	r5, #151
 1034              	.LBE1230:
 1035              	.LBE1229:
 1036              	.LBE1228:
 1037              	.LBE1227:
 1038              	.LBE1242:
 1039              	.LBE1245:
 1040              		.loc 1 115 0
 1041 03ee 06EE90CA 		vmov	s13, ip	@ int
 1042              	.LVL61:
 1043              	.LBB1246:
 1044              	.LBB1243:
 1045              	.LBB1232:
 1046              	.LBB1224:
 1047              		.loc 2 115 0
 1048 03f2 06EB8404 		add	r4, r6, r4, lsl #2
 1049              	.LBE1224:
 1050              	.LBE1232:
 1051              	.LBB1233:
 1052              	.LBB1231:
 1053 03f6 06EB8506 		add	r6, r6, r5, lsl #2
 1054              	.LBE1231:
 1055              	.LBE1233:
 1056              	.LBB1234:
 1057              	.LBB1225:
 1058 03fa 94ED006A 		vldr.32	s12, [r4]
 1059              	.LVL62:
 1060              	.LBE1225:
 1061              	.LBE1234:
 1062              	.LBB1235:
 1063              	.LBB1236:
 1064              		.loc 3 826 0
 1065 03fe D6ED005A 		vldr.32	s11, [r6]
 1066 0402 F8EEE66A 		vcvt.f32.s32	s13, s13
 1067 0406 75EEC65A 		vsub.f32	s11, s11, s12
 1068 040a 66EEA44A 		vmul.f32	s9, s13, s9
 1069 040e F0EE466A 		vmov.f32	s13, s12
 1070 0412 E5EEA46A 		vfma.f32	s13, s11, s9
 1071              	.LVL63:
 1072              	.LBE1236:
 1073              	.LBE1235:
 1074              	.LBB1237:
 1075              	.LBB1238:
 1076              	.LBB1239:
 1077              	.LBB1240:
 1078              		.loc 3 193 0
 1079 0416 F4EEC76A 		vcmpe.f32	s13, s14
 1080 041a F1EE10FA 		vmrs	APSR_nzcv, FPSCR
 1081 041e B8BF     		it	lt
 1082 0420 B0EE667A 		vmovlt.f32	s14, s13
 1083              	.LVL64:
ARM GAS  /tmp/ccJJl1OT.s 			page 20


 1084              	.LBE1240:
 1085              	.LBE1239:
 1086              	.LBE1238:
 1087              	.LBE1237:
 1088              		.loc 2 130 0
 1089 0424 27EE057A 		vmul.f32	s14, s14, s10
 1090              	.LVL65:
 1091              	.LBE1243:
 1092              	.LBE1246:
 1093              		.loc 1 115 0
 1094 0428 8EED0F7A 		vstr.32	s14, [lr, #60]
 1095 042c 8DED0D7A 		vstr.32	s14, [sp, #52]
 1096              		.loc 1 116 0
 1097 0430 00F0E4BC 		b	.L9
 1098              	.L406:
 1099              		.align	2
 1100              	.L405:
 1101 0434 00000000 		.word	midi_to_hz_lut_f
 1102 0438 8180803B 		.word	998277249
 1103 043c 3EC3AE37 		.word	934200126
 1104 0440 CDCC4C3F 		.word	1061997773
 1105 0444 49FFB846 		.word	1186529097
 1106 0448 9A99193F 		.word	1058642330
 1107 044c CDCCCC3E 		.word	1053609165
 1108 0450 CDCC4C3E 		.word	1045220557
 1109 0454 CDCCCC3D 		.word	1036831949
 1110 0458 00000000 		.word	.LANCHOR0
 1111              	.LVL66:
 1112              	.L12:
 1113              		.loc 1 118 0
 1114 045c 8488     		ldrh	r4, [r0, #4]
 1115 045e 93ED1C1A 		vldr.32	s2, [r3, #112]
 1116 0462 1D7B     		ldrb	r5, [r3, #12]	@ zero_extendqisi2
 1117              	.LBB1247:
 1118              	.LBB1248:
 1119              	.LBB1249:
 1120              	.LBB1250:
 1121              		.loc 2 115 0
 1122 0464 BC4E     		ldr	r6, .L407
 1123              	.LVL67:
 1124              	.LBE1250:
 1125              	.LBE1249:
 1126              		.loc 2 128 0
 1127 0466 DFEDC01A 		vldr.32	s3, .L407+16
 1128              		.loc 2 130 0
 1129 046a DFEDC05A 		vldr.32	s11, .L407+20
 1130              	.LBE1248:
 1131              	.LBE1247:
 1132              		.loc 1 119 0
 1133 046e DFEDBB2A 		vldr.32	s5, .L407+4
 1134              		.loc 1 120 0
 1135 0472 9FEDBB4A 		vldr.32	s8, .L407+8
 1136              		.loc 1 118 0
 1137 0476 4FEA142C 		lsr	ip, r4, #8
 1138 047a E4B2     		uxtb	r4, r4
 1139 047c 07EE104A 		vmov	s14, r4	@ int
 1140 0480 B8EEC76A 		vcvt.f32.s32	s12, s14
ARM GAS  /tmp/ccJJl1OT.s 			page 21


 1141 0484 6544     		add	r5, r5, ip
 1142 0486 36EE017A 		vadd.f32	s14, s12, s2
 1143 048a EDB2     		uxtb	r5, r5
 1144 048c BCEEC77A 		vcvt.u32.f32	s14, s14
 1145              	.LBB1287:
 1146              	.LBB1283:
 1147              	.LBB1258:
 1148              	.LBB1255:
 1149              	.LBB1251:
 1150              	.LBB1252:
 1151              		.loc 4 85 0
 1152 0490 962D     		cmp	r5, #150
 1153              	.LBE1252:
 1154              	.LBE1251:
 1155              	.LBE1255:
 1156              	.LBE1258:
 1157              	.LBE1283:
 1158              	.LBE1287:
 1159              		.loc 1 118 0
 1160 0492 8DED017A 		vstr.32	s14, [sp, #4]	@ int
 1161 0496 9DF80440 		ldrb	r4, [sp, #4]	@ zero_extendqisi2
 1162              	.LBB1288:
 1163              	.LBB1284:
 1164              	.LBB1259:
 1165              	.LBB1260:
 1166              	.LBB1261:
 1167              	.LBB1262:
 1168              		.loc 3 193 0
 1169 049a 9FEDB57A 		vldr.32	s14, .L407+24
 1170              	.LBE1262:
 1171              	.LBE1261:
 1172              	.LBE1260:
 1173              	.LBE1259:
 1174              		.loc 2 126 0
 1175 049e 05F1010E 		add	lr, r5, #1
 1176 04a2 5FFA8EFE 		uxtb	lr, lr
 1177              	.LBE1284:
 1178              	.LBE1288:
 1179              		.loc 1 118 0
 1180 04a6 05EE104A 		vmov	s10, r4	@ int
 1181              	.LVL68:
 1182              	.LBB1289:
 1183              	.LBB1285:
 1184              	.LBB1266:
 1185              	.LBB1256:
 1186              	.LBB1254:
 1187              	.LBB1253:
 1188              		.loc 4 85 0
 1189 04aa 94BF     		ite	ls
 1190 04ac 2C46     		movls	r4, r5
 1191              	.LVL69:
 1192 04ae 9724     		movhi	r4, #151
 1193              	.LVL70:
 1194              	.LBE1253:
 1195              	.LBE1254:
 1196              		.loc 2 115 0
 1197 04b0 06EB8404 		add	r4, r6, r4, lsl #2
ARM GAS  /tmp/ccJJl1OT.s 			page 22


 1198              	.LBE1256:
 1199              	.LBE1266:
 1200              	.LBB1267:
 1201              	.LBB1268:
 1202              	.LBB1269:
 1203              	.LBB1270:
 1204              		.loc 4 85 0
 1205 04b4 BEF1960F 		cmp	lr, #150
 1206              	.LBE1270:
 1207              	.LBE1269:
 1208              	.LBE1268:
 1209              	.LBE1267:
 1210              	.LBB1274:
 1211              	.LBB1257:
 1212              		.loc 2 115 0
 1213 04b8 D4ED006A 		vldr.32	s13, [r4]
 1214              	.LVL71:
 1215              	.LBE1257:
 1216              	.LBE1274:
 1217              	.LBB1275:
 1218              	.LBB1273:
 1219              	.LBB1272:
 1220              	.LBB1271:
 1221              		.loc 4 85 0
 1222 04bc 94BF     		ite	ls
 1223 04be 7446     		movls	r4, lr
 1224 04c0 9724     		movhi	r4, #151
 1225              	.LVL72:
 1226              	.LBE1271:
 1227              	.LBE1272:
 1228              		.loc 2 115 0
 1229 04c2 06EB8404 		add	r4, r6, r4, lsl #2
 1230              	.LBE1273:
 1231              	.LBE1275:
 1232              	.LBB1276:
 1233              	.LBB1277:
 1234              		.loc 3 826 0
 1235 04c6 94ED002A 		vldr.32	s4, [r4]
 1236              	.LBE1277:
 1237              	.LBE1276:
 1238              		.loc 2 128 0
 1239 04ca B8EEC55A 		vcvt.f32.s32	s10, s10
 1240              	.LVL73:
 1241              	.LBB1280:
 1242              	.LBB1278:
 1243              		.loc 3 826 0
 1244 04ce 32EE662A 		vsub.f32	s4, s4, s13
 1245              	.LBE1278:
 1246              	.LBE1280:
 1247              		.loc 2 128 0
 1248 04d2 25EE215A 		vmul.f32	s10, s10, s3
 1249              	.LVL74:
 1250              	.LBB1281:
 1251              	.LBB1279:
 1252              		.loc 3 826 0
 1253 04d6 F0EE664A 		vmov.f32	s9, s13
 1254 04da E5EE024A 		vfma.f32	s9, s10, s4
ARM GAS  /tmp/ccJJl1OT.s 			page 23


 1255              	.LVL75:
 1256              	.LBE1279:
 1257              	.LBE1281:
 1258              	.LBE1285:
 1259              	.LBE1289:
 1260              		.loc 1 119 0
 1261 04de 61EE222A 		vmul.f32	s5, s2, s5
 1262              	.LBB1290:
 1263              	.LBB1286:
 1264              	.LBB1282:
 1265              	.LBB1265:
 1266              	.LBB1264:
 1267              	.LBB1263:
 1268              		.loc 3 193 0
 1269 04e2 F4EEC74A 		vcmpe.f32	s9, s14
 1270 04e6 F1EE10FA 		vmrs	APSR_nzcv, FPSCR
 1271 04ea A8BF     		it	ge
 1272 04ec F0EE474A 		vmovge.f32	s9, s14
 1273              	.LVL76:
 1274              	.LBE1263:
 1275              	.LBE1264:
 1276              	.LBE1265:
 1277              	.LBE1282:
 1278              		.loc 2 130 0
 1279 04f0 64EEA54A 		vmul.f32	s9, s9, s11
 1280              	.LVL77:
 1281              	.LBE1286:
 1282              	.LBE1290:
 1283              		.loc 1 120 0
 1284 04f4 21EE044A 		vmul.f32	s8, s2, s8
 1285              		.loc 1 118 0
 1286 04f8 C3ED044A 		vstr.32	s9, [r3, #16]
 1287 04fc CDED024A 		vstr.32	s9, [sp, #8]
 1288              		.loc 1 119 0
 1289 0500 76EE224A 		vadd.f32	s9, s12, s5
 1290              		.loc 1 122 0
 1291 0504 76EE622A 		vsub.f32	s5, s12, s5
 1292              		.loc 1 119 0
 1293 0508 FCEEE44A 		vcvt.u32.f32	s9, s9
 1294 050c CDED014A 		vstr.32	s9, [sp, #4]	@ int
 1295 0510 9DF80440 		ldrb	r4, [sp, #4]	@ zero_extendqisi2
 1296 0514 03EE104A 		vmov	s6, r4	@ int
 1297              	.LVL78:
 1298              	.LBB1291:
 1299              	.LBB1292:
 1300              		.loc 2 128 0
 1301 0518 B8EEC33A 		vcvt.f32.s32	s6, s6
 1302              	.LBB1293:
 1303              	.LBB1294:
 1304              		.loc 3 826 0
 1305 051c F0EE664A 		vmov.f32	s9, s13
 1306              	.LBE1294:
 1307              	.LBE1293:
 1308              		.loc 2 128 0
 1309 0520 23EE213A 		vmul.f32	s6, s6, s3
 1310              	.LVL79:
 1311              	.LBB1296:
ARM GAS  /tmp/ccJJl1OT.s 			page 24


 1312              	.LBB1295:
 1313              		.loc 3 826 0
 1314 0524 E3EE024A 		vfma.f32	s9, s6, s4
 1315              	.LVL80:
 1316              	.LBE1295:
 1317              	.LBE1296:
 1318              	.LBB1297:
 1319              	.LBB1298:
 1320              	.LBB1299:
 1321              	.LBB1300:
 1322              		.loc 3 193 0
 1323 0528 F4EEC74A 		vcmpe.f32	s9, s14
 1324 052c F1EE10FA 		vmrs	APSR_nzcv, FPSCR
 1325 0530 A8BF     		it	ge
 1326 0532 F0EE474A 		vmovge.f32	s9, s14
 1327              	.LVL81:
 1328              	.LBE1300:
 1329              	.LBE1299:
 1330              	.LBE1298:
 1331              	.LBE1297:
 1332              		.loc 2 130 0
 1333 0536 64EEA54A 		vmul.f32	s9, s9, s11
 1334              	.LVL82:
 1335              	.LBE1292:
 1336              	.LBE1291:
 1337              		.loc 1 119 0
 1338 053a C3ED054A 		vstr.32	s9, [r3, #20]
 1339 053e CDED034A 		vstr.32	s9, [sp, #12]
 1340              		.loc 1 120 0
 1341 0542 76EE044A 		vadd.f32	s9, s12, s8
 1342              		.loc 1 121 0
 1343 0546 36EE444A 		vsub.f32	s8, s12, s8
 1344              		.loc 1 120 0
 1345 054a FCEEE44A 		vcvt.u32.f32	s9, s9
 1346              		.loc 1 123 0
 1347 054e 36EE416A 		vsub.f32	s12, s12, s2
 1348              		.loc 1 120 0
 1349 0552 CDED014A 		vstr.32	s9, [sp, #4]	@ int
 1350 0556 9DF80440 		ldrb	r4, [sp, #4]	@ zero_extendqisi2
 1351 055a 03EE904A 		vmov	s7, r4	@ int
 1352              	.LVL83:
 1353              	.LBB1301:
 1354              	.LBB1302:
 1355              		.loc 2 128 0
 1356 055e F8EEE33A 		vcvt.f32.s32	s7, s7
 1357              	.LBB1303:
 1358              	.LBB1304:
 1359              		.loc 3 826 0
 1360 0562 F0EE664A 		vmov.f32	s9, s13
 1361              	.LBE1304:
 1362              	.LBE1303:
 1363              		.loc 2 128 0
 1364 0566 63EEA13A 		vmul.f32	s7, s7, s3
 1365              	.LVL84:
 1366              	.LBB1306:
 1367              	.LBB1305:
 1368              		.loc 3 826 0
ARM GAS  /tmp/ccJJl1OT.s 			page 25


 1369 056a E3EE824A 		vfma.f32	s9, s7, s4
 1370              	.LVL85:
 1371              	.LBE1305:
 1372              	.LBE1306:
 1373              	.LBB1307:
 1374              	.LBB1308:
 1375              	.LBB1309:
 1376              	.LBB1310:
 1377              		.loc 3 193 0
 1378 056e F4EEC74A 		vcmpe.f32	s9, s14
 1379 0572 F1EE10FA 		vmrs	APSR_nzcv, FPSCR
 1380 0576 A8BF     		it	ge
 1381 0578 F0EE474A 		vmovge.f32	s9, s14
 1382              	.LVL86:
 1383              	.LBE1310:
 1384              	.LBE1309:
 1385              	.LBE1308:
 1386              	.LBE1307:
 1387              		.loc 2 130 0
 1388 057c 64EEA54A 		vmul.f32	s9, s9, s11
 1389              	.LVL87:
 1390              	.LBE1302:
 1391              	.LBE1301:
 1392              		.loc 1 120 0
 1393 0580 C3ED064A 		vstr.32	s9, [r3, #24]
 1394 0584 CDED044A 		vstr.32	s9, [sp, #16]
 1395              		.loc 1 121 0
 1396 0588 FCEEC44A 		vcvt.u32.f32	s9, s8
 1397 058c CDED014A 		vstr.32	s9, [sp, #4]	@ int
 1398 0590 9DF80440 		ldrb	r4, [sp, #4]	@ zero_extendqisi2
 1399 0594 04EE104A 		vmov	s8, r4	@ int
 1400              	.LVL88:
 1401              	.LBB1311:
 1402              	.LBB1312:
 1403              		.loc 2 128 0
 1404 0598 B8EEC44A 		vcvt.f32.s32	s8, s8
 1405              	.LBB1313:
 1406              	.LBB1314:
 1407              		.loc 3 826 0
 1408 059c F0EE664A 		vmov.f32	s9, s13
 1409              	.LBE1314:
 1410              	.LBE1313:
 1411              		.loc 2 128 0
 1412 05a0 24EE214A 		vmul.f32	s8, s8, s3
 1413              	.LVL89:
 1414              	.LBB1316:
 1415              	.LBB1315:
 1416              		.loc 3 826 0
 1417 05a4 E4EE024A 		vfma.f32	s9, s8, s4
 1418              	.LVL90:
 1419              	.LBE1315:
 1420              	.LBE1316:
 1421              	.LBB1317:
 1422              	.LBB1318:
 1423              	.LBB1319:
 1424              	.LBB1320:
 1425              		.loc 3 193 0
ARM GAS  /tmp/ccJJl1OT.s 			page 26


 1426 05a8 F4EEC74A 		vcmpe.f32	s9, s14
 1427 05ac F1EE10FA 		vmrs	APSR_nzcv, FPSCR
 1428 05b0 A8BF     		it	ge
 1429 05b2 F0EE474A 		vmovge.f32	s9, s14
 1430              	.LVL91:
 1431              	.LBE1320:
 1432              	.LBE1319:
 1433              	.LBE1318:
 1434              	.LBE1317:
 1435              		.loc 2 130 0
 1436 05b6 64EEA54A 		vmul.f32	s9, s9, s11
 1437              	.LVL92:
 1438              	.LBE1312:
 1439              	.LBE1311:
 1440              		.loc 1 121 0
 1441 05ba C3ED074A 		vstr.32	s9, [r3, #28]
 1442 05be CDED054A 		vstr.32	s9, [sp, #20]
 1443              		.loc 1 122 0
 1444 05c2 FCEEE24A 		vcvt.u32.f32	s9, s5
 1445 05c6 CDED014A 		vstr.32	s9, [sp, #4]	@ int
 1446 05ca 9DF80440 		ldrb	r4, [sp, #4]	@ zero_extendqisi2
 1447 05ce 04EE904A 		vmov	s9, r4	@ int
 1448              	.LVL93:
 1449              	.LBB1321:
 1450              	.LBB1322:
 1451              		.loc 2 128 0
 1452 05d2 F8EEE44A 		vcvt.f32.s32	s9, s9
 1453 05d6 64EEA14A 		vmul.f32	s9, s9, s3
 1454              	.LVL94:
 1455              	.LBB1323:
 1456              	.LBB1324:
 1457              		.loc 3 826 0
 1458 05da E4EE826A 		vfma.f32	s13, s9, s4
 1459              	.LVL95:
 1460              	.LBE1324:
 1461              	.LBE1323:
 1462              	.LBB1325:
 1463              	.LBB1326:
 1464              	.LBB1327:
 1465              	.LBB1328:
 1466              		.loc 3 193 0
 1467 05de F4EEC76A 		vcmpe.f32	s13, s14
 1468 05e2 F1EE10FA 		vmrs	APSR_nzcv, FPSCR
 1469 05e6 A8BF     		it	ge
 1470 05e8 F0EE476A 		vmovge.f32	s13, s14
 1471              	.LVL96:
 1472              	.LBE1328:
 1473              	.LBE1327:
 1474              	.LBE1326:
 1475              	.LBE1325:
 1476              		.loc 2 130 0
 1477 05ec 66EEA56A 		vmul.f32	s13, s13, s11
 1478              	.LVL97:
 1479              	.LBE1322:
 1480              	.LBE1321:
 1481              	.LBB1329:
 1482              	.LBB1330:
ARM GAS  /tmp/ccJJl1OT.s 			page 27


 1483              	.LBB1331:
 1484              	.LBB1332:
 1485              	.LBB1333:
 1486              	.LBB1334:
 1487              		.loc 4 85 0
 1488 05f0 972D     		cmp	r5, #151
 1489              	.LBE1334:
 1490              	.LBE1333:
 1491              	.LBE1332:
 1492              	.LBE1331:
 1493              	.LBE1330:
 1494              	.LBE1329:
 1495              		.loc 1 122 0
 1496 05f2 C3ED086A 		vstr.32	s13, [r3, #32]
 1497 05f6 CDED066A 		vstr.32	s13, [sp, #24]
 1498              		.loc 1 123 0
 1499 05fa FCEEC66A 		vcvt.u32.f32	s13, s12
 1500              	.LBB1367:
 1501              	.LBB1359:
 1502              	.LBB1339:
 1503              	.LBB1337:
 1504              	.LBB1336:
 1505              	.LBB1335:
 1506              		.loc 4 85 0
 1507 05fe 28BF     		it	cs
 1508 0600 9725     		movcs	r5, #151
 1509              	.LBE1335:
 1510              	.LBE1336:
 1511              	.LBE1337:
 1512              	.LBE1339:
 1513              	.LBE1359:
 1514              	.LBE1367:
 1515              		.loc 1 123 0
 1516 0602 CDED016A 		vstr.32	s13, [sp, #4]	@ int
 1517              	.LBB1368:
 1518              	.LBB1360:
 1519              	.LBB1340:
 1520              	.LBB1338:
 1521              		.loc 2 115 0
 1522 0606 06EB8505 		add	r5, r6, r5, lsl #2
 1523 060a D5ED006A 		vldr.32	s13, [r5]
 1524              	.LBE1338:
 1525              	.LBE1340:
 1526              	.LBE1360:
 1527              	.LBE1368:
 1528              		.loc 1 123 0
 1529 060e 9DF80440 		ldrb	r4, [sp, #4]	@ zero_extendqisi2
 1530              	.LBB1369:
 1531              	.LBB1361:
 1532              	.LBB1341:
 1533              	.LBB1342:
 1534              	.LBB1343:
 1535              	.LBB1344:
 1536              		.loc 4 85 0
 1537 0612 7546     		mov	r5, lr
 1538 0614 972D     		cmp	r5, #151
 1539              	.LBE1344:
ARM GAS  /tmp/ccJJl1OT.s 			page 28


 1540              	.LBE1343:
 1541              	.LBE1342:
 1542              	.LBE1341:
 1543              	.LBE1361:
 1544              	.LBE1369:
 1545              		.loc 1 123 0
 1546 0616 02EE904A 		vmov	s5, r4	@ int
 1547              	.LVL98:
 1548              	.LBB1370:
 1549              	.LBB1362:
 1550              	.LBB1348:
 1551              	.LBB1347:
 1552              	.LBB1346:
 1553              	.LBB1345:
 1554              		.loc 4 85 0
 1555 061a 28BF     		it	cs
 1556 061c 9725     		movcs	r5, #151
 1557              	.LVL99:
 1558              	.LBE1345:
 1559              	.LBE1346:
 1560              		.loc 2 115 0
 1561 061e 06EB8505 		add	r5, r6, r5, lsl #2
 1562              	.LBE1347:
 1563              	.LBE1348:
 1564              	.LBB1349:
 1565              	.LBB1350:
 1566              		.loc 3 826 0
 1567 0622 95ED006A 		vldr.32	s12, [r5]
 1568              	.LBE1350:
 1569              	.LBE1349:
 1570              	.LBE1362:
 1571              	.LBE1370:
 1572              		.loc 1 124 0
 1573 0626 5C7B     		ldrb	r4, [r3, #13]	@ zero_extendqisi2
 1574              	.LVL100:
 1575              	.LBB1371:
 1576              	.LBB1363:
 1577              		.loc 2 128 0
 1578 0628 F8EEE22A 		vcvt.f32.s32	s5, s5
 1579              	.LVL101:
 1580              	.LBB1353:
 1581              	.LBB1351:
 1582              		.loc 3 826 0
 1583 062c 36EE666A 		vsub.f32	s12, s12, s13
 1584              	.LBE1351:
 1585              	.LBE1353:
 1586              		.loc 2 128 0
 1587 0630 62EEA12A 		vmul.f32	s5, s5, s3
 1588              	.LVL102:
 1589              	.LBE1363:
 1590              	.LBE1371:
 1591              		.loc 1 124 0
 1592 0634 6444     		add	r4, r4, ip
 1593              	.LBB1372:
 1594              	.LBB1364:
 1595              	.LBB1354:
 1596              	.LBB1352:
ARM GAS  /tmp/ccJJl1OT.s 			page 29


 1597              		.loc 3 826 0
 1598 0636 E2EE866A 		vfma.f32	s13, s5, s12
 1599              	.LVL103:
 1600              	.LBE1352:
 1601              	.LBE1354:
 1602              	.LBE1364:
 1603              	.LBE1372:
 1604              		.loc 1 124 0
 1605 063a E4B2     		uxtb	r4, r4
 1606              	.LBB1373:
 1607              	.LBB1365:
 1608              	.LBB1355:
 1609              	.LBB1356:
 1610              	.LBB1357:
 1611              	.LBB1358:
 1612              		.loc 3 193 0
 1613 063c F4EEC76A 		vcmpe.f32	s13, s14
 1614 0640 F1EE10FA 		vmrs	APSR_nzcv, FPSCR
 1615 0644 A8BF     		it	ge
 1616 0646 F0EE476A 		vmovge.f32	s13, s14
 1617              	.LVL104:
 1618              	.LBE1358:
 1619              	.LBE1357:
 1620              	.LBE1356:
 1621              	.LBE1355:
 1622              	.LBE1365:
 1623              	.LBE1373:
 1624              	.LBB1374:
 1625              	.LBB1375:
 1626              	.LBB1376:
 1627              	.LBB1377:
 1628              	.LBB1378:
 1629              	.LBB1379:
 1630              		.loc 4 85 0
 1631 064a 962C     		cmp	r4, #150
 1632 064c 98BF     		it	ls
 1633 064e 2546     		movls	r5, r4
 1634              	.LBE1379:
 1635              	.LBE1378:
 1636              	.LBE1377:
 1637              	.LBE1376:
 1638              	.LBE1375:
 1639              	.LBE1374:
 1640              	.LBB1407:
 1641              	.LBB1366:
 1642              		.loc 2 130 0
 1643 0650 66EEA56A 		vmul.f32	s13, s13, s11
 1644              	.LVL105:
 1645              	.LBE1366:
 1646              	.LBE1407:
 1647              	.LBB1408:
 1648              	.LBB1404:
 1649              	.LBB1384:
 1650              	.LBB1382:
 1651              	.LBB1381:
 1652              	.LBB1380:
 1653              		.loc 4 85 0
ARM GAS  /tmp/ccJJl1OT.s 			page 30


 1654 0654 88BF     		it	hi
 1655 0656 9725     		movhi	r5, #151
 1656              	.LVL106:
 1657              	.LBE1380:
 1658              	.LBE1381:
 1659              		.loc 2 115 0
 1660 0658 06EB8505 		add	r5, r6, r5, lsl #2
 1661              	.LBE1382:
 1662              	.LBE1384:
 1663              	.LBE1404:
 1664              	.LBE1408:
 1665              		.loc 1 123 0
 1666 065c C3ED096A 		vstr.32	s13, [r3, #36]
 1667 0660 CDED076A 		vstr.32	s13, [sp, #28]
 1668              	.LBB1409:
 1669              	.LBB1405:
 1670              	.LBB1385:
 1671              	.LBB1383:
 1672              		.loc 2 115 0
 1673 0664 D5ED006A 		vldr.32	s13, [r5]
 1674              	.LVL107:
 1675              	.LBE1383:
 1676              	.LBE1385:
 1677              		.loc 2 126 0
 1678 0668 651C     		adds	r5, r4, #1
 1679 066a EDB2     		uxtb	r5, r5
 1680              	.LVL108:
 1681              	.LBB1386:
 1682              	.LBB1387:
 1683              	.LBB1388:
 1684              	.LBB1389:
 1685              		.loc 4 85 0
 1686 066c 962D     		cmp	r5, #150
 1687 066e 94BF     		ite	ls
 1688 0670 AE46     		movls	lr, r5
 1689 0672 4FF0970E 		movhi	lr, #151
 1690              	.LVL109:
 1691              	.LBE1389:
 1692              	.LBE1388:
 1693              		.loc 2 115 0
 1694 0676 06EB8E0E 		add	lr, r6, lr, lsl #2
 1695              	.LBE1387:
 1696              	.LBE1386:
 1697              	.LBB1390:
 1698              	.LBB1391:
 1699              		.loc 3 826 0
 1700 067a 9EED006A 		vldr.32	s12, [lr]
 1701              	.LBE1391:
 1702              	.LBE1390:
 1703              	.LBE1405:
 1704              	.LBE1409:
 1705              		.loc 1 127 0
 1706 067e DFF8E4E0 		ldr	lr, .L407+12
 1707              	.LBB1410:
 1708              	.LBB1406:
 1709              	.LBB1394:
 1710              	.LBB1392:
ARM GAS  /tmp/ccJJl1OT.s 			page 31


 1711              		.loc 3 826 0
 1712 0682 36EE666A 		vsub.f32	s12, s12, s13
 1713 0686 B0EE662A 		vmov.f32	s4, s13
 1714 068a A6EE052A 		vfma.f32	s4, s12, s10
 1715              	.LBE1392:
 1716              	.LBE1394:
 1717              	.LBB1395:
 1718              	.LBB1396:
 1719              	.LBB1397:
 1720              	.LBB1398:
 1721              		.loc 3 193 0
 1722 068e B4EEC72A 		vcmpe.f32	s4, s14
 1723 0692 F1EE10FA 		vmrs	APSR_nzcv, FPSCR
 1724              	.LBE1398:
 1725              	.LBE1397:
 1726              	.LBE1396:
 1727              	.LBE1395:
 1728              	.LBB1402:
 1729              	.LBB1393:
 1730              		.loc 3 826 0
 1731 0696 B0EE425A 		vmov.f32	s10, s4
 1732              	.LVL110:
 1733              	.LBE1393:
 1734              	.LBE1402:
 1735              	.LBB1403:
 1736              	.LBB1401:
 1737              	.LBB1400:
 1738              	.LBB1399:
 1739              		.loc 3 193 0
 1740 069a A8BF     		it	ge
 1741 069c B0EE475A 		vmovge.f32	s10, s14
 1742              	.LVL111:
 1743              	.LBE1399:
 1744              	.LBE1400:
 1745              	.LBE1401:
 1746              	.LBE1403:
 1747              		.loc 2 130 0
 1748 06a0 25EE255A 		vmul.f32	s10, s10, s11
 1749              	.LVL112:
 1750              	.LBE1406:
 1751              	.LBE1410:
 1752              		.loc 1 124 0
 1753 06a4 83ED0A5A 		vstr.32	s10, [r3, #40]
 1754 06a8 8DED085A 		vstr.32	s10, [sp, #32]
 1755              	.LVL113:
 1756              	.LBB1411:
 1757              	.LBB1412:
 1758              	.LBB1413:
 1759              	.LBB1414:
 1760              		.loc 3 826 0
 1761 06ac B0EE665A 		vmov.f32	s10, s13
 1762 06b0 A6EE035A 		vfma.f32	s10, s12, s6
 1763              	.LVL114:
 1764              	.LBE1414:
 1765              	.LBE1413:
 1766              	.LBB1415:
 1767              	.LBB1416:
ARM GAS  /tmp/ccJJl1OT.s 			page 32


 1768              	.LBB1417:
 1769              	.LBB1418:
 1770              		.loc 3 193 0
 1771 06b4 B4EEC75A 		vcmpe.f32	s10, s14
 1772 06b8 F1EE10FA 		vmrs	APSR_nzcv, FPSCR
 1773 06bc A8BF     		it	ge
 1774 06be B0EE475A 		vmovge.f32	s10, s14
 1775              	.LVL115:
 1776              	.LBE1418:
 1777              	.LBE1417:
 1778              	.LBE1416:
 1779              	.LBE1415:
 1780              		.loc 2 130 0
 1781 06c2 25EE255A 		vmul.f32	s10, s10, s11
 1782              	.LVL116:
 1783              	.LBE1412:
 1784              	.LBE1411:
 1785              		.loc 1 125 0
 1786 06c6 83ED0B5A 		vstr.32	s10, [r3, #44]
 1787 06ca 8DED095A 		vstr.32	s10, [sp, #36]
 1788              	.LVL117:
 1789              	.LBB1419:
 1790              	.LBB1420:
 1791              	.LBB1421:
 1792              	.LBB1422:
 1793              		.loc 3 826 0
 1794 06ce B0EE665A 		vmov.f32	s10, s13
 1795 06d2 A6EE235A 		vfma.f32	s10, s12, s7
 1796              	.LVL118:
 1797              	.LBE1422:
 1798              	.LBE1421:
 1799              	.LBB1423:
 1800              	.LBB1424:
 1801              	.LBB1425:
 1802              	.LBB1426:
 1803              		.loc 3 193 0
 1804 06d6 B4EEC75A 		vcmpe.f32	s10, s14
 1805 06da F1EE10FA 		vmrs	APSR_nzcv, FPSCR
 1806 06de A8BF     		it	ge
 1807 06e0 B0EE475A 		vmovge.f32	s10, s14
 1808              	.LVL119:
 1809              	.LBE1426:
 1810              	.LBE1425:
 1811              	.LBE1424:
 1812              	.LBE1423:
 1813              		.loc 2 130 0
 1814 06e4 25EE255A 		vmul.f32	s10, s10, s11
 1815              	.LVL120:
 1816              	.LBE1420:
 1817              	.LBE1419:
 1818              		.loc 1 126 0
 1819 06e8 83ED0C5A 		vstr.32	s10, [r3, #48]
 1820 06ec 8DED0A5A 		vstr.32	s10, [sp, #40]
 1821              	.LVL121:
 1822              	.LBB1427:
 1823              	.LBB1428:
 1824              	.LBB1429:
ARM GAS  /tmp/ccJJl1OT.s 			page 33


 1825              	.LBB1430:
 1826              		.loc 3 826 0
 1827 06f0 B0EE665A 		vmov.f32	s10, s13
 1828 06f4 A6EE045A 		vfma.f32	s10, s12, s8
 1829              	.LVL122:
 1830              	.LBE1430:
 1831              	.LBE1429:
 1832              	.LBE1428:
 1833              	.LBE1427:
 1834              	.LBB1442:
 1835              	.LBB1443:
 1836              	.LBB1444:
 1837              	.LBB1445:
 1838 06f8 E6EE246A 		vfma.f32	s13, s12, s9
 1839              	.LBE1445:
 1840              	.LBE1444:
 1841              	.LBE1443:
 1842              	.LBE1442:
 1843              	.LBB1457:
 1844              	.LBB1439:
 1845              	.LBB1431:
 1846              	.LBB1432:
 1847              	.LBB1433:
 1848              	.LBB1434:
 1849              		.loc 3 193 0
 1850 06fc B4EEC75A 		vcmpe.f32	s10, s14
 1851 0700 F1EE10FA 		vmrs	APSR_nzcv, FPSCR
 1852              	.LBE1434:
 1853              	.LBE1433:
 1854              	.LBE1432:
 1855              	.LBE1431:
 1856              	.LBE1439:
 1857              	.LBE1457:
 1858              	.LBB1458:
 1859              	.LBB1454:
 1860              	.LBB1446:
 1861              	.LBB1447:
 1862              	.LBB1448:
 1863              	.LBB1449:
 1864 0704 F4EEC76A 		vcmpe.f32	s13, s14
 1865              	.LBE1449:
 1866              	.LBE1448:
 1867              	.LBE1447:
 1868              	.LBE1446:
 1869              	.LBE1454:
 1870              	.LBE1458:
 1871              	.LBB1459:
 1872              	.LBB1440:
 1873              	.LBB1438:
 1874              	.LBB1437:
 1875              	.LBB1436:
 1876              	.LBB1435:
 1877 0708 A8BF     		it	ge
 1878 070a B0EE475A 		vmovge.f32	s10, s14
 1879              	.LVL123:
 1880              	.LBE1435:
 1881              	.LBE1436:
ARM GAS  /tmp/ccJJl1OT.s 			page 34


 1882              	.LBE1437:
 1883              	.LBE1438:
 1884              	.LBE1440:
 1885              	.LBE1459:
 1886              	.LBB1460:
 1887              	.LBB1455:
 1888              	.LBB1453:
 1889              	.LBB1452:
 1890              	.LBB1451:
 1891              	.LBB1450:
 1892 070e F1EE10FA 		vmrs	APSR_nzcv, FPSCR
 1893 0712 A8BF     		it	ge
 1894 0714 F0EE476A 		vmovge.f32	s13, s14
 1895              	.LBE1450:
 1896              	.LBE1451:
 1897              	.LBE1452:
 1898              	.LBE1453:
 1899              	.LBE1455:
 1900              	.LBE1460:
 1901              	.LBB1461:
 1902              	.LBB1462:
 1903              	.LBB1463:
 1904              	.LBB1464:
 1905              	.LBB1465:
 1906              	.LBB1466:
 1907              		.loc 4 85 0
 1908 0718 972C     		cmp	r4, #151
 1909              	.LBE1466:
 1910              	.LBE1465:
 1911              	.LBE1464:
 1912              	.LBE1463:
 1913              	.LBE1462:
 1914              	.LBE1461:
 1915              	.LBB1495:
 1916              	.LBB1456:
 1917              		.loc 2 130 0
 1918 071a 66EEA56A 		vmul.f32	s13, s13, s11
 1919              	.LBE1456:
 1920              	.LBE1495:
 1921              	.LBB1496:
 1922              	.LBB1491:
 1923              	.LBB1472:
 1924              	.LBB1469:
 1925              	.LBB1468:
 1926              	.LBB1467:
 1927              		.loc 4 85 0
 1928 071e 28BF     		it	cs
 1929 0720 9724     		movcs	r4, #151
 1930              	.LVL124:
 1931              	.LBE1467:
 1932              	.LBE1468:
 1933              	.LBE1469:
 1934              	.LBE1472:
 1935              	.LBB1473:
 1936              	.LBB1474:
 1937              	.LBB1475:
 1938              	.LBB1476:
ARM GAS  /tmp/ccJJl1OT.s 			page 35


 1939 0722 972D     		cmp	r5, #151
 1940              	.LBE1476:
 1941              	.LBE1475:
 1942              	.LBE1474:
 1943              	.LBE1473:
 1944              	.LBB1481:
 1945              	.LBB1470:
 1946              		.loc 2 115 0
 1947 0724 06EB8404 		add	r4, r6, r4, lsl #2
 1948              	.LBE1470:
 1949              	.LBE1481:
 1950              	.LBB1482:
 1951              	.LBB1479:
 1952              	.LBB1478:
 1953              	.LBB1477:
 1954              		.loc 4 85 0
 1955 0728 28BF     		it	cs
 1956 072a 9725     		movcs	r5, #151
 1957              	.LBE1477:
 1958              	.LBE1478:
 1959              	.LBE1479:
 1960              	.LBE1482:
 1961              	.LBE1491:
 1962              	.LBE1496:
 1963              		.loc 1 128 0
 1964 072c CEED0E6A 		vstr.32	s13, [lr, #56]
 1965 0730 CDED0C6A 		vstr.32	s13, [sp, #48]
 1966              	.LBB1497:
 1967              	.LBB1492:
 1968              	.LBB1483:
 1969              	.LBB1471:
 1970              		.loc 2 115 0
 1971 0734 D4ED006A 		vldr.32	s13, [r4]
 1972              	.LBE1471:
 1973              	.LBE1483:
 1974              	.LBB1484:
 1975              	.LBB1480:
 1976 0738 06EB8504 		add	r4, r6, r5, lsl #2
 1977              	.LBE1480:
 1978              	.LBE1484:
 1979              	.LBB1485:
 1980              	.LBB1486:
 1981              		.loc 3 826 0
 1982 073c 94ED006A 		vldr.32	s12, [r4]
 1983              	.LBE1486:
 1984              	.LBE1485:
 1985              	.LBE1492:
 1986              	.LBE1497:
 1987              	.LBB1498:
 1988              	.LBB1441:
 1989              		.loc 2 130 0
 1990 0740 25EE255A 		vmul.f32	s10, s10, s11
 1991              	.LVL125:
 1992              	.LBE1441:
 1993              	.LBE1498:
 1994              	.LBB1499:
 1995              	.LBB1493:
ARM GAS  /tmp/ccJJl1OT.s 			page 36


 1996              	.LBB1489:
 1997              	.LBB1487:
 1998              		.loc 3 826 0
 1999 0744 36EE666A 		vsub.f32	s12, s12, s13
 2000              	.LBE1487:
 2001              	.LBE1489:
 2002              	.LBE1493:
 2003              	.LBE1499:
 2004              		.loc 1 127 0
 2005 0748 8EED0D5A 		vstr.32	s10, [lr, #52]
 2006 074c 8DED0B5A 		vstr.32	s10, [sp, #44]
 2007              	.LVL126:
 2008              	.LBB1500:
 2009              	.LBB1494:
 2010              	.LBB1490:
 2011              	.LBB1488:
 2012              		.loc 3 826 0
 2013 0750 E6EE226A 		vfma.f32	s13, s12, s5
 2014              	.LVL127:
 2015 0754 98E1     		b	.L399
 2016              	.L408:
 2017 0756 00BF     		.align	2
 2018              	.L407:
 2019 0758 00000000 		.word	midi_to_hz_lut_f
 2020 075c 9A99193F 		.word	1058642330
 2021 0760 9A99993E 		.word	1050253722
 2022 0764 00000000 		.word	.LANCHOR0
 2023 0768 8180803B 		.word	998277249
 2024 076c 3EC3AE37 		.word	934200126
 2025 0770 49FFB846 		.word	1186529097
 2026              	.LVL128:
 2027              	.L13:
 2028              	.LBE1488:
 2029              	.LBE1490:
 2030              	.LBE1494:
 2031              	.LBE1500:
 2032              		.loc 1 132 0
 2033 0774 8588     		ldrh	r5, [r0, #4]
 2034 0776 93ED1C2A 		vldr.32	s4, [r3, #112]
 2035 077a 1C7B     		ldrb	r4, [r3, #12]	@ zero_extendqisi2
 2036              	.LBB1501:
 2037              	.LBB1502:
 2038              		.loc 2 128 0
 2039 077c 5FED062A 		vldr.32	s5, .L407+16
 2040              		.loc 2 130 0
 2041 0780 5FED065A 		vldr.32	s11, .L407+20
 2042              	.LBE1502:
 2043              	.LBE1501:
 2044              		.loc 1 132 0
 2045 0784 2E0A     		lsrs	r6, r5, #8
 2046              	.LVL129:
 2047 0786 EDB2     		uxtb	r5, r5
 2048 0788 07EE105A 		vmov	s14, r5	@ int
 2049 078c B8EEC76A 		vcvt.f32.s32	s12, s14
 2050 0790 3444     		add	r4, r4, r6
 2051 0792 36EE027A 		vadd.f32	s14, s12, s4
 2052 0796 E4B2     		uxtb	r4, r4
ARM GAS  /tmp/ccJJl1OT.s 			page 37


 2053 0798 BCEEC77A 		vcvt.u32.f32	s14, s14
 2054              	.LBB1533:
 2055              	.LBB1529:
 2056              	.LBB1503:
 2057              	.LBB1504:
 2058              	.LBB1505:
 2059              	.LBB1506:
 2060              		.loc 4 85 0
 2061 079c 962C     		cmp	r4, #150
 2062              	.LBE1506:
 2063              	.LBE1505:
 2064              	.LBE1504:
 2065              	.LBE1503:
 2066              	.LBE1529:
 2067              	.LBE1533:
 2068              		.loc 1 132 0
 2069 079e 8DED017A 		vstr.32	s14, [sp, #4]	@ int
 2070 07a2 9DF80450 		ldrb	r5, [sp, #4]	@ zero_extendqisi2
 2071              	.LBB1534:
 2072              	.LBB1530:
 2073              	.LBB1510:
 2074              	.LBB1511:
 2075              	.LBB1512:
 2076              	.LBB1513:
 2077              		.loc 3 193 0
 2078 07a6 1FED0E7A 		vldr.32	s14, .L407+24
 2079              	.LBE1513:
 2080              	.LBE1512:
 2081              	.LBE1511:
 2082              	.LBE1510:
 2083              	.LBE1530:
 2084              	.LBE1534:
 2085              		.loc 1 132 0
 2086 07aa 04EE105A 		vmov	s8, r5	@ int
 2087              	.LVL130:
 2088              	.LBB1535:
 2089              	.LBB1531:
 2090              	.LBB1517:
 2091              	.LBB1509:
 2092              		.loc 2 115 0
 2093 07ae BD4D     		ldr	r5, .L409
 2094              	.LVL131:
 2095              	.LBB1508:
 2096              	.LBB1507:
 2097              		.loc 4 85 0
 2098 07b0 94BF     		ite	ls
 2099 07b2 A646     		movls	lr, r4
 2100 07b4 4FF0970E 		movhi	lr, #151
 2101              	.LVL132:
 2102              	.LBE1507:
 2103              	.LBE1508:
 2104              		.loc 2 115 0
 2105 07b8 05EB8E0E 		add	lr, r5, lr, lsl #2
 2106 07bc DEED006A 		vldr.32	s13, [lr]
 2107              	.LVL133:
 2108              	.LBE1509:
 2109              	.LBE1517:
ARM GAS  /tmp/ccJJl1OT.s 			page 38


 2110              		.loc 2 126 0
 2111 07c0 04F1010E 		add	lr, r4, #1
 2112 07c4 5FFA8EFE 		uxtb	lr, lr
 2113              	.LVL134:
 2114              	.LBB1518:
 2115              	.LBB1519:
 2116              	.LBB1520:
 2117              	.LBB1521:
 2118              		.loc 4 85 0
 2119 07c8 BEF1960F 		cmp	lr, #150
 2120 07cc 94BF     		ite	ls
 2121 07ce F446     		movls	ip, lr
 2122 07d0 4FF0970C 		movhi	ip, #151
 2123              	.LVL135:
 2124              	.LBE1521:
 2125              	.LBE1520:
 2126              		.loc 2 115 0
 2127 07d4 05EB8C0C 		add	ip, r5, ip, lsl #2
 2128              	.LBE1519:
 2129              	.LBE1518:
 2130              	.LBB1522:
 2131              	.LBB1523:
 2132              		.loc 3 826 0
 2133 07d8 9CED003A 		vldr.32	s6, [ip]
 2134              	.LBE1523:
 2135              	.LBE1522:
 2136              		.loc 2 128 0
 2137 07dc B8EEC44A 		vcvt.f32.s32	s8, s8
 2138              	.LVL136:
 2139              	.LBB1526:
 2140              	.LBB1524:
 2141              		.loc 3 826 0
 2142 07e0 33EE663A 		vsub.f32	s6, s6, s13
 2143              	.LBE1524:
 2144              	.LBE1526:
 2145              		.loc 2 128 0
 2146 07e4 24EE224A 		vmul.f32	s8, s8, s5
 2147              	.LVL137:
 2148              	.LBB1527:
 2149              	.LBB1525:
 2150              		.loc 3 826 0
 2151 07e8 B0EE665A 		vmov.f32	s10, s13
 2152 07ec A4EE035A 		vfma.f32	s10, s8, s6
 2153              	.LVL138:
 2154              	.LBE1525:
 2155              	.LBE1527:
 2156              	.LBE1531:
 2157              	.LBE1535:
 2158              		.loc 1 133 0
 2159 07f0 F6EE003A 		vmov.f32	s7, #5.0e-1
 2160              	.LBB1536:
 2161              	.LBB1532:
 2162              	.LBB1528:
 2163              	.LBB1516:
 2164              	.LBB1515:
 2165              	.LBB1514:
 2166              		.loc 3 193 0
ARM GAS  /tmp/ccJJl1OT.s 			page 39


 2167 07f4 B4EEC75A 		vcmpe.f32	s10, s14
 2168 07f8 F1EE10FA 		vmrs	APSR_nzcv, FPSCR
 2169 07fc A8BF     		it	ge
 2170 07fe B0EE475A 		vmovge.f32	s10, s14
 2171              	.LVL139:
 2172              	.LBE1514:
 2173              	.LBE1515:
 2174              	.LBE1516:
 2175              	.LBE1528:
 2176              		.loc 2 130 0
 2177 0802 25EE255A 		vmul.f32	s10, s10, s11
 2178              	.LVL140:
 2179              	.LBE1532:
 2180              	.LBE1536:
 2181              		.loc 1 133 0
 2182 0806 62EE233A 		vmul.f32	s7, s4, s7
 2183              		.loc 1 132 0
 2184 080a 83ED045A 		vstr.32	s10, [r3, #16]
 2185 080e 8DED025A 		vstr.32	s10, [sp, #8]
 2186              		.loc 1 133 0
 2187 0812 36EE235A 		vadd.f32	s10, s12, s7
 2188              		.loc 1 134 0
 2189 0816 76EE633A 		vsub.f32	s7, s12, s7
 2190              		.loc 1 133 0
 2191 081a BCEEC55A 		vcvt.u32.f32	s10, s10
 2192 081e 8DED015A 		vstr.32	s10, [sp, #4]	@ int
 2193 0822 9DF804C0 		ldrb	ip, [sp, #4]	@ zero_extendqisi2
 2194 0826 04EE90CA 		vmov	s9, ip	@ int
 2195              	.LVL141:
 2196              	.LBB1537:
 2197              	.LBB1538:
 2198              		.loc 2 128 0
 2199 082a F8EEE44A 		vcvt.f32.s32	s9, s9
 2200              	.LBB1539:
 2201              	.LBB1540:
 2202              		.loc 3 826 0
 2203 082e B0EE665A 		vmov.f32	s10, s13
 2204              	.LBE1540:
 2205              	.LBE1539:
 2206              		.loc 2 128 0
 2207 0832 64EEA24A 		vmul.f32	s9, s9, s5
 2208              	.LVL142:
 2209              	.LBB1542:
 2210              	.LBB1541:
 2211              		.loc 3 826 0
 2212 0836 A4EE835A 		vfma.f32	s10, s9, s6
 2213              	.LVL143:
 2214              	.LBE1541:
 2215              	.LBE1542:
 2216              	.LBB1543:
 2217              	.LBB1544:
 2218              	.LBB1545:
 2219              	.LBB1546:
 2220              		.loc 3 193 0
 2221 083a B4EEC75A 		vcmpe.f32	s10, s14
 2222 083e F1EE10FA 		vmrs	APSR_nzcv, FPSCR
 2223 0842 A8BF     		it	ge
ARM GAS  /tmp/ccJJl1OT.s 			page 40


 2224 0844 B0EE475A 		vmovge.f32	s10, s14
 2225              	.LVL144:
 2226              	.LBE1546:
 2227              	.LBE1545:
 2228              	.LBE1544:
 2229              	.LBE1543:
 2230              		.loc 2 130 0
 2231 0848 25EE255A 		vmul.f32	s10, s10, s11
 2232              	.LVL145:
 2233              	.LBE1538:
 2234              	.LBE1537:
 2235              		.loc 1 133 0
 2236 084c 83ED055A 		vstr.32	s10, [r3, #20]
 2237 0850 8DED035A 		vstr.32	s10, [sp, #12]
 2238              		.loc 1 134 0
 2239 0854 BCEEE35A 		vcvt.u32.f32	s10, s7
 2240 0858 8DED015A 		vstr.32	s10, [sp, #4]	@ int
 2241 085c 9DF804C0 		ldrb	ip, [sp, #4]	@ zero_extendqisi2
 2242 0860 05EE10CA 		vmov	s10, ip	@ int
 2243              	.LVL146:
 2244              	.LBB1547:
 2245              	.LBB1548:
 2246              		.loc 2 128 0
 2247 0864 B8EEC55A 		vcvt.f32.s32	s10, s10
 2248 0868 25EE225A 		vmul.f32	s10, s10, s5
 2249              	.LVL147:
 2250              	.LBB1549:
 2251              	.LBB1550:
 2252              		.loc 3 826 0
 2253 086c E5EE036A 		vfma.f32	s13, s10, s6
 2254              	.LVL148:
 2255              	.LBE1550:
 2256              	.LBE1549:
 2257              	.LBB1551:
 2258              	.LBB1552:
 2259              	.LBB1553:
 2260              	.LBB1554:
 2261              		.loc 3 193 0
 2262 0870 F4EEC76A 		vcmpe.f32	s13, s14
 2263 0874 F1EE10FA 		vmrs	APSR_nzcv, FPSCR
 2264 0878 A8BF     		it	ge
 2265 087a F0EE476A 		vmovge.f32	s13, s14
 2266              	.LVL149:
 2267              	.LBE1554:
 2268              	.LBE1553:
 2269              	.LBE1552:
 2270              	.LBE1551:
 2271              		.loc 2 130 0
 2272 087e 66EEA56A 		vmul.f32	s13, s13, s11
 2273              	.LVL150:
 2274              	.LBE1548:
 2275              	.LBE1547:
 2276              	.LBB1555:
 2277              	.LBB1556:
 2278              	.LBB1557:
 2279              	.LBB1558:
 2280              	.LBB1559:
ARM GAS  /tmp/ccJJl1OT.s 			page 41


 2281              	.LBB1560:
 2282              		.loc 4 85 0
 2283 0882 972C     		cmp	r4, #151
 2284              	.LBE1560:
 2285              	.LBE1559:
 2286              	.LBE1558:
 2287              	.LBE1557:
 2288              	.LBE1556:
 2289              	.LBE1555:
 2290              		.loc 1 134 0
 2291 0884 C3ED066A 		vstr.32	s13, [r3, #24]
 2292 0888 CDED046A 		vstr.32	s13, [sp, #16]
 2293              		.loc 1 135 0
 2294 088c 76EE426A 		vsub.f32	s13, s12, s4
 2295              	.LBB1595:
 2296              	.LBB1587:
 2297              	.LBB1566:
 2298              	.LBB1563:
 2299              	.LBB1562:
 2300              	.LBB1561:
 2301              		.loc 4 85 0
 2302 0890 28BF     		it	cs
 2303 0892 9724     		movcs	r4, #151
 2304              	.LBE1561:
 2305              	.LBE1562:
 2306              	.LBE1563:
 2307              	.LBE1566:
 2308              	.LBE1587:
 2309              	.LBE1595:
 2310              		.loc 1 135 0
 2311 0894 FCEEE66A 		vcvt.u32.f32	s13, s13
 2312              	.LBB1596:
 2313              	.LBB1588:
 2314              	.LBB1567:
 2315              	.LBB1564:
 2316              		.loc 2 115 0
 2317 0898 05EB8404 		add	r4, r5, r4, lsl #2
 2318              	.LBE1564:
 2319              	.LBE1567:
 2320              	.LBE1588:
 2321              	.LBE1596:
 2322              		.loc 1 135 0
 2323 089c CDED016A 		vstr.32	s13, [sp, #4]	@ int
 2324 08a0 9DF804C0 		ldrb	ip, [sp, #4]	@ zero_extendqisi2
 2325              	.LBB1597:
 2326              	.LBB1589:
 2327              	.LBB1568:
 2328              	.LBB1565:
 2329              		.loc 2 115 0
 2330 08a4 D4ED006A 		vldr.32	s13, [r4]
 2331              	.LBE1565:
 2332              	.LBE1568:
 2333              	.LBB1569:
 2334              	.LBB1570:
 2335              	.LBB1571:
 2336              	.LBB1572:
 2337              		.loc 4 85 0
ARM GAS  /tmp/ccJJl1OT.s 			page 42


 2338 08a8 7446     		mov	r4, lr
 2339 08aa 972C     		cmp	r4, #151
 2340              	.LBE1572:
 2341              	.LBE1571:
 2342              	.LBE1570:
 2343              	.LBE1569:
 2344              	.LBE1589:
 2345              	.LBE1597:
 2346              		.loc 1 135 0
 2347 08ac 06EE10CA 		vmov	s12, ip	@ int
 2348              	.LVL151:
 2349              	.LBB1598:
 2350              	.LBB1590:
 2351              	.LBB1576:
 2352              	.LBB1575:
 2353              	.LBB1574:
 2354              	.LBB1573:
 2355              		.loc 4 85 0
 2356 08b0 28BF     		it	cs
 2357 08b2 9724     		movcs	r4, #151
 2358              	.LVL152:
 2359              	.LBE1573:
 2360              	.LBE1574:
 2361              		.loc 2 115 0
 2362 08b4 05EB8404 		add	r4, r5, r4, lsl #2
 2363              	.LBE1575:
 2364              	.LBE1576:
 2365              	.LBB1577:
 2366              	.LBB1578:
 2367              		.loc 3 826 0
 2368 08b8 D4ED003A 		vldr.32	s7, [r4]
 2369              	.LBE1578:
 2370              	.LBE1577:
 2371              	.LBE1590:
 2372              	.LBE1598:
 2373              		.loc 1 136 0
 2374 08bc 5C7B     		ldrb	r4, [r3, #13]	@ zero_extendqisi2
 2375              	.LBB1599:
 2376              	.LBB1591:
 2377              		.loc 2 128 0
 2378 08be B8EEC66A 		vcvt.f32.s32	s12, s12
 2379              	.LBB1581:
 2380              	.LBB1579:
 2381              		.loc 3 826 0
 2382 08c2 73EEE63A 		vsub.f32	s7, s7, s13
 2383              	.LBE1579:
 2384              	.LBE1581:
 2385              		.loc 2 128 0
 2386 08c6 26EE226A 		vmul.f32	s12, s12, s5
 2387              	.LVL153:
 2388              	.LBE1591:
 2389              	.LBE1599:
 2390              		.loc 1 136 0
 2391 08ca 3444     		add	r4, r4, r6
 2392              	.LBB1600:
 2393              	.LBB1592:
 2394              	.LBB1582:
ARM GAS  /tmp/ccJJl1OT.s 			page 43


 2395              	.LBB1580:
 2396              		.loc 3 826 0
 2397 08cc E6EE236A 		vfma.f32	s13, s12, s7
 2398              	.LVL154:
 2399              	.LBE1580:
 2400              	.LBE1582:
 2401              	.LBE1592:
 2402              	.LBE1600:
 2403              		.loc 1 136 0
 2404 08d0 E4B2     		uxtb	r4, r4
 2405              	.LBB1601:
 2406              	.LBB1593:
 2407              	.LBB1583:
 2408              	.LBB1584:
 2409              	.LBB1585:
 2410              	.LBB1586:
 2411              		.loc 3 193 0
 2412 08d2 F4EEC76A 		vcmpe.f32	s13, s14
 2413 08d6 F1EE10FA 		vmrs	APSR_nzcv, FPSCR
 2414 08da A8BF     		it	ge
 2415 08dc F0EE476A 		vmovge.f32	s13, s14
 2416              	.LVL155:
 2417              	.LBE1586:
 2418              	.LBE1585:
 2419              	.LBE1584:
 2420              	.LBE1583:
 2421              	.LBE1593:
 2422              	.LBE1601:
 2423              	.LBB1602:
 2424              	.LBB1603:
 2425              	.LBB1604:
 2426              	.LBB1605:
 2427              	.LBB1606:
 2428              	.LBB1607:
 2429              		.loc 4 85 0
 2430 08e0 962C     		cmp	r4, #150
 2431 08e2 98BF     		it	ls
 2432 08e4 A646     		movls	lr, r4
 2433              	.LBE1607:
 2434              	.LBE1606:
 2435              	.LBE1605:
 2436              	.LBE1604:
 2437              	.LBE1603:
 2438              	.LBE1602:
 2439              	.LBB1626:
 2440              	.LBB1594:
 2441              		.loc 2 130 0
 2442 08e6 66EEA56A 		vmul.f32	s13, s13, s11
 2443              	.LVL156:
 2444              	.LBE1594:
 2445              	.LBE1626:
 2446              	.LBB1627:
 2447              	.LBB1624:
 2448              	.LBB1612:
 2449              	.LBB1610:
 2450              	.LBB1609:
 2451              	.LBB1608:
ARM GAS  /tmp/ccJJl1OT.s 			page 44


 2452              		.loc 4 85 0
 2453 08ea 88BF     		it	hi
 2454 08ec 4FF0970E 		movhi	lr, #151
 2455              	.LVL157:
 2456              	.LBE1608:
 2457              	.LBE1609:
 2458              		.loc 2 115 0
 2459 08f0 05EB8E0E 		add	lr, r5, lr, lsl #2
 2460              	.LBE1610:
 2461              	.LBE1612:
 2462              	.LBE1624:
 2463              	.LBE1627:
 2464              		.loc 1 135 0
 2465 08f4 C3ED076A 		vstr.32	s13, [r3, #28]
 2466 08f8 CDED056A 		vstr.32	s13, [sp, #20]
 2467              	.LBB1628:
 2468              	.LBB1625:
 2469              	.LBB1613:
 2470              	.LBB1611:
 2471              		.loc 2 115 0
 2472 08fc DEED006A 		vldr.32	s13, [lr]
 2473              	.LVL158:
 2474              	.LBE1611:
 2475              	.LBE1613:
 2476              		.loc 2 126 0
 2477 0900 04F1010E 		add	lr, r4, #1
 2478 0904 5FFA8EFE 		uxtb	lr, lr
 2479              	.LVL159:
 2480              	.LBB1614:
 2481              	.LBB1615:
 2482              	.LBB1616:
 2483              	.LBB1617:
 2484              		.loc 4 85 0
 2485 0908 BEF1960F 		cmp	lr, #150
 2486 090c 94BF     		ite	ls
 2487 090e F446     		movls	ip, lr
 2488 0910 4FF0970C 		movhi	ip, #151
 2489              	.LVL160:
 2490              	.LBE1617:
 2491              	.LBE1616:
 2492              		.loc 2 115 0
 2493 0914 05EB8C0C 		add	ip, r5, ip, lsl #2
 2494              	.LBE1615:
 2495              	.LBE1614:
 2496              	.LBB1618:
 2497              	.LBB1619:
 2498              		.loc 3 826 0
 2499 0918 9CED003A 		vldr.32	s6, [ip]
 2500 091c 33EE663A 		vsub.f32	s6, s6, s13
 2501 0920 F0EE663A 		vmov.f32	s7, s13
 2502 0924 E3EE043A 		vfma.f32	s7, s6, s8
 2503              	.LVL161:
 2504              	.LBE1619:
 2505              	.LBE1618:
 2506              	.LBB1620:
 2507              	.LBB1621:
 2508              	.LBB1622:
ARM GAS  /tmp/ccJJl1OT.s 			page 45


 2509              	.LBB1623:
 2510              		.loc 3 193 0
 2511 0928 F4EEC73A 		vcmpe.f32	s7, s14
 2512 092c F1EE10FA 		vmrs	APSR_nzcv, FPSCR
 2513 0930 A8BF     		it	ge
 2514 0932 F0EE473A 		vmovge.f32	s7, s14
 2515              	.LVL162:
 2516              	.LBE1623:
 2517              	.LBE1622:
 2518              	.LBE1621:
 2519              	.LBE1620:
 2520              		.loc 2 130 0
 2521 0936 63EEA53A 		vmul.f32	s7, s7, s11
 2522              	.LVL163:
 2523              	.LBE1625:
 2524              	.LBE1628:
 2525              		.loc 1 136 0
 2526 093a C3ED083A 		vstr.32	s7, [r3, #32]
 2527 093e CDED063A 		vstr.32	s7, [sp, #24]
 2528              	.LVL164:
 2529              	.LBB1629:
 2530              	.LBB1630:
 2531              	.LBB1631:
 2532              	.LBB1632:
 2533              		.loc 3 826 0
 2534 0942 F0EE663A 		vmov.f32	s7, s13
 2535 0946 E3EE243A 		vfma.f32	s7, s6, s9
 2536              	.LVL165:
 2537              	.LBE1632:
 2538              	.LBE1631:
 2539              	.LBE1630:
 2540              	.LBE1629:
 2541              	.LBB1644:
 2542              	.LBB1645:
 2543              	.LBB1646:
 2544              	.LBB1647:
 2545 094a E3EE056A 		vfma.f32	s13, s6, s10
 2546              	.LBE1647:
 2547              	.LBE1646:
 2548              	.LBE1645:
 2549              	.LBE1644:
 2550              	.LBB1659:
 2551              	.LBB1641:
 2552              	.LBB1633:
 2553              	.LBB1634:
 2554              	.LBB1635:
 2555              	.LBB1636:
 2556              		.loc 3 193 0
 2557 094e F4EEC73A 		vcmpe.f32	s7, s14
 2558 0952 F1EE10FA 		vmrs	APSR_nzcv, FPSCR
 2559              	.LBE1636:
 2560              	.LBE1635:
 2561              	.LBE1634:
 2562              	.LBE1633:
 2563              	.LBE1641:
 2564              	.LBE1659:
 2565              	.LBB1660:
ARM GAS  /tmp/ccJJl1OT.s 			page 46


 2566              	.LBB1656:
 2567              	.LBB1648:
 2568              	.LBB1649:
 2569              	.LBB1650:
 2570              	.LBB1651:
 2571 0956 F4EEC76A 		vcmpe.f32	s13, s14
 2572              	.LBE1651:
 2573              	.LBE1650:
 2574              	.LBE1649:
 2575              	.LBE1648:
 2576              	.LBE1656:
 2577              	.LBE1660:
 2578              	.LBB1661:
 2579              	.LBB1642:
 2580              	.LBB1640:
 2581              	.LBB1639:
 2582              	.LBB1638:
 2583              	.LBB1637:
 2584 095a A8BF     		it	ge
 2585 095c F0EE473A 		vmovge.f32	s7, s14
 2586              	.LVL166:
 2587              	.LBE1637:
 2588              	.LBE1638:
 2589              	.LBE1639:
 2590              	.LBE1640:
 2591              	.LBE1642:
 2592              	.LBE1661:
 2593              	.LBB1662:
 2594              	.LBB1657:
 2595              	.LBB1655:
 2596              	.LBB1654:
 2597              	.LBB1653:
 2598              	.LBB1652:
 2599 0960 F1EE10FA 		vmrs	APSR_nzcv, FPSCR
 2600 0964 A8BF     		it	ge
 2601 0966 F0EE476A 		vmovge.f32	s13, s14
 2602              	.LBE1652:
 2603              	.LBE1653:
 2604              	.LBE1654:
 2605              	.LBE1655:
 2606              	.LBE1657:
 2607              	.LBE1662:
 2608              	.LBB1663:
 2609              	.LBB1664:
 2610              	.LBB1665:
 2611              	.LBB1666:
 2612              	.LBB1667:
 2613              	.LBB1668:
 2614              		.loc 4 85 0
 2615 096a 972C     		cmp	r4, #151
 2616 096c 28BF     		it	cs
 2617 096e 9724     		movcs	r4, #151
 2618              	.LVL167:
 2619              	.LBE1668:
 2620              	.LBE1667:
 2621              	.LBE1666:
 2622              	.LBE1665:
ARM GAS  /tmp/ccJJl1OT.s 			page 47


 2623              	.LBB1671:
 2624              	.LBB1672:
 2625              	.LBB1673:
 2626              	.LBB1674:
 2627 0970 BEF1970F 		cmp	lr, #151
 2628              	.LBE1674:
 2629              	.LBE1673:
 2630              	.LBE1672:
 2631              	.LBE1671:
 2632              	.LBE1664:
 2633              	.LBE1663:
 2634              	.LBB1697:
 2635              	.LBB1643:
 2636              		.loc 2 130 0
 2637 0974 63EEA53A 		vmul.f32	s7, s7, s11
 2638              	.LVL168:
 2639              	.LBE1643:
 2640              	.LBE1697:
 2641              	.LBB1698:
 2642              	.LBB1658:
 2643 0978 66EEA56A 		vmul.f32	s13, s13, s11
 2644              	.LBE1658:
 2645              	.LBE1698:
 2646              	.LBB1699:
 2647              	.LBB1691:
 2648              	.LBB1678:
 2649              	.LBB1677:
 2650              	.LBB1676:
 2651              	.LBB1675:
 2652              		.loc 4 85 0
 2653 097c 28BF     		it	cs
 2654 097e 4FF0970E 		movcs	lr, #151
 2655              	.LBE1675:
 2656              	.LBE1676:
 2657              		.loc 2 115 0
 2658 0982 05EB8E0E 		add	lr, r5, lr, lsl #2
 2659              	.LBE1677:
 2660              	.LBE1678:
 2661              	.LBB1679:
 2662              	.LBB1669:
 2663 0986 05EB8404 		add	r4, r5, r4, lsl #2
 2664              	.LBE1669:
 2665              	.LBE1679:
 2666              	.LBE1691:
 2667              	.LBE1699:
 2668              		.loc 1 137 0
 2669 098a C3ED093A 		vstr.32	s7, [r3, #36]
 2670 098e CDED073A 		vstr.32	s7, [sp, #28]
 2671              	.LVL169:
 2672              		.loc 1 138 0
 2673 0992 C3ED0A6A 		vstr.32	s13, [r3, #40]
 2674 0996 CDED086A 		vstr.32	s13, [sp, #32]
 2675              	.LVL170:
 2676              	.LBB1700:
 2677              	.LBB1692:
 2678              	.LBB1680:
 2679              	.LBB1670:
ARM GAS  /tmp/ccJJl1OT.s 			page 48


 2680              		.loc 2 115 0
 2681 099a D4ED006A 		vldr.32	s13, [r4]
 2682              	.LVL171:
 2683              	.LBE1670:
 2684              	.LBE1680:
 2685              	.LBB1681:
 2686              	.LBB1682:
 2687              		.loc 3 826 0
 2688 099e DEED003A 		vldr.32	s7, [lr]
 2689              	.LBE1682:
 2690              	.LBE1681:
 2691              	.LBE1692:
 2692              	.LBE1700:
 2693              		.loc 1 140 0
 2694 09a2 9C7B     		ldrb	r4, [r3, #14]	@ zero_extendqisi2
 2695              	.LBB1701:
 2696              	.LBB1693:
 2697              	.LBB1685:
 2698              	.LBB1683:
 2699              		.loc 3 826 0
 2700 09a4 73EEE63A 		vsub.f32	s7, s7, s13
 2701              	.LBE1683:
 2702              	.LBE1685:
 2703              	.LBE1693:
 2704              	.LBE1701:
 2705              		.loc 1 140 0
 2706 09a8 2644     		add	r6, r6, r4
 2707              	.LBB1702:
 2708              	.LBB1694:
 2709              	.LBB1686:
 2710              	.LBB1684:
 2711              		.loc 3 826 0
 2712 09aa E3EE866A 		vfma.f32	s13, s7, s12
 2713              	.LVL172:
 2714              	.LBE1684:
 2715              	.LBE1686:
 2716              	.LBE1694:
 2717              	.LBE1702:
 2718              		.loc 1 140 0
 2719 09ae F6B2     		uxtb	r6, r6
 2720              	.LBB1703:
 2721              	.LBB1695:
 2722              	.LBB1687:
 2723              	.LBB1688:
 2724              	.LBB1689:
 2725              	.LBB1690:
 2726              		.loc 3 193 0
 2727 09b0 F4EEC76A 		vcmpe.f32	s13, s14
 2728 09b4 F1EE10FA 		vmrs	APSR_nzcv, FPSCR
 2729 09b8 A8BF     		it	ge
 2730 09ba F0EE476A 		vmovge.f32	s13, s14
 2731              	.LVL173:
 2732              	.LBE1690:
 2733              	.LBE1689:
 2734              	.LBE1688:
 2735              	.LBE1687:
 2736              	.LBE1695:
ARM GAS  /tmp/ccJJl1OT.s 			page 49


 2737              	.LBE1703:
 2738              	.LBB1704:
 2739              	.LBB1705:
 2740              	.LBB1706:
 2741              	.LBB1707:
 2742              	.LBB1708:
 2743              	.LBB1709:
 2744              		.loc 4 85 0
 2745 09be 962E     		cmp	r6, #150
 2746 09c0 98BF     		it	ls
 2747 09c2 3446     		movls	r4, r6
 2748              	.LBE1709:
 2749              	.LBE1708:
 2750              	.LBE1707:
 2751              	.LBE1706:
 2752              	.LBE1705:
 2753              	.LBE1704:
 2754              	.LBB1737:
 2755              	.LBB1696:
 2756              		.loc 2 130 0
 2757 09c4 66EEA56A 		vmul.f32	s13, s13, s11
 2758              	.LVL174:
 2759              	.LBE1696:
 2760              	.LBE1737:
 2761              	.LBB1738:
 2762              	.LBB1734:
 2763              	.LBB1714:
 2764              	.LBB1712:
 2765              	.LBB1711:
 2766              	.LBB1710:
 2767              		.loc 4 85 0
 2768 09c8 88BF     		it	hi
 2769 09ca 9724     		movhi	r4, #151
 2770              	.LVL175:
 2771              	.LBE1710:
 2772              	.LBE1711:
 2773              		.loc 2 115 0
 2774 09cc 05EB8404 		add	r4, r5, r4, lsl #2
 2775              	.LBE1712:
 2776              	.LBE1714:
 2777              	.LBE1734:
 2778              	.LBE1738:
 2779              		.loc 1 139 0
 2780 09d0 C3ED0B6A 		vstr.32	s13, [r3, #44]
 2781 09d4 CDED096A 		vstr.32	s13, [sp, #36]
 2782              	.LBB1739:
 2783              	.LBB1735:
 2784              	.LBB1715:
 2785              	.LBB1713:
 2786              		.loc 2 115 0
 2787 09d8 D4ED006A 		vldr.32	s13, [r4]
 2788              	.LVL176:
 2789              	.LBE1713:
 2790              	.LBE1715:
 2791              		.loc 2 126 0
 2792 09dc 741C     		adds	r4, r6, #1
 2793 09de E4B2     		uxtb	r4, r4
ARM GAS  /tmp/ccJJl1OT.s 			page 50


 2794              	.LVL177:
 2795              	.LBB1716:
 2796              	.LBB1717:
 2797              	.LBB1718:
 2798              	.LBB1719:
 2799              		.loc 4 85 0
 2800 09e0 962C     		cmp	r4, #150
 2801 09e2 94BF     		ite	ls
 2802 09e4 A646     		movls	lr, r4
 2803 09e6 4FF0970E 		movhi	lr, #151
 2804              	.LVL178:
 2805              	.LBE1719:
 2806              	.LBE1718:
 2807              		.loc 2 115 0
 2808 09ea 05EB8E0E 		add	lr, r5, lr, lsl #2
 2809              	.LBE1717:
 2810              	.LBE1716:
 2811              	.LBB1720:
 2812              	.LBB1721:
 2813              		.loc 3 826 0
 2814 09ee DEED003A 		vldr.32	s7, [lr]
 2815              	.LBE1721:
 2816              	.LBE1720:
 2817              	.LBE1735:
 2818              	.LBE1739:
 2819              		.loc 1 141 0
 2820 09f2 DFF8B4E0 		ldr	lr, .L409+4
 2821              	.LBB1740:
 2822              	.LBB1736:
 2823              	.LBB1724:
 2824              	.LBB1722:
 2825              		.loc 3 826 0
 2826 09f6 73EEE63A 		vsub.f32	s7, s7, s13
 2827 09fa B0EE663A 		vmov.f32	s6, s13
 2828 09fe A3EE843A 		vfma.f32	s6, s7, s8
 2829              	.LBE1722:
 2830              	.LBE1724:
 2831              	.LBB1725:
 2832              	.LBB1726:
 2833              	.LBB1727:
 2834              	.LBB1728:
 2835              		.loc 3 193 0
 2836 0a02 B4EEC73A 		vcmpe.f32	s6, s14
 2837 0a06 F1EE10FA 		vmrs	APSR_nzcv, FPSCR
 2838              	.LBE1728:
 2839              	.LBE1727:
 2840              	.LBE1726:
 2841              	.LBE1725:
 2842              	.LBB1732:
 2843              	.LBB1723:
 2844              		.loc 3 826 0
 2845 0a0a B0EE434A 		vmov.f32	s8, s6
 2846              	.LVL179:
 2847              	.LBE1723:
 2848              	.LBE1732:
 2849              	.LBB1733:
 2850              	.LBB1731:
ARM GAS  /tmp/ccJJl1OT.s 			page 51


 2851              	.LBB1730:
 2852              	.LBB1729:
 2853              		.loc 3 193 0
 2854 0a0e A8BF     		it	ge
 2855 0a10 B0EE474A 		vmovge.f32	s8, s14
 2856              	.LVL180:
 2857              	.LBE1729:
 2858              	.LBE1730:
 2859              	.LBE1731:
 2860              	.LBE1733:
 2861              		.loc 2 130 0
 2862 0a14 24EE254A 		vmul.f32	s8, s8, s11
 2863              	.LVL181:
 2864              	.LBE1736:
 2865              	.LBE1740:
 2866              		.loc 1 140 0
 2867 0a18 83ED0C4A 		vstr.32	s8, [r3, #48]
 2868 0a1c 8DED0A4A 		vstr.32	s8, [sp, #40]
 2869              	.LVL182:
 2870              	.LBB1741:
 2871              	.LBB1742:
 2872              	.LBB1743:
 2873              	.LBB1744:
 2874              		.loc 3 826 0
 2875 0a20 B0EE664A 		vmov.f32	s8, s13
 2876 0a24 A3EEA44A 		vfma.f32	s8, s7, s9
 2877              	.LBE1744:
 2878              	.LBE1743:
 2879              	.LBE1742:
 2880              	.LBE1741:
 2881              	.LBB1758:
 2882              	.LBB1759:
 2883              	.LBB1760:
 2884              	.LBB1761:
 2885 0a28 E3EE856A 		vfma.f32	s13, s7, s10
 2886              	.LBE1761:
 2887              	.LBE1760:
 2888              	.LBE1759:
 2889              	.LBE1758:
 2890              	.LBB1773:
 2891              	.LBB1755:
 2892              	.LBB1746:
 2893              	.LBB1747:
 2894              	.LBB1748:
 2895              	.LBB1749:
 2896              		.loc 3 193 0
 2897 0a2c B4EEC74A 		vcmpe.f32	s8, s14
 2898 0a30 F1EE10FA 		vmrs	APSR_nzcv, FPSCR
 2899              	.LBE1749:
 2900              	.LBE1748:
 2901              	.LBE1747:
 2902              	.LBE1746:
 2903              	.LBB1753:
 2904              	.LBB1745:
 2905              		.loc 3 826 0
 2906 0a34 F0EE444A 		vmov.f32	s9, s8
 2907              	.LVL183:
ARM GAS  /tmp/ccJJl1OT.s 			page 52


 2908              	.LBE1745:
 2909              	.LBE1753:
 2910              	.LBE1755:
 2911              	.LBE1773:
 2912              	.LBB1774:
 2913              	.LBB1770:
 2914              	.LBB1762:
 2915              	.LBB1763:
 2916              	.LBB1764:
 2917              	.LBB1765:
 2918              		.loc 3 193 0
 2919 0a38 F4EEC76A 		vcmpe.f32	s13, s14
 2920              	.LBE1765:
 2921              	.LBE1764:
 2922              	.LBE1763:
 2923              	.LBE1762:
 2924              	.LBE1770:
 2925              	.LBE1774:
 2926              	.LBB1775:
 2927              	.LBB1756:
 2928              	.LBB1754:
 2929              	.LBB1752:
 2930              	.LBB1751:
 2931              	.LBB1750:
 2932 0a3c A8BF     		it	ge
 2933 0a3e F0EE474A 		vmovge.f32	s9, s14
 2934              	.LVL184:
 2935              	.LBE1750:
 2936              	.LBE1751:
 2937              	.LBE1752:
 2938              	.LBE1754:
 2939              	.LBE1756:
 2940              	.LBE1775:
 2941              	.LBB1776:
 2942              	.LBB1771:
 2943              	.LBB1769:
 2944              	.LBB1768:
 2945              	.LBB1767:
 2946              	.LBB1766:
 2947 0a42 F1EE10FA 		vmrs	APSR_nzcv, FPSCR
 2948 0a46 A8BF     		it	ge
 2949 0a48 F0EE476A 		vmovge.f32	s13, s14
 2950              	.LBE1766:
 2951              	.LBE1767:
 2952              	.LBE1768:
 2953              	.LBE1769:
 2954              	.LBE1771:
 2955              	.LBE1776:
 2956              	.LBB1777:
 2957              	.LBB1778:
 2958              	.LBB1779:
 2959              	.LBB1780:
 2960              	.LBB1781:
 2961              	.LBB1782:
 2962              		.loc 4 85 0
 2963 0a4c 972E     		cmp	r6, #151
 2964 0a4e 28BF     		it	cs
ARM GAS  /tmp/ccJJl1OT.s 			page 53


 2965 0a50 9726     		movcs	r6, #151
 2966              	.LVL185:
 2967              	.LBE1782:
 2968              	.LBE1781:
 2969              	.LBE1780:
 2970              	.LBE1779:
 2971              	.LBB1785:
 2972              	.LBB1786:
 2973              	.LBB1787:
 2974              	.LBB1788:
 2975 0a52 972C     		cmp	r4, #151
 2976              	.LBE1788:
 2977              	.LBE1787:
 2978              	.LBE1786:
 2979              	.LBE1785:
 2980              	.LBE1778:
 2981              	.LBE1777:
 2982              	.LBB1811:
 2983              	.LBB1772:
 2984              		.loc 2 130 0
 2985 0a54 66EEA56A 		vmul.f32	s13, s13, s11
 2986              	.LBE1772:
 2987              	.LBE1811:
 2988              	.LBB1812:
 2989              	.LBB1807:
 2990              	.LBB1793:
 2991              	.LBB1791:
 2992              	.LBB1790:
 2993              	.LBB1789:
 2994              		.loc 4 85 0
 2995 0a58 28BF     		it	cs
 2996 0a5a 9724     		movcs	r4, #151
 2997              	.LBE1789:
 2998              	.LBE1790:
 2999              	.LBE1791:
 3000              	.LBE1793:
 3001              	.LBB1794:
 3002              	.LBB1783:
 3003              		.loc 2 115 0
 3004 0a5c 05EB8606 		add	r6, r5, r6, lsl #2
 3005              	.LBE1783:
 3006              	.LBE1794:
 3007              	.LBB1795:
 3008              	.LBB1792:
 3009 0a60 05EB8404 		add	r4, r5, r4, lsl #2
 3010              	.LBE1792:
 3011              	.LBE1795:
 3012              	.LBE1807:
 3013              	.LBE1812:
 3014              		.loc 1 142 0
 3015 0a64 CEED0E6A 		vstr.32	s13, [lr, #56]
 3016 0a68 CDED0C6A 		vstr.32	s13, [sp, #48]
 3017              	.LBB1813:
 3018              	.LBB1808:
 3019              	.LBB1796:
 3020              	.LBB1797:
 3021              		.loc 3 826 0
ARM GAS  /tmp/ccJJl1OT.s 			page 54


 3022 0a6c 94ED005A 		vldr.32	s10, [r4]
 3023              	.LBE1797:
 3024              	.LBE1796:
 3025              	.LBB1800:
 3026              	.LBB1784:
 3027              		.loc 2 115 0
 3028 0a70 D6ED006A 		vldr.32	s13, [r6]
 3029              	.LBE1784:
 3030              	.LBE1800:
 3031              	.LBB1801:
 3032              	.LBB1798:
 3033              		.loc 3 826 0
 3034 0a74 35EE665A 		vsub.f32	s10, s10, s13
 3035              	.LBE1798:
 3036              	.LBE1801:
 3037              	.LBE1808:
 3038              	.LBE1813:
 3039              	.LBB1814:
 3040              	.LBB1757:
 3041              		.loc 2 130 0
 3042 0a78 64EEA54A 		vmul.f32	s9, s9, s11
 3043              	.LVL186:
 3044              	.LBE1757:
 3045              	.LBE1814:
 3046              	.LBB1815:
 3047              	.LBB1809:
 3048              	.LBB1802:
 3049              	.LBB1799:
 3050              		.loc 3 826 0
 3051 0a7c E5EE066A 		vfma.f32	s13, s10, s12
 3052              	.LBE1799:
 3053              	.LBE1802:
 3054              	.LBE1809:
 3055              	.LBE1815:
 3056              		.loc 1 141 0
 3057 0a80 CEED0D4A 		vstr.32	s9, [lr, #52]
 3058 0a84 CDED0B4A 		vstr.32	s9, [sp, #44]
 3059              	.LVL187:
 3060              	.L399:
 3061              	.LBB1816:
 3062              	.LBB1810:
 3063              	.LBB1803:
 3064              	.LBB1804:
 3065              	.LBB1805:
 3066              	.LBB1806:
 3067              		.loc 3 193 0
 3068 0a88 F4EEC76A 		vcmpe.f32	s13, s14
 3069 0a8c F1EE10FA 		vmrs	APSR_nzcv, FPSCR
 3070 0a90 B8BF     		it	lt
 3071 0a92 B0EE667A 		vmovlt.f32	s14, s13
 3072              	.LVL188:
 3073              	.LBE1806:
 3074              	.LBE1805:
 3075              	.LBE1804:
 3076              	.LBE1803:
 3077              		.loc 2 130 0
 3078 0a96 27EE257A 		vmul.f32	s14, s14, s11
ARM GAS  /tmp/ccJJl1OT.s 			page 55


 3079              	.LBE1810:
 3080              	.LBE1816:
 3081              		.loc 1 143 0
 3082 0a9a 8EED0F7A 		vstr.32	s14, [lr, #60]
 3083 0a9e 8DED0D7A 		vstr.32	s14, [sp, #52]
 3084              		.loc 1 144 0
 3085 0aa2 ABE1     		b	.L9
 3086              	.L410:
 3087              		.align	2
 3088              	.L409:
 3089 0aa4 00000000 		.word	midi_to_hz_lut_f
 3090 0aa8 00000000 		.word	.LANCHOR0
 3091 0aac 8180803B 		.word	998277249
 3092 0ab0 3EC3AE37 		.word	934200126
 3093 0ab4 49FFB846 		.word	1186529097
 3094              	.LVL189:
 3095              	.L14:
 3096              		.loc 1 147 0
 3097 0ab8 8588     		ldrh	r5, [r0, #4]
 3098 0aba 93ED1C5A 		vldr.32	s10, [r3, #112]
 3099 0abe 1C7B     		ldrb	r4, [r3, #12]	@ zero_extendqisi2
 3100              	.LBB1817:
 3101              	.LBB1818:
 3102              		.loc 2 128 0
 3103 0ac0 5FED062A 		vldr.32	s5, .L409+8
 3104              		.loc 2 130 0
 3105 0ac4 5FED066A 		vldr.32	s13, .L409+12
 3106              	.LBE1818:
 3107              	.LBE1817:
 3108              		.loc 1 147 0
 3109 0ac8 2E0A     		lsrs	r6, r5, #8
 3110              	.LVL190:
 3111 0aca EDB2     		uxtb	r5, r5
 3112 0acc 05EE905A 		vmov	s11, r5	@ int
 3113 0ad0 F8EEE53A 		vcvt.f32.s32	s7, s11
 3114 0ad4 3444     		add	r4, r4, r6
 3115 0ad6 33EE857A 		vadd.f32	s14, s7, s10
 3116 0ada E4B2     		uxtb	r4, r4
 3117 0adc BCEEC77A 		vcvt.u32.f32	s14, s14
 3118              	.LBB1856:
 3119              	.LBB1849:
 3120              	.LBB1819:
 3121              	.LBB1820:
 3122              	.LBB1821:
 3123              	.LBB1822:
 3124              		.loc 4 85 0
 3125 0ae0 962C     		cmp	r4, #150
 3126              	.LBE1822:
 3127              	.LBE1821:
 3128              	.LBE1820:
 3129              	.LBE1819:
 3130              	.LBE1849:
 3131              	.LBE1856:
 3132              		.loc 1 147 0
 3133 0ae2 8DED017A 		vstr.32	s14, [sp, #4]	@ int
 3134 0ae6 9DF80450 		ldrb	r5, [sp, #4]	@ zero_extendqisi2
 3135              	.LBB1857:
ARM GAS  /tmp/ccJJl1OT.s 			page 56


 3136              	.LBB1850:
 3137              	.LBB1826:
 3138              	.LBB1827:
 3139              	.LBB1828:
 3140              	.LBB1829:
 3141              		.loc 3 193 0
 3142 0aea 1FED0E7A 		vldr.32	s14, .L409+16
 3143              	.LBE1829:
 3144              	.LBE1828:
 3145              	.LBE1827:
 3146              	.LBE1826:
 3147              	.LBE1850:
 3148              	.LBE1857:
 3149              		.loc 1 147 0
 3150 0aee 04EE905A 		vmov	s9, r5	@ int
 3151              	.LVL191:
 3152              	.LBB1858:
 3153              	.LBB1851:
 3154              	.LBB1836:
 3155              	.LBB1825:
 3156              		.loc 2 115 0
 3157 0af2 E64D     		ldr	r5, .L411
 3158              	.LVL192:
 3159              	.LBB1824:
 3160              	.LBB1823:
 3161              		.loc 4 85 0
 3162 0af4 94BF     		ite	ls
 3163 0af6 A646     		movls	lr, r4
 3164 0af8 4FF0970E 		movhi	lr, #151
 3165              	.LVL193:
 3166              	.LBE1823:
 3167              	.LBE1824:
 3168              		.loc 2 115 0
 3169 0afc 05EB8E0E 		add	lr, r5, lr, lsl #2
 3170 0b00 9EED006A 		vldr.32	s12, [lr]
 3171              	.LVL194:
 3172              	.LBE1825:
 3173              	.LBE1836:
 3174              		.loc 2 126 0
 3175 0b04 04F1010E 		add	lr, r4, #1
 3176 0b08 5FFA8EFE 		uxtb	lr, lr
 3177              	.LVL195:
 3178              	.LBB1837:
 3179              	.LBB1838:
 3180              	.LBB1839:
 3181              	.LBB1840:
 3182              		.loc 4 85 0
 3183 0b0c BEF1960F 		cmp	lr, #150
 3184 0b10 94BF     		ite	ls
 3185 0b12 F446     		movls	ip, lr
 3186 0b14 4FF0970C 		movhi	ip, #151
 3187              	.LVL196:
 3188              	.LBE1840:
 3189              	.LBE1839:
 3190              		.loc 2 115 0
 3191 0b18 05EB8C0C 		add	ip, r5, ip, lsl #2
 3192              	.LBE1838:
ARM GAS  /tmp/ccJJl1OT.s 			page 57


 3193              	.LBE1837:
 3194              	.LBB1841:
 3195              	.LBB1842:
 3196              		.loc 3 826 0
 3197 0b1c 9CED003A 		vldr.32	s6, [ip]
 3198              	.LBE1842:
 3199              	.LBE1841:
 3200              		.loc 2 128 0
 3201 0b20 F8EEE44A 		vcvt.f32.s32	s9, s9
 3202              	.LVL197:
 3203              	.LBB1845:
 3204              	.LBB1843:
 3205              		.loc 3 826 0
 3206 0b24 33EE463A 		vsub.f32	s6, s6, s12
 3207              	.LBE1843:
 3208              	.LBE1845:
 3209              		.loc 2 128 0
 3210 0b28 64EEA24A 		vmul.f32	s9, s9, s5
 3211              	.LVL198:
 3212              	.LBE1851:
 3213              	.LBE1858:
 3214              	.LBB1859:
 3215              	.LBB1860:
 3216 0b2c 63EEA25A 		vmul.f32	s11, s7, s5
 3217              	.LBE1860:
 3218              	.LBE1859:
 3219              	.LBB1874:
 3220              	.LBB1852:
 3221              	.LBB1846:
 3222              	.LBB1844:
 3223              		.loc 3 826 0
 3224 0b30 B0EE464A 		vmov.f32	s8, s12
 3225 0b34 A4EE834A 		vfma.f32	s8, s9, s6
 3226              	.LVL199:
 3227              	.LBE1844:
 3228              	.LBE1846:
 3229              	.LBE1852:
 3230              	.LBE1874:
 3231              	.LBB1875:
 3232              	.LBB1871:
 3233              	.LBB1861:
 3234              	.LBB1862:
 3235 0b38 A5EE836A 		vfma.f32	s12, s11, s6
 3236              	.LBE1862:
 3237              	.LBE1861:
 3238              	.LBE1871:
 3239              	.LBE1875:
 3240              	.LBB1876:
 3241              	.LBB1853:
 3242              	.LBB1847:
 3243              	.LBB1834:
 3244              	.LBB1832:
 3245              	.LBB1830:
 3246              		.loc 3 193 0
 3247 0b3c B4EEC74A 		vcmpe.f32	s8, s14
 3248 0b40 F1EE10FA 		vmrs	APSR_nzcv, FPSCR
 3249              	.LBE1830:
ARM GAS  /tmp/ccJJl1OT.s 			page 58


 3250              	.LBE1832:
 3251              	.LBE1834:
 3252              	.LBE1847:
 3253              	.LBE1853:
 3254              	.LBE1876:
 3255              	.LBB1877:
 3256              	.LBB1872:
 3257              	.LBB1863:
 3258              	.LBB1864:
 3259              	.LBB1865:
 3260              	.LBB1866:
 3261 0b44 B4EEC76A 		vcmpe.f32	s12, s14
 3262              	.LBE1866:
 3263              	.LBE1865:
 3264              	.LBE1864:
 3265              	.LBE1863:
 3266              	.LBE1872:
 3267              	.LBE1877:
 3268              	.LBB1878:
 3269              	.LBB1854:
 3270              	.LBB1848:
 3271              	.LBB1835:
 3272              	.LBB1833:
 3273              	.LBB1831:
 3274 0b48 A8BF     		it	ge
 3275 0b4a B0EE474A 		vmovge.f32	s8, s14
 3276              	.LVL200:
 3277              	.LBE1831:
 3278              	.LBE1833:
 3279              	.LBE1835:
 3280              	.LBE1848:
 3281              	.LBE1854:
 3282              	.LBE1878:
 3283              	.LBB1879:
 3284              	.LBB1873:
 3285              	.LBB1870:
 3286              	.LBB1869:
 3287              	.LBB1868:
 3288              	.LBB1867:
 3289 0b4e F1EE10FA 		vmrs	APSR_nzcv, FPSCR
 3290 0b52 A8BF     		it	ge
 3291 0b54 B0EE476A 		vmovge.f32	s12, s14
 3292              	.LBE1867:
 3293              	.LBE1868:
 3294              	.LBE1869:
 3295              	.LBE1870:
 3296              		.loc 2 130 0
 3297 0b58 26EE266A 		vmul.f32	s12, s12, s13
 3298              	.LBE1873:
 3299              	.LBE1879:
 3300              		.loc 1 149 0
 3301 0b5c 73EEC53A 		vsub.f32	s7, s7, s10
 3302              	.LBB1880:
 3303              	.LBB1881:
 3304              	.LBB1882:
 3305              	.LBB1883:
 3306              	.LBB1884:
ARM GAS  /tmp/ccJJl1OT.s 			page 59


 3307              	.LBB1885:
 3308              		.loc 4 85 0
 3309 0b60 972C     		cmp	r4, #151
 3310              	.LBE1885:
 3311              	.LBE1884:
 3312              	.LBE1883:
 3313              	.LBE1882:
 3314              	.LBE1881:
 3315              	.LBE1880:
 3316              		.loc 1 148 0
 3317 0b62 83ED056A 		vstr.32	s12, [r3, #20]
 3318 0b66 8DED036A 		vstr.32	s12, [sp, #12]
 3319              		.loc 1 149 0
 3320 0b6a BCEEE36A 		vcvt.u32.f32	s12, s7
 3321              	.LBB1921:
 3322              	.LBB1912:
 3323              	.LBB1891:
 3324              	.LBB1888:
 3325              	.LBB1887:
 3326              	.LBB1886:
 3327              		.loc 4 85 0
 3328 0b6e 28BF     		it	cs
 3329 0b70 9724     		movcs	r4, #151
 3330              	.LVL201:
 3331              	.LBE1886:
 3332              	.LBE1887:
 3333              	.LBE1888:
 3334              	.LBE1891:
 3335              	.LBE1912:
 3336              	.LBE1921:
 3337              		.loc 1 149 0
 3338 0b72 8DED016A 		vstr.32	s12, [sp, #4]	@ int
 3339              	.LVL202:
 3340              	.LBB1922:
 3341              	.LBB1913:
 3342              	.LBB1892:
 3343              	.LBB1889:
 3344              		.loc 2 115 0
 3345 0b76 05EB8404 		add	r4, r5, r4, lsl #2
 3346              	.LBE1889:
 3347              	.LBE1892:
 3348              	.LBE1913:
 3349              	.LBE1922:
 3350              		.loc 1 149 0
 3351 0b7a 9DF804C0 		ldrb	ip, [sp, #4]	@ zero_extendqisi2
 3352              	.LBB1923:
 3353              	.LBB1914:
 3354              	.LBB1893:
 3355              	.LBB1890:
 3356              		.loc 2 115 0
 3357 0b7e 94ED006A 		vldr.32	s12, [r4]
 3358              	.LBE1890:
 3359              	.LBE1893:
 3360              	.LBB1894:
 3361              	.LBB1895:
 3362              	.LBB1896:
 3363              	.LBB1897:
ARM GAS  /tmp/ccJJl1OT.s 			page 60


 3364              		.loc 4 85 0
 3365 0b82 7446     		mov	r4, lr
 3366 0b84 972C     		cmp	r4, #151
 3367              	.LBE1897:
 3368              	.LBE1896:
 3369              	.LBE1895:
 3370              	.LBE1894:
 3371              	.LBE1914:
 3372              	.LBE1923:
 3373              		.loc 1 149 0
 3374 0b86 05EE10CA 		vmov	s10, ip	@ int
 3375              	.LBB1924:
 3376              	.LBB1855:
 3377              		.loc 2 130 0
 3378 0b8a 24EE264A 		vmul.f32	s8, s8, s13
 3379              	.LVL203:
 3380              	.LBE1855:
 3381              	.LBE1924:
 3382              	.LBB1925:
 3383              	.LBB1915:
 3384              	.LBB1901:
 3385              	.LBB1900:
 3386              	.LBB1899:
 3387              	.LBB1898:
 3388              		.loc 4 85 0
 3389 0b8e 28BF     		it	cs
 3390 0b90 9724     		movcs	r4, #151
 3391              	.LBE1898:
 3392              	.LBE1899:
 3393              		.loc 2 115 0
 3394 0b92 05EB8404 		add	r4, r5, r4, lsl #2
 3395              	.LBE1900:
 3396              	.LBE1901:
 3397              	.LBE1915:
 3398              	.LBE1925:
 3399              		.loc 1 147 0
 3400 0b96 83ED044A 		vstr.32	s8, [r3, #16]
 3401 0b9a 8DED024A 		vstr.32	s8, [sp, #8]
 3402              	.LVL204:
 3403              	.LBB1926:
 3404              	.LBB1916:
 3405              		.loc 2 128 0
 3406 0b9e B8EEC55A 		vcvt.f32.s32	s10, s10
 3407              	.LBB1902:
 3408              	.LBB1903:
 3409              		.loc 3 826 0
 3410 0ba2 94ED004A 		vldr.32	s8, [r4]
 3411              	.LBE1903:
 3412              	.LBE1902:
 3413              	.LBE1916:
 3414              	.LBE1926:
 3415              		.loc 1 150 0
 3416 0ba6 5C7B     		ldrb	r4, [r3, #13]	@ zero_extendqisi2
 3417              	.LBB1927:
 3418              	.LBB1917:
 3419              		.loc 2 128 0
 3420 0ba8 25EE225A 		vmul.f32	s10, s10, s5
ARM GAS  /tmp/ccJJl1OT.s 			page 61


 3421              	.LVL205:
 3422              	.LBB1906:
 3423              	.LBB1904:
 3424              		.loc 3 826 0
 3425 0bac 34EE464A 		vsub.f32	s8, s8, s12
 3426              	.LBE1904:
 3427              	.LBE1906:
 3428              	.LBE1917:
 3429              	.LBE1927:
 3430              		.loc 1 150 0
 3431 0bb0 3444     		add	r4, r4, r6
 3432              	.LBB1928:
 3433              	.LBB1918:
 3434              	.LBB1907:
 3435              	.LBB1905:
 3436              		.loc 3 826 0
 3437 0bb2 A5EE046A 		vfma.f32	s12, s10, s8
 3438              	.LVL206:
 3439              	.LBE1905:
 3440              	.LBE1907:
 3441              	.LBE1918:
 3442              	.LBE1928:
 3443              		.loc 1 150 0
 3444 0bb6 E4B2     		uxtb	r4, r4
 3445              	.LBB1929:
 3446              	.LBB1919:
 3447              	.LBB1908:
 3448              	.LBB1909:
 3449              	.LBB1910:
 3450              	.LBB1911:
 3451              		.loc 3 193 0
 3452 0bb8 B4EEC76A 		vcmpe.f32	s12, s14
 3453 0bbc F1EE10FA 		vmrs	APSR_nzcv, FPSCR
 3454 0bc0 A8BF     		it	ge
 3455 0bc2 B0EE476A 		vmovge.f32	s12, s14
 3456              	.LVL207:
 3457              	.LBE1911:
 3458              	.LBE1910:
 3459              	.LBE1909:
 3460              	.LBE1908:
 3461              	.LBE1919:
 3462              	.LBE1929:
 3463              	.LBB1930:
 3464              	.LBB1931:
 3465              	.LBB1932:
 3466              	.LBB1933:
 3467              	.LBB1934:
 3468              	.LBB1935:
 3469              		.loc 4 85 0
 3470 0bc6 962C     		cmp	r4, #150
 3471 0bc8 98BF     		it	ls
 3472 0bca A646     		movls	lr, r4
 3473              	.LBE1935:
 3474              	.LBE1934:
 3475              	.LBE1933:
 3476              	.LBE1932:
 3477              	.LBE1931:
ARM GAS  /tmp/ccJJl1OT.s 			page 62


 3478              	.LBE1930:
 3479              	.LBB1961:
 3480              	.LBB1920:
 3481              		.loc 2 130 0
 3482 0bcc 26EE266A 		vmul.f32	s12, s12, s13
 3483              	.LVL208:
 3484              	.LBE1920:
 3485              	.LBE1961:
 3486              	.LBB1962:
 3487              	.LBB1956:
 3488              	.LBB1940:
 3489              	.LBB1938:
 3490              	.LBB1937:
 3491              	.LBB1936:
 3492              		.loc 4 85 0
 3493 0bd0 88BF     		it	hi
 3494 0bd2 4FF0970E 		movhi	lr, #151
 3495              	.LVL209:
 3496              	.LBE1936:
 3497              	.LBE1937:
 3498              		.loc 2 115 0
 3499 0bd6 05EB8E0E 		add	lr, r5, lr, lsl #2
 3500              	.LBE1938:
 3501              	.LBE1940:
 3502              	.LBE1956:
 3503              	.LBE1962:
 3504              		.loc 1 149 0
 3505 0bda 83ED066A 		vstr.32	s12, [r3, #24]
 3506 0bde 8DED046A 		vstr.32	s12, [sp, #16]
 3507              	.LBB1963:
 3508              	.LBB1957:
 3509              	.LBB1941:
 3510              	.LBB1939:
 3511              		.loc 2 115 0
 3512 0be2 9EED006A 		vldr.32	s12, [lr]
 3513              	.LVL210:
 3514              	.LBE1939:
 3515              	.LBE1941:
 3516              		.loc 2 126 0
 3517 0be6 04F1010E 		add	lr, r4, #1
 3518 0bea 5FFA8EFE 		uxtb	lr, lr
 3519              	.LVL211:
 3520              	.LBB1942:
 3521              	.LBB1943:
 3522              	.LBB1944:
 3523              	.LBB1945:
 3524              		.loc 4 85 0
 3525 0bee BEF1960F 		cmp	lr, #150
 3526 0bf2 94BF     		ite	ls
 3527 0bf4 F446     		movls	ip, lr
 3528 0bf6 4FF0970C 		movhi	ip, #151
 3529              	.LVL212:
 3530              	.LBE1945:
 3531              	.LBE1944:
 3532              		.loc 2 115 0
 3533 0bfa 05EB8C0C 		add	ip, r5, ip, lsl #2
 3534              	.LBE1943:
ARM GAS  /tmp/ccJJl1OT.s 			page 63


 3535              	.LBE1942:
 3536              	.LBB1946:
 3537              	.LBB1947:
 3538              		.loc 3 826 0
 3539 0bfe DCED003A 		vldr.32	s7, [ip]
 3540 0c02 73EEC63A 		vsub.f32	s7, s7, s12
 3541 0c06 B0EE464A 		vmov.f32	s8, s12
 3542 0c0a A3EEA44A 		vfma.f32	s8, s7, s9
 3543              	.LVL213:
 3544              	.LBE1947:
 3545              	.LBE1946:
 3546              	.LBE1957:
 3547              	.LBE1963:
 3548              	.LBB1964:
 3549              	.LBB1965:
 3550              	.LBB1966:
 3551              	.LBB1967:
 3552 0c0e A3EEA56A 		vfma.f32	s12, s7, s11
 3553              	.LBE1967:
 3554              	.LBE1966:
 3555              	.LBE1965:
 3556              	.LBE1964:
 3557              	.LBB1979:
 3558              	.LBB1958:
 3559              	.LBB1948:
 3560              	.LBB1949:
 3561              	.LBB1950:
 3562              	.LBB1951:
 3563              		.loc 3 193 0
 3564 0c12 B4EEC74A 		vcmpe.f32	s8, s14
 3565 0c16 F1EE10FA 		vmrs	APSR_nzcv, FPSCR
 3566              	.LBE1951:
 3567              	.LBE1950:
 3568              	.LBE1949:
 3569              	.LBE1948:
 3570              	.LBE1958:
 3571              	.LBE1979:
 3572              	.LBB1980:
 3573              	.LBB1976:
 3574              	.LBB1968:
 3575              	.LBB1969:
 3576              	.LBB1970:
 3577              	.LBB1971:
 3578 0c1a B4EEC76A 		vcmpe.f32	s12, s14
 3579              	.LBE1971:
 3580              	.LBE1970:
 3581              	.LBE1969:
 3582              	.LBE1968:
 3583              	.LBE1976:
 3584              	.LBE1980:
 3585              	.LBB1981:
 3586              	.LBB1959:
 3587              	.LBB1955:
 3588              	.LBB1954:
 3589              	.LBB1953:
 3590              	.LBB1952:
 3591 0c1e A8BF     		it	ge
ARM GAS  /tmp/ccJJl1OT.s 			page 64


 3592 0c20 B0EE474A 		vmovge.f32	s8, s14
 3593              	.LVL214:
 3594              	.LBE1952:
 3595              	.LBE1953:
 3596              	.LBE1954:
 3597              	.LBE1955:
 3598              	.LBE1959:
 3599              	.LBE1981:
 3600              	.LBB1982:
 3601              	.LBB1977:
 3602              	.LBB1975:
 3603              	.LBB1974:
 3604              	.LBB1973:
 3605              	.LBB1972:
 3606 0c24 F1EE10FA 		vmrs	APSR_nzcv, FPSCR
 3607 0c28 A8BF     		it	ge
 3608 0c2a B0EE476A 		vmovge.f32	s12, s14
 3609              	.LBE1972:
 3610              	.LBE1973:
 3611              	.LBE1974:
 3612              	.LBE1975:
 3613              	.LBE1977:
 3614              	.LBE1982:
 3615              	.LBB1983:
 3616              	.LBB1984:
 3617              	.LBB1985:
 3618              	.LBB1986:
 3619              	.LBB1987:
 3620              	.LBB1988:
 3621              		.loc 4 85 0
 3622 0c2e 972C     		cmp	r4, #151
 3623 0c30 28BF     		it	cs
 3624 0c32 9724     		movcs	r4, #151
 3625              	.LVL215:
 3626              	.LBE1988:
 3627              	.LBE1987:
 3628              	.LBE1986:
 3629              	.LBE1985:
 3630              	.LBB1991:
 3631              	.LBB1992:
 3632              	.LBB1993:
 3633              	.LBB1994:
 3634 0c34 BEF1970F 		cmp	lr, #151
 3635              	.LBE1994:
 3636              	.LBE1993:
 3637              	.LBE1992:
 3638              	.LBE1991:
 3639              	.LBE1984:
 3640              	.LBE1983:
 3641              	.LBB2018:
 3642              	.LBB1960:
 3643              		.loc 2 130 0
 3644 0c38 24EE264A 		vmul.f32	s8, s8, s13
 3645              	.LVL216:
 3646              	.LBE1960:
 3647              	.LBE2018:
 3648              	.LBB2019:
ARM GAS  /tmp/ccJJl1OT.s 			page 65


 3649              	.LBB1978:
 3650 0c3c 26EE266A 		vmul.f32	s12, s12, s13
 3651              	.LBE1978:
 3652              	.LBE2019:
 3653              	.LBB2020:
 3654              	.LBB2011:
 3655              	.LBB1998:
 3656              	.LBB1997:
 3657              	.LBB1996:
 3658              	.LBB1995:
 3659              		.loc 4 85 0
 3660 0c40 28BF     		it	cs
 3661 0c42 4FF0970E 		movcs	lr, #151
 3662              	.LBE1995:
 3663              	.LBE1996:
 3664              		.loc 2 115 0
 3665 0c46 05EB8E0E 		add	lr, r5, lr, lsl #2
 3666              	.LBE1997:
 3667              	.LBE1998:
 3668              	.LBB1999:
 3669              	.LBB1989:
 3670 0c4a 05EB8404 		add	r4, r5, r4, lsl #2
 3671              	.LBE1989:
 3672              	.LBE1999:
 3673              	.LBE2011:
 3674              	.LBE2020:
 3675              		.loc 1 150 0
 3676 0c4e 83ED074A 		vstr.32	s8, [r3, #28]
 3677 0c52 8DED054A 		vstr.32	s8, [sp, #20]
 3678              	.LVL217:
 3679              		.loc 1 151 0
 3680 0c56 83ED086A 		vstr.32	s12, [r3, #32]
 3681              	.LBB2021:
 3682              	.LBB2012:
 3683              	.LBB2000:
 3684              	.LBB2001:
 3685              		.loc 3 826 0
 3686 0c5a 9EED004A 		vldr.32	s8, [lr]
 3687              	.LBE2001:
 3688              	.LBE2000:
 3689              	.LBE2012:
 3690              	.LBE2021:
 3691              		.loc 1 151 0
 3692 0c5e 8DED066A 		vstr.32	s12, [sp, #24]
 3693              	.LVL218:
 3694              	.LBB2022:
 3695              	.LBB2013:
 3696              	.LBB2004:
 3697              	.LBB1990:
 3698              		.loc 2 115 0
 3699 0c62 94ED006A 		vldr.32	s12, [r4]
 3700              	.LVL219:
 3701              	.LBE1990:
 3702              	.LBE2004:
 3703              	.LBE2013:
 3704              	.LBE2022:
 3705              		.loc 1 153 0
ARM GAS  /tmp/ccJJl1OT.s 			page 66


 3706 0c66 9C7B     		ldrb	r4, [r3, #14]	@ zero_extendqisi2
 3707              	.LBB2023:
 3708              	.LBB2014:
 3709              	.LBB2005:
 3710              	.LBB2002:
 3711              		.loc 3 826 0
 3712 0c68 34EE464A 		vsub.f32	s8, s8, s12
 3713              	.LBE2002:
 3714              	.LBE2005:
 3715              	.LBE2014:
 3716              	.LBE2023:
 3717              		.loc 1 153 0
 3718 0c6c 3444     		add	r4, r4, r6
 3719              	.LBB2024:
 3720              	.LBB2015:
 3721              	.LBB2006:
 3722              	.LBB2003:
 3723              		.loc 3 826 0
 3724 0c6e A4EE056A 		vfma.f32	s12, s8, s10
 3725              	.LVL220:
 3726              	.LBE2003:
 3727              	.LBE2006:
 3728              	.LBE2015:
 3729              	.LBE2024:
 3730              		.loc 1 153 0
 3731 0c72 E4B2     		uxtb	r4, r4
 3732              	.LBB2025:
 3733              	.LBB2016:
 3734              	.LBB2007:
 3735              	.LBB2008:
 3736              	.LBB2009:
 3737              	.LBB2010:
 3738              		.loc 3 193 0
 3739 0c74 B4EEC76A 		vcmpe.f32	s12, s14
 3740 0c78 F1EE10FA 		vmrs	APSR_nzcv, FPSCR
 3741 0c7c A8BF     		it	ge
 3742 0c7e B0EE476A 		vmovge.f32	s12, s14
 3743              	.LVL221:
 3744              	.LBE2010:
 3745              	.LBE2009:
 3746              	.LBE2008:
 3747              	.LBE2007:
 3748              	.LBE2016:
 3749              	.LBE2025:
 3750              	.LBB2026:
 3751              	.LBB2027:
 3752              	.LBB2028:
 3753              	.LBB2029:
 3754              	.LBB2030:
 3755              	.LBB2031:
 3756              		.loc 4 85 0
 3757 0c82 962C     		cmp	r4, #150
 3758 0c84 98BF     		it	ls
 3759 0c86 A646     		movls	lr, r4
 3760              	.LBE2031:
 3761              	.LBE2030:
 3762              	.LBE2029:
ARM GAS  /tmp/ccJJl1OT.s 			page 67


 3763              	.LBE2028:
 3764              	.LBE2027:
 3765              	.LBE2026:
 3766              	.LBB2057:
 3767              	.LBB2017:
 3768              		.loc 2 130 0
 3769 0c88 26EE266A 		vmul.f32	s12, s12, s13
 3770              	.LVL222:
 3771              	.LBE2017:
 3772              	.LBE2057:
 3773              	.LBB2058:
 3774              	.LBB2052:
 3775              	.LBB2036:
 3776              	.LBB2034:
 3777              	.LBB2033:
 3778              	.LBB2032:
 3779              		.loc 4 85 0
 3780 0c8c 88BF     		it	hi
 3781 0c8e 4FF0970E 		movhi	lr, #151
 3782              	.LVL223:
 3783              	.LBE2032:
 3784              	.LBE2033:
 3785              		.loc 2 115 0
 3786 0c92 05EB8E0E 		add	lr, r5, lr, lsl #2
 3787              	.LBE2034:
 3788              	.LBE2036:
 3789              	.LBE2052:
 3790              	.LBE2058:
 3791              		.loc 1 152 0
 3792 0c96 83ED096A 		vstr.32	s12, [r3, #36]
 3793 0c9a 8DED076A 		vstr.32	s12, [sp, #28]
 3794              	.LBB2059:
 3795              	.LBB2053:
 3796              	.LBB2037:
 3797              	.LBB2035:
 3798              		.loc 2 115 0
 3799 0c9e 9EED006A 		vldr.32	s12, [lr]
 3800              	.LVL224:
 3801              	.LBE2035:
 3802              	.LBE2037:
 3803              		.loc 2 126 0
 3804 0ca2 04F1010E 		add	lr, r4, #1
 3805 0ca6 5FFA8EFE 		uxtb	lr, lr
 3806              	.LVL225:
 3807              	.LBB2038:
 3808              	.LBB2039:
 3809              	.LBB2040:
 3810              	.LBB2041:
 3811              		.loc 4 85 0
 3812 0caa BEF1960F 		cmp	lr, #150
 3813 0cae 94BF     		ite	ls
 3814 0cb0 F446     		movls	ip, lr
 3815 0cb2 4FF0970C 		movhi	ip, #151
 3816              	.LVL226:
 3817              	.LBE2041:
 3818              	.LBE2040:
 3819              		.loc 2 115 0
ARM GAS  /tmp/ccJJl1OT.s 			page 68


 3820 0cb6 05EB8C0C 		add	ip, r5, ip, lsl #2
 3821              	.LBE2039:
 3822              	.LBE2038:
 3823              	.LBB2042:
 3824              	.LBB2043:
 3825              		.loc 3 826 0
 3826 0cba DCED003A 		vldr.32	s7, [ip]
 3827 0cbe 73EEC63A 		vsub.f32	s7, s7, s12
 3828 0cc2 B0EE464A 		vmov.f32	s8, s12
 3829 0cc6 A3EEA44A 		vfma.f32	s8, s7, s9
 3830              	.LVL227:
 3831              	.LBE2043:
 3832              	.LBE2042:
 3833              	.LBE2053:
 3834              	.LBE2059:
 3835              	.LBB2060:
 3836              	.LBB2061:
 3837              	.LBB2062:
 3838              	.LBB2063:
 3839 0cca A3EEA56A 		vfma.f32	s12, s7, s11
 3840              	.LBE2063:
 3841              	.LBE2062:
 3842              	.LBE2061:
 3843              	.LBE2060:
 3844              	.LBB2075:
 3845              	.LBB2054:
 3846              	.LBB2044:
 3847              	.LBB2045:
 3848              	.LBB2046:
 3849              	.LBB2047:
 3850              		.loc 3 193 0
 3851 0cce B4EEC74A 		vcmpe.f32	s8, s14
 3852 0cd2 F1EE10FA 		vmrs	APSR_nzcv, FPSCR
 3853              	.LBE2047:
 3854              	.LBE2046:
 3855              	.LBE2045:
 3856              	.LBE2044:
 3857              	.LBE2054:
 3858              	.LBE2075:
 3859              	.LBB2076:
 3860              	.LBB2072:
 3861              	.LBB2064:
 3862              	.LBB2065:
 3863              	.LBB2066:
 3864              	.LBB2067:
 3865 0cd6 B4EEC76A 		vcmpe.f32	s12, s14
 3866              	.LBE2067:
 3867              	.LBE2066:
 3868              	.LBE2065:
 3869              	.LBE2064:
 3870              	.LBE2072:
 3871              	.LBE2076:
 3872              	.LBB2077:
 3873              	.LBB2055:
 3874              	.LBB2051:
 3875              	.LBB2050:
 3876              	.LBB2049:
ARM GAS  /tmp/ccJJl1OT.s 			page 69


 3877              	.LBB2048:
 3878 0cda A8BF     		it	ge
 3879 0cdc B0EE474A 		vmovge.f32	s8, s14
 3880              	.LVL228:
 3881              	.LBE2048:
 3882              	.LBE2049:
 3883              	.LBE2050:
 3884              	.LBE2051:
 3885              	.LBE2055:
 3886              	.LBE2077:
 3887              	.LBB2078:
 3888              	.LBB2073:
 3889              	.LBB2071:
 3890              	.LBB2070:
 3891              	.LBB2069:
 3892              	.LBB2068:
 3893 0ce0 F1EE10FA 		vmrs	APSR_nzcv, FPSCR
 3894 0ce4 A8BF     		it	ge
 3895 0ce6 B0EE476A 		vmovge.f32	s12, s14
 3896              	.LBE2068:
 3897              	.LBE2069:
 3898              	.LBE2070:
 3899              	.LBE2071:
 3900              	.LBE2073:
 3901              	.LBE2078:
 3902              	.LBB2079:
 3903              	.LBB2080:
 3904              	.LBB2081:
 3905              	.LBB2082:
 3906              	.LBB2083:
 3907              	.LBB2084:
 3908              		.loc 4 85 0
 3909 0cea 972C     		cmp	r4, #151
 3910 0cec 28BF     		it	cs
 3911 0cee 9724     		movcs	r4, #151
 3912              	.LVL229:
 3913              	.LBE2084:
 3914              	.LBE2083:
 3915              	.LBE2082:
 3916              	.LBE2081:
 3917              	.LBB2087:
 3918              	.LBB2088:
 3919              	.LBB2089:
 3920              	.LBB2090:
 3921 0cf0 BEF1970F 		cmp	lr, #151
 3922              	.LBE2090:
 3923              	.LBE2089:
 3924              	.LBE2088:
 3925              	.LBE2087:
 3926              	.LBE2080:
 3927              	.LBE2079:
 3928              	.LBB2114:
 3929              	.LBB2056:
 3930              		.loc 2 130 0
 3931 0cf4 24EE264A 		vmul.f32	s8, s8, s13
 3932              	.LVL230:
 3933              	.LBE2056:
ARM GAS  /tmp/ccJJl1OT.s 			page 70


 3934              	.LBE2114:
 3935              	.LBB2115:
 3936              	.LBB2074:
 3937 0cf8 26EE266A 		vmul.f32	s12, s12, s13
 3938              	.LBE2074:
 3939              	.LBE2115:
 3940              	.LBB2116:
 3941              	.LBB2107:
 3942              	.LBB2094:
 3943              	.LBB2093:
 3944              	.LBB2092:
 3945              	.LBB2091:
 3946              		.loc 4 85 0
 3947 0cfc 28BF     		it	cs
 3948 0cfe 4FF0970E 		movcs	lr, #151
 3949              	.LBE2091:
 3950              	.LBE2092:
 3951              		.loc 2 115 0
 3952 0d02 05EB8E0E 		add	lr, r5, lr, lsl #2
 3953              	.LBE2093:
 3954              	.LBE2094:
 3955              	.LBB2095:
 3956              	.LBB2085:
 3957 0d06 05EB8404 		add	r4, r5, r4, lsl #2
 3958              	.LBE2085:
 3959              	.LBE2095:
 3960              	.LBE2107:
 3961              	.LBE2116:
 3962              		.loc 1 153 0
 3963 0d0a 83ED0A4A 		vstr.32	s8, [r3, #40]
 3964 0d0e 8DED084A 		vstr.32	s8, [sp, #32]
 3965              	.LVL231:
 3966              	.LBB2117:
 3967              	.LBB2108:
 3968              	.LBB2096:
 3969              	.LBB2097:
 3970              		.loc 3 826 0
 3971 0d12 9EED004A 		vldr.32	s8, [lr]
 3972              	.LBE2097:
 3973              	.LBE2096:
 3974              	.LBE2108:
 3975              	.LBE2117:
 3976              		.loc 1 154 0
 3977 0d16 83ED0B6A 		vstr.32	s12, [r3, #44]
 3978 0d1a 8DED096A 		vstr.32	s12, [sp, #36]
 3979              	.LVL232:
 3980              	.LBB2118:
 3981              	.LBB2109:
 3982              	.LBB2100:
 3983              	.LBB2086:
 3984              		.loc 2 115 0
 3985 0d1e 94ED006A 		vldr.32	s12, [r4]
 3986              	.LVL233:
 3987              	.LBE2086:
 3988              	.LBE2100:
 3989              	.LBE2109:
 3990              	.LBE2118:
ARM GAS  /tmp/ccJJl1OT.s 			page 71


 3991              		.loc 1 156 0
 3992 0d22 DC7B     		ldrb	r4, [r3, #15]	@ zero_extendqisi2
 3993              	.LBB2119:
 3994              	.LBB2110:
 3995              	.LBB2101:
 3996              	.LBB2098:
 3997              		.loc 3 826 0
 3998 0d24 34EE464A 		vsub.f32	s8, s8, s12
 3999              	.LBE2098:
 4000              	.LBE2101:
 4001              	.LBE2110:
 4002              	.LBE2119:
 4003              		.loc 1 156 0
 4004 0d28 2644     		add	r6, r6, r4
 4005              	.LBB2120:
 4006              	.LBB2111:
 4007              	.LBB2102:
 4008              	.LBB2099:
 4009              		.loc 3 826 0
 4010 0d2a A4EE056A 		vfma.f32	s12, s8, s10
 4011              	.LVL234:
 4012              	.LBE2099:
 4013              	.LBE2102:
 4014              	.LBE2111:
 4015              	.LBE2120:
 4016              		.loc 1 156 0
 4017 0d2e F6B2     		uxtb	r6, r6
 4018              	.LBB2121:
 4019              	.LBB2112:
 4020              	.LBB2103:
 4021              	.LBB2104:
 4022              	.LBB2105:
 4023              	.LBB2106:
 4024              		.loc 3 193 0
 4025 0d30 B4EEC76A 		vcmpe.f32	s12, s14
 4026 0d34 F1EE10FA 		vmrs	APSR_nzcv, FPSCR
 4027 0d38 A8BF     		it	ge
 4028 0d3a B0EE476A 		vmovge.f32	s12, s14
 4029              	.LVL235:
 4030              	.LBE2106:
 4031              	.LBE2105:
 4032              	.LBE2104:
 4033              	.LBE2103:
 4034              	.LBE2112:
 4035              	.LBE2121:
 4036              	.LBB2122:
 4037              	.LBB2123:
 4038              	.LBB2124:
 4039              	.LBB2125:
 4040              	.LBB2126:
 4041              	.LBB2127:
 4042              		.loc 4 85 0
 4043 0d3e 962E     		cmp	r6, #150
 4044 0d40 98BF     		it	ls
 4045 0d42 3446     		movls	r4, r6
 4046              	.LBE2127:
 4047              	.LBE2126:
ARM GAS  /tmp/ccJJl1OT.s 			page 72


 4048              	.LBE2125:
 4049              	.LBE2124:
 4050              	.LBE2123:
 4051              	.LBE2122:
 4052              	.LBB2158:
 4053              	.LBB2113:
 4054              		.loc 2 130 0
 4055 0d44 26EE266A 		vmul.f32	s12, s12, s13
 4056              	.LVL236:
 4057              	.LBE2113:
 4058              	.LBE2158:
 4059              	.LBB2159:
 4060              	.LBB2152:
 4061              	.LBB2132:
 4062              	.LBB2130:
 4063              	.LBB2129:
 4064              	.LBB2128:
 4065              		.loc 4 85 0
 4066 0d48 88BF     		it	hi
 4067 0d4a 9724     		movhi	r4, #151
 4068              	.LVL237:
 4069              	.LBE2128:
 4070              	.LBE2129:
 4071              		.loc 2 115 0
 4072 0d4c 05EB8404 		add	r4, r5, r4, lsl #2
 4073              	.LBE2130:
 4074              	.LBE2132:
 4075              	.LBE2152:
 4076              	.LBE2159:
 4077              		.loc 1 155 0
 4078 0d50 83ED0C6A 		vstr.32	s12, [r3, #48]
 4079 0d54 8DED0A6A 		vstr.32	s12, [sp, #40]
 4080              	.LBB2160:
 4081              	.LBB2153:
 4082              	.LBB2133:
 4083              	.LBB2131:
 4084              		.loc 2 115 0
 4085 0d58 94ED006A 		vldr.32	s12, [r4]
 4086              	.LVL238:
 4087              	.LBE2131:
 4088              	.LBE2133:
 4089              		.loc 2 126 0
 4090 0d5c 741C     		adds	r4, r6, #1
 4091 0d5e E4B2     		uxtb	r4, r4
 4092              	.LVL239:
 4093              	.LBB2134:
 4094              	.LBB2135:
 4095              	.LBB2136:
 4096              	.LBB2137:
 4097              		.loc 4 85 0
 4098 0d60 962C     		cmp	r4, #150
 4099 0d62 94BF     		ite	ls
 4100 0d64 A646     		movls	lr, r4
 4101 0d66 4FF0970E 		movhi	lr, #151
 4102              	.LVL240:
 4103              	.LBE2137:
 4104              	.LBE2136:
ARM GAS  /tmp/ccJJl1OT.s 			page 73


 4105              		.loc 2 115 0
 4106 0d6a 05EB8E0E 		add	lr, r5, lr, lsl #2
 4107              	.LBE2135:
 4108              	.LBE2134:
 4109              	.LBB2138:
 4110              	.LBB2139:
 4111              		.loc 3 826 0
 4112 0d6e 9EED004A 		vldr.32	s8, [lr]
 4113              	.LBE2139:
 4114              	.LBE2138:
 4115              	.LBE2153:
 4116              	.LBE2160:
 4117              		.loc 1 156 0
 4118 0d72 DFF820E1 		ldr	lr, .L411+8
 4119              	.LBB2161:
 4120              	.LBB2154:
 4121              	.LBB2142:
 4122              	.LBB2140:
 4123              		.loc 3 826 0
 4124 0d76 34EE464A 		vsub.f32	s8, s8, s12
 4125 0d7a F0EE463A 		vmov.f32	s7, s12
 4126 0d7e E4EE243A 		vfma.f32	s7, s8, s9
 4127              	.LBE2140:
 4128              	.LBE2142:
 4129              	.LBE2154:
 4130              	.LBE2161:
 4131              	.LBB2162:
 4132              	.LBB2163:
 4133              	.LBB2164:
 4134              	.LBB2165:
 4135 0d82 A4EE256A 		vfma.f32	s12, s8, s11
 4136              	.LBE2165:
 4137              	.LBE2164:
 4138              	.LBE2163:
 4139              	.LBE2162:
 4140              	.LBB2177:
 4141              	.LBB2155:
 4142              	.LBB2143:
 4143              	.LBB2144:
 4144              	.LBB2145:
 4145              	.LBB2146:
 4146              		.loc 3 193 0
 4147 0d86 F4EEC73A 		vcmpe.f32	s7, s14
 4148 0d8a F1EE10FA 		vmrs	APSR_nzcv, FPSCR
 4149              	.LBE2146:
 4150              	.LBE2145:
 4151              	.LBE2144:
 4152              	.LBE2143:
 4153              	.LBB2150:
 4154              	.LBB2141:
 4155              		.loc 3 826 0
 4156 0d8e F0EE634A 		vmov.f32	s9, s7
 4157              	.LVL241:
 4158              	.LBE2141:
 4159              	.LBE2150:
 4160              	.LBE2155:
 4161              	.LBE2177:
ARM GAS  /tmp/ccJJl1OT.s 			page 74


 4162              	.LBB2178:
 4163              	.LBB2174:
 4164              	.LBB2166:
 4165              	.LBB2167:
 4166              	.LBB2168:
 4167              	.LBB2169:
 4168              		.loc 3 193 0
 4169 0d92 B4EEC76A 		vcmpe.f32	s12, s14
 4170              	.LBE2169:
 4171              	.LBE2168:
 4172              	.LBE2167:
 4173              	.LBE2166:
 4174              	.LBE2174:
 4175              	.LBE2178:
 4176              	.LBB2179:
 4177              	.LBB2156:
 4178              	.LBB2151:
 4179              	.LBB2149:
 4180              	.LBB2148:
 4181              	.LBB2147:
 4182 0d96 A8BF     		it	ge
 4183 0d98 F0EE474A 		vmovge.f32	s9, s14
 4184              	.LVL242:
 4185              	.LBE2147:
 4186              	.LBE2148:
 4187              	.LBE2149:
 4188              	.LBE2151:
 4189              	.LBE2156:
 4190              	.LBE2179:
 4191              	.LBB2180:
 4192              	.LBB2175:
 4193              	.LBB2173:
 4194              	.LBB2172:
 4195              	.LBB2171:
 4196              	.LBB2170:
 4197 0d9c F1EE10FA 		vmrs	APSR_nzcv, FPSCR
 4198 0da0 A8BF     		it	ge
 4199 0da2 B0EE476A 		vmovge.f32	s12, s14
 4200              	.LBE2170:
 4201              	.LBE2171:
 4202              	.LBE2172:
 4203              	.LBE2173:
 4204              	.LBE2175:
 4205              	.LBE2180:
 4206              	.LBB2181:
 4207              	.LBB2182:
 4208              	.LBB2183:
 4209              	.LBB2184:
 4210              	.LBB2185:
 4211              	.LBB2186:
 4212              		.loc 4 85 0
 4213 0da6 972E     		cmp	r6, #151
 4214 0da8 28BF     		it	cs
 4215 0daa 9726     		movcs	r6, #151
 4216              	.LVL243:
 4217              	.LBE2186:
 4218              	.LBE2185:
ARM GAS  /tmp/ccJJl1OT.s 			page 75


 4219              	.LBE2184:
 4220              	.LBE2183:
 4221              	.LBB2189:
 4222              	.LBB2190:
 4223              	.LBB2191:
 4224              	.LBB2192:
 4225 0dac 972C     		cmp	r4, #151
 4226              	.LBE2192:
 4227              	.LBE2191:
 4228              	.LBE2190:
 4229              	.LBE2189:
 4230              	.LBE2182:
 4231              	.LBE2181:
 4232              	.LBB2220:
 4233              	.LBB2176:
 4234              		.loc 2 130 0
 4235 0dae 26EE266A 		vmul.f32	s12, s12, s13
 4236              	.LBE2176:
 4237              	.LBE2220:
 4238              	.LBB2221:
 4239              	.LBB2215:
 4240              	.LBB2197:
 4241              	.LBB2195:
 4242              	.LBB2194:
 4243              	.LBB2193:
 4244              		.loc 4 85 0
 4245 0db2 28BF     		it	cs
 4246 0db4 9724     		movcs	r4, #151
 4247              	.LBE2193:
 4248              	.LBE2194:
 4249              	.LBE2195:
 4250              	.LBE2197:
 4251              	.LBB2198:
 4252              	.LBB2187:
 4253              		.loc 2 115 0
 4254 0db6 05EB8606 		add	r6, r5, r6, lsl #2
 4255              	.LBE2187:
 4256              	.LBE2198:
 4257              	.LBB2199:
 4258              	.LBB2196:
 4259 0dba 05EB8404 		add	r4, r5, r4, lsl #2
 4260              	.LBE2196:
 4261              	.LBE2199:
 4262              	.LBE2215:
 4263              	.LBE2221:
 4264              		.loc 1 157 0
 4265 0dbe 8EED0E6A 		vstr.32	s12, [lr, #56]
 4266 0dc2 8DED0C6A 		vstr.32	s12, [sp, #48]
 4267              	.LBB2222:
 4268              	.LBB2216:
 4269              	.LBB2200:
 4270              	.LBB2201:
 4271              		.loc 3 826 0
 4272 0dc6 D4ED005A 		vldr.32	s11, [r4]
 4273              	.LBE2201:
 4274              	.LBE2200:
 4275              	.LBB2204:
ARM GAS  /tmp/ccJJl1OT.s 			page 76


 4276              	.LBB2188:
 4277              		.loc 2 115 0
 4278 0dca 96ED006A 		vldr.32	s12, [r6]
 4279              	.LBE2188:
 4280              	.LBE2204:
 4281              	.LBB2205:
 4282              	.LBB2202:
 4283              		.loc 3 826 0
 4284 0dce 75EEC65A 		vsub.f32	s11, s11, s12
 4285              	.LBE2202:
 4286              	.LBE2205:
 4287              	.LBE2216:
 4288              	.LBE2222:
 4289              	.LBB2223:
 4290              	.LBB2157:
 4291              		.loc 2 130 0
 4292 0dd2 64EEA64A 		vmul.f32	s9, s9, s13
 4293              	.LVL244:
 4294              	.LBE2157:
 4295              	.LBE2223:
 4296              	.LBB2224:
 4297              	.LBB2217:
 4298              	.LBB2206:
 4299              	.LBB2203:
 4300              		.loc 3 826 0
 4301 0dd6 A5EE856A 		vfma.f32	s12, s11, s10
 4302              	.LBE2203:
 4303              	.LBE2206:
 4304              	.LBE2217:
 4305              	.LBE2224:
 4306              		.loc 1 156 0
 4307 0dda CEED0D4A 		vstr.32	s9, [lr, #52]
 4308              	.LBB2225:
 4309              	.LBB2218:
 4310              	.LBB2207:
 4311              	.LBB2208:
 4312              	.LBB2209:
 4313              	.LBB2210:
 4314              		.loc 3 193 0
 4315 0dde B4EEC76A 		vcmpe.f32	s12, s14
 4316 0de2 F1EE10FA 		vmrs	APSR_nzcv, FPSCR
 4317 0de6 B8BF     		it	lt
 4318 0de8 B0EE467A 		vmovlt.f32	s14, s12
 4319              	.LBE2210:
 4320              	.LBE2209:
 4321              	.LBE2208:
 4322              	.LBE2207:
 4323              		.loc 2 130 0
 4324 0dec 27EE267A 		vmul.f32	s14, s14, s13
 4325              	.LBE2218:
 4326              	.LBE2225:
 4327              		.loc 1 156 0
 4328 0df0 CDED0B4A 		vstr.32	s9, [sp, #44]
 4329              	.LVL245:
 4330              		.loc 1 158 0
 4331 0df4 8EED0F7A 		vstr.32	s14, [lr, #60]
 4332 0df8 8DED0D7A 		vstr.32	s14, [sp, #52]
ARM GAS  /tmp/ccJJl1OT.s 			page 77


 4333              	.L9:
 4334              	.LVL246:
 4335 0dfc 244D     		ldr	r5, .L411+4
 4336 0dfe 0EAE     		add	r6, sp, #56
 4337 0e00 05F13009 		add	r9, r5, #48
 4338              	.LBB2226:
 4339              	.LBB2219:
 4340              	.LBB2214:
 4341              	.LBB2213:
 4342              	.LBB2212:
 4343              	.LBB2211:
 4344              		.loc 3 193 0 discriminator 2
 4345 0e04 2C46     		mov	r4, r5
 4346 0e06 B646     		mov	lr, r6
 4347 0e08 07F00107 		and	r7, r7, #1
 4348              	.LVL247:
 4349              	.L160:
 4350              	.LBE2211:
 4351              	.LBE2212:
 4352              	.LBE2213:
 4353              	.LBE2214:
 4354              	.LBE2219:
 4355              	.LBE2226:
 4356              	.LBB2227:
 4357              		.loc 1 163 0
 4358 0e0c 17B9     		cbnz	r7, .L380
 4359              		.loc 1 163 0 is_stmt 0 discriminator 1
 4360 0e0e D4F800C0 		ldr	ip, [r4]	@ float
 4361 0e12 01E0     		b	.L159
 4362              	.L380:
 4363              		.loc 1 163 0
 4364 0e14 4FF0000C 		mov	ip, #0
 4365              	.L159:
 4366 0e18 0434     		adds	r4, r4, #4
 4367              		.loc 1 162 0 is_stmt 1 discriminator 4
 4368 0e1a A145     		cmp	r9, r4
 4369              		.loc 1 163 0 discriminator 4
 4370 0e1c 4EF804CB 		str	ip, [lr], #4	@ float
 4371              		.loc 1 162 0 discriminator 4
 4372 0e20 F4D1     		bne	.L160
 4373              	.LBE2227:
 4374              		.loc 1 166 0
 4375 0e22 90ED007A 		vldr.32	s14, [r0]	@ int
 4376 0e26 BAEEE07A 		vcvt.f32.s32	s14, s14, #31
 4377 0e2a 83ED007A 		vstr.32	s14, [r3]
 4378              	.LVL248:
 4379              		.loc 1 168 0
 4380 0e2e 1FB9     		cbnz	r7, .L381
 4381              		.loc 1 168 0 is_stmt 0 discriminator 1
 4382 0e30 1848     		ldr	r0, .L411+8
 4383              	.LVL249:
 4384 0e32 90ED014A 		vldr.32	s8, [r0, #4]
 4385 0e36 01E0     		b	.L161
 4386              	.LVL250:
 4387              	.L381:
 4388              		.loc 1 168 0
 4389 0e38 B0EE474A 		vmov.f32	s8, s14
ARM GAS  /tmp/ccJJl1OT.s 			page 78


 4390              	.LVL251:
 4391              	.L161:
 4392              		.loc 1 170 0 is_stmt 1 discriminator 4
 4393 0e3c 06EE902A 		vmov	s13, r2	@ int
 4394 0e40 37EE447A 		vsub.f32	s14, s14, s8
 4395              	.LVL252:
 4396 0e44 F8EE666A 		vcvt.f32.u32	s13, s13
 4397              	.LBB2228:
 4398              	.LBB2229:
 4399              	.LBB2230:
 4400              	.LBB2231:
 4401              		.loc 2 160 0 discriminator 4
 4402 0e48 DFED133A 		vldr.32	s7, .L411+12
 4403              		.loc 2 166 0 discriminator 4
 4404 0e4c DFF850E0 		ldr	lr, .L411+20
 4405              	.LBE2231:
 4406              	.LBE2230:
 4407              	.LBB2240:
 4408              	.LBB2241:
 4409              		.loc 2 335 0 discriminator 4
 4410 0e50 DFF850C0 		ldr	ip, .L411+24
 4411              	.LBE2241:
 4412              	.LBE2240:
 4413              	.LBB2245:
 4414              	.LBB2246:
 4415              		.loc 2 222 0 discriminator 4
 4416 0e54 DFF85080 		ldr	r8, .L411+28
 4417              	.LBE2246:
 4418              	.LBE2245:
 4419              		.loc 1 213 0 discriminator 4
 4420 0e58 9FED103A 		vldr.32	s6, .L411+16
 4421              	.LBE2229:
 4422              	.LBE2228:
 4423              		.loc 1 174 0 discriminator 4
 4424 0e5c 01EB8202 		add	r2, r1, r2, lsl #2
 4425              	.LVL253:
 4426              		.loc 1 170 0 discriminator 4
 4427 0e60 C7EE262A 		vdiv.f32	s5, s14, s13
 4428              	.LVL254:
 4429              		.loc 1 174 0 discriminator 4
 4430 0e64 0192     		str	r2, [sp, #4]
 4431              	.LVL255:
 4432 0e66 6046     		mov	r0, ip
 4433 0e68 7246     		mov	r2, lr
 4434              	.LVL256:
 4435 0e6a 4446     		mov	r4, r8
 4436 0e6c B0EE637A 		vmov.f32	s14, s7
 4437              	.LVL257:
 4438              	.L235:
 4439              	.LBB2664:
 4440              		.loc 1 176 0
 4441 0e70 019F     		ldr	r7, [sp, #4]
 4442 0e72 B942     		cmp	r1, r7
 4443 0e74 80F02C87 		bcs	.L391
 4444              	.LBB2663:
 4445              		.loc 1 178 0
 4446 0e78 1F7A     		ldrb	r7, [r3, #8]	@ zero_extendqisi2
ARM GAS  /tmp/ccJJl1OT.s 			page 79


 4447 0e7a 032F     		cmp	r7, #3
 4448 0e7c 00F20987 		bhi	.L163
 4449 0e80 DFE817F0 		tbh	[pc, r7, lsl #1]
 4450              	.L165:
 4451 0e84 1400     		.2byte	(.L164-.L165)/2
 4452 0e86 7402     		.2byte	(.L166-.L165)/2
 4453 0e88 EF04     		.2byte	(.L167-.L165)/2
 4454 0e8a EF04     		.2byte	(.L167-.L165)/2
 4455              		.p2align 1
 4456              	.L412:
 4457              		.align	2
 4458              	.L411:
 4459 0e8c 00000000 		.word	midi_to_hz_lut_f
 4460 0e90 40000000 		.word	.LANCHOR0+64
 4461 0e94 00000000 		.word	.LANCHOR0
 4462 0e98 00008043 		.word	1132462080
 4463 0e9c CDCCCC3D 		.word	1036831949
 4464 0ea0 00000000 		.word	wt_sine_lut_f
 4465 0ea4 00000000 		.word	wt_sqr_lut_f
 4466 0ea8 00000000 		.word	wt_saw_lut_f
 4467              	.L164:
 4468              		.loc 1 181 0
 4469 0eac DDED0E7A 		vldr.32	s15, [sp, #56]
 4470              	.LVL258:
 4471              	.LBB2250:
 4472              	.LBB2247:
 4473              		.loc 2 211 0
 4474 0eb0 FCEEE76A 		vcvt.u32.f32	s13, s15
 4475 0eb4 FFEE005A 		vmov.f32	s11, #-1.0e+0
 4476 0eb8 F8EE666A 		vcvt.f32.u32	s13, s13
 4477 0ebc 77EEE66A 		vsub.f32	s13, s15, s13
 4478 0ec0 66EEA36A 		vmul.f32	s13, s13, s7
 4479              	.LVL259:
 4480              		.loc 2 212 0
 4481 0ec4 FCEEE67A 		vcvt.u32.f32	s15, s13
 4482              	.LVL260:
 4483 0ec8 17EE90BA 		vmov	fp, s15	@ int
 4484              	.LVL261:
 4485              		.loc 2 216 0
 4486 0ecc BBF17F0F 		cmp	fp, #127
 4487              		.loc 2 223 0
 4488 0ed0 06EE10BA 		vmov	s12, fp	@ int
 4489              		.loc 2 217 0
 4490 0ed4 87BF     		ittee	hi
 4491 0ed6 0BF07F07 		andhi	r7, fp, #127
 4492 0eda C7F1800A 		rsbhi	r10, r7, #128
 4493              		.loc 2 214 0
 4494 0ede 0BF10107 		addls	r7, fp, #1
 4495 0ee2 DA46     		movls	r10, fp
 4496              	.LVL262:
 4497              		.loc 2 218 0
 4498 0ee4 88BF     		it	hi
 4499 0ee6 C7F17F07 		rsbhi	r7, r7, #127
 4500              	.LVL263:
 4501              		.loc 2 223 0
 4502 0eea B8EE466A 		vcvt.f32.u32	s12, s12
 4503              		.loc 2 222 0
ARM GAS  /tmp/ccJJl1OT.s 			page 80


 4504 0eee 08EB8707 		add	r7, r8, r7, lsl #2
 4505              	.LVL264:
 4506 0ef2 08EB8A0A 		add	r10, r8, r10, lsl #2
 4507              	.LVL265:
 4508 0ef6 DAED007A 		vldr.32	s15, [r10]
 4509              		.loc 2 223 0
 4510 0efa 76EEC66A 		vsub.f32	s13, s13, s12
 4511              	.LVL266:
 4512 0efe 97ED006A 		vldr.32	s12, [r7]
 4513 0f02 36EE676A 		vsub.f32	s12, s12, s15
 4514              		.loc 2 215 0
 4515 0f06 98BF     		it	ls
 4516 0f08 B7EE005A 		vmovls.f32	s10, #1.0e+0
 4517              		.loc 2 223 0
 4518 0f0c E6EE867A 		vfma.f32	s15, s13, s12
 4519              	.LBE2247:
 4520              	.LBE2250:
 4521              		.loc 1 182 0
 4522 0f10 9DED0F6A 		vldr.32	s12, [sp, #60]
 4523              	.LBB2251:
 4524              	.LBB2252:
 4525              		.loc 2 211 0
 4526 0f14 FCEEC66A 		vcvt.u32.f32	s13, s12
 4527              	.LBE2252:
 4528              	.LBE2251:
 4529              	.LBB2258:
 4530              	.LBB2248:
 4531              		.loc 2 219 0
 4532 0f18 88BF     		it	hi
 4533 0f1a B0EE655A 		vmovhi.f32	s10, s11
 4534              	.LVL267:
 4535              	.LBE2248:
 4536              	.LBE2258:
 4537              	.LBB2259:
 4538              	.LBB2253:
 4539              		.loc 2 211 0
 4540 0f1e F8EE666A 		vcvt.f32.u32	s13, s13
 4541              	.LBE2253:
 4542              	.LBE2259:
 4543              	.LBB2260:
 4544              	.LBB2249:
 4545              		.loc 2 223 0
 4546 0f22 67EE857A 		vmul.f32	s15, s15, s10
 4547              	.LVL268:
 4548              	.LBE2249:
 4549              	.LBE2260:
 4550              	.LBB2261:
 4551              	.LBB2254:
 4552              		.loc 2 211 0
 4553 0f26 76EE666A 		vsub.f32	s13, s12, s13
 4554 0f2a 66EE876A 		vmul.f32	s13, s13, s14
 4555              	.LVL269:
 4556              		.loc 2 212 0
 4557 0f2e BCEEE66A 		vcvt.u32.f32	s12, s13
 4558              	.LVL270:
 4559 0f32 16EE10BA 		vmov	fp, s12	@ int
 4560              	.LVL271:
ARM GAS  /tmp/ccJJl1OT.s 			page 81


 4561              		.loc 2 216 0
 4562 0f36 BBF17F0F 		cmp	fp, #127
 4563              		.loc 2 217 0
 4564 0f3a 87BF     		ittee	hi
 4565 0f3c 0BF07F07 		andhi	r7, fp, #127
 4566 0f40 C7F1800A 		rsbhi	r10, r7, #128
 4567              		.loc 2 214 0
 4568 0f44 0BF10107 		addls	r7, fp, #1
 4569 0f48 DA46     		movls	r10, fp
 4570              	.LVL272:
 4571              		.loc 2 218 0
 4572 0f4a 88BF     		it	hi
 4573 0f4c C7F17F07 		rsbhi	r7, r7, #127
 4574              	.LVL273:
 4575              	.LBE2254:
 4576              	.LBE2261:
 4577              		.loc 1 181 0
 4578 0f50 B8EE466A 		vcvt.f32.u32	s12, s12
 4579              	.LBB2262:
 4580              	.LBB2255:
 4581              		.loc 2 222 0
 4582 0f54 04EB8707 		add	r7, r4, r7, lsl #2
 4583              	.LVL274:
 4584 0f58 04EB8A0A 		add	r10, r4, r10, lsl #2
 4585              	.LVL275:
 4586 0f5c 9AED005A 		vldr.32	s10, [r10]
 4587              	.LBE2255:
 4588              	.LBE2262:
 4589              		.loc 1 181 0
 4590 0f60 76EEC66A 		vsub.f32	s13, s13, s12
 4591              	.LVL276:
 4592 0f64 97ED006A 		vldr.32	s12, [r7]
 4593 0f68 36EE456A 		vsub.f32	s12, s12, s10
 4594              	.LBB2263:
 4595              	.LBB2256:
 4596              		.loc 2 215 0
 4597 0f6c 98BF     		it	ls
 4598 0f6e F7EE004A 		vmovls.f32	s9, #1.0e+0
 4599              	.LBE2256:
 4600              	.LBE2263:
 4601              		.loc 1 181 0
 4602 0f72 A6EE865A 		vfma.f32	s10, s13, s12
 4603              		.loc 1 183 0
 4604 0f76 9DED106A 		vldr.32	s12, [sp, #64]
 4605              	.LBB2264:
 4606              	.LBB2265:
 4607              		.loc 2 211 0
 4608 0f7a FCEEC66A 		vcvt.u32.f32	s13, s12
 4609              	.LBE2265:
 4610              	.LBE2264:
 4611              	.LBB2271:
 4612              	.LBB2257:
 4613              		.loc 2 219 0
 4614 0f7e 88BF     		it	hi
 4615 0f80 FFEE004A 		vmovhi.f32	s9, #-1.0e+0
 4616              	.LVL277:
 4617              	.LBE2257:
ARM GAS  /tmp/ccJJl1OT.s 			page 82


 4618              	.LBE2271:
 4619              	.LBB2272:
 4620              	.LBB2266:
 4621              		.loc 2 211 0
 4622 0f84 F8EE666A 		vcvt.f32.u32	s13, s13
 4623              	.LBE2266:
 4624              	.LBE2272:
 4625              		.loc 1 181 0
 4626 0f88 E5EE247A 		vfma.f32	s15, s10, s9
 4627              	.LBB2273:
 4628              	.LBB2267:
 4629              		.loc 2 211 0
 4630 0f8c 76EE666A 		vsub.f32	s13, s12, s13
 4631 0f90 66EE876A 		vmul.f32	s13, s13, s14
 4632              	.LVL278:
 4633              		.loc 2 212 0
 4634 0f94 BCEEE66A 		vcvt.u32.f32	s12, s13
 4635              	.LVL279:
 4636 0f98 16EE10BA 		vmov	fp, s12	@ int
 4637              	.LVL280:
 4638              		.loc 2 216 0
 4639 0f9c BBF17F0F 		cmp	fp, #127
 4640              		.loc 2 217 0
 4641 0fa0 87BF     		ittee	hi
 4642 0fa2 0BF07F07 		andhi	r7, fp, #127
 4643 0fa6 C7F1800A 		rsbhi	r10, r7, #128
 4644              		.loc 2 214 0
 4645 0faa 0BF10107 		addls	r7, fp, #1
 4646 0fae DA46     		movls	r10, fp
 4647              	.LVL281:
 4648              		.loc 2 218 0
 4649 0fb0 88BF     		it	hi
 4650 0fb2 C7F17F07 		rsbhi	r7, r7, #127
 4651              	.LVL282:
 4652              	.LBE2267:
 4653              	.LBE2273:
 4654              		.loc 1 182 0
 4655 0fb6 B8EE466A 		vcvt.f32.u32	s12, s12
 4656              	.LBB2274:
 4657              	.LBB2268:
 4658              		.loc 2 222 0
 4659 0fba 04EB8707 		add	r7, r4, r7, lsl #2
 4660              	.LVL283:
 4661 0fbe 04EB8A0A 		add	r10, r4, r10, lsl #2
 4662              	.LVL284:
 4663 0fc2 9AED005A 		vldr.32	s10, [r10]
 4664              	.LBE2268:
 4665              	.LBE2274:
 4666              		.loc 1 182 0
 4667 0fc6 76EEC66A 		vsub.f32	s13, s13, s12
 4668              	.LVL285:
 4669 0fca 97ED006A 		vldr.32	s12, [r7]
 4670 0fce 36EE456A 		vsub.f32	s12, s12, s10
 4671              	.LBB2275:
 4672              	.LBB2269:
 4673              		.loc 2 215 0
 4674 0fd2 98BF     		it	ls
ARM GAS  /tmp/ccJJl1OT.s 			page 83


 4675 0fd4 F7EE004A 		vmovls.f32	s9, #1.0e+0
 4676              	.LBE2269:
 4677              	.LBE2275:
 4678              		.loc 1 182 0
 4679 0fd8 A6EE865A 		vfma.f32	s10, s13, s12
 4680              		.loc 1 184 0
 4681 0fdc 9DED116A 		vldr.32	s12, [sp, #68]
 4682              	.LBB2276:
 4683              	.LBB2277:
 4684              		.loc 2 211 0
 4685 0fe0 FCEEC66A 		vcvt.u32.f32	s13, s12
 4686              	.LBE2277:
 4687              	.LBE2276:
 4688              	.LBB2283:
 4689              	.LBB2270:
 4690              		.loc 2 219 0
 4691 0fe4 88BF     		it	hi
 4692 0fe6 FFEE004A 		vmovhi.f32	s9, #-1.0e+0
 4693              	.LVL286:
 4694              	.LBE2270:
 4695              	.LBE2283:
 4696              	.LBB2284:
 4697              	.LBB2278:
 4698              		.loc 2 211 0
 4699 0fea F8EE666A 		vcvt.f32.u32	s13, s13
 4700              	.LBE2278:
 4701              	.LBE2284:
 4702              		.loc 1 182 0
 4703 0fee E5EE247A 		vfma.f32	s15, s10, s9
 4704              	.LBB2285:
 4705              	.LBB2279:
 4706              		.loc 2 211 0
 4707 0ff2 76EE666A 		vsub.f32	s13, s12, s13
 4708 0ff6 66EE876A 		vmul.f32	s13, s13, s14
 4709              	.LVL287:
 4710              		.loc 2 212 0
 4711 0ffa BCEEE66A 		vcvt.u32.f32	s12, s13
 4712              	.LVL288:
 4713 0ffe 16EE10BA 		vmov	fp, s12	@ int
 4714              	.LVL289:
 4715              		.loc 2 216 0
 4716 1002 BBF17F0F 		cmp	fp, #127
 4717              		.loc 2 217 0
 4718 1006 87BF     		ittee	hi
 4719 1008 0BF07F07 		andhi	r7, fp, #127
 4720 100c C7F1800A 		rsbhi	r10, r7, #128
 4721              		.loc 2 214 0
 4722 1010 0BF10107 		addls	r7, fp, #1
 4723 1014 DA46     		movls	r10, fp
 4724              	.LVL290:
 4725              		.loc 2 218 0
 4726 1016 88BF     		it	hi
 4727 1018 C7F17F07 		rsbhi	r7, r7, #127
 4728              	.LVL291:
 4729              	.LBE2279:
 4730              	.LBE2285:
 4731              		.loc 1 183 0
ARM GAS  /tmp/ccJJl1OT.s 			page 84


 4732 101c B8EE466A 		vcvt.f32.u32	s12, s12
 4733              	.LBB2286:
 4734              	.LBB2280:
 4735              		.loc 2 222 0
 4736 1020 04EB8707 		add	r7, r4, r7, lsl #2
 4737              	.LVL292:
 4738 1024 04EB8A0A 		add	r10, r4, r10, lsl #2
 4739              	.LVL293:
 4740 1028 9AED005A 		vldr.32	s10, [r10]
 4741              	.LBE2280:
 4742              	.LBE2286:
 4743              		.loc 1 183 0
 4744 102c 76EEC66A 		vsub.f32	s13, s13, s12
 4745              	.LVL294:
 4746 1030 97ED006A 		vldr.32	s12, [r7]
 4747 1034 36EE456A 		vsub.f32	s12, s12, s10
 4748              	.LBB2287:
 4749              	.LBB2281:
 4750              		.loc 2 215 0
 4751 1038 98BF     		it	ls
 4752 103a F7EE004A 		vmovls.f32	s9, #1.0e+0
 4753              	.LBE2281:
 4754              	.LBE2287:
 4755              		.loc 1 183 0
 4756 103e A6EE865A 		vfma.f32	s10, s13, s12
 4757              		.loc 1 185 0
 4758 1042 9DED126A 		vldr.32	s12, [sp, #72]
 4759              	.LBB2288:
 4760              	.LBB2289:
 4761              		.loc 2 211 0
 4762 1046 FCEEC66A 		vcvt.u32.f32	s13, s12
 4763              	.LBE2289:
 4764              	.LBE2288:
 4765              	.LBB2295:
 4766              	.LBB2282:
 4767              		.loc 2 219 0
 4768 104a 88BF     		it	hi
 4769 104c FFEE004A 		vmovhi.f32	s9, #-1.0e+0
 4770              	.LVL295:
 4771              	.LBE2282:
 4772              	.LBE2295:
 4773              	.LBB2296:
 4774              	.LBB2290:
 4775              		.loc 2 211 0
 4776 1050 F8EE666A 		vcvt.f32.u32	s13, s13
 4777              	.LBE2290:
 4778              	.LBE2296:
 4779              		.loc 1 183 0
 4780 1054 E5EE247A 		vfma.f32	s15, s10, s9
 4781              	.LBB2297:
 4782              	.LBB2291:
 4783              		.loc 2 211 0
 4784 1058 76EE666A 		vsub.f32	s13, s12, s13
 4785 105c 66EE876A 		vmul.f32	s13, s13, s14
 4786              	.LVL296:
 4787              		.loc 2 212 0
 4788 1060 BCEEE66A 		vcvt.u32.f32	s12, s13
ARM GAS  /tmp/ccJJl1OT.s 			page 85


 4789              	.LVL297:
 4790 1064 16EE10BA 		vmov	fp, s12	@ int
 4791              	.LVL298:
 4792              		.loc 2 216 0
 4793 1068 BBF17F0F 		cmp	fp, #127
 4794              		.loc 2 217 0
 4795 106c 87BF     		ittee	hi
 4796 106e 0BF07F07 		andhi	r7, fp, #127
 4797 1072 C7F1800A 		rsbhi	r10, r7, #128
 4798              		.loc 2 214 0
 4799 1076 0BF10107 		addls	r7, fp, #1
 4800 107a DA46     		movls	r10, fp
 4801              	.LVL299:
 4802              		.loc 2 218 0
 4803 107c 88BF     		it	hi
 4804 107e C7F17F07 		rsbhi	r7, r7, #127
 4805              	.LVL300:
 4806              	.LBE2291:
 4807              	.LBE2297:
 4808              		.loc 1 184 0
 4809 1082 B8EE466A 		vcvt.f32.u32	s12, s12
 4810              	.LBB2298:
 4811              	.LBB2292:
 4812              		.loc 2 222 0
 4813 1086 04EB8707 		add	r7, r4, r7, lsl #2
 4814              	.LVL301:
 4815 108a 04EB8A0A 		add	r10, r4, r10, lsl #2
 4816              	.LVL302:
 4817 108e 9AED005A 		vldr.32	s10, [r10]
 4818              	.LBE2292:
 4819              	.LBE2298:
 4820              		.loc 1 184 0
 4821 1092 76EEC66A 		vsub.f32	s13, s13, s12
 4822              	.LVL303:
 4823 1096 97ED006A 		vldr.32	s12, [r7]
 4824 109a 36EE456A 		vsub.f32	s12, s12, s10
 4825              	.LBB2299:
 4826              	.LBB2293:
 4827              		.loc 2 215 0
 4828 109e 98BF     		it	ls
 4829 10a0 F7EE004A 		vmovls.f32	s9, #1.0e+0
 4830              	.LBE2293:
 4831              	.LBE2299:
 4832              		.loc 1 184 0
 4833 10a4 A6EE865A 		vfma.f32	s10, s13, s12
 4834              		.loc 1 186 0
 4835 10a8 9DED136A 		vldr.32	s12, [sp, #76]
 4836              	.LBB2300:
 4837              	.LBB2301:
 4838              		.loc 2 211 0
 4839 10ac FCEEC66A 		vcvt.u32.f32	s13, s12
 4840              	.LBE2301:
 4841              	.LBE2300:
 4842              	.LBB2307:
 4843              	.LBB2294:
 4844              		.loc 2 219 0
 4845 10b0 88BF     		it	hi
ARM GAS  /tmp/ccJJl1OT.s 			page 86


 4846 10b2 FFEE004A 		vmovhi.f32	s9, #-1.0e+0
 4847              	.LVL304:
 4848              	.LBE2294:
 4849              	.LBE2307:
 4850              	.LBB2308:
 4851              	.LBB2302:
 4852              		.loc 2 211 0
 4853 10b6 F8EE666A 		vcvt.f32.u32	s13, s13
 4854              	.LBE2302:
 4855              	.LBE2308:
 4856              		.loc 1 184 0
 4857 10ba E5EE247A 		vfma.f32	s15, s10, s9
 4858              	.LBB2309:
 4859              	.LBB2303:
 4860              		.loc 2 211 0
 4861 10be 76EE666A 		vsub.f32	s13, s12, s13
 4862 10c2 66EE876A 		vmul.f32	s13, s13, s14
 4863              	.LVL305:
 4864              		.loc 2 212 0
 4865 10c6 BCEEE66A 		vcvt.u32.f32	s12, s13
 4866              	.LVL306:
 4867 10ca 16EE10BA 		vmov	fp, s12	@ int
 4868              	.LVL307:
 4869              		.loc 2 216 0
 4870 10ce BBF17F0F 		cmp	fp, #127
 4871              		.loc 2 217 0
 4872 10d2 87BF     		ittee	hi
 4873 10d4 0BF07F07 		andhi	r7, fp, #127
 4874 10d8 C7F1800A 		rsbhi	r10, r7, #128
 4875              		.loc 2 214 0
 4876 10dc 0BF10107 		addls	r7, fp, #1
 4877 10e0 DA46     		movls	r10, fp
 4878              	.LVL308:
 4879              		.loc 2 218 0
 4880 10e2 88BF     		it	hi
 4881 10e4 C7F17F07 		rsbhi	r7, r7, #127
 4882              	.LVL309:
 4883              	.LBE2303:
 4884              	.LBE2309:
 4885              		.loc 1 185 0
 4886 10e8 B8EE466A 		vcvt.f32.u32	s12, s12
 4887              	.LBB2310:
 4888              	.LBB2304:
 4889              		.loc 2 222 0
 4890 10ec 04EB8707 		add	r7, r4, r7, lsl #2
 4891              	.LVL310:
 4892 10f0 04EB8A0A 		add	r10, r4, r10, lsl #2
 4893              	.LVL311:
 4894 10f4 9AED005A 		vldr.32	s10, [r10]
 4895              	.LBE2304:
 4896              	.LBE2310:
 4897              		.loc 1 185 0
 4898 10f8 76EEC66A 		vsub.f32	s13, s13, s12
 4899              	.LVL312:
 4900 10fc 97ED006A 		vldr.32	s12, [r7]
 4901 1100 36EE456A 		vsub.f32	s12, s12, s10
 4902              	.LBB2311:
ARM GAS  /tmp/ccJJl1OT.s 			page 87


 4903              	.LBB2305:
 4904              		.loc 2 215 0
 4905 1104 98BF     		it	ls
 4906 1106 F7EE004A 		vmovls.f32	s9, #1.0e+0
 4907              	.LBE2305:
 4908              	.LBE2311:
 4909              		.loc 1 185 0
 4910 110a A6EE865A 		vfma.f32	s10, s13, s12
 4911              		.loc 1 187 0
 4912 110e 9DED146A 		vldr.32	s12, [sp, #80]
 4913              	.LBB2312:
 4914              	.LBB2313:
 4915              		.loc 2 211 0
 4916 1112 FCEEC66A 		vcvt.u32.f32	s13, s12
 4917              	.LBE2313:
 4918              	.LBE2312:
 4919              	.LBB2319:
 4920              	.LBB2306:
 4921              		.loc 2 219 0
 4922 1116 88BF     		it	hi
 4923 1118 FFEE004A 		vmovhi.f32	s9, #-1.0e+0
 4924              	.LVL313:
 4925              	.LBE2306:
 4926              	.LBE2319:
 4927              	.LBB2320:
 4928              	.LBB2314:
 4929              		.loc 2 211 0
 4930 111c F8EE666A 		vcvt.f32.u32	s13, s13
 4931              	.LBE2314:
 4932              	.LBE2320:
 4933              		.loc 1 185 0
 4934 1120 E5EE247A 		vfma.f32	s15, s10, s9
 4935              	.LBB2321:
 4936              	.LBB2315:
 4937              		.loc 2 211 0
 4938 1124 76EE666A 		vsub.f32	s13, s12, s13
 4939 1128 66EE876A 		vmul.f32	s13, s13, s14
 4940              	.LVL314:
 4941              		.loc 2 212 0
 4942 112c BCEEE66A 		vcvt.u32.f32	s12, s13
 4943              	.LVL315:
 4944 1130 16EE10BA 		vmov	fp, s12	@ int
 4945              	.LVL316:
 4946              		.loc 2 216 0
 4947 1134 BBF17F0F 		cmp	fp, #127
 4948              		.loc 2 217 0
 4949 1138 87BF     		ittee	hi
 4950 113a 0BF07F07 		andhi	r7, fp, #127
 4951 113e C7F1800A 		rsbhi	r10, r7, #128
 4952              		.loc 2 214 0
 4953 1142 0BF10107 		addls	r7, fp, #1
 4954 1146 DA46     		movls	r10, fp
 4955              	.LVL317:
 4956              		.loc 2 218 0
 4957 1148 88BF     		it	hi
 4958 114a C7F17F07 		rsbhi	r7, r7, #127
 4959              	.LVL318:
ARM GAS  /tmp/ccJJl1OT.s 			page 88


 4960              	.LBE2315:
 4961              	.LBE2321:
 4962              		.loc 1 186 0
 4963 114e B8EE466A 		vcvt.f32.u32	s12, s12
 4964              	.LBB2322:
 4965              	.LBB2316:
 4966              		.loc 2 222 0
 4967 1152 04EB8707 		add	r7, r4, r7, lsl #2
 4968              	.LVL319:
 4969 1156 04EB8A0A 		add	r10, r4, r10, lsl #2
 4970              	.LVL320:
 4971 115a 9AED005A 		vldr.32	s10, [r10]
 4972              	.LBE2316:
 4973              	.LBE2322:
 4974              		.loc 1 186 0
 4975 115e 76EEC66A 		vsub.f32	s13, s13, s12
 4976              	.LVL321:
 4977 1162 97ED006A 		vldr.32	s12, [r7]
 4978 1166 36EE456A 		vsub.f32	s12, s12, s10
 4979              	.LBB2323:
 4980              	.LBB2317:
 4981              		.loc 2 215 0
 4982 116a 98BF     		it	ls
 4983 116c F7EE004A 		vmovls.f32	s9, #1.0e+0
 4984              	.LBE2317:
 4985              	.LBE2323:
 4986              		.loc 1 186 0
 4987 1170 A6EE865A 		vfma.f32	s10, s13, s12
 4988              		.loc 1 188 0
 4989 1174 9DED156A 		vldr.32	s12, [sp, #84]
 4990              	.LBB2324:
 4991              	.LBB2325:
 4992              		.loc 2 211 0
 4993 1178 FCEEC66A 		vcvt.u32.f32	s13, s12
 4994              	.LBE2325:
 4995              	.LBE2324:
 4996              	.LBB2331:
 4997              	.LBB2318:
 4998              		.loc 2 219 0
 4999 117c 88BF     		it	hi
 5000 117e FFEE004A 		vmovhi.f32	s9, #-1.0e+0
 5001              	.LVL322:
 5002              	.LBE2318:
 5003              	.LBE2331:
 5004              	.LBB2332:
 5005              	.LBB2326:
 5006              		.loc 2 211 0
 5007 1182 F8EE666A 		vcvt.f32.u32	s13, s13
 5008              	.LBE2326:
 5009              	.LBE2332:
 5010              		.loc 1 186 0
 5011 1186 E5EE247A 		vfma.f32	s15, s10, s9
 5012              	.LBB2333:
 5013              	.LBB2327:
 5014              		.loc 2 211 0
 5015 118a 76EE666A 		vsub.f32	s13, s12, s13
 5016 118e 66EE876A 		vmul.f32	s13, s13, s14
ARM GAS  /tmp/ccJJl1OT.s 			page 89


 5017              	.LVL323:
 5018              		.loc 2 212 0
 5019 1192 BCEEE66A 		vcvt.u32.f32	s12, s13
 5020              	.LVL324:
 5021 1196 16EE10BA 		vmov	fp, s12	@ int
 5022              	.LVL325:
 5023              		.loc 2 216 0
 5024 119a BBF17F0F 		cmp	fp, #127
 5025              		.loc 2 217 0
 5026 119e 87BF     		ittee	hi
 5027 11a0 0BF07F07 		andhi	r7, fp, #127
 5028 11a4 C7F1800A 		rsbhi	r10, r7, #128
 5029              		.loc 2 214 0
 5030 11a8 0BF10107 		addls	r7, fp, #1
 5031 11ac DA46     		movls	r10, fp
 5032              	.LVL326:
 5033              		.loc 2 218 0
 5034 11ae 88BF     		it	hi
 5035 11b0 C7F17F07 		rsbhi	r7, r7, #127
 5036              	.LVL327:
 5037              	.LBE2327:
 5038              	.LBE2333:
 5039              		.loc 1 187 0
 5040 11b4 B8EE466A 		vcvt.f32.u32	s12, s12
 5041              	.LBB2334:
 5042              	.LBB2328:
 5043              		.loc 2 222 0
 5044 11b8 04EB8707 		add	r7, r4, r7, lsl #2
 5045              	.LVL328:
 5046 11bc 04EB8A0A 		add	r10, r4, r10, lsl #2
 5047              	.LVL329:
 5048 11c0 9AED005A 		vldr.32	s10, [r10]
 5049              	.LBE2328:
 5050              	.LBE2334:
 5051              		.loc 1 187 0
 5052 11c4 76EEC66A 		vsub.f32	s13, s13, s12
 5053              	.LVL330:
 5054 11c8 97ED006A 		vldr.32	s12, [r7]
 5055 11cc 36EE456A 		vsub.f32	s12, s12, s10
 5056              	.LBB2335:
 5057              	.LBB2329:
 5058              		.loc 2 215 0
 5059 11d0 98BF     		it	ls
 5060 11d2 F7EE004A 		vmovls.f32	s9, #1.0e+0
 5061              	.LBE2329:
 5062              	.LBE2335:
 5063              		.loc 1 187 0
 5064 11d6 A6EE865A 		vfma.f32	s10, s13, s12
 5065              		.loc 1 189 0
 5066 11da 9DED166A 		vldr.32	s12, [sp, #88]
 5067              	.LBB2336:
 5068              	.LBB2337:
 5069              		.loc 2 211 0
 5070 11de FCEEC66A 		vcvt.u32.f32	s13, s12
 5071              	.LBE2337:
 5072              	.LBE2336:
 5073              	.LBB2343:
ARM GAS  /tmp/ccJJl1OT.s 			page 90


 5074              	.LBB2330:
 5075              		.loc 2 219 0
 5076 11e2 88BF     		it	hi
 5077 11e4 FFEE004A 		vmovhi.f32	s9, #-1.0e+0
 5078              	.LVL331:
 5079              	.LBE2330:
 5080              	.LBE2343:
 5081              	.LBB2344:
 5082              	.LBB2338:
 5083              		.loc 2 211 0
 5084 11e8 F8EE666A 		vcvt.f32.u32	s13, s13
 5085              	.LBE2338:
 5086              	.LBE2344:
 5087              		.loc 1 187 0
 5088 11ec E5EE247A 		vfma.f32	s15, s10, s9
 5089              	.LBB2345:
 5090              	.LBB2339:
 5091              		.loc 2 211 0
 5092 11f0 76EE666A 		vsub.f32	s13, s12, s13
 5093 11f4 66EE876A 		vmul.f32	s13, s13, s14
 5094              	.LVL332:
 5095              		.loc 2 212 0
 5096 11f8 BCEEE66A 		vcvt.u32.f32	s12, s13
 5097              	.LVL333:
 5098 11fc 16EE10BA 		vmov	fp, s12	@ int
 5099              	.LVL334:
 5100              		.loc 2 216 0
 5101 1200 BBF17F0F 		cmp	fp, #127
 5102              		.loc 2 217 0
 5103 1204 87BF     		ittee	hi
 5104 1206 0BF07F07 		andhi	r7, fp, #127
 5105 120a C7F1800A 		rsbhi	r10, r7, #128
 5106              		.loc 2 214 0
 5107 120e 0BF10107 		addls	r7, fp, #1
 5108 1212 DA46     		movls	r10, fp
 5109              	.LVL335:
 5110              		.loc 2 218 0
 5111 1214 88BF     		it	hi
 5112 1216 C7F17F07 		rsbhi	r7, r7, #127
 5113              	.LVL336:
 5114              	.LBE2339:
 5115              	.LBE2345:
 5116              		.loc 1 188 0
 5117 121a B8EE466A 		vcvt.f32.u32	s12, s12
 5118              	.LBB2346:
 5119              	.LBB2340:
 5120              		.loc 2 222 0
 5121 121e 04EB8707 		add	r7, r4, r7, lsl #2
 5122              	.LVL337:
 5123 1222 04EB8A0A 		add	r10, r4, r10, lsl #2
 5124              	.LVL338:
 5125 1226 9AED005A 		vldr.32	s10, [r10]
 5126              	.LBE2340:
 5127              	.LBE2346:
 5128              		.loc 1 188 0
 5129 122a 76EEC66A 		vsub.f32	s13, s13, s12
 5130              	.LVL339:
ARM GAS  /tmp/ccJJl1OT.s 			page 91


 5131 122e 97ED006A 		vldr.32	s12, [r7]
 5132 1232 36EE456A 		vsub.f32	s12, s12, s10
 5133              	.LBB2347:
 5134              	.LBB2341:
 5135              		.loc 2 215 0
 5136 1236 98BF     		it	ls
 5137 1238 F7EE004A 		vmovls.f32	s9, #1.0e+0
 5138              	.LBE2341:
 5139              	.LBE2347:
 5140              		.loc 1 188 0
 5141 123c A6EE865A 		vfma.f32	s10, s13, s12
 5142              		.loc 1 190 0
 5143 1240 9DED176A 		vldr.32	s12, [sp, #92]
 5144              	.LBB2348:
 5145              	.LBB2349:
 5146              		.loc 2 211 0
 5147 1244 FCEEC66A 		vcvt.u32.f32	s13, s12
 5148              	.LBE2349:
 5149              	.LBE2348:
 5150              	.LBB2355:
 5151              	.LBB2342:
 5152              		.loc 2 219 0
 5153 1248 88BF     		it	hi
 5154 124a FFEE004A 		vmovhi.f32	s9, #-1.0e+0
 5155              	.LVL340:
 5156              	.LBE2342:
 5157              	.LBE2355:
 5158              	.LBB2356:
 5159              	.LBB2350:
 5160              		.loc 2 211 0
 5161 124e F8EE666A 		vcvt.f32.u32	s13, s13
 5162              	.LBE2350:
 5163              	.LBE2356:
 5164              		.loc 1 188 0
 5165 1252 E5EE247A 		vfma.f32	s15, s10, s9
 5166              	.LBB2357:
 5167              	.LBB2351:
 5168              		.loc 2 211 0
 5169 1256 76EE666A 		vsub.f32	s13, s12, s13
 5170 125a 66EE876A 		vmul.f32	s13, s13, s14
 5171              	.LVL341:
 5172              		.loc 2 212 0
 5173 125e BCEEE66A 		vcvt.u32.f32	s12, s13
 5174              	.LVL342:
 5175 1262 16EE10BA 		vmov	fp, s12	@ int
 5176              	.LVL343:
 5177              		.loc 2 216 0
 5178 1266 BBF17F0F 		cmp	fp, #127
 5179              		.loc 2 217 0
 5180 126a 87BF     		ittee	hi
 5181 126c 0BF07F07 		andhi	r7, fp, #127
 5182 1270 C7F1800A 		rsbhi	r10, r7, #128
 5183              		.loc 2 214 0
 5184 1274 0BF10107 		addls	r7, fp, #1
 5185 1278 DA46     		movls	r10, fp
 5186              	.LVL344:
 5187              		.loc 2 218 0
ARM GAS  /tmp/ccJJl1OT.s 			page 92


 5188 127a 88BF     		it	hi
 5189 127c C7F17F07 		rsbhi	r7, r7, #127
 5190              	.LVL345:
 5191              	.LBE2351:
 5192              	.LBE2357:
 5193              		.loc 1 189 0
 5194 1280 B8EE466A 		vcvt.f32.u32	s12, s12
 5195              	.LBB2358:
 5196              	.LBB2352:
 5197              		.loc 2 222 0
 5198 1284 04EB8707 		add	r7, r4, r7, lsl #2
 5199              	.LVL346:
 5200 1288 04EB8A0A 		add	r10, r4, r10, lsl #2
 5201              	.LVL347:
 5202 128c 9AED005A 		vldr.32	s10, [r10]
 5203              	.LBE2352:
 5204              	.LBE2358:
 5205              		.loc 1 189 0
 5206 1290 76EEC66A 		vsub.f32	s13, s13, s12
 5207              	.LVL348:
 5208 1294 97ED006A 		vldr.32	s12, [r7]
 5209 1298 36EE456A 		vsub.f32	s12, s12, s10
 5210              	.LBB2359:
 5211              	.LBB2353:
 5212              		.loc 2 215 0
 5213 129c 98BF     		it	ls
 5214 129e F7EE004A 		vmovls.f32	s9, #1.0e+0
 5215              	.LBE2353:
 5216              	.LBE2359:
 5217              		.loc 1 189 0
 5218 12a2 A6EE865A 		vfma.f32	s10, s13, s12
 5219              		.loc 1 191 0
 5220 12a6 9DED186A 		vldr.32	s12, [sp, #96]
 5221              	.LBB2360:
 5222              	.LBB2361:
 5223              		.loc 2 211 0
 5224 12aa FCEEC66A 		vcvt.u32.f32	s13, s12
 5225              	.LBE2361:
 5226              	.LBE2360:
 5227              	.LBB2367:
 5228              	.LBB2354:
 5229              		.loc 2 219 0
 5230 12ae 88BF     		it	hi
 5231 12b0 FFEE004A 		vmovhi.f32	s9, #-1.0e+0
 5232              	.LVL349:
 5233              	.LBE2354:
 5234              	.LBE2367:
 5235              	.LBB2368:
 5236              	.LBB2362:
 5237              		.loc 2 211 0
 5238 12b4 F8EE666A 		vcvt.f32.u32	s13, s13
 5239              	.LBE2362:
 5240              	.LBE2368:
 5241              		.loc 1 189 0
 5242 12b8 E5EE247A 		vfma.f32	s15, s10, s9
 5243              	.LBB2369:
 5244              	.LBB2363:
ARM GAS  /tmp/ccJJl1OT.s 			page 93


 5245              		.loc 2 211 0
 5246 12bc 76EE666A 		vsub.f32	s13, s12, s13
 5247 12c0 66EE876A 		vmul.f32	s13, s13, s14
 5248              	.LVL350:
 5249              		.loc 2 212 0
 5250 12c4 BCEEE66A 		vcvt.u32.f32	s12, s13
 5251              	.LVL351:
 5252 12c8 16EE10BA 		vmov	fp, s12	@ int
 5253              	.LVL352:
 5254              		.loc 2 216 0
 5255 12cc BBF17F0F 		cmp	fp, #127
 5256              		.loc 2 217 0
 5257 12d0 87BF     		ittee	hi
 5258 12d2 0BF07F07 		andhi	r7, fp, #127
 5259 12d6 C7F1800A 		rsbhi	r10, r7, #128
 5260              		.loc 2 214 0
 5261 12da 0BF10107 		addls	r7, fp, #1
 5262 12de DA46     		movls	r10, fp
 5263              	.LVL353:
 5264              		.loc 2 218 0
 5265 12e0 88BF     		it	hi
 5266 12e2 C7F17F07 		rsbhi	r7, r7, #127
 5267              	.LVL354:
 5268              	.LBE2363:
 5269              	.LBE2369:
 5270              		.loc 1 190 0
 5271 12e6 B8EE466A 		vcvt.f32.u32	s12, s12
 5272              	.LBB2370:
 5273              	.LBB2364:
 5274              		.loc 2 222 0
 5275 12ea 04EB8707 		add	r7, r4, r7, lsl #2
 5276              	.LVL355:
 5277 12ee 04EB8A0A 		add	r10, r4, r10, lsl #2
 5278              	.LVL356:
 5279 12f2 9AED005A 		vldr.32	s10, [r10]
 5280              	.LBE2364:
 5281              	.LBE2370:
 5282              		.loc 1 190 0
 5283 12f6 76EEC66A 		vsub.f32	s13, s13, s12
 5284              	.LVL357:
 5285 12fa 97ED006A 		vldr.32	s12, [r7]
 5286 12fe 36EE456A 		vsub.f32	s12, s12, s10
 5287              	.LBB2371:
 5288              	.LBB2365:
 5289              		.loc 2 215 0
 5290 1302 98BF     		it	ls
 5291 1304 F7EE004A 		vmovls.f32	s9, #1.0e+0
 5292              	.LBE2365:
 5293              	.LBE2371:
 5294              		.loc 1 190 0
 5295 1308 A6EE865A 		vfma.f32	s10, s13, s12
 5296              		.loc 1 192 0
 5297 130c 9DED196A 		vldr.32	s12, [sp, #100]
 5298              	.LBB2372:
 5299              	.LBB2373:
 5300              		.loc 2 211 0
 5301 1310 FCEEC66A 		vcvt.u32.f32	s13, s12
ARM GAS  /tmp/ccJJl1OT.s 			page 94


 5302              	.LBE2373:
 5303              	.LBE2372:
 5304              	.LBB2378:
 5305              	.LBB2366:
 5306              		.loc 2 219 0
 5307 1314 88BF     		it	hi
 5308 1316 FFEE004A 		vmovhi.f32	s9, #-1.0e+0
 5309              	.LVL358:
 5310              	.LBE2366:
 5311              	.LBE2378:
 5312              	.LBB2379:
 5313              	.LBB2374:
 5314              		.loc 2 211 0
 5315 131a F8EE666A 		vcvt.f32.u32	s13, s13
 5316              	.LBE2374:
 5317              	.LBE2379:
 5318              		.loc 1 190 0
 5319 131e E5EE247A 		vfma.f32	s15, s10, s9
 5320              	.LBB2380:
 5321              	.LBB2375:
 5322              		.loc 2 211 0
 5323 1322 76EE666A 		vsub.f32	s13, s12, s13
 5324 1326 66EE876A 		vmul.f32	s13, s13, s14
 5325              	.LVL359:
 5326              		.loc 2 212 0
 5327 132a BCEEE66A 		vcvt.u32.f32	s12, s13
 5328              	.LVL360:
 5329 132e 16EE10BA 		vmov	fp, s12	@ int
 5330              	.LVL361:
 5331              		.loc 2 216 0
 5332 1332 BBF17F0F 		cmp	fp, #127
 5333              		.loc 2 217 0
 5334 1336 86BF     		itte	hi
 5335 1338 0BF07F07 		andhi	r7, fp, #127
 5336 133c C7F1800A 		rsbhi	r10, r7, #128
 5337              		.loc 2 214 0
 5338 1340 DA46     		movls	r10, fp
 5339              	.LVL362:
 5340              	.LBE2375:
 5341              	.LBE2380:
 5342              		.loc 1 180 0
 5343 1342 B8EE466A 		vcvt.f32.u32	s12, s12
 5344              	.LBB2381:
 5345              	.LBB2376:
 5346              		.loc 2 214 0
 5347 1346 94BF     		ite	ls
 5348 1348 0BF10107 		addls	r7, fp, #1
 5349              		.loc 2 218 0
 5350 134c C7F17F07 		rsbhi	r7, r7, #127
 5351              	.LVL363:
 5352              		.loc 2 222 0
 5353 1350 04EB8A0A 		add	r10, r4, r10, lsl #2
 5354              	.LVL364:
 5355              		.loc 2 215 0
 5356 1354 94BF     		ite	ls
 5357 1356 F7EE004A 		vmovls.f32	s9, #1.0e+0
 5358              		.loc 2 219 0
ARM GAS  /tmp/ccJJl1OT.s 			page 95


 5359 135a FFEE004A 		vmovhi.f32	s9, #-1.0e+0
 5360              	.LVL365:
 5361              		.loc 2 222 0
 5362 135e 9AED005A 		vldr.32	s10, [r10]
 5363              	.LVL366:
 5364              	.LBE2376:
 5365              	.LBE2381:
 5366              		.loc 1 180 0
 5367 1362 76EEC66A 		vsub.f32	s13, s13, s12
 5368              	.LBB2382:
 5369              	.LBB2377:
 5370              		.loc 2 222 0
 5371 1366 04EB8707 		add	r7, r4, r7, lsl #2
 5372 136a 5EE2     		b	.L402
 5373              	.LVL367:
 5374              	.L166:
 5375              	.LBE2377:
 5376              	.LBE2382:
 5377              		.loc 1 197 0
 5378 136c DDED0E7A 		vldr.32	s15, [sp, #56]
 5379              	.LVL368:
 5380              	.LBB2383:
 5381              	.LBB2242:
 5382              		.loc 2 324 0
 5383 1370 FCEEE76A 		vcvt.u32.f32	s13, s15
 5384 1374 FFEE005A 		vmov.f32	s11, #-1.0e+0
 5385 1378 F8EE666A 		vcvt.f32.u32	s13, s13
 5386 137c 77EEE66A 		vsub.f32	s13, s15, s13
 5387 1380 66EEA36A 		vmul.f32	s13, s13, s7
 5388              	.LVL369:
 5389              		.loc 2 325 0
 5390 1384 FCEEE67A 		vcvt.u32.f32	s15, s13
 5391              	.LVL370:
 5392 1388 17EE90BA 		vmov	fp, s15	@ int
 5393              	.LVL371:
 5394              		.loc 2 329 0
 5395 138c BBF17F0F 		cmp	fp, #127
 5396              		.loc 2 336 0
 5397 1390 06EE10BA 		vmov	s12, fp	@ int
 5398              		.loc 2 330 0
 5399 1394 87BF     		ittee	hi
 5400 1396 0BF07F07 		andhi	r7, fp, #127
 5401 139a C7F1800A 		rsbhi	r10, r7, #128
 5402              		.loc 2 327 0
 5403 139e 0BF10107 		addls	r7, fp, #1
 5404 13a2 DA46     		movls	r10, fp
 5405              	.LVL372:
 5406              		.loc 2 331 0
 5407 13a4 88BF     		it	hi
 5408 13a6 C7F17F07 		rsbhi	r7, r7, #127
 5409              	.LVL373:
 5410              		.loc 2 336 0
 5411 13aa B8EE466A 		vcvt.f32.u32	s12, s12
 5412              		.loc 2 335 0
 5413 13ae 0CEB8707 		add	r7, ip, r7, lsl #2
 5414              	.LVL374:
 5415 13b2 0CEB8A0A 		add	r10, ip, r10, lsl #2
ARM GAS  /tmp/ccJJl1OT.s 			page 96


 5416              	.LVL375:
 5417 13b6 DAED007A 		vldr.32	s15, [r10]
 5418              		.loc 2 336 0
 5419 13ba 76EEC66A 		vsub.f32	s13, s13, s12
 5420              	.LVL376:
 5421 13be 97ED006A 		vldr.32	s12, [r7]
 5422 13c2 36EE676A 		vsub.f32	s12, s12, s15
 5423              		.loc 2 328 0
 5424 13c6 98BF     		it	ls
 5425 13c8 B7EE005A 		vmovls.f32	s10, #1.0e+0
 5426              		.loc 2 336 0
 5427 13cc E6EE867A 		vfma.f32	s15, s13, s12
 5428              	.LBE2242:
 5429              	.LBE2383:
 5430              		.loc 1 198 0
 5431 13d0 9DED0F6A 		vldr.32	s12, [sp, #60]
 5432              	.LBB2384:
 5433              	.LBB2385:
 5434              		.loc 2 324 0
 5435 13d4 FCEEC66A 		vcvt.u32.f32	s13, s12
 5436              	.LBE2385:
 5437              	.LBE2384:
 5438              	.LBB2391:
 5439              	.LBB2243:
 5440              		.loc 2 332 0
 5441 13d8 88BF     		it	hi
 5442 13da B0EE655A 		vmovhi.f32	s10, s11
 5443              	.LVL377:
 5444              	.LBE2243:
 5445              	.LBE2391:
 5446              	.LBB2392:
 5447              	.LBB2386:
 5448              		.loc 2 324 0
 5449 13de F8EE666A 		vcvt.f32.u32	s13, s13
 5450              	.LBE2386:
 5451              	.LBE2392:
 5452              	.LBB2393:
 5453              	.LBB2244:
 5454              		.loc 2 336 0
 5455 13e2 67EE857A 		vmul.f32	s15, s15, s10
 5456              	.LVL378:
 5457              	.LBE2244:
 5458              	.LBE2393:
 5459              	.LBB2394:
 5460              	.LBB2387:
 5461              		.loc 2 324 0
 5462 13e6 76EE666A 		vsub.f32	s13, s12, s13
 5463 13ea 66EE876A 		vmul.f32	s13, s13, s14
 5464              	.LVL379:
 5465              		.loc 2 325 0
 5466 13ee BCEEE66A 		vcvt.u32.f32	s12, s13
 5467              	.LVL380:
 5468 13f2 16EE10BA 		vmov	fp, s12	@ int
 5469              	.LVL381:
 5470              		.loc 2 329 0
 5471 13f6 BBF17F0F 		cmp	fp, #127
 5472              		.loc 2 330 0
ARM GAS  /tmp/ccJJl1OT.s 			page 97


 5473 13fa 87BF     		ittee	hi
 5474 13fc 0BF07F07 		andhi	r7, fp, #127
 5475 1400 C7F1800A 		rsbhi	r10, r7, #128
 5476              		.loc 2 327 0
 5477 1404 0BF10107 		addls	r7, fp, #1
 5478 1408 DA46     		movls	r10, fp
 5479              	.LVL382:
 5480              		.loc 2 331 0
 5481 140a 88BF     		it	hi
 5482 140c C7F17F07 		rsbhi	r7, r7, #127
 5483              	.LVL383:
 5484              	.LBE2387:
 5485              	.LBE2394:
 5486              		.loc 1 197 0
 5487 1410 B8EE466A 		vcvt.f32.u32	s12, s12
 5488              	.LBB2395:
 5489              	.LBB2388:
 5490              		.loc 2 335 0
 5491 1414 00EB8707 		add	r7, r0, r7, lsl #2
 5492              	.LVL384:
 5493 1418 00EB8A0A 		add	r10, r0, r10, lsl #2
 5494              	.LVL385:
 5495 141c 9AED005A 		vldr.32	s10, [r10]
 5496              	.LBE2388:
 5497              	.LBE2395:
 5498              		.loc 1 197 0
 5499 1420 76EEC66A 		vsub.f32	s13, s13, s12
 5500              	.LVL386:
 5501 1424 97ED006A 		vldr.32	s12, [r7]
 5502 1428 36EE456A 		vsub.f32	s12, s12, s10
 5503              	.LBB2396:
 5504              	.LBB2389:
 5505              		.loc 2 328 0
 5506 142c 98BF     		it	ls
 5507 142e F7EE004A 		vmovls.f32	s9, #1.0e+0
 5508              	.LBE2389:
 5509              	.LBE2396:
 5510              		.loc 1 197 0
 5511 1432 A6EE865A 		vfma.f32	s10, s13, s12
 5512              		.loc 1 199 0
 5513 1436 9DED106A 		vldr.32	s12, [sp, #64]
 5514              	.LBB2397:
 5515              	.LBB2398:
 5516              		.loc 2 324 0
 5517 143a FCEEC66A 		vcvt.u32.f32	s13, s12
 5518              	.LBE2398:
 5519              	.LBE2397:
 5520              	.LBB2404:
 5521              	.LBB2390:
 5522              		.loc 2 332 0
 5523 143e 88BF     		it	hi
 5524 1440 FFEE004A 		vmovhi.f32	s9, #-1.0e+0
 5525              	.LVL387:
 5526              	.LBE2390:
 5527              	.LBE2404:
 5528              	.LBB2405:
 5529              	.LBB2399:
ARM GAS  /tmp/ccJJl1OT.s 			page 98


 5530              		.loc 2 324 0
 5531 1444 F8EE666A 		vcvt.f32.u32	s13, s13
 5532              	.LBE2399:
 5533              	.LBE2405:
 5534              		.loc 1 197 0
 5535 1448 E5EE247A 		vfma.f32	s15, s10, s9
 5536              	.LBB2406:
 5537              	.LBB2400:
 5538              		.loc 2 324 0
 5539 144c 76EE666A 		vsub.f32	s13, s12, s13
 5540 1450 66EE876A 		vmul.f32	s13, s13, s14
 5541              	.LVL388:
 5542              		.loc 2 325 0
 5543 1454 BCEEE66A 		vcvt.u32.f32	s12, s13
 5544              	.LVL389:
 5545 1458 16EE10BA 		vmov	fp, s12	@ int
 5546              	.LVL390:
 5547              		.loc 2 329 0
 5548 145c BBF17F0F 		cmp	fp, #127
 5549              		.loc 2 330 0
 5550 1460 87BF     		ittee	hi
 5551 1462 0BF07F07 		andhi	r7, fp, #127
 5552 1466 C7F1800A 		rsbhi	r10, r7, #128
 5553              		.loc 2 327 0
 5554 146a 0BF10107 		addls	r7, fp, #1
 5555 146e DA46     		movls	r10, fp
 5556              	.LVL391:
 5557              		.loc 2 331 0
 5558 1470 88BF     		it	hi
 5559 1472 C7F17F07 		rsbhi	r7, r7, #127
 5560              	.LVL392:
 5561              	.LBE2400:
 5562              	.LBE2406:
 5563              		.loc 1 198 0
 5564 1476 B8EE466A 		vcvt.f32.u32	s12, s12
 5565              	.LBB2407:
 5566              	.LBB2401:
 5567              		.loc 2 335 0
 5568 147a 00EB8707 		add	r7, r0, r7, lsl #2
 5569              	.LVL393:
 5570 147e 00EB8A0A 		add	r10, r0, r10, lsl #2
 5571              	.LVL394:
 5572 1482 9AED005A 		vldr.32	s10, [r10]
 5573              	.LBE2401:
 5574              	.LBE2407:
 5575              		.loc 1 198 0
 5576 1486 76EEC66A 		vsub.f32	s13, s13, s12
 5577              	.LVL395:
 5578 148a 97ED006A 		vldr.32	s12, [r7]
 5579 148e 36EE456A 		vsub.f32	s12, s12, s10
 5580              	.LBB2408:
 5581              	.LBB2402:
 5582              		.loc 2 328 0
 5583 1492 98BF     		it	ls
 5584 1494 F7EE004A 		vmovls.f32	s9, #1.0e+0
 5585              	.LBE2402:
 5586              	.LBE2408:
ARM GAS  /tmp/ccJJl1OT.s 			page 99


 5587              		.loc 1 198 0
 5588 1498 A6EE865A 		vfma.f32	s10, s13, s12
 5589              		.loc 1 200 0
 5590 149c 9DED116A 		vldr.32	s12, [sp, #68]
 5591              	.LBB2409:
 5592              	.LBB2410:
 5593              		.loc 2 324 0
 5594 14a0 FCEEC66A 		vcvt.u32.f32	s13, s12
 5595              	.LBE2410:
 5596              	.LBE2409:
 5597              	.LBB2416:
 5598              	.LBB2403:
 5599              		.loc 2 332 0
 5600 14a4 88BF     		it	hi
 5601 14a6 FFEE004A 		vmovhi.f32	s9, #-1.0e+0
 5602              	.LVL396:
 5603              	.LBE2403:
 5604              	.LBE2416:
 5605              	.LBB2417:
 5606              	.LBB2411:
 5607              		.loc 2 324 0
 5608 14aa F8EE666A 		vcvt.f32.u32	s13, s13
 5609              	.LBE2411:
 5610              	.LBE2417:
 5611              		.loc 1 198 0
 5612 14ae E5EE247A 		vfma.f32	s15, s10, s9
 5613              	.LBB2418:
 5614              	.LBB2412:
 5615              		.loc 2 324 0
 5616 14b2 76EE666A 		vsub.f32	s13, s12, s13
 5617 14b6 66EE876A 		vmul.f32	s13, s13, s14
 5618              	.LVL397:
 5619              		.loc 2 325 0
 5620 14ba BCEEE66A 		vcvt.u32.f32	s12, s13
 5621              	.LVL398:
 5622 14be 16EE10BA 		vmov	fp, s12	@ int
 5623              	.LVL399:
 5624              		.loc 2 329 0
 5625 14c2 BBF17F0F 		cmp	fp, #127
 5626              		.loc 2 330 0
 5627 14c6 87BF     		ittee	hi
 5628 14c8 0BF07F07 		andhi	r7, fp, #127
 5629 14cc C7F1800A 		rsbhi	r10, r7, #128
 5630              		.loc 2 327 0
 5631 14d0 0BF10107 		addls	r7, fp, #1
 5632 14d4 DA46     		movls	r10, fp
 5633              	.LVL400:
 5634              		.loc 2 331 0
 5635 14d6 88BF     		it	hi
 5636 14d8 C7F17F07 		rsbhi	r7, r7, #127
 5637              	.LVL401:
 5638              	.LBE2412:
 5639              	.LBE2418:
 5640              		.loc 1 199 0
 5641 14dc B8EE466A 		vcvt.f32.u32	s12, s12
 5642              	.LBB2419:
 5643              	.LBB2413:
ARM GAS  /tmp/ccJJl1OT.s 			page 100


 5644              		.loc 2 335 0
 5645 14e0 00EB8707 		add	r7, r0, r7, lsl #2
 5646              	.LVL402:
 5647 14e4 00EB8A0A 		add	r10, r0, r10, lsl #2
 5648              	.LVL403:
 5649 14e8 9AED005A 		vldr.32	s10, [r10]
 5650              	.LBE2413:
 5651              	.LBE2419:
 5652              		.loc 1 199 0
 5653 14ec 76EEC66A 		vsub.f32	s13, s13, s12
 5654              	.LVL404:
 5655 14f0 97ED006A 		vldr.32	s12, [r7]
 5656 14f4 36EE456A 		vsub.f32	s12, s12, s10
 5657              	.LBB2420:
 5658              	.LBB2414:
 5659              		.loc 2 328 0
 5660 14f8 98BF     		it	ls
 5661 14fa F7EE004A 		vmovls.f32	s9, #1.0e+0
 5662              	.LBE2414:
 5663              	.LBE2420:
 5664              		.loc 1 199 0
 5665 14fe A6EE865A 		vfma.f32	s10, s13, s12
 5666              		.loc 1 201 0
 5667 1502 9DED126A 		vldr.32	s12, [sp, #72]
 5668              	.LBB2421:
 5669              	.LBB2422:
 5670              		.loc 2 324 0
 5671 1506 FCEEC66A 		vcvt.u32.f32	s13, s12
 5672              	.LBE2422:
 5673              	.LBE2421:
 5674              	.LBB2428:
 5675              	.LBB2415:
 5676              		.loc 2 332 0
 5677 150a 88BF     		it	hi
 5678 150c FFEE004A 		vmovhi.f32	s9, #-1.0e+0
 5679              	.LVL405:
 5680              	.LBE2415:
 5681              	.LBE2428:
 5682              	.LBB2429:
 5683              	.LBB2423:
 5684              		.loc 2 324 0
 5685 1510 F8EE666A 		vcvt.f32.u32	s13, s13
 5686              	.LBE2423:
 5687              	.LBE2429:
 5688              		.loc 1 199 0
 5689 1514 E5EE247A 		vfma.f32	s15, s10, s9
 5690              	.LBB2430:
 5691              	.LBB2424:
 5692              		.loc 2 324 0
 5693 1518 76EE666A 		vsub.f32	s13, s12, s13
 5694 151c 66EE876A 		vmul.f32	s13, s13, s14
 5695              	.LVL406:
 5696              		.loc 2 325 0
 5697 1520 BCEEE66A 		vcvt.u32.f32	s12, s13
 5698              	.LVL407:
 5699 1524 16EE10BA 		vmov	fp, s12	@ int
 5700              	.LVL408:
ARM GAS  /tmp/ccJJl1OT.s 			page 101


 5701              		.loc 2 329 0
 5702 1528 BBF17F0F 		cmp	fp, #127
 5703              		.loc 2 330 0
 5704 152c 87BF     		ittee	hi
 5705 152e 0BF07F07 		andhi	r7, fp, #127
 5706 1532 C7F1800A 		rsbhi	r10, r7, #128
 5707              		.loc 2 327 0
 5708 1536 0BF10107 		addls	r7, fp, #1
 5709 153a DA46     		movls	r10, fp
 5710              	.LVL409:
 5711              		.loc 2 331 0
 5712 153c 88BF     		it	hi
 5713 153e C7F17F07 		rsbhi	r7, r7, #127
 5714              	.LVL410:
 5715              	.LBE2424:
 5716              	.LBE2430:
 5717              		.loc 1 200 0
 5718 1542 B8EE466A 		vcvt.f32.u32	s12, s12
 5719              	.LBB2431:
 5720              	.LBB2425:
 5721              		.loc 2 335 0
 5722 1546 00EB8707 		add	r7, r0, r7, lsl #2
 5723              	.LVL411:
 5724 154a 00EB8A0A 		add	r10, r0, r10, lsl #2
 5725              	.LVL412:
 5726 154e 9AED005A 		vldr.32	s10, [r10]
 5727              	.LBE2425:
 5728              	.LBE2431:
 5729              		.loc 1 200 0
 5730 1552 76EEC66A 		vsub.f32	s13, s13, s12
 5731              	.LVL413:
 5732 1556 97ED006A 		vldr.32	s12, [r7]
 5733 155a 36EE456A 		vsub.f32	s12, s12, s10
 5734              	.LBB2432:
 5735              	.LBB2426:
 5736              		.loc 2 328 0
 5737 155e 98BF     		it	ls
 5738 1560 F7EE004A 		vmovls.f32	s9, #1.0e+0
 5739              	.LBE2426:
 5740              	.LBE2432:
 5741              		.loc 1 200 0
 5742 1564 A6EE865A 		vfma.f32	s10, s13, s12
 5743              		.loc 1 202 0
 5744 1568 9DED136A 		vldr.32	s12, [sp, #76]
 5745              	.LBB2433:
 5746              	.LBB2434:
 5747              		.loc 2 324 0
 5748 156c FCEEC66A 		vcvt.u32.f32	s13, s12
 5749              	.LBE2434:
 5750              	.LBE2433:
 5751              	.LBB2440:
 5752              	.LBB2427:
 5753              		.loc 2 332 0
 5754 1570 88BF     		it	hi
 5755 1572 FFEE004A 		vmovhi.f32	s9, #-1.0e+0
 5756              	.LVL414:
 5757              	.LBE2427:
ARM GAS  /tmp/ccJJl1OT.s 			page 102


 5758              	.LBE2440:
 5759              	.LBB2441:
 5760              	.LBB2435:
 5761              		.loc 2 324 0
 5762 1576 F8EE666A 		vcvt.f32.u32	s13, s13
 5763              	.LBE2435:
 5764              	.LBE2441:
 5765              		.loc 1 200 0
 5766 157a E5EE247A 		vfma.f32	s15, s10, s9
 5767              	.LBB2442:
 5768              	.LBB2436:
 5769              		.loc 2 324 0
 5770 157e 76EE666A 		vsub.f32	s13, s12, s13
 5771 1582 66EE876A 		vmul.f32	s13, s13, s14
 5772              	.LVL415:
 5773              		.loc 2 325 0
 5774 1586 BCEEE66A 		vcvt.u32.f32	s12, s13
 5775              	.LVL416:
 5776 158a 16EE10BA 		vmov	fp, s12	@ int
 5777              	.LVL417:
 5778              		.loc 2 329 0
 5779 158e BBF17F0F 		cmp	fp, #127
 5780              		.loc 2 330 0
 5781 1592 87BF     		ittee	hi
 5782 1594 0BF07F07 		andhi	r7, fp, #127
 5783 1598 C7F1800A 		rsbhi	r10, r7, #128
 5784              		.loc 2 327 0
 5785 159c 0BF10107 		addls	r7, fp, #1
 5786 15a0 DA46     		movls	r10, fp
 5787              	.LVL418:
 5788              		.loc 2 331 0
 5789 15a2 88BF     		it	hi
 5790 15a4 C7F17F07 		rsbhi	r7, r7, #127
 5791              	.LVL419:
 5792              	.LBE2436:
 5793              	.LBE2442:
 5794              		.loc 1 201 0
 5795 15a8 B8EE466A 		vcvt.f32.u32	s12, s12
 5796              	.LBB2443:
 5797              	.LBB2437:
 5798              		.loc 2 335 0
 5799 15ac 00EB8707 		add	r7, r0, r7, lsl #2
 5800              	.LVL420:
 5801 15b0 00EB8A0A 		add	r10, r0, r10, lsl #2
 5802              	.LVL421:
 5803 15b4 9AED005A 		vldr.32	s10, [r10]
 5804              	.LBE2437:
 5805              	.LBE2443:
 5806              		.loc 1 201 0
 5807 15b8 76EEC66A 		vsub.f32	s13, s13, s12
 5808              	.LVL422:
 5809 15bc 97ED006A 		vldr.32	s12, [r7]
 5810 15c0 36EE456A 		vsub.f32	s12, s12, s10
 5811              	.LBB2444:
 5812              	.LBB2438:
 5813              		.loc 2 328 0
 5814 15c4 98BF     		it	ls
ARM GAS  /tmp/ccJJl1OT.s 			page 103


 5815 15c6 F7EE004A 		vmovls.f32	s9, #1.0e+0
 5816              	.LBE2438:
 5817              	.LBE2444:
 5818              		.loc 1 201 0
 5819 15ca A6EE865A 		vfma.f32	s10, s13, s12
 5820              		.loc 1 203 0
 5821 15ce 9DED146A 		vldr.32	s12, [sp, #80]
 5822              	.LBB2445:
 5823              	.LBB2446:
 5824              		.loc 2 324 0
 5825 15d2 FCEEC66A 		vcvt.u32.f32	s13, s12
 5826              	.LBE2446:
 5827              	.LBE2445:
 5828              	.LBB2452:
 5829              	.LBB2439:
 5830              		.loc 2 332 0
 5831 15d6 88BF     		it	hi
 5832 15d8 FFEE004A 		vmovhi.f32	s9, #-1.0e+0
 5833              	.LVL423:
 5834              	.LBE2439:
 5835              	.LBE2452:
 5836              	.LBB2453:
 5837              	.LBB2447:
 5838              		.loc 2 324 0
 5839 15dc F8EE666A 		vcvt.f32.u32	s13, s13
 5840              	.LBE2447:
 5841              	.LBE2453:
 5842              		.loc 1 201 0
 5843 15e0 E5EE247A 		vfma.f32	s15, s10, s9
 5844              	.LBB2454:
 5845              	.LBB2448:
 5846              		.loc 2 324 0
 5847 15e4 76EE666A 		vsub.f32	s13, s12, s13
 5848 15e8 66EE876A 		vmul.f32	s13, s13, s14
 5849              	.LVL424:
 5850              		.loc 2 325 0
 5851 15ec BCEEE66A 		vcvt.u32.f32	s12, s13
 5852              	.LVL425:
 5853 15f0 16EE10BA 		vmov	fp, s12	@ int
 5854              	.LVL426:
 5855              		.loc 2 329 0
 5856 15f4 BBF17F0F 		cmp	fp, #127
 5857              		.loc 2 330 0
 5858 15f8 87BF     		ittee	hi
 5859 15fa 0BF07F07 		andhi	r7, fp, #127
 5860 15fe C7F1800A 		rsbhi	r10, r7, #128
 5861              		.loc 2 327 0
 5862 1602 0BF10107 		addls	r7, fp, #1
 5863 1606 DA46     		movls	r10, fp
 5864              	.LVL427:
 5865              		.loc 2 331 0
 5866 1608 88BF     		it	hi
 5867 160a C7F17F07 		rsbhi	r7, r7, #127
 5868              	.LVL428:
 5869              	.LBE2448:
 5870              	.LBE2454:
 5871              		.loc 1 202 0
ARM GAS  /tmp/ccJJl1OT.s 			page 104


 5872 160e B8EE466A 		vcvt.f32.u32	s12, s12
 5873              	.LBB2455:
 5874              	.LBB2449:
 5875              		.loc 2 335 0
 5876 1612 00EB8707 		add	r7, r0, r7, lsl #2
 5877              	.LVL429:
 5878 1616 00EB8A0A 		add	r10, r0, r10, lsl #2
 5879              	.LVL430:
 5880 161a 9AED005A 		vldr.32	s10, [r10]
 5881              	.LBE2449:
 5882              	.LBE2455:
 5883              		.loc 1 202 0
 5884 161e 76EEC66A 		vsub.f32	s13, s13, s12
 5885              	.LVL431:
 5886 1622 97ED006A 		vldr.32	s12, [r7]
 5887 1626 36EE456A 		vsub.f32	s12, s12, s10
 5888              	.LBB2456:
 5889              	.LBB2450:
 5890              		.loc 2 328 0
 5891 162a 98BF     		it	ls
 5892 162c F7EE004A 		vmovls.f32	s9, #1.0e+0
 5893              	.LBE2450:
 5894              	.LBE2456:
 5895              		.loc 1 202 0
 5896 1630 A6EE865A 		vfma.f32	s10, s13, s12
 5897              		.loc 1 204 0
 5898 1634 9DED156A 		vldr.32	s12, [sp, #84]
 5899              	.LBB2457:
 5900              	.LBB2458:
 5901              		.loc 2 324 0
 5902 1638 FCEEC66A 		vcvt.u32.f32	s13, s12
 5903              	.LBE2458:
 5904              	.LBE2457:
 5905              	.LBB2464:
 5906              	.LBB2451:
 5907              		.loc 2 332 0
 5908 163c 88BF     		it	hi
 5909 163e FFEE004A 		vmovhi.f32	s9, #-1.0e+0
 5910              	.LVL432:
 5911              	.LBE2451:
 5912              	.LBE2464:
 5913              	.LBB2465:
 5914              	.LBB2459:
 5915              		.loc 2 324 0
 5916 1642 F8EE666A 		vcvt.f32.u32	s13, s13
 5917              	.LBE2459:
 5918              	.LBE2465:
 5919              		.loc 1 202 0
 5920 1646 E5EE247A 		vfma.f32	s15, s10, s9
 5921              	.LBB2466:
 5922              	.LBB2460:
 5923              		.loc 2 324 0
 5924 164a 76EE666A 		vsub.f32	s13, s12, s13
 5925 164e 66EE876A 		vmul.f32	s13, s13, s14
 5926              	.LVL433:
 5927              		.loc 2 325 0
 5928 1652 BCEEE66A 		vcvt.u32.f32	s12, s13
ARM GAS  /tmp/ccJJl1OT.s 			page 105


 5929              	.LVL434:
 5930 1656 16EE10BA 		vmov	fp, s12	@ int
 5931              	.LVL435:
 5932              		.loc 2 329 0
 5933 165a BBF17F0F 		cmp	fp, #127
 5934              		.loc 2 330 0
 5935 165e 87BF     		ittee	hi
 5936 1660 0BF07F07 		andhi	r7, fp, #127
 5937 1664 C7F1800A 		rsbhi	r10, r7, #128
 5938              		.loc 2 327 0
 5939 1668 0BF10107 		addls	r7, fp, #1
 5940 166c DA46     		movls	r10, fp
 5941              	.LVL436:
 5942              		.loc 2 331 0
 5943 166e 88BF     		it	hi
 5944 1670 C7F17F07 		rsbhi	r7, r7, #127
 5945              	.LVL437:
 5946              	.LBE2460:
 5947              	.LBE2466:
 5948              		.loc 1 203 0
 5949 1674 B8EE466A 		vcvt.f32.u32	s12, s12
 5950              	.LBB2467:
 5951              	.LBB2461:
 5952              		.loc 2 335 0
 5953 1678 00EB8707 		add	r7, r0, r7, lsl #2
 5954              	.LVL438:
 5955 167c 00EB8A0A 		add	r10, r0, r10, lsl #2
 5956              	.LVL439:
 5957 1680 9AED005A 		vldr.32	s10, [r10]
 5958              	.LBE2461:
 5959              	.LBE2467:
 5960              		.loc 1 203 0
 5961 1684 76EEC66A 		vsub.f32	s13, s13, s12
 5962              	.LVL440:
 5963 1688 97ED006A 		vldr.32	s12, [r7]
 5964 168c 36EE456A 		vsub.f32	s12, s12, s10
 5965              	.LBB2468:
 5966              	.LBB2462:
 5967              		.loc 2 328 0
 5968 1690 98BF     		it	ls
 5969 1692 F7EE004A 		vmovls.f32	s9, #1.0e+0
 5970              	.LBE2462:
 5971              	.LBE2468:
 5972              		.loc 1 203 0
 5973 1696 A6EE865A 		vfma.f32	s10, s13, s12
 5974              		.loc 1 205 0
 5975 169a 9DED166A 		vldr.32	s12, [sp, #88]
 5976              	.LBB2469:
 5977              	.LBB2470:
 5978              		.loc 2 324 0
 5979 169e FCEEC66A 		vcvt.u32.f32	s13, s12
 5980              	.LBE2470:
 5981              	.LBE2469:
 5982              	.LBB2476:
 5983              	.LBB2463:
 5984              		.loc 2 332 0
 5985 16a2 88BF     		it	hi
ARM GAS  /tmp/ccJJl1OT.s 			page 106


 5986 16a4 FFEE004A 		vmovhi.f32	s9, #-1.0e+0
 5987              	.LVL441:
 5988              	.LBE2463:
 5989              	.LBE2476:
 5990              	.LBB2477:
 5991              	.LBB2471:
 5992              		.loc 2 324 0
 5993 16a8 F8EE666A 		vcvt.f32.u32	s13, s13
 5994              	.LBE2471:
 5995              	.LBE2477:
 5996              		.loc 1 203 0
 5997 16ac E5EE247A 		vfma.f32	s15, s10, s9
 5998              	.LBB2478:
 5999              	.LBB2472:
 6000              		.loc 2 324 0
 6001 16b0 76EE666A 		vsub.f32	s13, s12, s13
 6002 16b4 66EE876A 		vmul.f32	s13, s13, s14
 6003              	.LVL442:
 6004              		.loc 2 325 0
 6005 16b8 BCEEE66A 		vcvt.u32.f32	s12, s13
 6006              	.LVL443:
 6007 16bc 16EE10BA 		vmov	fp, s12	@ int
 6008              	.LVL444:
 6009              		.loc 2 329 0
 6010 16c0 BBF17F0F 		cmp	fp, #127
 6011              		.loc 2 330 0
 6012 16c4 87BF     		ittee	hi
 6013 16c6 0BF07F07 		andhi	r7, fp, #127
 6014 16ca C7F1800A 		rsbhi	r10, r7, #128
 6015              		.loc 2 327 0
 6016 16ce 0BF10107 		addls	r7, fp, #1
 6017 16d2 DA46     		movls	r10, fp
 6018              	.LVL445:
 6019              		.loc 2 331 0
 6020 16d4 88BF     		it	hi
 6021 16d6 C7F17F07 		rsbhi	r7, r7, #127
 6022              	.LVL446:
 6023              	.LBE2472:
 6024              	.LBE2478:
 6025              		.loc 1 204 0
 6026 16da B8EE466A 		vcvt.f32.u32	s12, s12
 6027              	.LBB2479:
 6028              	.LBB2473:
 6029              		.loc 2 335 0
 6030 16de 00EB8707 		add	r7, r0, r7, lsl #2
 6031              	.LVL447:
 6032 16e2 00EB8A0A 		add	r10, r0, r10, lsl #2
 6033              	.LVL448:
 6034 16e6 9AED005A 		vldr.32	s10, [r10]
 6035              	.LBE2473:
 6036              	.LBE2479:
 6037              		.loc 1 204 0
 6038 16ea 76EEC66A 		vsub.f32	s13, s13, s12
 6039              	.LVL449:
 6040 16ee 97ED006A 		vldr.32	s12, [r7]
 6041 16f2 36EE456A 		vsub.f32	s12, s12, s10
 6042              	.LBB2480:
ARM GAS  /tmp/ccJJl1OT.s 			page 107


 6043              	.LBB2474:
 6044              		.loc 2 328 0
 6045 16f6 98BF     		it	ls
 6046 16f8 F7EE004A 		vmovls.f32	s9, #1.0e+0
 6047              	.LBE2474:
 6048              	.LBE2480:
 6049              		.loc 1 204 0
 6050 16fc A6EE865A 		vfma.f32	s10, s13, s12
 6051              		.loc 1 206 0
 6052 1700 9DED176A 		vldr.32	s12, [sp, #92]
 6053              	.LBB2481:
 6054              	.LBB2482:
 6055              		.loc 2 324 0
 6056 1704 FCEEC66A 		vcvt.u32.f32	s13, s12
 6057              	.LBE2482:
 6058              	.LBE2481:
 6059              	.LBB2488:
 6060              	.LBB2475:
 6061              		.loc 2 332 0
 6062 1708 88BF     		it	hi
 6063 170a FFEE004A 		vmovhi.f32	s9, #-1.0e+0
 6064              	.LVL450:
 6065              	.LBE2475:
 6066              	.LBE2488:
 6067              	.LBB2489:
 6068              	.LBB2483:
 6069              		.loc 2 324 0
 6070 170e F8EE666A 		vcvt.f32.u32	s13, s13
 6071              	.LBE2483:
 6072              	.LBE2489:
 6073              		.loc 1 204 0
 6074 1712 E5EE247A 		vfma.f32	s15, s10, s9
 6075              	.LBB2490:
 6076              	.LBB2484:
 6077              		.loc 2 324 0
 6078 1716 76EE666A 		vsub.f32	s13, s12, s13
 6079 171a 66EE876A 		vmul.f32	s13, s13, s14
 6080              	.LVL451:
 6081              		.loc 2 325 0
 6082 171e BCEEE66A 		vcvt.u32.f32	s12, s13
 6083              	.LVL452:
 6084 1722 16EE10BA 		vmov	fp, s12	@ int
 6085              	.LVL453:
 6086              		.loc 2 329 0
 6087 1726 BBF17F0F 		cmp	fp, #127
 6088              		.loc 2 330 0
 6089 172a 87BF     		ittee	hi
 6090 172c 0BF07F07 		andhi	r7, fp, #127
 6091 1730 C7F1800A 		rsbhi	r10, r7, #128
 6092              		.loc 2 327 0
 6093 1734 0BF10107 		addls	r7, fp, #1
 6094 1738 DA46     		movls	r10, fp
 6095              	.LVL454:
 6096              		.loc 2 331 0
 6097 173a 88BF     		it	hi
 6098 173c C7F17F07 		rsbhi	r7, r7, #127
 6099              	.LVL455:
ARM GAS  /tmp/ccJJl1OT.s 			page 108


 6100              	.LBE2484:
 6101              	.LBE2490:
 6102              		.loc 1 205 0
 6103 1740 B8EE466A 		vcvt.f32.u32	s12, s12
 6104              	.LBB2491:
 6105              	.LBB2485:
 6106              		.loc 2 335 0
 6107 1744 00EB8707 		add	r7, r0, r7, lsl #2
 6108              	.LVL456:
 6109 1748 00EB8A0A 		add	r10, r0, r10, lsl #2
 6110              	.LVL457:
 6111 174c 9AED005A 		vldr.32	s10, [r10]
 6112              	.LBE2485:
 6113              	.LBE2491:
 6114              		.loc 1 205 0
 6115 1750 76EEC66A 		vsub.f32	s13, s13, s12
 6116              	.LVL458:
 6117 1754 97ED006A 		vldr.32	s12, [r7]
 6118 1758 36EE456A 		vsub.f32	s12, s12, s10
 6119              	.LBB2492:
 6120              	.LBB2486:
 6121              		.loc 2 328 0
 6122 175c 98BF     		it	ls
 6123 175e F7EE004A 		vmovls.f32	s9, #1.0e+0
 6124              	.LBE2486:
 6125              	.LBE2492:
 6126              		.loc 1 205 0
 6127 1762 A6EE865A 		vfma.f32	s10, s13, s12
 6128              		.loc 1 207 0
 6129 1766 9DED186A 		vldr.32	s12, [sp, #96]
 6130              	.LBB2493:
 6131              	.LBB2494:
 6132              		.loc 2 324 0
 6133 176a FCEEC66A 		vcvt.u32.f32	s13, s12
 6134              	.LBE2494:
 6135              	.LBE2493:
 6136              	.LBB2500:
 6137              	.LBB2487:
 6138              		.loc 2 332 0
 6139 176e 88BF     		it	hi
 6140 1770 FFEE004A 		vmovhi.f32	s9, #-1.0e+0
 6141              	.LVL459:
 6142              	.LBE2487:
 6143              	.LBE2500:
 6144              	.LBB2501:
 6145              	.LBB2495:
 6146              		.loc 2 324 0
 6147 1774 F8EE666A 		vcvt.f32.u32	s13, s13
 6148              	.LBE2495:
 6149              	.LBE2501:
 6150              		.loc 1 205 0
 6151 1778 E5EE247A 		vfma.f32	s15, s10, s9
 6152              	.LBB2502:
 6153              	.LBB2496:
 6154              		.loc 2 324 0
 6155 177c 76EE666A 		vsub.f32	s13, s12, s13
 6156 1780 66EE876A 		vmul.f32	s13, s13, s14
ARM GAS  /tmp/ccJJl1OT.s 			page 109


 6157              	.LVL460:
 6158              		.loc 2 325 0
 6159 1784 BCEEE66A 		vcvt.u32.f32	s12, s13
 6160              	.LVL461:
 6161 1788 16EE10BA 		vmov	fp, s12	@ int
 6162              	.LVL462:
 6163              		.loc 2 329 0
 6164 178c BBF17F0F 		cmp	fp, #127
 6165              		.loc 2 330 0
 6166 1790 87BF     		ittee	hi
 6167 1792 0BF07F07 		andhi	r7, fp, #127
 6168 1796 C7F1800A 		rsbhi	r10, r7, #128
 6169              		.loc 2 327 0
 6170 179a 0BF10107 		addls	r7, fp, #1
 6171 179e DA46     		movls	r10, fp
 6172              	.LVL463:
 6173              		.loc 2 331 0
 6174 17a0 88BF     		it	hi
 6175 17a2 C7F17F07 		rsbhi	r7, r7, #127
 6176              	.LVL464:
 6177              	.LBE2496:
 6178              	.LBE2502:
 6179              		.loc 1 206 0
 6180 17a6 B8EE466A 		vcvt.f32.u32	s12, s12
 6181              	.LBB2503:
 6182              	.LBB2497:
 6183              		.loc 2 335 0
 6184 17aa 00EB8707 		add	r7, r0, r7, lsl #2
 6185              	.LVL465:
 6186 17ae 00EB8A0A 		add	r10, r0, r10, lsl #2
 6187              	.LVL466:
 6188 17b2 9AED005A 		vldr.32	s10, [r10]
 6189              	.LBE2497:
 6190              	.LBE2503:
 6191              		.loc 1 206 0
 6192 17b6 76EEC66A 		vsub.f32	s13, s13, s12
 6193              	.LVL467:
 6194 17ba 97ED006A 		vldr.32	s12, [r7]
 6195 17be 36EE456A 		vsub.f32	s12, s12, s10
 6196              	.LBB2504:
 6197              	.LBB2498:
 6198              		.loc 2 328 0
 6199 17c2 98BF     		it	ls
 6200 17c4 F7EE004A 		vmovls.f32	s9, #1.0e+0
 6201              	.LBE2498:
 6202              	.LBE2504:
 6203              		.loc 1 206 0
 6204 17c8 A6EE865A 		vfma.f32	s10, s13, s12
 6205              		.loc 1 208 0
 6206 17cc 9DED196A 		vldr.32	s12, [sp, #100]
 6207              	.LBB2505:
 6208              	.LBB2506:
 6209              		.loc 2 324 0
 6210 17d0 FCEEC66A 		vcvt.u32.f32	s13, s12
 6211              	.LBE2506:
 6212              	.LBE2505:
 6213              	.LBB2511:
ARM GAS  /tmp/ccJJl1OT.s 			page 110


 6214              	.LBB2499:
 6215              		.loc 2 332 0
 6216 17d4 88BF     		it	hi
 6217 17d6 FFEE004A 		vmovhi.f32	s9, #-1.0e+0
 6218              	.LVL468:
 6219              	.LBE2499:
 6220              	.LBE2511:
 6221              	.LBB2512:
 6222              	.LBB2507:
 6223              		.loc 2 324 0
 6224 17da F8EE666A 		vcvt.f32.u32	s13, s13
 6225              	.LBE2507:
 6226              	.LBE2512:
 6227              		.loc 1 206 0
 6228 17de E5EE247A 		vfma.f32	s15, s10, s9
 6229              	.LBB2513:
 6230              	.LBB2508:
 6231              		.loc 2 324 0
 6232 17e2 76EE666A 		vsub.f32	s13, s12, s13
 6233 17e6 66EE876A 		vmul.f32	s13, s13, s14
 6234              	.LVL469:
 6235              		.loc 2 325 0
 6236 17ea BCEEE66A 		vcvt.u32.f32	s12, s13
 6237              	.LVL470:
 6238 17ee 16EE10BA 		vmov	fp, s12	@ int
 6239              	.LVL471:
 6240              		.loc 2 329 0
 6241 17f2 BBF17F0F 		cmp	fp, #127
 6242              		.loc 2 330 0
 6243 17f6 86BF     		itte	hi
 6244 17f8 0BF07F07 		andhi	r7, fp, #127
 6245 17fc C7F1800A 		rsbhi	r10, r7, #128
 6246              		.loc 2 327 0
 6247 1800 DA46     		movls	r10, fp
 6248              	.LVL472:
 6249              	.LBE2508:
 6250              	.LBE2513:
 6251              		.loc 1 196 0
 6252 1802 B8EE466A 		vcvt.f32.u32	s12, s12
 6253              	.LBB2514:
 6254              	.LBB2509:
 6255              		.loc 2 335 0
 6256 1806 00EB8A0A 		add	r10, r0, r10, lsl #2
 6257              	.LVL473:
 6258              		.loc 2 327 0
 6259 180a 94BF     		ite	ls
 6260 180c 0BF10107 		addls	r7, fp, #1
 6261              		.loc 2 331 0
 6262 1810 C7F17F07 		rsbhi	r7, r7, #127
 6263              	.LVL474:
 6264              		.loc 2 335 0
 6265 1814 9AED005A 		vldr.32	s10, [r10]
 6266              	.LBE2509:
 6267              	.LBE2514:
 6268              		.loc 1 196 0
 6269 1818 76EEC66A 		vsub.f32	s13, s13, s12
 6270              	.LVL475:
ARM GAS  /tmp/ccJJl1OT.s 			page 111


 6271              	.LBB2515:
 6272              	.LBB2510:
 6273              		.loc 2 328 0
 6274 181c 94BF     		ite	ls
 6275 181e F7EE004A 		vmovls.f32	s9, #1.0e+0
 6276              		.loc 2 332 0
 6277 1822 FFEE004A 		vmovhi.f32	s9, #-1.0e+0
 6278              	.LVL476:
 6279              		.loc 2 335 0
 6280 1826 00EB8707 		add	r7, r0, r7, lsl #2
 6281              	.LVL477:
 6282              	.L402:
 6283              	.LBE2510:
 6284              	.LBE2515:
 6285              		.loc 1 196 0
 6286 182a 97ED006A 		vldr.32	s12, [r7]
 6287 182e 36EE456A 		vsub.f32	s12, s12, s10
 6288 1832 A6EE865A 		vfma.f32	s10, s13, s12
 6289 1836 E5EE247A 		vfma.f32	s15, s10, s9
 6290 183a 67EE837A 		vmul.f32	s15, s15, s6
 6291              	.LVL478:
 6292              	.LBB2516:
 6293              	.LBB2517:
 6294              	.LBB2518:
 6295              	.LBB2519:
 6296              	.LBB2520:
 6297              	.LBB2521:
 6298              		.loc 3 193 0
 6299 183e F4EEE57A 		vcmpe.f32	s15, s11
 6300 1842 F1EE10FA 		vmrs	APSR_nzcv, FPSCR
 6301 1846 09DB     		blt	.L397
 6302              	.LVL479:
 6303              	.LBE2521:
 6304              	.LBE2520:
 6305              	.LBB2523:
 6306              	.LBB2524:
 6307 1848 F7EE006A 		vmov.f32	s13, #1.0e+0
 6308              	.LBE2524:
 6309              	.LBE2523:
 6310              	.LBB2525:
 6311              	.LBB2522:
 6312 184c F4EEE67A 		vcmpe.f32	s15, s13
 6313 1850 F1EE10FA 		vmrs	APSR_nzcv, FPSCR
 6314 1854 A8BF     		it	ge
 6315 1856 F0EE667A 		vmovge.f32	s15, s13
 6316              	.LVL480:
 6317 185a 12E2     		b	.L232
 6318              	.LVL481:
 6319              	.L397:
 6320 185c FFEE007A 		vmov.f32	s15, #-1.0e+0
 6321              	.LVL482:
 6322 1860 0FE2     		b	.L232
 6323              	.LVL483:
 6324              	.L167:
 6325              	.LBE2522:
 6326              	.LBE2525:
 6327              	.LBE2519:
ARM GAS  /tmp/ccJJl1OT.s 			page 112


 6328              	.LBE2518:
 6329              	.LBE2517:
 6330              	.LBE2516:
 6331              		.loc 1 214 0
 6332 1862 DDED0E7A 		vldr.32	s15, [sp, #56]
 6333              	.LVL484:
 6334              		.loc 1 215 0
 6335 1866 9DED0F2A 		vldr.32	s4, [sp, #60]
 6336              	.LBB2526:
 6337              	.LBB2238:
 6338              		.loc 2 160 0
 6339 186a FCEEE74A 		vcvt.u32.f32	s9, s15
 6340 186e F8EE644A 		vcvt.f32.u32	s9, s9
 6341 1872 77EEE44A 		vsub.f32	s9, s15, s9
 6342 1876 64EEA34A 		vmul.f32	s9, s9, s7
 6343              	.LVL485:
 6344              		.loc 2 161 0
 6345 187a FCEEE47A 		vcvt.u32.f32	s15, s9
 6346              	.LVL486:
 6347 187e 17EE90BA 		vmov	fp, s15	@ int
 6348              	.LVL487:
 6349              		.loc 2 163 0
 6350 1882 0BF07F07 		and	r7, fp, #127
 6351              	.LVL488:
 6352              		.loc 2 166 0
 6353 1886 0EEB870A 		add	r10, lr, r7, lsl #2
 6354 188a 0137     		adds	r7, r7, #1
 6355              	.LVL489:
 6356              	.LBB2232:
 6357              	.LBB2233:
 6358              		.loc 3 826 0
 6359 188c F8EE677A 		vcvt.f32.u32	s15, s15
 6360              	.LBE2233:
 6361              	.LBE2232:
 6362              		.loc 2 166 0
 6363 1890 07F07F07 		and	r7, r7, #127
 6364              	.LVL490:
 6365 1894 0EEB8707 		add	r7, lr, r7, lsl #2
 6366              	.LVL491:
 6367 1898 DAED005A 		vldr.32	s11, [r10]
 6368              	.LVL492:
 6369              	.LBB2236:
 6370              	.LBB2234:
 6371              		.loc 3 826 0
 6372 189c 74EEE74A 		vsub.f32	s9, s9, s15
 6373              	.LVL493:
 6374 18a0 D7ED007A 		vldr.32	s15, [r7]
 6375 18a4 77EEE57A 		vsub.f32	s15, s15, s11
 6376              	.LBE2234:
 6377              	.LBE2236:
 6378              		.loc 2 167 0
 6379 18a8 BBF17F0F 		cmp	fp, #127
 6380              	.LBB2237:
 6381              	.LBB2235:
 6382              		.loc 3 826 0
 6383 18ac E4EEA75A 		vfma.f32	s11, s9, s15
 6384              	.LVL494:
ARM GAS  /tmp/ccJJl1OT.s 			page 113


 6385              	.LBE2235:
 6386              	.LBE2237:
 6387              	.LBE2238:
 6388              	.LBE2526:
 6389              	.LBB2527:
 6390              	.LBB2528:
 6391              		.loc 2 160 0
 6392 18b0 FCEEC24A 		vcvt.u32.f32	s9, s4
 6393              	.LBE2528:
 6394              	.LBE2527:
 6395              	.LBB2538:
 6396              	.LBB2239:
 6397              		.loc 2 167 0
 6398 18b4 88BF     		it	hi
 6399 18b6 F1EE655A 		vneghi.f32	s11, s11
 6400              	.LVL495:
 6401              	.LBE2239:
 6402              	.LBE2538:
 6403              	.LBB2539:
 6404              	.LBB2537:
 6405              		.loc 2 160 0
 6406 18ba F8EE644A 		vcvt.f32.u32	s9, s9
 6407 18be 72EE644A 		vsub.f32	s9, s4, s9
 6408 18c2 64EE874A 		vmul.f32	s9, s9, s14
 6409              	.LVL496:
 6410              		.loc 2 161 0
 6411 18c6 FCEEE47A 		vcvt.u32.f32	s15, s9
 6412 18ca 17EE90BA 		vmov	fp, s15	@ int
 6413              	.LVL497:
 6414              		.loc 2 163 0
 6415 18ce 0BF07F07 		and	r7, fp, #127
 6416              	.LVL498:
 6417              	.LBB2529:
 6418              	.LBB2530:
 6419              		.loc 3 826 0
 6420 18d2 06EE90BA 		vmov	s13, fp	@ int
 6421              	.LBE2530:
 6422              	.LBE2529:
 6423              		.loc 2 166 0
 6424 18d6 02EB870A 		add	r10, r2, r7, lsl #2
 6425 18da 0137     		adds	r7, r7, #1
 6426              	.LVL499:
 6427              	.LBB2534:
 6428              	.LBB2531:
 6429              		.loc 3 826 0
 6430 18dc F8EE666A 		vcvt.f32.u32	s13, s13
 6431              	.LBE2531:
 6432              	.LBE2534:
 6433              		.loc 2 166 0
 6434 18e0 07F07F07 		and	r7, r7, #127
 6435              	.LVL500:
 6436 18e4 02EB8707 		add	r7, r2, r7, lsl #2
 6437              	.LVL501:
 6438 18e8 DAED007A 		vldr.32	s15, [r10]
 6439              	.LVL502:
 6440              	.LBB2535:
 6441              	.LBB2532:
ARM GAS  /tmp/ccJJl1OT.s 			page 114


 6442              		.loc 3 826 0
 6443 18ec 74EEE64A 		vsub.f32	s9, s9, s13
 6444              	.LVL503:
 6445 18f0 D7ED006A 		vldr.32	s13, [r7]
 6446 18f4 76EEE76A 		vsub.f32	s13, s13, s15
 6447              	.LBE2532:
 6448              	.LBE2535:
 6449              		.loc 2 167 0
 6450 18f8 BBF17F0F 		cmp	fp, #127
 6451              	.LBB2536:
 6452              	.LBB2533:
 6453              		.loc 3 826 0
 6454 18fc E4EEA67A 		vfma.f32	s15, s9, s13
 6455              	.LVL504:
 6456              	.LBE2533:
 6457              	.LBE2536:
 6458              		.loc 2 167 0
 6459 1900 88BF     		it	hi
 6460 1902 F1EE677A 		vneghi.f32	s15, s15
 6461              	.LVL505:
 6462              	.LBE2537:
 6463              	.LBE2539:
 6464              		.loc 1 214 0
 6465 1906 37EEA55A 		vadd.f32	s10, s15, s11
 6466              		.loc 1 216 0
 6467 190a DDED107A 		vldr.32	s15, [sp, #64]
 6468              	.LVL506:
 6469              	.LBB2540:
 6470              	.LBB2541:
 6471              		.loc 2 160 0
 6472 190e BCEEE72A 		vcvt.u32.f32	s4, s15
 6473 1912 B8EE422A 		vcvt.f32.u32	s4, s4
 6474 1916 37EEC22A 		vsub.f32	s4, s15, s4
 6475 191a 22EE072A 		vmul.f32	s4, s4, s14
 6476              	.LVL507:
 6477              		.loc 2 161 0
 6478 191e FCEEC27A 		vcvt.u32.f32	s15, s4
 6479              	.LVL508:
 6480 1922 17EE90BA 		vmov	fp, s15	@ int
 6481              	.LVL509:
 6482              		.loc 2 163 0
 6483 1926 0BF07F07 		and	r7, fp, #127
 6484              	.LVL510:
 6485              	.LBB2542:
 6486              	.LBB2543:
 6487              		.loc 3 826 0
 6488 192a 06EE90BA 		vmov	s13, fp	@ int
 6489              	.LBE2543:
 6490              	.LBE2542:
 6491              		.loc 2 166 0
 6492 192e 02EB870A 		add	r10, r2, r7, lsl #2
 6493 1932 0137     		adds	r7, r7, #1
 6494              	.LVL511:
 6495              	.LBB2547:
 6496              	.LBB2544:
 6497              		.loc 3 826 0
 6498 1934 F8EE666A 		vcvt.f32.u32	s13, s13
ARM GAS  /tmp/ccJJl1OT.s 			page 115


 6499              	.LBE2544:
 6500              	.LBE2547:
 6501              		.loc 2 166 0
 6502 1938 07F07F07 		and	r7, r7, #127
 6503              	.LVL512:
 6504 193c 02EB8707 		add	r7, r2, r7, lsl #2
 6505              	.LVL513:
 6506 1940 DAED007A 		vldr.32	s15, [r10]
 6507              	.LVL514:
 6508              	.LBB2548:
 6509              	.LBB2545:
 6510              		.loc 3 826 0
 6511 1944 32EE662A 		vsub.f32	s4, s4, s13
 6512              	.LVL515:
 6513 1948 D7ED006A 		vldr.32	s13, [r7]
 6514 194c 76EEE76A 		vsub.f32	s13, s13, s15
 6515              	.LBE2545:
 6516              	.LBE2548:
 6517              		.loc 2 167 0
 6518 1950 BBF17F0F 		cmp	fp, #127
 6519              	.LBB2549:
 6520              	.LBB2546:
 6521              		.loc 3 826 0
 6522 1954 E2EE267A 		vfma.f32	s15, s4, s13
 6523              	.LVL516:
 6524              	.LBE2546:
 6525              	.LBE2549:
 6526              	.LBE2541:
 6527              	.LBE2540:
 6528              		.loc 1 218 0
 6529 1958 DDED126A 		vldr.32	s13, [sp, #72]
 6530              	.LBB2551:
 6531              	.LBB2550:
 6532              		.loc 2 167 0
 6533 195c 88BF     		it	hi
 6534 195e F1EE677A 		vneghi.f32	s15, s15
 6535              	.LVL517:
 6536              	.LBE2550:
 6537              	.LBE2551:
 6538              		.loc 1 215 0
 6539 1962 75EE275A 		vadd.f32	s11, s10, s15
 6540              		.loc 1 217 0
 6541 1966 DDED117A 		vldr.32	s15, [sp, #68]
 6542              	.LVL518:
 6543              	.LBB2552:
 6544              	.LBB2553:
 6545              		.loc 2 160 0
 6546 196a BCEEE72A 		vcvt.u32.f32	s4, s15
 6547 196e B8EE422A 		vcvt.f32.u32	s4, s4
 6548 1972 37EEC22A 		vsub.f32	s4, s15, s4
 6549 1976 22EE072A 		vmul.f32	s4, s4, s14
 6550              	.LVL519:
 6551              		.loc 2 161 0
 6552 197a FCEEC27A 		vcvt.u32.f32	s15, s4
 6553              	.LVL520:
 6554 197e 17EE90BA 		vmov	fp, s15	@ int
 6555              	.LVL521:
ARM GAS  /tmp/ccJJl1OT.s 			page 116


 6556              		.loc 2 163 0
 6557 1982 0BF07F07 		and	r7, fp, #127
 6558              	.LVL522:
 6559              		.loc 2 166 0
 6560 1986 02EB870A 		add	r10, r2, r7, lsl #2
 6561 198a 0137     		adds	r7, r7, #1
 6562              	.LVL523:
 6563              	.LBB2554:
 6564              	.LBB2555:
 6565              		.loc 3 826 0
 6566 198c F8EE677A 		vcvt.f32.u32	s15, s15
 6567              	.LBE2555:
 6568              	.LBE2554:
 6569              		.loc 2 166 0
 6570 1990 07F07F07 		and	r7, r7, #127
 6571              	.LVL524:
 6572 1994 02EB8707 		add	r7, r2, r7, lsl #2
 6573              	.LVL525:
 6574 1998 9AED006A 		vldr.32	s12, [r10]
 6575              	.LVL526:
 6576              	.LBB2558:
 6577              	.LBB2556:
 6578              		.loc 3 826 0
 6579 199c 32EE672A 		vsub.f32	s4, s4, s15
 6580              	.LVL527:
 6581 19a0 D7ED007A 		vldr.32	s15, [r7]
 6582 19a4 77EEC67A 		vsub.f32	s15, s15, s12
 6583              	.LBE2556:
 6584              	.LBE2558:
 6585              		.loc 2 167 0
 6586 19a8 BBF17F0F 		cmp	fp, #127
 6587              	.LBB2559:
 6588              	.LBB2557:
 6589              		.loc 3 826 0
 6590 19ac A2EE276A 		vfma.f32	s12, s4, s15
 6591              	.LVL528:
 6592              	.LBE2557:
 6593              	.LBE2559:
 6594              		.loc 2 167 0
 6595 19b0 88BF     		it	hi
 6596 19b2 B1EE466A 		vneghi.f32	s12, s12
 6597              	.LVL529:
 6598              	.LBE2553:
 6599              	.LBE2552:
 6600              		.loc 1 216 0
 6601 19b6 75EE867A 		vadd.f32	s15, s11, s12
 6602              	.LBB2560:
 6603              	.LBB2561:
 6604              		.loc 2 160 0
 6605 19ba FCEEE65A 		vcvt.u32.f32	s11, s13
 6606 19be F8EE655A 		vcvt.f32.u32	s11, s11
 6607 19c2 76EEE55A 		vsub.f32	s11, s13, s11
 6608 19c6 65EE875A 		vmul.f32	s11, s11, s14
 6609              	.LVL530:
 6610              		.loc 2 161 0
 6611 19ca FCEEE56A 		vcvt.u32.f32	s13, s11
 6612              	.LVL531:
ARM GAS  /tmp/ccJJl1OT.s 			page 117


 6613 19ce 16EE90BA 		vmov	fp, s13	@ int
 6614              	.LVL532:
 6615              		.loc 2 163 0
 6616 19d2 0BF07F07 		and	r7, fp, #127
 6617              	.LVL533:
 6618              	.LBB2562:
 6619              	.LBB2563:
 6620              		.loc 3 826 0
 6621 19d6 06EE10BA 		vmov	s12, fp	@ int
 6622              	.LBE2563:
 6623              	.LBE2562:
 6624              		.loc 2 166 0
 6625 19da 02EB870A 		add	r10, r2, r7, lsl #2
 6626 19de 0137     		adds	r7, r7, #1
 6627              	.LVL534:
 6628              	.LBB2567:
 6629              	.LBB2564:
 6630              		.loc 3 826 0
 6631 19e0 B8EE466A 		vcvt.f32.u32	s12, s12
 6632              	.LBE2564:
 6633              	.LBE2567:
 6634              		.loc 2 166 0
 6635 19e4 07F07F07 		and	r7, r7, #127
 6636              	.LVL535:
 6637 19e8 02EB8707 		add	r7, r2, r7, lsl #2
 6638              	.LVL536:
 6639 19ec DAED006A 		vldr.32	s13, [r10]
 6640              	.LVL537:
 6641              	.LBB2568:
 6642              	.LBB2565:
 6643              		.loc 3 826 0
 6644 19f0 75EEC65A 		vsub.f32	s11, s11, s12
 6645              	.LVL538:
 6646 19f4 97ED006A 		vldr.32	s12, [r7]
 6647 19f8 36EE666A 		vsub.f32	s12, s12, s13
 6648              	.LBE2565:
 6649              	.LBE2568:
 6650              		.loc 2 167 0
 6651 19fc BBF17F0F 		cmp	fp, #127
 6652              	.LBB2569:
 6653              	.LBB2566:
 6654              		.loc 3 826 0
 6655 1a00 E5EE866A 		vfma.f32	s13, s11, s12
 6656              	.LVL539:
 6657              	.LBE2566:
 6658              	.LBE2569:
 6659              		.loc 2 167 0
 6660 1a04 88BF     		it	hi
 6661 1a06 F1EE666A 		vneghi.f32	s13, s13
 6662              	.LVL540:
 6663              	.LBE2561:
 6664              	.LBE2560:
 6665              		.loc 1 217 0
 6666 1a0a 37EEA66A 		vadd.f32	s12, s15, s13
 6667              		.loc 1 219 0
 6668 1a0e DDED137A 		vldr.32	s15, [sp, #76]
 6669              	.LVL541:
ARM GAS  /tmp/ccJJl1OT.s 			page 118


 6670              	.LBB2570:
 6671              	.LBB2571:
 6672              		.loc 2 160 0
 6673 1a12 BCEEE72A 		vcvt.u32.f32	s4, s15
 6674 1a16 B8EE422A 		vcvt.f32.u32	s4, s4
 6675 1a1a 37EEC22A 		vsub.f32	s4, s15, s4
 6676 1a1e 22EE072A 		vmul.f32	s4, s4, s14
 6677              	.LVL542:
 6678              		.loc 2 161 0
 6679 1a22 FCEEC27A 		vcvt.u32.f32	s15, s4
 6680              	.LVL543:
 6681 1a26 17EE90BA 		vmov	fp, s15	@ int
 6682              	.LVL544:
 6683              		.loc 2 163 0
 6684 1a2a 0BF07F07 		and	r7, fp, #127
 6685              	.LVL545:
 6686              		.loc 2 166 0
 6687 1a2e 02EB870A 		add	r10, r2, r7, lsl #2
 6688 1a32 0137     		adds	r7, r7, #1
 6689              	.LVL546:
 6690              	.LBB2572:
 6691              	.LBB2573:
 6692              		.loc 3 826 0
 6693 1a34 F8EE677A 		vcvt.f32.u32	s15, s15
 6694              	.LBE2573:
 6695              	.LBE2572:
 6696              		.loc 2 166 0
 6697 1a38 07F07F07 		and	r7, r7, #127
 6698              	.LVL547:
 6699 1a3c 02EB8707 		add	r7, r2, r7, lsl #2
 6700              	.LVL548:
 6701 1a40 DAED004A 		vldr.32	s9, [r10]
 6702              	.LVL549:
 6703              	.LBB2576:
 6704              	.LBB2574:
 6705              		.loc 3 826 0
 6706 1a44 32EE672A 		vsub.f32	s4, s4, s15
 6707              	.LVL550:
 6708 1a48 D7ED007A 		vldr.32	s15, [r7]
 6709 1a4c 77EEE47A 		vsub.f32	s15, s15, s9
 6710              	.LBE2574:
 6711              	.LBE2576:
 6712              		.loc 2 167 0
 6713 1a50 BBF17F0F 		cmp	fp, #127
 6714              	.LBB2577:
 6715              	.LBB2575:
 6716              		.loc 3 826 0
 6717 1a54 E2EE274A 		vfma.f32	s9, s4, s15
 6718              	.LVL551:
 6719              	.LBE2575:
 6720              	.LBE2577:
 6721              	.LBE2571:
 6722              	.LBE2570:
 6723              		.loc 1 220 0
 6724 1a58 DDED147A 		vldr.32	s15, [sp, #80]
 6725              	.LBB2579:
 6726              	.LBB2580:
ARM GAS  /tmp/ccJJl1OT.s 			page 119


 6727              		.loc 2 160 0
 6728 1a5c BCEEE72A 		vcvt.u32.f32	s4, s15
 6729              	.LBE2580:
 6730              	.LBE2579:
 6731              	.LBB2590:
 6732              	.LBB2578:
 6733              		.loc 2 167 0
 6734 1a60 88BF     		it	hi
 6735 1a62 F1EE644A 		vneghi.f32	s9, s9
 6736              	.LVL552:
 6737              	.LBE2578:
 6738              	.LBE2590:
 6739              	.LBB2591:
 6740              	.LBB2587:
 6741              		.loc 2 160 0
 6742 1a66 B8EE422A 		vcvt.f32.u32	s4, s4
 6743              	.LBE2587:
 6744              	.LBE2591:
 6745              		.loc 1 218 0
 6746 1a6a 76EE246A 		vadd.f32	s13, s12, s9
 6747              	.LBB2592:
 6748              	.LBB2588:
 6749              		.loc 2 160 0
 6750 1a6e 37EEC22A 		vsub.f32	s4, s15, s4
 6751 1a72 22EE072A 		vmul.f32	s4, s4, s14
 6752              	.LVL553:
 6753              		.loc 2 161 0
 6754 1a76 FCEEC27A 		vcvt.u32.f32	s15, s4
 6755              	.LVL554:
 6756 1a7a 17EE90BA 		vmov	fp, s15	@ int
 6757              	.LVL555:
 6758              		.loc 2 163 0
 6759 1a7e 0BF07F07 		and	r7, fp, #127
 6760              	.LVL556:
 6761              		.loc 2 166 0
 6762 1a82 02EB870A 		add	r10, r2, r7, lsl #2
 6763 1a86 0137     		adds	r7, r7, #1
 6764              	.LVL557:
 6765              	.LBB2581:
 6766              	.LBB2582:
 6767              		.loc 3 826 0
 6768 1a88 F8EE677A 		vcvt.f32.u32	s15, s15
 6769              	.LBE2582:
 6770              	.LBE2581:
 6771              		.loc 2 166 0
 6772 1a8c 07F07F07 		and	r7, r7, #127
 6773              	.LVL558:
 6774 1a90 02EB8707 		add	r7, r2, r7, lsl #2
 6775              	.LVL559:
 6776 1a94 9AED005A 		vldr.32	s10, [r10]
 6777              	.LVL560:
 6778              	.LBB2585:
 6779              	.LBB2583:
 6780              		.loc 3 826 0
 6781 1a98 32EE672A 		vsub.f32	s4, s4, s15
 6782              	.LVL561:
 6783 1a9c D7ED007A 		vldr.32	s15, [r7]
ARM GAS  /tmp/ccJJl1OT.s 			page 120


 6784 1aa0 77EEC57A 		vsub.f32	s15, s15, s10
 6785              	.LBE2583:
 6786              	.LBE2585:
 6787              		.loc 2 167 0
 6788 1aa4 BBF17F0F 		cmp	fp, #127
 6789              	.LBB2586:
 6790              	.LBB2584:
 6791              		.loc 3 826 0
 6792 1aa8 A2EE275A 		vfma.f32	s10, s4, s15
 6793              	.LVL562:
 6794              	.LBE2584:
 6795              	.LBE2586:
 6796              	.LBE2588:
 6797              	.LBE2592:
 6798              		.loc 1 221 0
 6799 1aac DDED157A 		vldr.32	s15, [sp, #84]
 6800              	.LBB2593:
 6801              	.LBB2594:
 6802              		.loc 2 160 0
 6803 1ab0 BCEEE72A 		vcvt.u32.f32	s4, s15
 6804              	.LBE2594:
 6805              	.LBE2593:
 6806              	.LBB2606:
 6807              	.LBB2589:
 6808              		.loc 2 167 0
 6809 1ab4 88BF     		it	hi
 6810 1ab6 B1EE455A 		vneghi.f32	s10, s10
 6811              	.LVL563:
 6812              	.LBE2589:
 6813              	.LBE2606:
 6814              	.LBB2607:
 6815              	.LBB2603:
 6816              		.loc 2 160 0
 6817 1aba B8EE422A 		vcvt.f32.u32	s4, s4
 6818              	.LBE2603:
 6819              	.LBE2607:
 6820              		.loc 1 219 0
 6821 1abe 76EE854A 		vadd.f32	s9, s13, s10
 6822              	.LBB2608:
 6823              	.LBB2604:
 6824              		.loc 2 160 0
 6825 1ac2 37EEC22A 		vsub.f32	s4, s15, s4
 6826 1ac6 22EE072A 		vmul.f32	s4, s4, s14
 6827              	.LVL564:
 6828              		.loc 2 161 0
 6829 1aca FCEEC27A 		vcvt.u32.f32	s15, s4
 6830              	.LVL565:
 6831 1ace 17EE90BA 		vmov	fp, s15	@ int
 6832              	.LVL566:
 6833              		.loc 2 163 0
 6834 1ad2 0BF07F07 		and	r7, fp, #127
 6835              	.LVL567:
 6836              	.LBB2595:
 6837              	.LBB2596:
 6838              		.loc 3 826 0
 6839 1ad6 06EE90BA 		vmov	s13, fp	@ int
 6840              	.LBE2596:
ARM GAS  /tmp/ccJJl1OT.s 			page 121


 6841              	.LBE2595:
 6842              		.loc 2 166 0
 6843 1ada 02EB870A 		add	r10, r2, r7, lsl #2
 6844 1ade 0137     		adds	r7, r7, #1
 6845              	.LVL568:
 6846              	.LBB2600:
 6847              	.LBB2597:
 6848              		.loc 3 826 0
 6849 1ae0 F8EE666A 		vcvt.f32.u32	s13, s13
 6850              	.LBE2597:
 6851              	.LBE2600:
 6852              		.loc 2 166 0
 6853 1ae4 07F07F07 		and	r7, r7, #127
 6854              	.LVL569:
 6855 1ae8 02EB8707 		add	r7, r2, r7, lsl #2
 6856              	.LVL570:
 6857 1aec DAED007A 		vldr.32	s15, [r10]
 6858              	.LVL571:
 6859              	.LBB2601:
 6860              	.LBB2598:
 6861              		.loc 3 826 0
 6862 1af0 32EE662A 		vsub.f32	s4, s4, s13
 6863              	.LVL572:
 6864 1af4 D7ED006A 		vldr.32	s13, [r7]
 6865 1af8 76EEE76A 		vsub.f32	s13, s13, s15
 6866              	.LBE2598:
 6867              	.LBE2601:
 6868              		.loc 2 167 0
 6869 1afc BBF17F0F 		cmp	fp, #127
 6870              	.LBB2602:
 6871              	.LBB2599:
 6872              		.loc 3 826 0
 6873 1b00 E2EE267A 		vfma.f32	s15, s4, s13
 6874              	.LVL573:
 6875              	.LBE2599:
 6876              	.LBE2602:
 6877              	.LBE2604:
 6878              	.LBE2608:
 6879              		.loc 1 223 0
 6880 1b04 DDED176A 		vldr.32	s13, [sp, #92]
 6881              	.LBB2609:
 6882              	.LBB2605:
 6883              		.loc 2 167 0
 6884 1b08 88BF     		it	hi
 6885 1b0a F1EE677A 		vneghi.f32	s15, s15
 6886              	.LVL574:
 6887              	.LBE2605:
 6888              	.LBE2609:
 6889              		.loc 1 220 0
 6890 1b0e 34EEA75A 		vadd.f32	s10, s9, s15
 6891              		.loc 1 222 0
 6892 1b12 DDED167A 		vldr.32	s15, [sp, #88]
 6893              	.LVL575:
 6894              	.LBB2610:
 6895              	.LBB2611:
 6896              		.loc 2 160 0
 6897 1b16 FCEEE74A 		vcvt.u32.f32	s9, s15
ARM GAS  /tmp/ccJJl1OT.s 			page 122


 6898 1b1a F8EE644A 		vcvt.f32.u32	s9, s9
 6899 1b1e 77EEE44A 		vsub.f32	s9, s15, s9
 6900 1b22 64EE874A 		vmul.f32	s9, s9, s14
 6901              	.LVL576:
 6902              		.loc 2 161 0
 6903 1b26 FCEEE47A 		vcvt.u32.f32	s15, s9
 6904              	.LVL577:
 6905 1b2a 17EE90BA 		vmov	fp, s15	@ int
 6906              	.LVL578:
 6907              		.loc 2 163 0
 6908 1b2e 0BF07F07 		and	r7, fp, #127
 6909              	.LVL579:
 6910              		.loc 2 166 0
 6911 1b32 02EB870A 		add	r10, r2, r7, lsl #2
 6912 1b36 0137     		adds	r7, r7, #1
 6913              	.LVL580:
 6914              	.LBB2612:
 6915              	.LBB2613:
 6916              		.loc 3 826 0
 6917 1b38 F8EE677A 		vcvt.f32.u32	s15, s15
 6918              	.LBE2613:
 6919              	.LBE2612:
 6920              		.loc 2 166 0
 6921 1b3c 07F07F07 		and	r7, r7, #127
 6922              	.LVL581:
 6923 1b40 02EB8707 		add	r7, r2, r7, lsl #2
 6924              	.LVL582:
 6925 1b44 DAED005A 		vldr.32	s11, [r10]
 6926              	.LVL583:
 6927              	.LBB2616:
 6928              	.LBB2614:
 6929              		.loc 3 826 0
 6930 1b48 74EEE74A 		vsub.f32	s9, s9, s15
 6931              	.LVL584:
 6932 1b4c D7ED007A 		vldr.32	s15, [r7]
 6933 1b50 77EEE57A 		vsub.f32	s15, s15, s11
 6934              	.LBE2614:
 6935              	.LBE2616:
 6936              		.loc 2 167 0
 6937 1b54 BBF17F0F 		cmp	fp, #127
 6938              	.LBB2617:
 6939              	.LBB2615:
 6940              		.loc 3 826 0
 6941 1b58 E4EEA75A 		vfma.f32	s11, s9, s15
 6942              	.LVL585:
 6943              	.LBE2615:
 6944              	.LBE2617:
 6945              		.loc 2 167 0
 6946 1b5c 88BF     		it	hi
 6947 1b5e F1EE655A 		vneghi.f32	s11, s11
 6948              	.LVL586:
 6949              	.LBE2611:
 6950              	.LBE2610:
 6951              		.loc 1 221 0
 6952 1b62 75EE257A 		vadd.f32	s15, s10, s11
 6953              	.LBB2618:
 6954              	.LBB2619:
ARM GAS  /tmp/ccJJl1OT.s 			page 123


 6955              		.loc 2 160 0
 6956 1b66 BCEEE65A 		vcvt.u32.f32	s10, s13
 6957 1b6a B8EE455A 		vcvt.f32.u32	s10, s10
 6958 1b6e 36EEC55A 		vsub.f32	s10, s13, s10
 6959 1b72 25EE075A 		vmul.f32	s10, s10, s14
 6960              	.LVL587:
 6961              		.loc 2 161 0
 6962 1b76 FCEEC56A 		vcvt.u32.f32	s13, s10
 6963              	.LVL588:
 6964 1b7a 16EE90BA 		vmov	fp, s13	@ int
 6965              	.LVL589:
 6966              		.loc 2 163 0
 6967 1b7e 0BF07F07 		and	r7, fp, #127
 6968              	.LVL590:
 6969              		.loc 2 166 0
 6970 1b82 02EB870A 		add	r10, r2, r7, lsl #2
 6971 1b86 0137     		adds	r7, r7, #1
 6972              	.LVL591:
 6973              	.LBB2620:
 6974              	.LBB2621:
 6975              		.loc 3 826 0
 6976 1b88 F8EE666A 		vcvt.f32.u32	s13, s13
 6977              	.LBE2621:
 6978              	.LBE2620:
 6979              		.loc 2 166 0
 6980 1b8c 07F07F07 		and	r7, r7, #127
 6981              	.LVL592:
 6982 1b90 02EB8707 		add	r7, r2, r7, lsl #2
 6983              	.LVL593:
 6984 1b94 9AED006A 		vldr.32	s12, [r10]
 6985              	.LVL594:
 6986              	.LBB2624:
 6987              	.LBB2622:
 6988              		.loc 3 826 0
 6989 1b98 35EE665A 		vsub.f32	s10, s10, s13
 6990              	.LVL595:
 6991 1b9c D7ED006A 		vldr.32	s13, [r7]
 6992 1ba0 76EEC66A 		vsub.f32	s13, s13, s12
 6993              	.LBE2622:
 6994              	.LBE2624:
 6995              		.loc 2 167 0
 6996 1ba4 BBF17F0F 		cmp	fp, #127
 6997              	.LBB2625:
 6998              	.LBB2623:
 6999              		.loc 3 826 0
 7000 1ba8 A5EE266A 		vfma.f32	s12, s10, s13
 7001              	.LVL596:
 7002              	.LBE2623:
 7003              	.LBE2625:
 7004              		.loc 2 167 0
 7005 1bac 88BF     		it	hi
 7006 1bae B1EE466A 		vneghi.f32	s12, s12
 7007              	.LVL597:
 7008              	.LBE2619:
 7009              	.LBE2618:
 7010              		.loc 1 222 0
 7011 1bb2 77EE865A 		vadd.f32	s11, s15, s12
ARM GAS  /tmp/ccJJl1OT.s 			page 124


 7012              		.loc 1 224 0
 7013 1bb6 DDED187A 		vldr.32	s15, [sp, #96]
 7014              	.LVL598:
 7015              	.LBB2626:
 7016              	.LBB2627:
 7017              		.loc 2 160 0
 7018 1bba BCEEE75A 		vcvt.u32.f32	s10, s15
 7019 1bbe B8EE455A 		vcvt.f32.u32	s10, s10
 7020 1bc2 37EEC55A 		vsub.f32	s10, s15, s10
 7021 1bc6 25EE075A 		vmul.f32	s10, s10, s14
 7022              	.LVL599:
 7023              		.loc 2 161 0
 7024 1bca FCEEC57A 		vcvt.u32.f32	s15, s10
 7025              	.LVL600:
 7026 1bce 17EE90BA 		vmov	fp, s15	@ int
 7027              	.LVL601:
 7028              		.loc 2 163 0
 7029 1bd2 0BF07F07 		and	r7, fp, #127
 7030              	.LVL602:
 7031              		.loc 2 166 0
 7032 1bd6 02EB870A 		add	r10, r2, r7, lsl #2
 7033 1bda 0137     		adds	r7, r7, #1
 7034              	.LVL603:
 7035              	.LBB2628:
 7036              	.LBB2629:
 7037              		.loc 3 826 0
 7038 1bdc F8EE677A 		vcvt.f32.u32	s15, s15
 7039              	.LBE2629:
 7040              	.LBE2628:
 7041              		.loc 2 166 0
 7042 1be0 07F07F07 		and	r7, r7, #127
 7043              	.LVL604:
 7044 1be4 02EB8707 		add	r7, r2, r7, lsl #2
 7045              	.LVL605:
 7046 1be8 DAED006A 		vldr.32	s13, [r10]
 7047              	.LVL606:
 7048              	.LBB2632:
 7049              	.LBB2630:
 7050              		.loc 3 826 0
 7051 1bec 35EE675A 		vsub.f32	s10, s10, s15
 7052              	.LVL607:
 7053 1bf0 D7ED007A 		vldr.32	s15, [r7]
 7054 1bf4 77EEE67A 		vsub.f32	s15, s15, s13
 7055              	.LBE2630:
 7056              	.LBE2632:
 7057              		.loc 2 167 0
 7058 1bf8 BBF17F0F 		cmp	fp, #127
 7059              	.LBB2633:
 7060              	.LBB2631:
 7061              		.loc 3 826 0
 7062 1bfc E5EE276A 		vfma.f32	s13, s10, s15
 7063              	.LVL608:
 7064              	.LBE2631:
 7065              	.LBE2633:
 7066              	.LBE2627:
 7067              	.LBE2626:
 7068              		.loc 1 225 0
ARM GAS  /tmp/ccJJl1OT.s 			page 125


 7069 1c00 DDED197A 		vldr.32	s15, [sp, #100]
 7070              	.LBB2635:
 7071              	.LBB2634:
 7072              		.loc 2 167 0
 7073 1c04 88BF     		it	hi
 7074 1c06 F1EE666A 		vneghi.f32	s13, s13
 7075              	.LVL609:
 7076              	.LBE2634:
 7077              	.LBE2635:
 7078              		.loc 1 223 0
 7079 1c0a 35EEA66A 		vadd.f32	s12, s11, s13
 7080              	.LBB2636:
 7081              	.LBB2637:
 7082              		.loc 2 160 0
 7083 1c0e FCEEE75A 		vcvt.u32.f32	s11, s15
 7084 1c12 F8EE655A 		vcvt.f32.u32	s11, s11
 7085 1c16 77EEE55A 		vsub.f32	s11, s15, s11
 7086 1c1a 65EE875A 		vmul.f32	s11, s11, s14
 7087              	.LVL610:
 7088              		.loc 2 161 0
 7089 1c1e FCEEE57A 		vcvt.u32.f32	s15, s11
 7090              	.LVL611:
 7091 1c22 17EE90BA 		vmov	fp, s15	@ int
 7092              	.LVL612:
 7093              		.loc 2 163 0
 7094 1c26 0BF07F07 		and	r7, fp, #127
 7095              	.LVL613:
 7096              		.loc 2 166 0
 7097 1c2a 02EB870A 		add	r10, r2, r7, lsl #2
 7098 1c2e 0137     		adds	r7, r7, #1
 7099              	.LVL614:
 7100              	.LBB2638:
 7101              	.LBB2639:
 7102              		.loc 3 826 0
 7103 1c30 F8EE677A 		vcvt.f32.u32	s15, s15
 7104              	.LBE2639:
 7105              	.LBE2638:
 7106              		.loc 2 166 0
 7107 1c34 07F07F07 		and	r7, r7, #127
 7108              	.LVL615:
 7109 1c38 02EB8707 		add	r7, r2, r7, lsl #2
 7110              	.LVL616:
 7111 1c3c DAED006A 		vldr.32	s13, [r10]
 7112              	.LVL617:
 7113              	.LBB2642:
 7114              	.LBB2640:
 7115              		.loc 3 826 0
 7116 1c40 75EEE75A 		vsub.f32	s11, s11, s15
 7117              	.LVL618:
 7118 1c44 D7ED007A 		vldr.32	s15, [r7]
 7119 1c48 77EEE67A 		vsub.f32	s15, s15, s13
 7120              	.LBE2640:
 7121              	.LBE2642:
 7122              		.loc 2 167 0
 7123 1c4c BBF17F0F 		cmp	fp, #127
 7124              	.LBB2643:
 7125              	.LBB2641:
ARM GAS  /tmp/ccJJl1OT.s 			page 126


 7126              		.loc 3 826 0
 7127 1c50 E5EEA76A 		vfma.f32	s13, s11, s15
 7128              	.LVL619:
 7129              	.LBE2641:
 7130              	.LBE2643:
 7131              	.LBE2637:
 7132              	.LBE2636:
 7133              	.LBB2645:
 7134              	.LBB2646:
 7135              	.LBB2647:
 7136              	.LBB2648:
 7137              	.LBB2649:
 7138              	.LBB2650:
 7139              		.loc 3 193 0
 7140 1c54 FFEE007A 		vmov.f32	s15, #-1.0e+0
 7141              	.LBE2650:
 7142              	.LBE2649:
 7143              	.LBE2648:
 7144              	.LBE2647:
 7145              	.LBE2646:
 7146              	.LBE2645:
 7147              	.LBB2660:
 7148              	.LBB2644:
 7149              		.loc 2 167 0
 7150 1c58 88BF     		it	hi
 7151 1c5a F1EE666A 		vneghi.f32	s13, s13
 7152              	.LVL620:
 7153              	.LBE2644:
 7154              	.LBE2660:
 7155              		.loc 1 213 0
 7156 1c5e 76EE266A 		vadd.f32	s13, s12, s13
 7157 1c62 66EE836A 		vmul.f32	s13, s13, s6
 7158              	.LVL621:
 7159              	.LBB2661:
 7160              	.LBB2659:
 7161              	.LBB2658:
 7162              	.LBB2657:
 7163              	.LBB2653:
 7164              	.LBB2651:
 7165              		.loc 3 193 0
 7166 1c66 F4EEE76A 		vcmpe.f32	s13, s15
 7167 1c6a F1EE10FA 		vmrs	APSR_nzcv, FPSCR
 7168 1c6e 08DB     		blt	.L232
 7169              	.LVL622:
 7170              	.LBE2651:
 7171              	.LBE2653:
 7172              	.LBB2654:
 7173              	.LBB2655:
 7174 1c70 F7EE007A 		vmov.f32	s15, #1.0e+0
 7175              	.LBE2655:
 7176              	.LBE2654:
 7177              	.LBB2656:
 7178              	.LBB2652:
 7179 1c74 F4EEE76A 		vcmpe.f32	s13, s15
 7180 1c78 F1EE10FA 		vmrs	APSR_nzcv, FPSCR
 7181 1c7c B8BF     		it	lt
 7182 1c7e F0EE667A 		vmovlt.f32	s15, s13
ARM GAS  /tmp/ccJJl1OT.s 			page 127


 7183              	.LVL623:
 7184              	.L232:
 7185              	.LBE2652:
 7186              	.LBE2656:
 7187              	.LBE2657:
 7188              	.LBE2658:
 7189              		.loc 2 674 0
 7190 1c82 67EEA76A 		vmul.f32	s13, s15, s15
 7191 1c86 9FED186A 		vldr.32	s12, .L413
 7192 1c8a 67EEE66A 		vnmul.f32	s13, s15, s13
 7193 1c8e E6EE867A 		vfma.f32	s15, s13, s12
 7194              	.L163:
 7195              	.LVL624:
 7196 1c92 0DF1080A 		add	r10, sp, #8
 7197 1c96 0DF1680B 		add	fp, sp, #104
 7198              	.LBE2659:
 7199              	.LBE2661:
 7200              		.loc 1 229 0
 7201 1c9a F0EE676A 		vmov.f32	s13, s15
 7202 1c9e FEEEE06A 		vcvt.s32.f32	s13, s13, #31
 7203 1ca2 3746     		mov	r7, r6
 7204 1ca4 E1EC016A 		vstmia.32	r1!, {s13}	@ int
 7205              	.LVL625:
 7206              	.L234:
 7207              	.LBB2662:
 7208              		.loc 1 231 0 discriminator 2
 7209 1ca8 97ED006A 		vldr.32	s12, [r7]
 7210 1cac FAEC016A 		vldmia.32	r10!, {s13}
 7211 1cb0 76EE866A 		vadd.f32	s13, s13, s12
 7212              		.loc 1 232 0 discriminator 2
 7213 1cb4 BCEEE66A 		vcvt.u32.f32	s12, s13
 7214 1cb8 B8EE466A 		vcvt.f32.u32	s12, s12
 7215 1cbc 76EEC66A 		vsub.f32	s13, s13, s12
 7216 1cc0 E7EC016A 		vstmia.32	r7!, {s13}
 7217              		.loc 1 230 0 discriminator 2
 7218 1cc4 BB45     		cmp	fp, r7
 7219 1cc6 EFD1     		bne	.L234
 7220              	.LBE2662:
 7221              		.loc 1 234 0
 7222 1cc8 34EE224A 		vadd.f32	s8, s8, s5
 7223              	.LVL626:
 7224              	.LBE2663:
 7225              		.loc 1 176 0
 7226 1ccc FFF7D0B8 		b	.L235
 7227              	.LVL627:
 7228              	.L391:
 7229              	.LBE2664:
 7230              	.LBB2665:
 7231              		.loc 1 237 0 discriminator 2
 7232 1cd0 56F8042B 		ldr	r2, [r6], #4	@ float
 7233 1cd4 45F8042B 		str	r2, [r5], #4	@ float
 7234              	.LVL628:
 7235              		.loc 1 236 0 discriminator 2
 7236 1cd8 A945     		cmp	r9, r5
 7237 1cda F9D1     		bne	.L391
 7238              	.LBE2665:
 7239              		.loc 1 239 0
ARM GAS  /tmp/ccJJl1OT.s 			page 128


 7240 1cdc 83ED014A 		vstr.32	s8, [r3, #4]
 7241              		.loc 1 240 0
 7242 1ce0 1BB0     		add	sp, sp, #108
 7243              		.cfi_def_cfa_offset 36
 7244              		@ sp needed
 7245 1ce2 BDE8F08F 		pop	{r4, r5, r6, r7, r8, r9, r10, fp, pc}
 7246              	.LVL629:
 7247              	.L414:
 7248 1ce6 00BF     		.align	2
 7249              	.L413:
 7250 1ce8 CDCC4C3D 		.word	1028443341
 7251              		.cfi_endproc
 7252              	.LFE240:
 7253              		.size	_hook_cycle, .-_hook_cycle
 7254              		.align	1
 7255              		.global	_hook_on
 7256              		.thumb
 7257              		.thumb_func
 7258              		.type	_hook_on, %function
 7259              	_hook_on:
 7260              	.LFB245:
 7261              		.cfi_startproc
 7262              		@ args = 0, pretend = 0, frame = 0
 7263              		@ frame_needed = 0, uses_anonymous_args = 0
 7264              		@ link register save eliminated.
 7265 1cec 7047     		bx	lr
 7266              		.cfi_endproc
 7267              	.LFE245:
 7268              		.size	_hook_on, .-_hook_on
 7269              		.align	1
 7270              		.global	_hook_off
 7271              		.thumb
 7272              		.thumb_func
 7273              		.type	_hook_off, %function
 7274              	_hook_off:
 7275              	.LFB242:
 7276              		.loc 1 248 0
 7277              		.cfi_startproc
 7278              		@ args = 0, pretend = 0, frame = 0
 7279              		@ frame_needed = 0, uses_anonymous_args = 0
 7280              		@ link register save eliminated.
 7281              	.LVL630:
 7282 1cee 7047     		bx	lr
 7283              		.cfi_endproc
 7284              	.LFE242:
